(dp0
S'CheckJobStatus'
p1
(dp2
S'Report'
p3
(dp4
S'Files'
p5
(dp6
S'/store/cmst3/user/manzoni/CMG/SUSYBBHToTauTau_M-1000_8TeV-pythia6-tauola/Summer12_DR53X-PU_S10_START53_V7A-v1/AODSIM/PAT_CMG_V5_16_0/HTT_24Jul_newTES_manzoni_Up/diTau_fullsel_tree_CMG_11.root'
p7
(I01
I13198
tp8
sS'/store/cmst3/user/manzoni/CMG/SUSYBBHToTauTau_M-1000_8TeV-pythia6-tauola/Summer12_DR53X-PU_S10_START53_V7A-v1/AODSIM/PAT_CMG_V5_16_0/HTT_24Jul_newTES_manzoni_Up/diTau_fullsel_tree_CMG_22.root'
p9
(I01
I13161
tp10
sS'/store/cmst3/user/manzoni/CMG/SUSYBBHToTauTau_M-1000_8TeV-pythia6-tauola/Summer12_DR53X-PU_S10_START53_V7A-v1/AODSIM/PAT_CMG_V5_16_0/HTT_24Jul_newTES_manzoni_Up/diTau_fullsel_tree_CMG_1.root'
p11
(I01
I9488
tp12
sS'/store/cmst3/user/manzoni/CMG/SUSYBBHToTauTau_M-1000_8TeV-pythia6-tauola/Summer12_DR53X-PU_S10_START53_V7A-v1/AODSIM/PAT_CMG_V5_16_0/HTT_24Jul_newTES_manzoni_Up/diTau_fullsel_tree_CMG_34.root'
p13
(I01
I4477
tp14
sS'/store/cmst3/user/manzoni/CMG/SUSYBBHToTauTau_M-1000_8TeV-pythia6-tauola/Summer12_DR53X-PU_S10_START53_V7A-v1/AODSIM/PAT_CMG_V5_16_0/HTT_24Jul_newTES_manzoni_Up/diTau_fullsel_tree_CMG_19.root'
p15
(I01
I13049
tp16
sS'/store/cmst3/user/manzoni/CMG/SUSYBBHToTauTau_M-1000_8TeV-pythia6-tauola/Summer12_DR53X-PU_S10_START53_V7A-v1/AODSIM/PAT_CMG_V5_16_0/HTT_24Jul_newTES_manzoni_Up/diTau_fullsel_tree_CMG_6.root'
p17
(I01
I13279
tp18
sS'/store/cmst3/user/manzoni/CMG/SUSYBBHToTauTau_M-1000_8TeV-pythia6-tauola/Summer12_DR53X-PU_S10_START53_V7A-v1/AODSIM/PAT_CMG_V5_16_0/HTT_24Jul_newTES_manzoni_Up/diTau_fullsel_tree_CMG_5.root'
p19
(I01
I13219
tp20
sS'/store/cmst3/user/manzoni/CMG/SUSYBBHToTauTau_M-1000_8TeV-pythia6-tauola/Summer12_DR53X-PU_S10_START53_V7A-v1/AODSIM/PAT_CMG_V5_16_0/HTT_24Jul_newTES_manzoni_Up/diTau_fullsel_tree_CMG_12.root'
p21
(I01
I13199
tp22
sS'/store/cmst3/user/manzoni/CMG/SUSYBBHToTauTau_M-1000_8TeV-pythia6-tauola/Summer12_DR53X-PU_S10_START53_V7A-v1/AODSIM/PAT_CMG_V5_16_0/HTT_24Jul_newTES_manzoni_Up/diTau_fullsel_tree_CMG_23.root'
p23
(I01
I13366
tp24
sS'/store/cmst3/user/manzoni/CMG/SUSYBBHToTauTau_M-1000_8TeV-pythia6-tauola/Summer12_DR53X-PU_S10_START53_V7A-v1/AODSIM/PAT_CMG_V5_16_0/HTT_24Jul_newTES_manzoni_Up/diTau_fullsel_tree_CMG_16.root'
p25
(I01
I13152
tp26
sS'/store/cmst3/user/manzoni/CMG/SUSYBBHToTauTau_M-1000_8TeV-pythia6-tauola/Summer12_DR53X-PU_S10_START53_V7A-v1/AODSIM/PAT_CMG_V5_16_0/HTT_24Jul_newTES_manzoni_Up/diTau_fullsel_tree_CMG_3.root'
p27
(I01
I13179
tp28
sS'/store/cmst3/user/manzoni/CMG/SUSYBBHToTauTau_M-1000_8TeV-pythia6-tauola/Summer12_DR53X-PU_S10_START53_V7A-v1/AODSIM/PAT_CMG_V5_16_0/HTT_24Jul_newTES_manzoni_Up/diTau_fullsel_tree_CMG_8.root'
p29
(I01
I13281
tp30
sS'/store/cmst3/user/manzoni/CMG/SUSYBBHToTauTau_M-1000_8TeV-pythia6-tauola/Summer12_DR53X-PU_S10_START53_V7A-v1/AODSIM/PAT_CMG_V5_16_0/HTT_24Jul_newTES_manzoni_Up/diTau_fullsel_tree_CMG_10.root'
p31
(I01
I13080
tp32
sS'/store/cmst3/user/manzoni/CMG/SUSYBBHToTauTau_M-1000_8TeV-pythia6-tauola/Summer12_DR53X-PU_S10_START53_V7A-v1/AODSIM/PAT_CMG_V5_16_0/HTT_24Jul_newTES_manzoni_Up/diTau_fullsel_tree_CMG_25.root'
p33
(I01
I13172
tp34
sS'/store/cmst3/user/manzoni/CMG/SUSYBBHToTauTau_M-1000_8TeV-pythia6-tauola/Summer12_DR53X-PU_S10_START53_V7A-v1/AODSIM/PAT_CMG_V5_16_0/HTT_24Jul_newTES_manzoni_Up/diTau_fullsel_tree_CMG_33.root'
p35
(I01
I11687
tp36
sS'/store/cmst3/user/manzoni/CMG/SUSYBBHToTauTau_M-1000_8TeV-pythia6-tauola/Summer12_DR53X-PU_S10_START53_V7A-v1/AODSIM/PAT_CMG_V5_16_0/HTT_24Jul_newTES_manzoni_Up/diTau_fullsel_tree_CMG_21.root'
p37
(I01
I13161
tp38
sS'/store/cmst3/user/manzoni/CMG/SUSYBBHToTauTau_M-1000_8TeV-pythia6-tauola/Summer12_DR53X-PU_S10_START53_V7A-v1/AODSIM/PAT_CMG_V5_16_0/HTT_24Jul_newTES_manzoni_Up/diTau_fullsel_tree_CMG_13.root'
p39
(I01
I13260
tp40
sS'/store/cmst3/user/manzoni/CMG/SUSYBBHToTauTau_M-1000_8TeV-pythia6-tauola/Summer12_DR53X-PU_S10_START53_V7A-v1/AODSIM/PAT_CMG_V5_16_0/HTT_24Jul_newTES_manzoni_Up/diTau_fullsel_tree_CMG_7.root'
p41
(I01
I13192
tp42
sS'/store/cmst3/user/manzoni/CMG/SUSYBBHToTauTau_M-1000_8TeV-pythia6-tauola/Summer12_DR53X-PU_S10_START53_V7A-v1/AODSIM/PAT_CMG_V5_16_0/HTT_24Jul_newTES_manzoni_Up/diTau_fullsel_tree_CMG_28.root'
p43
(I01
I13063
tp44
sS'/store/cmst3/user/manzoni/CMG/SUSYBBHToTauTau_M-1000_8TeV-pythia6-tauola/Summer12_DR53X-PU_S10_START53_V7A-v1/AODSIM/PAT_CMG_V5_16_0/HTT_24Jul_newTES_manzoni_Up/diTau_fullsel_tree_CMG_31.root'
p45
(I01
I13350
tp46
sS'/store/cmst3/user/manzoni/CMG/SUSYBBHToTauTau_M-1000_8TeV-pythia6-tauola/Summer12_DR53X-PU_S10_START53_V7A-v1/AODSIM/PAT_CMG_V5_16_0/HTT_24Jul_newTES_manzoni_Up/diTau_fullsel_tree_CMG_4.root'
p47
(I01
I13190
tp48
sS'/store/cmst3/user/manzoni/CMG/SUSYBBHToTauTau_M-1000_8TeV-pythia6-tauola/Summer12_DR53X-PU_S10_START53_V7A-v1/AODSIM/PAT_CMG_V5_16_0/HTT_24Jul_newTES_manzoni_Up/diTau_fullsel_tree_CMG_27.root'
p49
(I01
I13200
tp50
sS'/store/cmst3/user/manzoni/CMG/SUSYBBHToTauTau_M-1000_8TeV-pythia6-tauola/Summer12_DR53X-PU_S10_START53_V7A-v1/AODSIM/PAT_CMG_V5_16_0/HTT_24Jul_newTES_manzoni_Up/diTau_fullsel_tree_CMG_20.root'
p51
(I01
I13214
tp52
sS'/store/cmst3/user/manzoni/CMG/SUSYBBHToTauTau_M-1000_8TeV-pythia6-tauola/Summer12_DR53X-PU_S10_START53_V7A-v1/AODSIM/PAT_CMG_V5_16_0/HTT_24Jul_newTES_manzoni_Up/diTau_fullsel_tree_CMG_9.root'
p53
(I01
I13380
tp54
sS'/store/cmst3/user/manzoni/CMG/SUSYBBHToTauTau_M-1000_8TeV-pythia6-tauola/Summer12_DR53X-PU_S10_START53_V7A-v1/AODSIM/PAT_CMG_V5_16_0/HTT_24Jul_newTES_manzoni_Up/diTau_fullsel_tree_CMG_14.root'
p55
(I01
I13146
tp56
sS'/store/cmst3/user/manzoni/CMG/SUSYBBHToTauTau_M-1000_8TeV-pythia6-tauola/Summer12_DR53X-PU_S10_START53_V7A-v1/AODSIM/PAT_CMG_V5_16_0/HTT_24Jul_newTES_manzoni_Up/diTau_fullsel_tree_CMG_17.root'
p57
(I01
I13254
tp58
sS'/store/cmst3/user/manzoni/CMG/SUSYBBHToTauTau_M-1000_8TeV-pythia6-tauola/Summer12_DR53X-PU_S10_START53_V7A-v1/AODSIM/PAT_CMG_V5_16_0/HTT_24Jul_newTES_manzoni_Up/diTau_fullsel_tree_CMG_30.root'
p59
(I01
I13062
tp60
sS'/store/cmst3/user/manzoni/CMG/SUSYBBHToTauTau_M-1000_8TeV-pythia6-tauola/Summer12_DR53X-PU_S10_START53_V7A-v1/AODSIM/PAT_CMG_V5_16_0/HTT_24Jul_newTES_manzoni_Up/diTau_fullsel_tree_CMG_15.root'
p61
(I01
I13099
tp62
sS'/store/cmst3/user/manzoni/CMG/SUSYBBHToTauTau_M-1000_8TeV-pythia6-tauola/Summer12_DR53X-PU_S10_START53_V7A-v1/AODSIM/PAT_CMG_V5_16_0/HTT_24Jul_newTES_manzoni_Up/diTau_fullsel_tree_CMG_24.root'
p63
(I01
I13162
tp64
sS'/store/cmst3/user/manzoni/CMG/SUSYBBHToTauTau_M-1000_8TeV-pythia6-tauola/Summer12_DR53X-PU_S10_START53_V7A-v1/AODSIM/PAT_CMG_V5_16_0/HTT_24Jul_newTES_manzoni_Up/diTau_fullsel_tree_CMG_2.root'
p65
(I01
I13234
tp66
sS'/store/cmst3/user/manzoni/CMG/SUSYBBHToTauTau_M-1000_8TeV-pythia6-tauola/Summer12_DR53X-PU_S10_START53_V7A-v1/AODSIM/PAT_CMG_V5_16_0/HTT_24Jul_newTES_manzoni_Up/diTau_fullsel_tree_CMG_29.root'
p67
(I01
I13356
tp68
sS'/store/cmst3/user/manzoni/CMG/SUSYBBHToTauTau_M-1000_8TeV-pythia6-tauola/Summer12_DR53X-PU_S10_START53_V7A-v1/AODSIM/PAT_CMG_V5_16_0/HTT_24Jul_newTES_manzoni_Up/diTau_fullsel_tree_CMG_32.root'
p69
(I01
I13262
tp70
sS'/store/cmst3/user/manzoni/CMG/SUSYBBHToTauTau_M-1000_8TeV-pythia6-tauola/Summer12_DR53X-PU_S10_START53_V7A-v1/AODSIM/PAT_CMG_V5_16_0/HTT_24Jul_newTES_manzoni_Up/diTau_fullsel_tree_CMG_18.root'
p71
(I01
I13238
tp72
sS'/store/cmst3/user/manzoni/CMG/SUSYBBHToTauTau_M-1000_8TeV-pythia6-tauola/Summer12_DR53X-PU_S10_START53_V7A-v1/AODSIM/PAT_CMG_V5_16_0/HTT_24Jul_newTES_manzoni_Up/diTau_fullsel_tree_CMG_26.root'
p73
(I01
I13236
tp74
ssS'Name'
p75
S'/SUSYBBHToTauTau_M-1000_8TeV-pythia6-tauola/Summer12_DR53X-PU_S10_START53_V7A-v1/AODSIM/PAT_CMG_V5_16_0/HTT_24Jul_newTES_manzoni_Up'
p76
sS'Topdir'
p77
S'/eos/cms/store/cmst3/user/manzoni/CMG'
p78
sS'RunList'
p79
(lp80
sS'PathList'
p81
(lp82
S'/store/cmst3/user/manzoni/CMG/SUSYBBHToTauTau_M-1000_8TeV-pythia6-tauola/Summer12_DR53X-PU_S10_START53_V7A-v1/AODSIM/PAT_CMG_V5_16_0/HTT_24Jul_newTES_manzoni_Up'
p83
asS'AlgoList'
p84
(lp85
sS'PrimaryDatasetFraction'
p86
F0.44035358172047689
sS'FilesGood'
p87
I34
sS'PrimaryDatasetEntries'
p88
I987947
sS'data'
p89
(dp90
sS'FilesBad'
p91
I0
sS'ReportVersion'
p92
I3
sS'Status'
p93
S'VALID'
p94
sS'MaxRun'
p95
I-1
sS'PhysicsGroup'
p96
S'CMG'
p97
sS'MinRun'
p98
I-1
sS'StageHost'
p99
S'castorcms'
p100
sS'FilesCount'
p101
I34
sS'FilesEntries'
p102
I435046
sS'TierList'
p103
(lp104
sS'DateCreated'
p105
S'1377493553'
p106
sS'CreatedBy'
p107
S'manzoni'
p108
sS'ValidDuplicates'
p109
(dp110
sS'PrimaryDataset'
p111
S'/SUSYBBHToTauTau_M-1000_8TeV-pythia6-tauola/Summer12_DR53X-PU_S10_START53_V7A-v1/AODSIM'
p112
sS'BadJobs'
p113
(lp114
ssS'MaskPresent'
p115
I01
sS'LSFJobStatusCheck'
p116
(dp117
S'SUSYBBHToTauTau_M-1000_8TeV-pythia6-tauola/Summer12_DR53X-PU_S10_START53_V7A-v1/AODSIM/PAT_CMG_V5_16_0_1377467519/HTT_24Jul_newTES_manzoni_Up_Jobs/Job_29'
p118
g94
sS'SUSYBBHToTauTau_M-1000_8TeV-pythia6-tauola/Summer12_DR53X-PU_S10_START53_V7A-v1/AODSIM/PAT_CMG_V5_16_0_1377467519/HTT_24Jul_newTES_manzoni_Up_Jobs/Job_28'
p119
g94
sS'SUSYBBHToTauTau_M-1000_8TeV-pythia6-tauola/Summer12_DR53X-PU_S10_START53_V7A-v1/AODSIM/PAT_CMG_V5_16_0_1377467519/HTT_24Jul_newTES_manzoni_Up_Jobs/Job_23'
p120
g94
sS'SUSYBBHToTauTau_M-1000_8TeV-pythia6-tauola/Summer12_DR53X-PU_S10_START53_V7A-v1/AODSIM/PAT_CMG_V5_16_0_1377467519/HTT_24Jul_newTES_manzoni_Up_Jobs/Job_22'
p121
g94
sS'SUSYBBHToTauTau_M-1000_8TeV-pythia6-tauola/Summer12_DR53X-PU_S10_START53_V7A-v1/AODSIM/PAT_CMG_V5_16_0_1377467519/HTT_24Jul_newTES_manzoni_Up_Jobs/Job_21'
p122
g94
sS'SUSYBBHToTauTau_M-1000_8TeV-pythia6-tauola/Summer12_DR53X-PU_S10_START53_V7A-v1/AODSIM/PAT_CMG_V5_16_0_1377467519/HTT_24Jul_newTES_manzoni_Up_Jobs/Job_20'
p123
g94
sS'SUSYBBHToTauTau_M-1000_8TeV-pythia6-tauola/Summer12_DR53X-PU_S10_START53_V7A-v1/AODSIM/PAT_CMG_V5_16_0_1377467519/HTT_24Jul_newTES_manzoni_Up_Jobs/Job_27'
p124
g94
sS'SUSYBBHToTauTau_M-1000_8TeV-pythia6-tauola/Summer12_DR53X-PU_S10_START53_V7A-v1/AODSIM/PAT_CMG_V5_16_0_1377467519/HTT_24Jul_newTES_manzoni_Up_Jobs/Job_26'
p125
g94
sS'SUSYBBHToTauTau_M-1000_8TeV-pythia6-tauola/Summer12_DR53X-PU_S10_START53_V7A-v1/AODSIM/PAT_CMG_V5_16_0_1377467519/HTT_24Jul_newTES_manzoni_Up_Jobs/Job_25'
p126
g94
sS'SUSYBBHToTauTau_M-1000_8TeV-pythia6-tauola/Summer12_DR53X-PU_S10_START53_V7A-v1/AODSIM/PAT_CMG_V5_16_0_1377467519/HTT_24Jul_newTES_manzoni_Up_Jobs/Job_24'
p127
g94
sS'SUSYBBHToTauTau_M-1000_8TeV-pythia6-tauola/Summer12_DR53X-PU_S10_START53_V7A-v1/AODSIM/PAT_CMG_V5_16_0_1377467519/HTT_24Jul_newTES_manzoni_Up_Jobs/Job_8'
p128
g94
sS'SUSYBBHToTauTau_M-1000_8TeV-pythia6-tauola/Summer12_DR53X-PU_S10_START53_V7A-v1/AODSIM/PAT_CMG_V5_16_0_1377467519/HTT_24Jul_newTES_manzoni_Up_Jobs/Job_9'
p129
g94
sS'SUSYBBHToTauTau_M-1000_8TeV-pythia6-tauola/Summer12_DR53X-PU_S10_START53_V7A-v1/AODSIM/PAT_CMG_V5_16_0_1377467519/HTT_24Jul_newTES_manzoni_Up_Jobs/Job_4'
p130
g94
sS'SUSYBBHToTauTau_M-1000_8TeV-pythia6-tauola/Summer12_DR53X-PU_S10_START53_V7A-v1/AODSIM/PAT_CMG_V5_16_0_1377467519/HTT_24Jul_newTES_manzoni_Up_Jobs/Job_5'
p131
g94
sS'SUSYBBHToTauTau_M-1000_8TeV-pythia6-tauola/Summer12_DR53X-PU_S10_START53_V7A-v1/AODSIM/PAT_CMG_V5_16_0_1377467519/HTT_24Jul_newTES_manzoni_Up_Jobs/Job_6'
p132
g94
sS'SUSYBBHToTauTau_M-1000_8TeV-pythia6-tauola/Summer12_DR53X-PU_S10_START53_V7A-v1/AODSIM/PAT_CMG_V5_16_0_1377467519/HTT_24Jul_newTES_manzoni_Up_Jobs/Job_7'
p133
g94
sS'SUSYBBHToTauTau_M-1000_8TeV-pythia6-tauola/Summer12_DR53X-PU_S10_START53_V7A-v1/AODSIM/PAT_CMG_V5_16_0_1377467519/HTT_24Jul_newTES_manzoni_Up_Jobs/Job_1'
p134
g94
sS'SUSYBBHToTauTau_M-1000_8TeV-pythia6-tauola/Summer12_DR53X-PU_S10_START53_V7A-v1/AODSIM/PAT_CMG_V5_16_0_1377467519/HTT_24Jul_newTES_manzoni_Up_Jobs/Job_2'
p135
g94
sS'SUSYBBHToTauTau_M-1000_8TeV-pythia6-tauola/Summer12_DR53X-PU_S10_START53_V7A-v1/AODSIM/PAT_CMG_V5_16_0_1377467519/HTT_24Jul_newTES_manzoni_Up_Jobs/Job_3'
p136
g94
sS'SUSYBBHToTauTau_M-1000_8TeV-pythia6-tauola/Summer12_DR53X-PU_S10_START53_V7A-v1/AODSIM/PAT_CMG_V5_16_0_1377467519/HTT_24Jul_newTES_manzoni_Up_Jobs/Job_34'
p137
g94
sS'SUSYBBHToTauTau_M-1000_8TeV-pythia6-tauola/Summer12_DR53X-PU_S10_START53_V7A-v1/AODSIM/PAT_CMG_V5_16_0_1377467519/HTT_24Jul_newTES_manzoni_Up_Jobs/Job_30'
p138
g94
sS'SUSYBBHToTauTau_M-1000_8TeV-pythia6-tauola/Summer12_DR53X-PU_S10_START53_V7A-v1/AODSIM/PAT_CMG_V5_16_0_1377467519/HTT_24Jul_newTES_manzoni_Up_Jobs/Job_31'
p139
g94
sS'SUSYBBHToTauTau_M-1000_8TeV-pythia6-tauola/Summer12_DR53X-PU_S10_START53_V7A-v1/AODSIM/PAT_CMG_V5_16_0_1377467519/HTT_24Jul_newTES_manzoni_Up_Jobs/Job_32'
p140
g94
sS'SUSYBBHToTauTau_M-1000_8TeV-pythia6-tauola/Summer12_DR53X-PU_S10_START53_V7A-v1/AODSIM/PAT_CMG_V5_16_0_1377467519/HTT_24Jul_newTES_manzoni_Up_Jobs/Job_33'
p141
g94
sS'SUSYBBHToTauTau_M-1000_8TeV-pythia6-tauola/Summer12_DR53X-PU_S10_START53_V7A-v1/AODSIM/PAT_CMG_V5_16_0_1377467519/HTT_24Jul_newTES_manzoni_Up_Jobs/Job_16'
p142
g94
sS'SUSYBBHToTauTau_M-1000_8TeV-pythia6-tauola/Summer12_DR53X-PU_S10_START53_V7A-v1/AODSIM/PAT_CMG_V5_16_0_1377467519/HTT_24Jul_newTES_manzoni_Up_Jobs/Job_17'
p143
g94
sS'SUSYBBHToTauTau_M-1000_8TeV-pythia6-tauola/Summer12_DR53X-PU_S10_START53_V7A-v1/AODSIM/PAT_CMG_V5_16_0_1377467519/HTT_24Jul_newTES_manzoni_Up_Jobs/Job_14'
p144
g94
sS'SUSYBBHToTauTau_M-1000_8TeV-pythia6-tauola/Summer12_DR53X-PU_S10_START53_V7A-v1/AODSIM/PAT_CMG_V5_16_0_1377467519/HTT_24Jul_newTES_manzoni_Up_Jobs/Job_15'
p145
g94
sS'SUSYBBHToTauTau_M-1000_8TeV-pythia6-tauola/Summer12_DR53X-PU_S10_START53_V7A-v1/AODSIM/PAT_CMG_V5_16_0_1377467519/HTT_24Jul_newTES_manzoni_Up_Jobs/Job_12'
p146
g94
sS'SUSYBBHToTauTau_M-1000_8TeV-pythia6-tauola/Summer12_DR53X-PU_S10_START53_V7A-v1/AODSIM/PAT_CMG_V5_16_0_1377467519/HTT_24Jul_newTES_manzoni_Up_Jobs/Job_13'
p147
g94
sS'SUSYBBHToTauTau_M-1000_8TeV-pythia6-tauola/Summer12_DR53X-PU_S10_START53_V7A-v1/AODSIM/PAT_CMG_V5_16_0_1377467519/HTT_24Jul_newTES_manzoni_Up_Jobs/Job_10'
p148
g94
sS'SUSYBBHToTauTau_M-1000_8TeV-pythia6-tauola/Summer12_DR53X-PU_S10_START53_V7A-v1/AODSIM/PAT_CMG_V5_16_0_1377467519/HTT_24Jul_newTES_manzoni_Up_Jobs/Job_11'
p149
g94
sS'SUSYBBHToTauTau_M-1000_8TeV-pythia6-tauola/Summer12_DR53X-PU_S10_START53_V7A-v1/AODSIM/PAT_CMG_V5_16_0_1377467519/HTT_24Jul_newTES_manzoni_Up_Jobs/Job_18'
p150
g94
sS'SUSYBBHToTauTau_M-1000_8TeV-pythia6-tauola/Summer12_DR53X-PU_S10_START53_V7A-v1/AODSIM/PAT_CMG_V5_16_0_1377467519/HTT_24Jul_newTES_manzoni_Up_Jobs/Job_19'
p151
g94
sssS'CheckDatasetExists'
p152
(dp153
S'Dataset'
p154
S'/SUSYBBHToTauTau_M-1000_8TeV-pythia6-tauola/Summer12_DR53X-PU_S10_START53_V7A-v1/AODSIM/PAT_CMG_V5_16_0'
p155
ssS'GenerateMask'
p156
(dp157
g3
(dp158
VPathList
p159
(lp160
V/store/cmst3/group/cmgtools/CMG/SUSYBBHToTauTau_M-90_8TeV-pythia6-tauola/Summer12_DR53X-PU_S10_START53_V7A-v1/AODSIM/PAT_CMG_V5_16_0
p161
asVStageHost
p162
Vcastorcms
p163
sVPrimaryDatasetFraction
p164
F0.97991645244215941
sVFilesGood
p165
I99
sVPrimaryDatasetEntries
p166
I995840
sVReportVersion
p167
I3
sVFiles
p168
(dp169
V/store/cmst3/group/cmgtools/CMG/SUSYBBHToTauTau_M-90_8TeV-pythia6-tauola/Summer12_DR53X-PU_S10_START53_V7A-v1/AODSIM/PAT_CMG_V5_16_0/cmgTuple_32_1_lCf.root
p170
(lp171
I01
aI10000
asV/store/cmst3/group/cmgtools/CMG/SUSYBBHToTauTau_M-90_8TeV-pythia6-tauola/Summer12_DR53X-PU_S10_START53_V7A-v1/AODSIM/PAT_CMG_V5_16_0/cmgTuple_38_1_V0a.root
p172
(lp173
I01
aI10000
asV/store/cmst3/group/cmgtools/CMG/SUSYBBHToTauTau_M-90_8TeV-pythia6-tauola/Summer12_DR53X-PU_S10_START53_V7A-v1/AODSIM/PAT_CMG_V5_16_0/cmgTuple_22_1_KQc.root
p174
(lp175
I01
aI10000
asV/store/cmst3/group/cmgtools/CMG/SUSYBBHToTauTau_M-90_8TeV-pythia6-tauola/Summer12_DR53X-PU_S10_START53_V7A-v1/AODSIM/PAT_CMG_V5_16_0/cmgTuple_98_1_KVz.root
p176
(lp177
I01
aI10000
asV/store/cmst3/group/cmgtools/CMG/SUSYBBHToTauTau_M-90_8TeV-pythia6-tauola/Summer12_DR53X-PU_S10_START53_V7A-v1/AODSIM/PAT_CMG_V5_16_0/cmgTuple_96_1_N9b.root
p178
(lp179
I01
aI10000
asV/store/cmst3/group/cmgtools/CMG/SUSYBBHToTauTau_M-90_8TeV-pythia6-tauola/Summer12_DR53X-PU_S10_START53_V7A-v1/AODSIM/PAT_CMG_V5_16_0/cmgTuple_15_1_MCw.root
p180
(lp181
I01
aI10000
asV/store/cmst3/group/cmgtools/CMG/SUSYBBHToTauTau_M-90_8TeV-pythia6-tauola/Summer12_DR53X-PU_S10_START53_V7A-v1/AODSIM/PAT_CMG_V5_16_0/cmgTuple_19_1_LQE.root
p182
(lp183
I01
aI10000
asV/store/cmst3/group/cmgtools/CMG/SUSYBBHToTauTau_M-90_8TeV-pythia6-tauola/Summer12_DR53X-PU_S10_START53_V7A-v1/AODSIM/PAT_CMG_V5_16_0/cmgTuple_78_1_b7i.root
p184
(lp185
I01
aI10000
asV/store/cmst3/group/cmgtools/CMG/SUSYBBHToTauTau_M-90_8TeV-pythia6-tauola/Summer12_DR53X-PU_S10_START53_V7A-v1/AODSIM/PAT_CMG_V5_16_0/cmgTuple_11_1_JTQ.root
p186
(lp187
I01
aI10000
asV/store/cmst3/group/cmgtools/CMG/SUSYBBHToTauTau_M-90_8TeV-pythia6-tauola/Summer12_DR53X-PU_S10_START53_V7A-v1/AODSIM/PAT_CMG_V5_16_0/cmgTuple_2_1_VON.root
p188
(lp189
I01
aI10000
asV/store/cmst3/group/cmgtools/CMG/SUSYBBHToTauTau_M-90_8TeV-pythia6-tauola/Summer12_DR53X-PU_S10_START53_V7A-v1/AODSIM/PAT_CMG_V5_16_0/cmgTuple_86_1_wY3.root
p190
(lp191
I01
aI10000
asV/store/cmst3/group/cmgtools/CMG/SUSYBBHToTauTau_M-90_8TeV-pythia6-tauola/Summer12_DR53X-PU_S10_START53_V7A-v1/AODSIM/PAT_CMG_V5_16_0/cmgTuple_43_1_eZC.root
p192
(lp193
I01
aI10000
asV/store/cmst3/group/cmgtools/CMG/SUSYBBHToTauTau_M-90_8TeV-pythia6-tauola/Summer12_DR53X-PU_S10_START53_V7A-v1/AODSIM/PAT_CMG_V5_16_0/cmgTuple_87_1_Ttk.root
p194
(lp195
I01
aI10000
asV/store/cmst3/group/cmgtools/CMG/SUSYBBHToTauTau_M-90_8TeV-pythia6-tauola/Summer12_DR53X-PU_S10_START53_V7A-v1/AODSIM/PAT_CMG_V5_16_0/cmgTuple_61_1_D1Q.root
p196
(lp197
I01
aI10000
asV/store/cmst3/group/cmgtools/CMG/SUSYBBHToTauTau_M-90_8TeV-pythia6-tauola/Summer12_DR53X-PU_S10_START53_V7A-v1/AODSIM/PAT_CMG_V5_16_0/cmgTuple_10_1_7JH.root
p198
(lp199
I01
aI10000
asV/store/cmst3/group/cmgtools/CMG/SUSYBBHToTauTau_M-90_8TeV-pythia6-tauola/Summer12_DR53X-PU_S10_START53_V7A-v1/AODSIM/PAT_CMG_V5_16_0/cmgTuple_95_1_usC.root
p200
(lp201
I01
aI10000
asV/store/cmst3/group/cmgtools/CMG/SUSYBBHToTauTau_M-90_8TeV-pythia6-tauola/Summer12_DR53X-PU_S10_START53_V7A-v1/AODSIM/PAT_CMG_V5_16_0/cmgTuple_26_1_uyZ.root
p202
(lp203
I01
aI10000
asV/store/cmst3/group/cmgtools/CMG/SUSYBBHToTauTau_M-90_8TeV-pythia6-tauola/Summer12_DR53X-PU_S10_START53_V7A-v1/AODSIM/PAT_CMG_V5_16_0/cmgTuple_51_1_YTx.root
p204
(lp205
I01
aI10000
asV/store/cmst3/group/cmgtools/CMG/SUSYBBHToTauTau_M-90_8TeV-pythia6-tauola/Summer12_DR53X-PU_S10_START53_V7A-v1/AODSIM/PAT_CMG_V5_16_0/cmgTuple_35_1_IcO.root
p206
(lp207
I01
aI10000
asV/store/cmst3/group/cmgtools/CMG/SUSYBBHToTauTau_M-90_8TeV-pythia6-tauola/Summer12_DR53X-PU_S10_START53_V7A-v1/AODSIM/PAT_CMG_V5_16_0/cmgTuple_65_1_lhY.root
p208
(lp209
I01
aI10000
asV/store/cmst3/group/cmgtools/CMG/SUSYBBHToTauTau_M-90_8TeV-pythia6-tauola/Summer12_DR53X-PU_S10_START53_V7A-v1/AODSIM/PAT_CMG_V5_16_0/cmgTuple_91_1_2RX.root
p210
(lp211
I01
aI10000
asV/store/cmst3/group/cmgtools/CMG/SUSYBBHToTauTau_M-90_8TeV-pythia6-tauola/Summer12_DR53X-PU_S10_START53_V7A-v1/AODSIM/PAT_CMG_V5_16_0/cmgTuple_54_1_W6T.root
p212
(lp213
I01
aI10000
asV/store/cmst3/group/cmgtools/CMG/SUSYBBHToTauTau_M-90_8TeV-pythia6-tauola/Summer12_DR53X-PU_S10_START53_V7A-v1/AODSIM/PAT_CMG_V5_16_0/cmgTuple_30_1_HTA.root
p214
(lp215
I01
aI10000
asV/store/cmst3/group/cmgtools/CMG/SUSYBBHToTauTau_M-90_8TeV-pythia6-tauola/Summer12_DR53X-PU_S10_START53_V7A-v1/AODSIM/PAT_CMG_V5_16_0/cmgTuple_80_1_KQi.root
p216
(lp217
I01
aI10000
asV/store/cmst3/group/cmgtools/CMG/SUSYBBHToTauTau_M-90_8TeV-pythia6-tauola/Summer12_DR53X-PU_S10_START53_V7A-v1/AODSIM/PAT_CMG_V5_16_0/cmgTuple_73_1_qDX.root
p218
(lp219
I01
aI10000
asV/store/cmst3/group/cmgtools/CMG/SUSYBBHToTauTau_M-90_8TeV-pythia6-tauola/Summer12_DR53X-PU_S10_START53_V7A-v1/AODSIM/PAT_CMG_V5_16_0/cmgTuple_17_1_rbv.root
p220
(lp221
I01
aI10000
asV/store/cmst3/group/cmgtools/CMG/SUSYBBHToTauTau_M-90_8TeV-pythia6-tauola/Summer12_DR53X-PU_S10_START53_V7A-v1/AODSIM/PAT_CMG_V5_16_0/cmgTuple_7_1_vxt.root
p222
(lp223
I01
aI10000
asV/store/cmst3/group/cmgtools/CMG/SUSYBBHToTauTau_M-90_8TeV-pythia6-tauola/Summer12_DR53X-PU_S10_START53_V7A-v1/AODSIM/PAT_CMG_V5_16_0/cmgTuple_42_1_8k3.root
p224
(lp225
I01
aI10000
asV/store/cmst3/group/cmgtools/CMG/SUSYBBHToTauTau_M-90_8TeV-pythia6-tauola/Summer12_DR53X-PU_S10_START53_V7A-v1/AODSIM/PAT_CMG_V5_16_0/cmgTuple_29_1_kE4.root
p226
(lp227
I01
aI10000
asV/store/cmst3/group/cmgtools/CMG/SUSYBBHToTauTau_M-90_8TeV-pythia6-tauola/Summer12_DR53X-PU_S10_START53_V7A-v1/AODSIM/PAT_CMG_V5_16_0/cmgTuple_67_1_uRB.root
p228
(lp229
I01
aI10000
asV/store/cmst3/group/cmgtools/CMG/SUSYBBHToTauTau_M-90_8TeV-pythia6-tauola/Summer12_DR53X-PU_S10_START53_V7A-v1/AODSIM/PAT_CMG_V5_16_0/cmgTuple_84_1_raW.root
p230
(lp231
I01
aI10000
asV/store/cmst3/group/cmgtools/CMG/SUSYBBHToTauTau_M-90_8TeV-pythia6-tauola/Summer12_DR53X-PU_S10_START53_V7A-v1/AODSIM/PAT_CMG_V5_16_0/cmgTuple_71_1_CXI.root
p232
(lp233
I01
aI10000
asV/store/cmst3/group/cmgtools/CMG/SUSYBBHToTauTau_M-90_8TeV-pythia6-tauola/Summer12_DR53X-PU_S10_START53_V7A-v1/AODSIM/PAT_CMG_V5_16_0/cmgTuple_14_1_Vzu.root
p234
(lp235
I01
aI10000
asV/store/cmst3/group/cmgtools/CMG/SUSYBBHToTauTau_M-90_8TeV-pythia6-tauola/Summer12_DR53X-PU_S10_START53_V7A-v1/AODSIM/PAT_CMG_V5_16_0/cmgTuple_49_1_Dxp.root
p236
(lp237
I01
aI10000
asV/store/cmst3/group/cmgtools/CMG/SUSYBBHToTauTau_M-90_8TeV-pythia6-tauola/Summer12_DR53X-PU_S10_START53_V7A-v1/AODSIM/PAT_CMG_V5_16_0/cmgTuple_47_1_puo.root
p238
(lp239
I01
aI10000
asV/store/cmst3/group/cmgtools/CMG/SUSYBBHToTauTau_M-90_8TeV-pythia6-tauola/Summer12_DR53X-PU_S10_START53_V7A-v1/AODSIM/PAT_CMG_V5_16_0/cmgTuple_8_1_uro.root
p240
(lp241
I01
aI10000
asV/store/cmst3/group/cmgtools/CMG/SUSYBBHToTauTau_M-90_8TeV-pythia6-tauola/Summer12_DR53X-PU_S10_START53_V7A-v1/AODSIM/PAT_CMG_V5_16_0/cmgTuple_81_1_BWi.root
p242
(lp243
I01
aI10000
asV/store/cmst3/group/cmgtools/CMG/SUSYBBHToTauTau_M-90_8TeV-pythia6-tauola/Summer12_DR53X-PU_S10_START53_V7A-v1/AODSIM/PAT_CMG_V5_16_0/cmgTuple_50_1_1Zc.root
p244
(lp245
I01
aI10000
asV/store/cmst3/group/cmgtools/CMG/SUSYBBHToTauTau_M-90_8TeV-pythia6-tauola/Summer12_DR53X-PU_S10_START53_V7A-v1/AODSIM/PAT_CMG_V5_16_0/cmgTuple_101_1_si8.root
p246
(lp247
I01
aI1920
asV/store/cmst3/group/cmgtools/CMG/SUSYBBHToTauTau_M-90_8TeV-pythia6-tauola/Summer12_DR53X-PU_S10_START53_V7A-v1/AODSIM/PAT_CMG_V5_16_0/cmgTuple_56_1_H2G.root
p248
(lp249
I01
aI10000
asV/store/cmst3/group/cmgtools/CMG/SUSYBBHToTauTau_M-90_8TeV-pythia6-tauola/Summer12_DR53X-PU_S10_START53_V7A-v1/AODSIM/PAT_CMG_V5_16_0/cmgTuple_41_1_h2d.root
p250
(lp251
I01
aI10000
asV/store/cmst3/group/cmgtools/CMG/SUSYBBHToTauTau_M-90_8TeV-pythia6-tauola/Summer12_DR53X-PU_S10_START53_V7A-v1/AODSIM/PAT_CMG_V5_16_0/cmgTuple_4_1_6C9.root
p252
(lp253
I01
aI10000
asV/store/cmst3/group/cmgtools/CMG/SUSYBBHToTauTau_M-90_8TeV-pythia6-tauola/Summer12_DR53X-PU_S10_START53_V7A-v1/AODSIM/PAT_CMG_V5_16_0/cmgTuple_58_1_SHf.root
p254
(lp255
I01
aI10000
asV/store/cmst3/group/cmgtools/CMG/SUSYBBHToTauTau_M-90_8TeV-pythia6-tauola/Summer12_DR53X-PU_S10_START53_V7A-v1/AODSIM/PAT_CMG_V5_16_0/cmgTuple_85_1_JZ2.root
p256
(lp257
I01
aI10000
asV/store/cmst3/group/cmgtools/CMG/SUSYBBHToTauTau_M-90_8TeV-pythia6-tauola/Summer12_DR53X-PU_S10_START53_V7A-v1/AODSIM/PAT_CMG_V5_16_0/cmgTuple_59_1_sZn.root
p258
(lp259
I01
aI10000
asV/store/cmst3/group/cmgtools/CMG/SUSYBBHToTauTau_M-90_8TeV-pythia6-tauola/Summer12_DR53X-PU_S10_START53_V7A-v1/AODSIM/PAT_CMG_V5_16_0/cmgTuple_62_1_V7N.root
p260
(lp261
I01
aI10000
asV/store/cmst3/group/cmgtools/CMG/SUSYBBHToTauTau_M-90_8TeV-pythia6-tauola/Summer12_DR53X-PU_S10_START53_V7A-v1/AODSIM/PAT_CMG_V5_16_0/cmgTuple_93_1_sO6.root
p262
(lp263
I01
aI10000
asV/store/cmst3/group/cmgtools/CMG/SUSYBBHToTauTau_M-90_8TeV-pythia6-tauola/Summer12_DR53X-PU_S10_START53_V7A-v1/AODSIM/PAT_CMG_V5_16_0/cmgTuple_9_1_wSu.root
p264
(lp265
I01
aI10000
asV/store/cmst3/group/cmgtools/CMG/SUSYBBHToTauTau_M-90_8TeV-pythia6-tauola/Summer12_DR53X-PU_S10_START53_V7A-v1/AODSIM/PAT_CMG_V5_16_0/cmgTuple_68_1_jDc.root
p266
(lp267
I01
aI10000
asV/store/cmst3/group/cmgtools/CMG/SUSYBBHToTauTau_M-90_8TeV-pythia6-tauola/Summer12_DR53X-PU_S10_START53_V7A-v1/AODSIM/PAT_CMG_V5_16_0/cmgTuple_18_1_a2O.root
p268
(lp269
I01
aI10000
asV/store/cmst3/group/cmgtools/CMG/SUSYBBHToTauTau_M-90_8TeV-pythia6-tauola/Summer12_DR53X-PU_S10_START53_V7A-v1/AODSIM/PAT_CMG_V5_16_0/cmgTuple_94_1_ctM.root
p270
(lp271
I01
aI10000
asV/store/cmst3/group/cmgtools/CMG/SUSYBBHToTauTau_M-90_8TeV-pythia6-tauola/Summer12_DR53X-PU_S10_START53_V7A-v1/AODSIM/PAT_CMG_V5_16_0/cmgTuple_69_1_UPv.root
p272
(lp273
I01
aI10000
asV/store/cmst3/group/cmgtools/CMG/SUSYBBHToTauTau_M-90_8TeV-pythia6-tauola/Summer12_DR53X-PU_S10_START53_V7A-v1/AODSIM/PAT_CMG_V5_16_0/cmgTuple_37_1_WgL.root
p274
(lp275
I01
aI10000
asV/store/cmst3/group/cmgtools/CMG/SUSYBBHToTauTau_M-90_8TeV-pythia6-tauola/Summer12_DR53X-PU_S10_START53_V7A-v1/AODSIM/PAT_CMG_V5_16_0/cmgTuple_89_1_zo3.root
p276
(lp277
I01
aI10000
asV/store/cmst3/group/cmgtools/CMG/SUSYBBHToTauTau_M-90_8TeV-pythia6-tauola/Summer12_DR53X-PU_S10_START53_V7A-v1/AODSIM/PAT_CMG_V5_16_0/cmgTuple_79_1_fLA.root
p278
(lp279
I01
aI10000
asV/store/cmst3/group/cmgtools/CMG/SUSYBBHToTauTau_M-90_8TeV-pythia6-tauola/Summer12_DR53X-PU_S10_START53_V7A-v1/AODSIM/PAT_CMG_V5_16_0/cmgTuple_72_1_hgW.root
p280
(lp281
I01
aI10000
asV/store/cmst3/group/cmgtools/CMG/SUSYBBHToTauTau_M-90_8TeV-pythia6-tauola/Summer12_DR53X-PU_S10_START53_V7A-v1/AODSIM/PAT_CMG_V5_16_0/cmgTuple_23_1_azc.root
p282
(lp283
I01
aI10000
asV/store/cmst3/group/cmgtools/CMG/SUSYBBHToTauTau_M-90_8TeV-pythia6-tauola/Summer12_DR53X-PU_S10_START53_V7A-v1/AODSIM/PAT_CMG_V5_16_0/cmgTuple_6_1_mre.root
p284
(lp285
I01
aI10000
asV/store/cmst3/group/cmgtools/CMG/SUSYBBHToTauTau_M-90_8TeV-pythia6-tauola/Summer12_DR53X-PU_S10_START53_V7A-v1/AODSIM/PAT_CMG_V5_16_0/cmgTuple_53_1_jnU.root
p286
(lp287
I01
aI10000
asV/store/cmst3/group/cmgtools/CMG/SUSYBBHToTauTau_M-90_8TeV-pythia6-tauola/Summer12_DR53X-PU_S10_START53_V7A-v1/AODSIM/PAT_CMG_V5_16_0/cmgTuple_74_1_kii.root
p288
(lp289
I01
aI10000
asV/store/cmst3/group/cmgtools/CMG/SUSYBBHToTauTau_M-90_8TeV-pythia6-tauola/Summer12_DR53X-PU_S10_START53_V7A-v1/AODSIM/PAT_CMG_V5_16_0/cmgTuple_82_1_34d.root
p290
(lp291
I01
aI10000
asV/store/cmst3/group/cmgtools/CMG/SUSYBBHToTauTau_M-90_8TeV-pythia6-tauola/Summer12_DR53X-PU_S10_START53_V7A-v1/AODSIM/PAT_CMG_V5_16_0/cmgTuple_52_1_Psw.root
p292
(lp293
I01
aI10000
asV/store/cmst3/group/cmgtools/CMG/SUSYBBHToTauTau_M-90_8TeV-pythia6-tauola/Summer12_DR53X-PU_S10_START53_V7A-v1/AODSIM/PAT_CMG_V5_16_0/cmgTuple_76_1_kdh.root
p294
(lp295
I01
aI10000
asV/store/cmst3/group/cmgtools/CMG/SUSYBBHToTauTau_M-90_8TeV-pythia6-tauola/Summer12_DR53X-PU_S10_START53_V7A-v1/AODSIM/PAT_CMG_V5_16_0/cmgTuple_27_1_B0X.root
p296
(lp297
I01
aI10000
asV/store/cmst3/group/cmgtools/CMG/SUSYBBHToTauTau_M-90_8TeV-pythia6-tauola/Summer12_DR53X-PU_S10_START53_V7A-v1/AODSIM/PAT_CMG_V5_16_0/cmgTuple_75_1_w5q.root
p298
(lp299
I01
aI10000
asV/store/cmst3/group/cmgtools/CMG/SUSYBBHToTauTau_M-90_8TeV-pythia6-tauola/Summer12_DR53X-PU_S10_START53_V7A-v1/AODSIM/PAT_CMG_V5_16_0/cmgTuple_34_1_3q8.root
p300
(lp301
I01
aI10000
asV/store/cmst3/group/cmgtools/CMG/SUSYBBHToTauTau_M-90_8TeV-pythia6-tauola/Summer12_DR53X-PU_S10_START53_V7A-v1/AODSIM/PAT_CMG_V5_16_0/cmgTuple_99_1_0pI.root
p302
(lp303
I01
aI10000
asV/store/cmst3/group/cmgtools/CMG/SUSYBBHToTauTau_M-90_8TeV-pythia6-tauola/Summer12_DR53X-PU_S10_START53_V7A-v1/AODSIM/PAT_CMG_V5_16_0/cmgTuple_90_1_kKo.root
p304
(lp305
I01
aI10000
asV/store/cmst3/group/cmgtools/CMG/SUSYBBHToTauTau_M-90_8TeV-pythia6-tauola/Summer12_DR53X-PU_S10_START53_V7A-v1/AODSIM/PAT_CMG_V5_16_0/cmgTuple_1_1_PAi.root
p306
(lp307
I01
aI10000
asV/store/cmst3/group/cmgtools/CMG/SUSYBBHToTauTau_M-90_8TeV-pythia6-tauola/Summer12_DR53X-PU_S10_START53_V7A-v1/AODSIM/PAT_CMG_V5_16_0/cmgTuple_97_1_Ysg.root
p308
(lp309
I01
aI10000
asV/store/cmst3/group/cmgtools/CMG/SUSYBBHToTauTau_M-90_8TeV-pythia6-tauola/Summer12_DR53X-PU_S10_START53_V7A-v1/AODSIM/PAT_CMG_V5_16_0/cmgTuple_31_1_5MM.root
p310
(lp311
I01
aI10000
asV/store/cmst3/group/cmgtools/CMG/SUSYBBHToTauTau_M-90_8TeV-pythia6-tauola/Summer12_DR53X-PU_S10_START53_V7A-v1/AODSIM/PAT_CMG_V5_16_0/cmgTuple_44_1_oJN.root
p312
(lp313
I01
aI10000
asV/store/cmst3/group/cmgtools/CMG/SUSYBBHToTauTau_M-90_8TeV-pythia6-tauola/Summer12_DR53X-PU_S10_START53_V7A-v1/AODSIM/PAT_CMG_V5_16_0/cmgTuple_20_1_yIa.root
p314
(lp315
I01
aI10000
asV/store/cmst3/group/cmgtools/CMG/SUSYBBHToTauTau_M-90_8TeV-pythia6-tauola/Summer12_DR53X-PU_S10_START53_V7A-v1/AODSIM/PAT_CMG_V5_16_0/cmgTuple_55_1_Mmm.root
p316
(lp317
I01
aI10000
asV/store/cmst3/group/cmgtools/CMG/SUSYBBHToTauTau_M-90_8TeV-pythia6-tauola/Summer12_DR53X-PU_S10_START53_V7A-v1/AODSIM/PAT_CMG_V5_16_0/cmgTuple_28_1_DE0.root
p318
(lp319
I01
aI10000
asV/store/cmst3/group/cmgtools/CMG/SUSYBBHToTauTau_M-90_8TeV-pythia6-tauola/Summer12_DR53X-PU_S10_START53_V7A-v1/AODSIM/PAT_CMG_V5_16_0/cmgTuple_46_1_g2t.root
p320
(lp321
I01
aI10000
asV/store/cmst3/group/cmgtools/CMG/SUSYBBHToTauTau_M-90_8TeV-pythia6-tauola/Summer12_DR53X-PU_S10_START53_V7A-v1/AODSIM/PAT_CMG_V5_16_0/cmgTuple_3_1_B0H.root
p322
(lp323
I01
aI10000
asV/store/cmst3/group/cmgtools/CMG/SUSYBBHToTauTau_M-90_8TeV-pythia6-tauola/Summer12_DR53X-PU_S10_START53_V7A-v1/AODSIM/PAT_CMG_V5_16_0/cmgTuple_25_1_H58.root
p324
(lp325
I01
aI10000
asV/store/cmst3/group/cmgtools/CMG/SUSYBBHToTauTau_M-90_8TeV-pythia6-tauola/Summer12_DR53X-PU_S10_START53_V7A-v1/AODSIM/PAT_CMG_V5_16_0/cmgTuple_77_1_vVT.root
p326
(lp327
I01
aI10000
asV/store/cmst3/group/cmgtools/CMG/SUSYBBHToTauTau_M-90_8TeV-pythia6-tauola/Summer12_DR53X-PU_S10_START53_V7A-v1/AODSIM/PAT_CMG_V5_16_0/cmgTuple_83_1_3G8.root
p328
(lp329
I01
aI10000
asV/store/cmst3/group/cmgtools/CMG/SUSYBBHToTauTau_M-90_8TeV-pythia6-tauola/Summer12_DR53X-PU_S10_START53_V7A-v1/AODSIM/PAT_CMG_V5_16_0/cmgTuple_40_1_AlQ.root
p330
(lp331
I01
aI10000
asV/store/cmst3/group/cmgtools/CMG/SUSYBBHToTauTau_M-90_8TeV-pythia6-tauola/Summer12_DR53X-PU_S10_START53_V7A-v1/AODSIM/PAT_CMG_V5_16_0/cmgTuple_66_1_5vI.root
p332
(lp333
I01
aI10000
asV/store/cmst3/group/cmgtools/CMG/SUSYBBHToTauTau_M-90_8TeV-pythia6-tauola/Summer12_DR53X-PU_S10_START53_V7A-v1/AODSIM/PAT_CMG_V5_16_0/cmgTuple_16_1_FS3.root
p334
(lp335
I01
aI10000
asV/store/cmst3/group/cmgtools/CMG/SUSYBBHToTauTau_M-90_8TeV-pythia6-tauola/Summer12_DR53X-PU_S10_START53_V7A-v1/AODSIM/PAT_CMG_V5_16_0/cmgTuple_13_1_xe9.root
p336
(lp337
I01
aI10000
asV/store/cmst3/group/cmgtools/CMG/SUSYBBHToTauTau_M-90_8TeV-pythia6-tauola/Summer12_DR53X-PU_S10_START53_V7A-v1/AODSIM/PAT_CMG_V5_16_0/cmgTuple_33_1_b4W.root
p338
(lp339
I01
aI10000
asV/store/cmst3/group/cmgtools/CMG/SUSYBBHToTauTau_M-90_8TeV-pythia6-tauola/Summer12_DR53X-PU_S10_START53_V7A-v1/AODSIM/PAT_CMG_V5_16_0/cmgTuple_21_1_Nk4.root
p340
(lp341
I01
aI10000
asV/store/cmst3/group/cmgtools/CMG/SUSYBBHToTauTau_M-90_8TeV-pythia6-tauola/Summer12_DR53X-PU_S10_START53_V7A-v1/AODSIM/PAT_CMG_V5_16_0/cmgTuple_60_1_7N0.root
p342
(lp343
I01
aI10000
asV/store/cmst3/group/cmgtools/CMG/SUSYBBHToTauTau_M-90_8TeV-pythia6-tauola/Summer12_DR53X-PU_S10_START53_V7A-v1/AODSIM/PAT_CMG_V5_16_0/cmgTuple_5_1_pXZ.root
p344
(lp345
I01
aI10000
asV/store/cmst3/group/cmgtools/CMG/SUSYBBHToTauTau_M-90_8TeV-pythia6-tauola/Summer12_DR53X-PU_S10_START53_V7A-v1/AODSIM/PAT_CMG_V5_16_0/cmgTuple_100_1_zWJ.root
p346
(lp347
I01
aI3920
asV/store/cmst3/group/cmgtools/CMG/SUSYBBHToTauTau_M-90_8TeV-pythia6-tauola/Summer12_DR53X-PU_S10_START53_V7A-v1/AODSIM/PAT_CMG_V5_16_0/cmgTuple_92_1_zmK.root
p348
(lp349
I01
aI10000
asV/store/cmst3/group/cmgtools/CMG/SUSYBBHToTauTau_M-90_8TeV-pythia6-tauola/Summer12_DR53X-PU_S10_START53_V7A-v1/AODSIM/PAT_CMG_V5_16_0/cmgTuple_45_1_8Cm.root
p350
(lp351
I01
aI10000
asV/store/cmst3/group/cmgtools/CMG/SUSYBBHToTauTau_M-90_8TeV-pythia6-tauola/Summer12_DR53X-PU_S10_START53_V7A-v1/AODSIM/PAT_CMG_V5_16_0/cmgTuple_57_1_1aM.root
p352
(lp353
I01
aI10000
asV/store/cmst3/group/cmgtools/CMG/SUSYBBHToTauTau_M-90_8TeV-pythia6-tauola/Summer12_DR53X-PU_S10_START53_V7A-v1/AODSIM/PAT_CMG_V5_16_0/cmgTuple_12_1_Ymc.root
p354
(lp355
I01
aI10000
asV/store/cmst3/group/cmgtools/CMG/SUSYBBHToTauTau_M-90_8TeV-pythia6-tauola/Summer12_DR53X-PU_S10_START53_V7A-v1/AODSIM/PAT_CMG_V5_16_0/cmgTuple_64_1_hbV.root
p356
(lp357
I01
aI10000
asV/store/cmst3/group/cmgtools/CMG/SUSYBBHToTauTau_M-90_8TeV-pythia6-tauola/Summer12_DR53X-PU_S10_START53_V7A-v1/AODSIM/PAT_CMG_V5_16_0/cmgTuple_63_1_m7t.root
p358
(lp359
I01
aI10000
asV/store/cmst3/group/cmgtools/CMG/SUSYBBHToTauTau_M-90_8TeV-pythia6-tauola/Summer12_DR53X-PU_S10_START53_V7A-v1/AODSIM/PAT_CMG_V5_16_0/cmgTuple_70_1_ZSX.root
p360
(lp361
I01
aI10000
asV/store/cmst3/group/cmgtools/CMG/SUSYBBHToTauTau_M-90_8TeV-pythia6-tauola/Summer12_DR53X-PU_S10_START53_V7A-v1/AODSIM/PAT_CMG_V5_16_0/cmgTuple_88_1_guh.root
p362
(lp363
I01
aI10000
asV/store/cmst3/group/cmgtools/CMG/SUSYBBHToTauTau_M-90_8TeV-pythia6-tauola/Summer12_DR53X-PU_S10_START53_V7A-v1/AODSIM/PAT_CMG_V5_16_0/cmgTuple_36_1_0xT.root
p364
(lp365
I01
aI10000
asV/store/cmst3/group/cmgtools/CMG/SUSYBBHToTauTau_M-90_8TeV-pythia6-tauola/Summer12_DR53X-PU_S10_START53_V7A-v1/AODSIM/PAT_CMG_V5_16_0/cmgTuple_39_1_4Qf.root
p366
(lp367
I01
aI10000
assVPhysicsGroup
p368
VCMG
p369
sVFilesCount
p370
I99
sVFilesEntries
p371
I975840
sVRunList
p372
(lp373
sVValidDuplicates
p374
(dp375
sVPrimaryDataset
p376
V/SUSYBBHToTauTau_M-90_8TeV-pythia6-tauola/Summer12_DR53X-PU_S10_START53_V7A-v1/AODSIM
p377
sVStatus
p378
VVALID
p379
sVName
p380
V/SUSYBBHToTauTau_M-90_8TeV-pythia6-tauola/Summer12_DR53X-PU_S10_START53_V7A-v1/AODSIM/PAT_CMG_V5_16_0
p381
sVTopdir
p382
V/eos/cms/store/cmst3/group/cmgtools/CMG
p383
sVdata
p384
(dp385
sVFilesBad
p386
I0
sVMinRun
p387
I-1
sVAlgoList
p388
(lp389
sVTierList
p390
(lp391
sVDateCreated
p392
V1371077221
p393
sVCreatedBy
p394
Vcmgtools_group
p395
sVMaxRun
p396
I-1
sVBadJobs
p397
(lp398
I24
aI48
assg115
I01
ssS'MonitorJobs'
p399
(dp400
S'LSFJobStatus'
p401
(dp402
g118
S'SUSYBBHToTauTau_M-1000_8TeV-pythia6-tauola/Summer12_DR53X-PU_S10_START53_V7A-v1/AODSIM/PAT_CMG_V5_16_0_1377467519/HTT_24Jul_newTES_manzoni_Up_Jobs/Job_29/LSFJOB_440975145/STDOUT.gz'
p403
sg119
S'SUSYBBHToTauTau_M-1000_8TeV-pythia6-tauola/Summer12_DR53X-PU_S10_START53_V7A-v1/AODSIM/PAT_CMG_V5_16_0_1377467519/HTT_24Jul_newTES_manzoni_Up_Jobs/Job_28/LSFJOB_440975130/STDOUT.gz'
p404
sg120
S'SUSYBBHToTauTau_M-1000_8TeV-pythia6-tauola/Summer12_DR53X-PU_S10_START53_V7A-v1/AODSIM/PAT_CMG_V5_16_0_1377467519/HTT_24Jul_newTES_manzoni_Up_Jobs/Job_23/LSFJOB_440975056/STDOUT.gz'
p405
sg121
S'SUSYBBHToTauTau_M-1000_8TeV-pythia6-tauola/Summer12_DR53X-PU_S10_START53_V7A-v1/AODSIM/PAT_CMG_V5_16_0_1377467519/HTT_24Jul_newTES_manzoni_Up_Jobs/Job_22/LSFJOB_440975047/STDOUT.gz'
p406
sg122
S'SUSYBBHToTauTau_M-1000_8TeV-pythia6-tauola/Summer12_DR53X-PU_S10_START53_V7A-v1/AODSIM/PAT_CMG_V5_16_0_1377467519/HTT_24Jul_newTES_manzoni_Up_Jobs/Job_21/LSFJOB_440975032/STDOUT.gz'
p407
sg123
S'SUSYBBHToTauTau_M-1000_8TeV-pythia6-tauola/Summer12_DR53X-PU_S10_START53_V7A-v1/AODSIM/PAT_CMG_V5_16_0_1377467519/HTT_24Jul_newTES_manzoni_Up_Jobs/Job_20/LSFJOB_440975021/STDOUT.gz'
p408
sg124
S'SUSYBBHToTauTau_M-1000_8TeV-pythia6-tauola/Summer12_DR53X-PU_S10_START53_V7A-v1/AODSIM/PAT_CMG_V5_16_0_1377467519/HTT_24Jul_newTES_manzoni_Up_Jobs/Job_27/LSFJOB_440975117/STDOUT.gz'
p409
sg125
S'SUSYBBHToTauTau_M-1000_8TeV-pythia6-tauola/Summer12_DR53X-PU_S10_START53_V7A-v1/AODSIM/PAT_CMG_V5_16_0_1377467519/HTT_24Jul_newTES_manzoni_Up_Jobs/Job_26/LSFJOB_440975095/STDOUT.gz'
p410
sg126
S'SUSYBBHToTauTau_M-1000_8TeV-pythia6-tauola/Summer12_DR53X-PU_S10_START53_V7A-v1/AODSIM/PAT_CMG_V5_16_0_1377467519/HTT_24Jul_newTES_manzoni_Up_Jobs/Job_25/LSFJOB_440975078/STDOUT.gz'
p411
sg127
S'SUSYBBHToTauTau_M-1000_8TeV-pythia6-tauola/Summer12_DR53X-PU_S10_START53_V7A-v1/AODSIM/PAT_CMG_V5_16_0_1377467519/HTT_24Jul_newTES_manzoni_Up_Jobs/Job_24/LSFJOB_440975068/STDOUT.gz'
p412
sg128
S'SUSYBBHToTauTau_M-1000_8TeV-pythia6-tauola/Summer12_DR53X-PU_S10_START53_V7A-v1/AODSIM/PAT_CMG_V5_16_0_1377467519/HTT_24Jul_newTES_manzoni_Up_Jobs/Job_8/LSFJOB_440974850/STDOUT.gz'
p413
sg129
S'SUSYBBHToTauTau_M-1000_8TeV-pythia6-tauola/Summer12_DR53X-PU_S10_START53_V7A-v1/AODSIM/PAT_CMG_V5_16_0_1377467519/HTT_24Jul_newTES_manzoni_Up_Jobs/Job_9/LSFJOB_440974864/STDOUT.gz'
p414
sg130
S'SUSYBBHToTauTau_M-1000_8TeV-pythia6-tauola/Summer12_DR53X-PU_S10_START53_V7A-v1/AODSIM/PAT_CMG_V5_16_0_1377467519/HTT_24Jul_newTES_manzoni_Up_Jobs/Job_4/LSFJOB_440974800/STDOUT.gz'
p415
sg131
S'SUSYBBHToTauTau_M-1000_8TeV-pythia6-tauola/Summer12_DR53X-PU_S10_START53_V7A-v1/AODSIM/PAT_CMG_V5_16_0_1377467519/HTT_24Jul_newTES_manzoni_Up_Jobs/Job_5/LSFJOB_440974813/STDOUT.gz'
p416
sg132
S'SUSYBBHToTauTau_M-1000_8TeV-pythia6-tauola/Summer12_DR53X-PU_S10_START53_V7A-v1/AODSIM/PAT_CMG_V5_16_0_1377467519/HTT_24Jul_newTES_manzoni_Up_Jobs/Job_6/LSFJOB_440974822/STDOUT.gz'
p417
sg133
S'SUSYBBHToTauTau_M-1000_8TeV-pythia6-tauola/Summer12_DR53X-PU_S10_START53_V7A-v1/AODSIM/PAT_CMG_V5_16_0_1377467519/HTT_24Jul_newTES_manzoni_Up_Jobs/Job_7/LSFJOB_440974833/STDOUT.gz'
p418
sg134
S'SUSYBBHToTauTau_M-1000_8TeV-pythia6-tauola/Summer12_DR53X-PU_S10_START53_V7A-v1/AODSIM/PAT_CMG_V5_16_0_1377467519/HTT_24Jul_newTES_manzoni_Up_Jobs/Job_1/LSFJOB_440974756/STDOUT.gz'
p419
sg135
S'SUSYBBHToTauTau_M-1000_8TeV-pythia6-tauola/Summer12_DR53X-PU_S10_START53_V7A-v1/AODSIM/PAT_CMG_V5_16_0_1377467519/HTT_24Jul_newTES_manzoni_Up_Jobs/Job_2/LSFJOB_440974767/STDOUT.gz'
p420
sg136
S'SUSYBBHToTauTau_M-1000_8TeV-pythia6-tauola/Summer12_DR53X-PU_S10_START53_V7A-v1/AODSIM/PAT_CMG_V5_16_0_1377467519/HTT_24Jul_newTES_manzoni_Up_Jobs/Job_3/LSFJOB_440974782/STDOUT.gz'
p421
sg137
S'SUSYBBHToTauTau_M-1000_8TeV-pythia6-tauola/Summer12_DR53X-PU_S10_START53_V7A-v1/AODSIM/PAT_CMG_V5_16_0_1377467519/HTT_24Jul_newTES_manzoni_Up_Jobs/Job_34/LSFJOB_440975191/STDOUT.gz'
p422
sg138
S'SUSYBBHToTauTau_M-1000_8TeV-pythia6-tauola/Summer12_DR53X-PU_S10_START53_V7A-v1/AODSIM/PAT_CMG_V5_16_0_1377467519/HTT_24Jul_newTES_manzoni_Up_Jobs/Job_30/LSFJOB_440975156/STDOUT.gz'
p423
sg139
S'SUSYBBHToTauTau_M-1000_8TeV-pythia6-tauola/Summer12_DR53X-PU_S10_START53_V7A-v1/AODSIM/PAT_CMG_V5_16_0_1377467519/HTT_24Jul_newTES_manzoni_Up_Jobs/Job_31/LSFJOB_440975166/STDOUT.gz'
p424
sg140
S'SUSYBBHToTauTau_M-1000_8TeV-pythia6-tauola/Summer12_DR53X-PU_S10_START53_V7A-v1/AODSIM/PAT_CMG_V5_16_0_1377467519/HTT_24Jul_newTES_manzoni_Up_Jobs/Job_32/LSFJOB_440975174/STDOUT.gz'
p425
sg141
S'SUSYBBHToTauTau_M-1000_8TeV-pythia6-tauola/Summer12_DR53X-PU_S10_START53_V7A-v1/AODSIM/PAT_CMG_V5_16_0_1377467519/HTT_24Jul_newTES_manzoni_Up_Jobs/Job_33/LSFJOB_440975183/STDOUT.gz'
p426
sg142
S'SUSYBBHToTauTau_M-1000_8TeV-pythia6-tauola/Summer12_DR53X-PU_S10_START53_V7A-v1/AODSIM/PAT_CMG_V5_16_0_1377467519/HTT_24Jul_newTES_manzoni_Up_Jobs/Job_16/LSFJOB_440974963/STDOUT.gz'
p427
sg143
S'SUSYBBHToTauTau_M-1000_8TeV-pythia6-tauola/Summer12_DR53X-PU_S10_START53_V7A-v1/AODSIM/PAT_CMG_V5_16_0_1377467519/HTT_24Jul_newTES_manzoni_Up_Jobs/Job_17/LSFJOB_440974978/STDOUT.gz'
p428
sg144
S'SUSYBBHToTauTau_M-1000_8TeV-pythia6-tauola/Summer12_DR53X-PU_S10_START53_V7A-v1/AODSIM/PAT_CMG_V5_16_0_1377467519/HTT_24Jul_newTES_manzoni_Up_Jobs/Job_14/LSFJOB_440974926/STDOUT.gz'
p429
sg145
S'SUSYBBHToTauTau_M-1000_8TeV-pythia6-tauola/Summer12_DR53X-PU_S10_START53_V7A-v1/AODSIM/PAT_CMG_V5_16_0_1377467519/HTT_24Jul_newTES_manzoni_Up_Jobs/Job_15/LSFJOB_440974947/STDOUT.gz'
p430
sg146
S'SUSYBBHToTauTau_M-1000_8TeV-pythia6-tauola/Summer12_DR53X-PU_S10_START53_V7A-v1/AODSIM/PAT_CMG_V5_16_0_1377467519/HTT_24Jul_newTES_manzoni_Up_Jobs/Job_12/LSFJOB_440974906/STDOUT.gz'
p431
sg147
S'SUSYBBHToTauTau_M-1000_8TeV-pythia6-tauola/Summer12_DR53X-PU_S10_START53_V7A-v1/AODSIM/PAT_CMG_V5_16_0_1377467519/HTT_24Jul_newTES_manzoni_Up_Jobs/Job_13/LSFJOB_440974914/STDOUT.gz'
p432
sg148
S'SUSYBBHToTauTau_M-1000_8TeV-pythia6-tauola/Summer12_DR53X-PU_S10_START53_V7A-v1/AODSIM/PAT_CMG_V5_16_0_1377467519/HTT_24Jul_newTES_manzoni_Up_Jobs/Job_10/LSFJOB_440974881/STDOUT.gz'
p433
sg149
S'SUSYBBHToTauTau_M-1000_8TeV-pythia6-tauola/Summer12_DR53X-PU_S10_START53_V7A-v1/AODSIM/PAT_CMG_V5_16_0_1377467519/HTT_24Jul_newTES_manzoni_Up_Jobs/Job_11/LSFJOB_440974897/STDOUT.gz'
p434
sg150
S'SUSYBBHToTauTau_M-1000_8TeV-pythia6-tauola/Summer12_DR53X-PU_S10_START53_V7A-v1/AODSIM/PAT_CMG_V5_16_0_1377467519/HTT_24Jul_newTES_manzoni_Up_Jobs/Job_18/LSFJOB_440974989/STDOUT.gz'
p435
sg151
S'SUSYBBHToTauTau_M-1000_8TeV-pythia6-tauola/Summer12_DR53X-PU_S10_START53_V7A-v1/AODSIM/PAT_CMG_V5_16_0_1377467519/HTT_24Jul_newTES_manzoni_Up_Jobs/Job_19/LSFJOB_440975002/STDOUT.gz'
p436
ssS'LSFJobIDs'
p437
(dp438
g118
S'440975145'
p439
sg119
S'440975130'
p440
sg120
S'440975056'
p441
sg121
S'440975047'
p442
sg122
S'440975032'
p443
sg123
S'440975021'
p444
sg124
S'440975117'
p445
sg125
S'440975095'
p446
sg126
S'440975078'
p447
sg127
S'440975068'
p448
sg128
S'440974850'
p449
sg129
S'440974864'
p450
sg130
S'440974800'
p451
sg131
S'440974813'
p452
sg132
S'440974822'
p453
sg133
S'440974833'
p454
sg134
S'440974756'
p455
sg135
S'440974767'
p456
sg136
S'440974782'
p457
sg137
S'440975191'
p458
sg138
S'440975156'
p459
sg139
S'440975166'
p460
sg140
S'440975174'
p461
sg141
S'440975183'
p462
sg142
S'440974963'
p463
sg143
S'440974978'
p464
sg144
S'440974926'
p465
sg145
S'440974947'
p466
sg146
S'440974906'
p467
sg147
S'440974914'
p468
sg148
S'440974881'
p469
sg149
S'440974897'
p470
sg150
S'440974989'
p471
sg151
S'440975002'
p472
sssS'FindOnCastor'
p473
(dp474
g77
S'/eos/cms/store/cmst3/group/cmgtools/CMG'
p475
sS'Directory'
p476
S'/eos/cms/store/cmst3/group/cmgtools/CMG/SUSYBBHToTauTau_M-1000_8TeV-pythia6-tauola/Summer12_DR53X-PU_S10_START53_V7A-v1/AODSIM/PAT_CMG_V5_16_0'
p477
ssS'CheckConfig'
p478
(dp479
g93
g94
ssS'FullCFG'
p480
(dp481
S'FullCFG'
p482
S'SUSYBBHToTauTau_M-1000_8TeV-pythia6-tauola/Summer12_DR53X-PU_S10_START53_V7A-v1/AODSIM/PAT_CMG_V5_16_0_1377467519/full_cfg.py'
p483
ssS'WriteJobReport'
p484
(dp485
S'SummaryFile'
p486
S'SUSYBBHToTauTau_M-1000_8TeV-pythia6-tauola/Summer12_DR53X-PU_S10_START53_V7A-v1/AODSIM/PAT_CMG_V5_16_0_1377467519/resubmit.sh'
p487
ssS'ExpandConfig'
p488
(dp489
S'ExpandedFullCFG'
p490
S'SUSYBBHToTauTau_M-1000_8TeV-pythia6-tauola/Summer12_DR53X-PU_S10_START53_V7A-v1/AODSIM/PAT_CMG_V5_16_0_1377467519/Expandedfull_cfg.py'
p491
ssS'RunTestEvents'
p492
(dp493
g93
g94
sS'TestCFG'
p494
S'SUSYBBHToTauTau_M-1000_8TeV-pythia6-tauola/Summer12_DR53X-PU_S10_START53_V7A-v1/AODSIM/PAT_CMG_V5_16_0_1377467519/test_cfg.py'
p495
ssS'SourceCFG'
p496
(dp497
S'SourceCFG'
p498
S'SUSYBBHToTauTau_M-1000_8TeV-pythia6-tauola/Summer12_DR53X-PU_S10_START53_V7A-v1/AODSIM/PAT_CMG_V5_16_0_1377467519/source_cfg.py'
p499
ssS'CheckForWrite'
p500
(dp501
g476
g477
sS'WriteAccess'
p502
I01
ssS'WriteToDatasets'
p503
(dp504
S'Added'
p505
I00
sg75
S'/SUSYBBHToTauTau_M-1000_8TeV-pythia6-tauola/Summer12_DR53X-PU_S10_START53_V7A-v1/AODSIM/PAT_CMG_V5_16_0/HTT_24Jul_newTES_manzoni_Up'
p506
sS'User'
p507
g108
ssS'RunCMSBatch'
p508
(dp509
S'BatchUser'
p510
g108
sS'SampleOutputDir'
p511
S'/store/cmst3/user/manzoni/CMG/SUSYBBHToTauTau_M-1000_8TeV-pythia6-tauola/Summer12_DR53X-PU_S10_START53_V7A-v1/AODSIM/PAT_CMG_V5_16_0/HTT_24Jul_newTES_manzoni_Up'
p512
sS'SampleDataset'
p513
g76
sS'LSFJobsTopDir'
p514
S'SUSYBBHToTauTau_M-1000_8TeV-pythia6-tauola/Summer12_DR53X-PU_S10_START53_V7A-v1/AODSIM/PAT_CMG_V5_16_0_1377467519/HTT_24Jul_newTES_manzoni_Up_Jobs'
p515
ssS'CreateJobDirectory'
p516
(dp517
S'JobDir'
p518
S'SUSYBBHToTauTau_M-1000_8TeV-pythia6-tauola/Summer12_DR53X-PU_S10_START53_V7A-v1/AODSIM/PAT_CMG_V5_16_0_1377467519'
p519
sS'PWD'
p520
S'/afs/cern.ch/user/m/manzoni/summer13/CMGTools/CMSSW_5_3_9/src/CMGTools/H2TauTau/prod/25aug_corrMC/up/mc'
p521
ssS'CleanJobFiles'
p522
(dp523
S'Compressed'
p524
(dp525
S'CompressedFiles'
p526
(lp527
ssS'Cleaned'
p528
(dp529
S'CleanedFiles'
p530
(lp531
g491
ag495
aS'SUSYBBHToTauTau_M-1000_8TeV-pythia6-tauola/Summer12_DR53X-PU_S10_START53_V7A-v1/AODSIM/PAT_CMG_V5_16_0_1377467519/diTau_fullsel_tree_CMG.root'
p532
aS'SUSYBBHToTauTau_M-1000_8TeV-pythia6-tauola/Summer12_DR53X-PU_S10_START53_V7A-v1/AODSIM/PAT_CMG_V5_16_0_1377467519/source_cfg.pyc'
p533
aS'SUSYBBHToTauTau_M-1000_8TeV-pythia6-tauola/Summer12_DR53X-PU_S10_START53_V7A-v1/AODSIM/PAT_CMG_V5_16_0_1377467519/Expandedfull_cfg.pyc'
p534
asssS'CheckForMask'
p535
(dp536
g3
g158
sg115
I01
ss.