(dp0
S'CheckJobStatus'
p1
(dp2
S'Report'
p3
(dp4
S'Files'
p5
(dp6
S'/store/cmst3/user/manzoni/CMG/VBF_HToTauTau_M-160_8TeV-powheg-pythia6/Summer12_DR53X-PU_S10_START53_V7A-v1/AODSIM/PAT_CMG_V5_16_0/HTT_24Jul_newTES_manzoni_Up/diTau_fullsel_tree_CMG_4.root'
p7
(I01
I4130
tp8
sS'/store/cmst3/user/manzoni/CMG/VBF_HToTauTau_M-160_8TeV-powheg-pythia6/Summer12_DR53X-PU_S10_START53_V7A-v1/AODSIM/PAT_CMG_V5_16_0/HTT_24Jul_newTES_manzoni_Up/diTau_fullsel_tree_CMG_3.root'
p9
(I01
I3841
tp10
sS'/store/cmst3/user/manzoni/CMG/VBF_HToTauTau_M-160_8TeV-powheg-pythia6/Summer12_DR53X-PU_S10_START53_V7A-v1/AODSIM/PAT_CMG_V5_16_0/HTT_24Jul_newTES_manzoni_Up/diTau_fullsel_tree_CMG_9.root'
p11
(I01
I4259
tp12
sS'/store/cmst3/user/manzoni/CMG/VBF_HToTauTau_M-160_8TeV-powheg-pythia6/Summer12_DR53X-PU_S10_START53_V7A-v1/AODSIM/PAT_CMG_V5_16_0/HTT_24Jul_newTES_manzoni_Up/diTau_fullsel_tree_CMG_6.root'
p13
(I01
I4029
tp14
sS'/store/cmst3/user/manzoni/CMG/VBF_HToTauTau_M-160_8TeV-powheg-pythia6/Summer12_DR53X-PU_S10_START53_V7A-v1/AODSIM/PAT_CMG_V5_16_0/HTT_24Jul_newTES_manzoni_Up/diTau_fullsel_tree_CMG_5.root'
p15
(I01
I4166
tp16
sS'/store/cmst3/user/manzoni/CMG/VBF_HToTauTau_M-160_8TeV-powheg-pythia6/Summer12_DR53X-PU_S10_START53_V7A-v1/AODSIM/PAT_CMG_V5_16_0/HTT_24Jul_newTES_manzoni_Up/diTau_fullsel_tree_CMG_11.root'
p17
(I01
I824
tp18
sS'/store/cmst3/user/manzoni/CMG/VBF_HToTauTau_M-160_8TeV-powheg-pythia6/Summer12_DR53X-PU_S10_START53_V7A-v1/AODSIM/PAT_CMG_V5_16_0/HTT_24Jul_newTES_manzoni_Up/diTau_fullsel_tree_CMG_10.root'
p19
(I01
I3430
tp20
sS'/store/cmst3/user/manzoni/CMG/VBF_HToTauTau_M-160_8TeV-powheg-pythia6/Summer12_DR53X-PU_S10_START53_V7A-v1/AODSIM/PAT_CMG_V5_16_0/HTT_24Jul_newTES_manzoni_Up/diTau_fullsel_tree_CMG_2.root'
p21
(I01
I4106
tp22
sS'/store/cmst3/user/manzoni/CMG/VBF_HToTauTau_M-160_8TeV-powheg-pythia6/Summer12_DR53X-PU_S10_START53_V7A-v1/AODSIM/PAT_CMG_V5_16_0/HTT_24Jul_newTES_manzoni_Up/diTau_fullsel_tree_CMG_8.root'
p23
(I01
I3997
tp24
sS'/store/cmst3/user/manzoni/CMG/VBF_HToTauTau_M-160_8TeV-powheg-pythia6/Summer12_DR53X-PU_S10_START53_V7A-v1/AODSIM/PAT_CMG_V5_16_0/HTT_24Jul_newTES_manzoni_Up/diTau_fullsel_tree_CMG_7.root'
p25
(I01
I3967
tp26
sS'/store/cmst3/user/manzoni/CMG/VBF_HToTauTau_M-160_8TeV-powheg-pythia6/Summer12_DR53X-PU_S10_START53_V7A-v1/AODSIM/PAT_CMG_V5_16_0/HTT_24Jul_newTES_manzoni_Up/diTau_fullsel_tree_CMG_1.root'
p27
(I01
I4109
tp28
ssS'Name'
p29
S'/VBF_HToTauTau_M-160_8TeV-powheg-pythia6/Summer12_DR53X-PU_S10_START53_V7A-v1/AODSIM/PAT_CMG_V5_16_0/HTT_24Jul_newTES_manzoni_Up'
p30
sS'Topdir'
p31
S'/eos/cms/store/cmst3/user/manzoni/CMG'
p32
sS'RunList'
p33
(lp34
sS'PathList'
p35
(lp36
S'/store/cmst3/user/manzoni/CMG/VBF_HToTauTau_M-160_8TeV-powheg-pythia6/Summer12_DR53X-PU_S10_START53_V7A-v1/AODSIM/PAT_CMG_V5_16_0/HTT_24Jul_newTES_manzoni_Up'
p37
asS'AlgoList'
p38
(lp39
sS'PrimaryDatasetFraction'
p40
F0.081818109000032044
sS'FilesGood'
p41
I11
sS'PrimaryDatasetEntries'
p42
I499376
sS'data'
p43
(dp44
sS'FilesBad'
p45
I0
sS'ReportVersion'
p46
I3
sS'Status'
p47
S'VALID'
p48
sS'MaxRun'
p49
I-1
sS'PhysicsGroup'
p50
S'CMG'
p51
sS'MinRun'
p52
I-1
sS'StageHost'
p53
S'castorcms'
p54
sS'FilesCount'
p55
I11
sS'FilesEntries'
p56
I40858
sS'TierList'
p57
(lp58
sS'DateCreated'
p59
S'1377474168'
p60
sS'CreatedBy'
p61
S'manzoni'
p62
sS'ValidDuplicates'
p63
(dp64
sS'PrimaryDataset'
p65
S'/VBF_HToTauTau_M-160_8TeV-powheg-pythia6/Summer12_DR53X-PU_S10_START53_V7A-v1/AODSIM'
p66
sS'BadJobs'
p67
(lp68
ssS'MaskPresent'
p69
I01
sS'LSFJobStatusCheck'
p70
(dp71
S'VBF_HToTauTau_M-160_8TeV-powheg-pythia6/Summer12_DR53X-PU_S10_START53_V7A-v1/AODSIM/PAT_CMG_V5_16_0_1377467530/HTT_24Jul_newTES_manzoni_Up_Jobs/Job_11'
p72
g48
sS'VBF_HToTauTau_M-160_8TeV-powheg-pythia6/Summer12_DR53X-PU_S10_START53_V7A-v1/AODSIM/PAT_CMG_V5_16_0_1377467530/HTT_24Jul_newTES_manzoni_Up_Jobs/Job_10'
p73
g48
sS'VBF_HToTauTau_M-160_8TeV-powheg-pythia6/Summer12_DR53X-PU_S10_START53_V7A-v1/AODSIM/PAT_CMG_V5_16_0_1377467530/HTT_24Jul_newTES_manzoni_Up_Jobs/Job_9'
p74
g48
sS'VBF_HToTauTau_M-160_8TeV-powheg-pythia6/Summer12_DR53X-PU_S10_START53_V7A-v1/AODSIM/PAT_CMG_V5_16_0_1377467530/HTT_24Jul_newTES_manzoni_Up_Jobs/Job_8'
p75
g48
sS'VBF_HToTauTau_M-160_8TeV-powheg-pythia6/Summer12_DR53X-PU_S10_START53_V7A-v1/AODSIM/PAT_CMG_V5_16_0_1377467530/HTT_24Jul_newTES_manzoni_Up_Jobs/Job_1'
p76
g48
sS'VBF_HToTauTau_M-160_8TeV-powheg-pythia6/Summer12_DR53X-PU_S10_START53_V7A-v1/AODSIM/PAT_CMG_V5_16_0_1377467530/HTT_24Jul_newTES_manzoni_Up_Jobs/Job_3'
p77
g48
sS'VBF_HToTauTau_M-160_8TeV-powheg-pythia6/Summer12_DR53X-PU_S10_START53_V7A-v1/AODSIM/PAT_CMG_V5_16_0_1377467530/HTT_24Jul_newTES_manzoni_Up_Jobs/Job_2'
p78
g48
sS'VBF_HToTauTau_M-160_8TeV-powheg-pythia6/Summer12_DR53X-PU_S10_START53_V7A-v1/AODSIM/PAT_CMG_V5_16_0_1377467530/HTT_24Jul_newTES_manzoni_Up_Jobs/Job_5'
p79
g48
sS'VBF_HToTauTau_M-160_8TeV-powheg-pythia6/Summer12_DR53X-PU_S10_START53_V7A-v1/AODSIM/PAT_CMG_V5_16_0_1377467530/HTT_24Jul_newTES_manzoni_Up_Jobs/Job_4'
p80
g48
sS'VBF_HToTauTau_M-160_8TeV-powheg-pythia6/Summer12_DR53X-PU_S10_START53_V7A-v1/AODSIM/PAT_CMG_V5_16_0_1377467530/HTT_24Jul_newTES_manzoni_Up_Jobs/Job_7'
p81
g48
sS'VBF_HToTauTau_M-160_8TeV-powheg-pythia6/Summer12_DR53X-PU_S10_START53_V7A-v1/AODSIM/PAT_CMG_V5_16_0_1377467530/HTT_24Jul_newTES_manzoni_Up_Jobs/Job_6'
p82
g48
sssS'CheckDatasetExists'
p83
(dp84
S'Dataset'
p85
S'/VBF_HToTauTau_M-160_8TeV-powheg-pythia6/Summer12_DR53X-PU_S10_START53_V7A-v1/AODSIM/PAT_CMG_V5_16_0'
p86
ssS'GenerateMask'
p87
(dp88
g3
(dp89
VPathList
p90
(lp91
V/store/cmst3/group/cmgtools/CMG/VBF_HToTauTau_M-160_8TeV-powheg-pythia6/Summer12_DR53X-PU_S10_START53_V7A-v1/AODSIM/PAT_CMG_V5_16_0
p92
asVStageHost
p93
Vcastorcms
p94
sVPrimaryDatasetFraction
p95
F1.0
sVFilesGood
p96
I52
sVPrimaryDatasetEntries
p97
I499376
sVReportVersion
p98
I3
sVFiles
p99
(dp100
V/store/cmst3/group/cmgtools/CMG/VBF_HToTauTau_M-160_8TeV-powheg-pythia6/Summer12_DR53X-PU_S10_START53_V7A-v1/AODSIM/PAT_CMG_V5_16_0/cmgTuple_49_1_yG4.root
p101
(lp102
I01
aI10000
asV/store/cmst3/group/cmgtools/CMG/VBF_HToTauTau_M-160_8TeV-powheg-pythia6/Summer12_DR53X-PU_S10_START53_V7A-v1/AODSIM/PAT_CMG_V5_16_0/cmgTuple_38_1_CNJ.root
p103
(lp104
I01
aI10000
asV/store/cmst3/group/cmgtools/CMG/VBF_HToTauTau_M-160_8TeV-powheg-pythia6/Summer12_DR53X-PU_S10_START53_V7A-v1/AODSIM/PAT_CMG_V5_16_0/cmgTuple_11_1_JBT.root
p105
(lp106
I01
aI10000
asV/store/cmst3/group/cmgtools/CMG/VBF_HToTauTau_M-160_8TeV-powheg-pythia6/Summer12_DR53X-PU_S10_START53_V7A-v1/AODSIM/PAT_CMG_V5_16_0/cmgTuple_21_1_ExS.root
p107
(lp108
I01
aI10000
asV/store/cmst3/group/cmgtools/CMG/VBF_HToTauTau_M-160_8TeV-powheg-pythia6/Summer12_DR53X-PU_S10_START53_V7A-v1/AODSIM/PAT_CMG_V5_16_0/cmgTuple_2_1_HfM.root
p109
(lp110
I01
aI10000
asV/store/cmst3/group/cmgtools/CMG/VBF_HToTauTau_M-160_8TeV-powheg-pythia6/Summer12_DR53X-PU_S10_START53_V7A-v1/AODSIM/PAT_CMG_V5_16_0/cmgTuple_4_1_biG.root
p111
(lp112
I01
aI10000
asV/store/cmst3/group/cmgtools/CMG/VBF_HToTauTau_M-160_8TeV-powheg-pythia6/Summer12_DR53X-PU_S10_START53_V7A-v1/AODSIM/PAT_CMG_V5_16_0/cmgTuple_12_1_lX5.root
p113
(lp114
I01
aI10000
asV/store/cmst3/group/cmgtools/CMG/VBF_HToTauTau_M-160_8TeV-powheg-pythia6/Summer12_DR53X-PU_S10_START53_V7A-v1/AODSIM/PAT_CMG_V5_16_0/cmgTuple_18_1_gSR.root
p115
(lp116
I01
aI10000
asV/store/cmst3/group/cmgtools/CMG/VBF_HToTauTau_M-160_8TeV-powheg-pythia6/Summer12_DR53X-PU_S10_START53_V7A-v1/AODSIM/PAT_CMG_V5_16_0/cmgTuple_50_1_BXJ.root
p117
(lp118
I01
aI10000
asV/store/cmst3/group/cmgtools/CMG/VBF_HToTauTau_M-160_8TeV-powheg-pythia6/Summer12_DR53X-PU_S10_START53_V7A-v1/AODSIM/PAT_CMG_V5_16_0/cmgTuple_43_1_7iw.root
p119
(lp120
I01
aI10000
asV/store/cmst3/group/cmgtools/CMG/VBF_HToTauTau_M-160_8TeV-powheg-pythia6/Summer12_DR53X-PU_S10_START53_V7A-v1/AODSIM/PAT_CMG_V5_16_0/cmgTuple_45_1_B0C.root
p121
(lp122
I01
aI10000
asV/store/cmst3/group/cmgtools/CMG/VBF_HToTauTau_M-160_8TeV-powheg-pythia6/Summer12_DR53X-PU_S10_START53_V7A-v1/AODSIM/PAT_CMG_V5_16_0/cmgTuple_42_1_fWs.root
p123
(lp124
I01
aI10000
asV/store/cmst3/group/cmgtools/CMG/VBF_HToTauTau_M-160_8TeV-powheg-pythia6/Summer12_DR53X-PU_S10_START53_V7A-v1/AODSIM/PAT_CMG_V5_16_0/cmgTuple_1_1_qUx.root
p125
(lp126
I01
aI7188
asV/store/cmst3/group/cmgtools/CMG/VBF_HToTauTau_M-160_8TeV-powheg-pythia6/Summer12_DR53X-PU_S10_START53_V7A-v1/AODSIM/PAT_CMG_V5_16_0/cmgTuple_41_1_7ZN.root
p127
(lp128
I01
aI10000
asV/store/cmst3/group/cmgtools/CMG/VBF_HToTauTau_M-160_8TeV-powheg-pythia6/Summer12_DR53X-PU_S10_START53_V7A-v1/AODSIM/PAT_CMG_V5_16_0/cmgTuple_36_1_0bl.root
p129
(lp130
I01
aI10000
asV/store/cmst3/group/cmgtools/CMG/VBF_HToTauTau_M-160_8TeV-powheg-pythia6/Summer12_DR53X-PU_S10_START53_V7A-v1/AODSIM/PAT_CMG_V5_16_0/cmgTuple_8_1_0IX.root
p131
(lp132
I01
aI10000
asV/store/cmst3/group/cmgtools/CMG/VBF_HToTauTau_M-160_8TeV-powheg-pythia6/Summer12_DR53X-PU_S10_START53_V7A-v1/AODSIM/PAT_CMG_V5_16_0/cmgTuple_35_1_HMv.root
p133
(lp134
I01
aI10000
asV/store/cmst3/group/cmgtools/CMG/VBF_HToTauTau_M-160_8TeV-powheg-pythia6/Summer12_DR53X-PU_S10_START53_V7A-v1/AODSIM/PAT_CMG_V5_16_0/cmgTuple_31_1_7R4.root
p135
(lp136
I01
aI10000
asV/store/cmst3/group/cmgtools/CMG/VBF_HToTauTau_M-160_8TeV-powheg-pythia6/Summer12_DR53X-PU_S10_START53_V7A-v1/AODSIM/PAT_CMG_V5_16_0/cmgTuple_44_1_ZQy.root
p137
(lp138
I01
aI10000
asV/store/cmst3/group/cmgtools/CMG/VBF_HToTauTau_M-160_8TeV-powheg-pythia6/Summer12_DR53X-PU_S10_START53_V7A-v1/AODSIM/PAT_CMG_V5_16_0/cmgTuple_13_1_IJg.root
p139
(lp140
I01
aI10000
asV/store/cmst3/group/cmgtools/CMG/VBF_HToTauTau_M-160_8TeV-powheg-pythia6/Summer12_DR53X-PU_S10_START53_V7A-v1/AODSIM/PAT_CMG_V5_16_0/cmgTuple_24_1_knR.root
p141
(lp142
I01
aI10000
asV/store/cmst3/group/cmgtools/CMG/VBF_HToTauTau_M-160_8TeV-powheg-pythia6/Summer12_DR53X-PU_S10_START53_V7A-v1/AODSIM/PAT_CMG_V5_16_0/cmgTuple_33_1_Irz.root
p143
(lp144
I01
aI10000
asV/store/cmst3/group/cmgtools/CMG/VBF_HToTauTau_M-160_8TeV-powheg-pythia6/Summer12_DR53X-PU_S10_START53_V7A-v1/AODSIM/PAT_CMG_V5_16_0/cmgTuple_46_1_BTM.root
p145
(lp146
I01
aI10000
asV/store/cmst3/group/cmgtools/CMG/VBF_HToTauTau_M-160_8TeV-powheg-pythia6/Summer12_DR53X-PU_S10_START53_V7A-v1/AODSIM/PAT_CMG_V5_16_0/cmgTuple_9_1_ZBW.root
p147
(lp148
I01
aI10000
asV/store/cmst3/group/cmgtools/CMG/VBF_HToTauTau_M-160_8TeV-powheg-pythia6/Summer12_DR53X-PU_S10_START53_V7A-v1/AODSIM/PAT_CMG_V5_16_0/cmgTuple_10_1_Nfa.root
p149
(lp150
I01
aI10000
asV/store/cmst3/group/cmgtools/CMG/VBF_HToTauTau_M-160_8TeV-powheg-pythia6/Summer12_DR53X-PU_S10_START53_V7A-v1/AODSIM/PAT_CMG_V5_16_0/cmgTuple_29_1_hf5.root
p151
(lp152
I01
aI10000
asV/store/cmst3/group/cmgtools/CMG/VBF_HToTauTau_M-160_8TeV-powheg-pythia6/Summer12_DR53X-PU_S10_START53_V7A-v1/AODSIM/PAT_CMG_V5_16_0/cmgTuple_14_1_kuM.root
p153
(lp154
I01
aI10000
asV/store/cmst3/group/cmgtools/CMG/VBF_HToTauTau_M-160_8TeV-powheg-pythia6/Summer12_DR53X-PU_S10_START53_V7A-v1/AODSIM/PAT_CMG_V5_16_0/cmgTuple_25_1_W81.root
p155
(lp156
I01
aI10000
asV/store/cmst3/group/cmgtools/CMG/VBF_HToTauTau_M-160_8TeV-powheg-pythia6/Summer12_DR53X-PU_S10_START53_V7A-v1/AODSIM/PAT_CMG_V5_16_0/cmgTuple_15_1_g4U.root
p157
(lp158
I01
aI10000
asV/store/cmst3/group/cmgtools/CMG/VBF_HToTauTau_M-160_8TeV-powheg-pythia6/Summer12_DR53X-PU_S10_START53_V7A-v1/AODSIM/PAT_CMG_V5_16_0/cmgTuple_19_1_eAx.root
p159
(lp160
I01
aI10000
asV/store/cmst3/group/cmgtools/CMG/VBF_HToTauTau_M-160_8TeV-powheg-pythia6/Summer12_DR53X-PU_S10_START53_V7A-v1/AODSIM/PAT_CMG_V5_16_0/cmgTuple_17_1_yyq.root
p161
(lp162
I01
aI10000
asV/store/cmst3/group/cmgtools/CMG/VBF_HToTauTau_M-160_8TeV-powheg-pythia6/Summer12_DR53X-PU_S10_START53_V7A-v1/AODSIM/PAT_CMG_V5_16_0/cmgTuple_40_1_d9A.root
p163
(lp164
I01
aI10000
asV/store/cmst3/group/cmgtools/CMG/VBF_HToTauTau_M-160_8TeV-powheg-pythia6/Summer12_DR53X-PU_S10_START53_V7A-v1/AODSIM/PAT_CMG_V5_16_0/cmgTuple_20_1_VRi.root
p165
(lp166
I01
aI10000
asV/store/cmst3/group/cmgtools/CMG/VBF_HToTauTau_M-160_8TeV-powheg-pythia6/Summer12_DR53X-PU_S10_START53_V7A-v1/AODSIM/PAT_CMG_V5_16_0/cmgTuple_34_1_Iio.root
p167
(lp168
I01
aI10000
asV/store/cmst3/group/cmgtools/CMG/VBF_HToTauTau_M-160_8TeV-powheg-pythia6/Summer12_DR53X-PU_S10_START53_V7A-v1/AODSIM/PAT_CMG_V5_16_0/cmgTuple_32_1_kxy.root
p169
(lp170
I01
aI10000
asV/store/cmst3/group/cmgtools/CMG/VBF_HToTauTau_M-160_8TeV-powheg-pythia6/Summer12_DR53X-PU_S10_START53_V7A-v1/AODSIM/PAT_CMG_V5_16_0/cmgTuple_39_1_6Sp.root
p171
(lp172
I01
aI10000
asV/store/cmst3/group/cmgtools/CMG/VBF_HToTauTau_M-160_8TeV-powheg-pythia6/Summer12_DR53X-PU_S10_START53_V7A-v1/AODSIM/PAT_CMG_V5_16_0/cmgTuple_26_1_iRO.root
p173
(lp174
I01
aI10000
asV/store/cmst3/group/cmgtools/CMG/VBF_HToTauTau_M-160_8TeV-powheg-pythia6/Summer12_DR53X-PU_S10_START53_V7A-v1/AODSIM/PAT_CMG_V5_16_0/cmgTuple_30_1_BSa.root
p175
(lp176
I01
aI10000
asV/store/cmst3/group/cmgtools/CMG/VBF_HToTauTau_M-160_8TeV-powheg-pythia6/Summer12_DR53X-PU_S10_START53_V7A-v1/AODSIM/PAT_CMG_V5_16_0/cmgTuple_6_1_hmc.root
p177
(lp178
I01
aI10000
asV/store/cmst3/group/cmgtools/CMG/VBF_HToTauTau_M-160_8TeV-powheg-pythia6/Summer12_DR53X-PU_S10_START53_V7A-v1/AODSIM/PAT_CMG_V5_16_0/cmgTuple_51_1_FXP.root
p179
(lp180
I01
aI2188
asV/store/cmst3/group/cmgtools/CMG/VBF_HToTauTau_M-160_8TeV-powheg-pythia6/Summer12_DR53X-PU_S10_START53_V7A-v1/AODSIM/PAT_CMG_V5_16_0/cmgTuple_9_2_dWZ.root
p181
(lp182
I01
aI10000
asV/store/cmst3/group/cmgtools/CMG/VBF_HToTauTau_M-160_8TeV-powheg-pythia6/Summer12_DR53X-PU_S10_START53_V7A-v1/AODSIM/PAT_CMG_V5_16_0/cmgTuple_22_1_Jhi.root
p183
(lp184
I01
aI10000
asV/store/cmst3/group/cmgtools/CMG/VBF_HToTauTau_M-160_8TeV-powheg-pythia6/Summer12_DR53X-PU_S10_START53_V7A-v1/AODSIM/PAT_CMG_V5_16_0/cmgTuple_37_1_xZU.root
p185
(lp186
I01
aI10000
asV/store/cmst3/group/cmgtools/CMG/VBF_HToTauTau_M-160_8TeV-powheg-pythia6/Summer12_DR53X-PU_S10_START53_V7A-v1/AODSIM/PAT_CMG_V5_16_0/cmgTuple_23_1_Md7.root
p187
(lp188
I01
aI10000
asV/store/cmst3/group/cmgtools/CMG/VBF_HToTauTau_M-160_8TeV-powheg-pythia6/Summer12_DR53X-PU_S10_START53_V7A-v1/AODSIM/PAT_CMG_V5_16_0/cmgTuple_28_1_8f9.root
p189
(lp190
I01
aI10000
asV/store/cmst3/group/cmgtools/CMG/VBF_HToTauTau_M-160_8TeV-powheg-pythia6/Summer12_DR53X-PU_S10_START53_V7A-v1/AODSIM/PAT_CMG_V5_16_0/cmgTuple_48_1_kKI.root
p191
(lp192
I01
aI10000
asV/store/cmst3/group/cmgtools/CMG/VBF_HToTauTau_M-160_8TeV-powheg-pythia6/Summer12_DR53X-PU_S10_START53_V7A-v1/AODSIM/PAT_CMG_V5_16_0/cmgTuple_3_1_Bp7.root
p193
(lp194
I01
aI10000
asV/store/cmst3/group/cmgtools/CMG/VBF_HToTauTau_M-160_8TeV-powheg-pythia6/Summer12_DR53X-PU_S10_START53_V7A-v1/AODSIM/PAT_CMG_V5_16_0/cmgTuple_7_1_UcC.root
p195
(lp196
I01
aI10000
asV/store/cmst3/group/cmgtools/CMG/VBF_HToTauTau_M-160_8TeV-powheg-pythia6/Summer12_DR53X-PU_S10_START53_V7A-v1/AODSIM/PAT_CMG_V5_16_0/cmgTuple_47_1_SXJ.root
p197
(lp198
I01
aI10000
asV/store/cmst3/group/cmgtools/CMG/VBF_HToTauTau_M-160_8TeV-powheg-pythia6/Summer12_DR53X-PU_S10_START53_V7A-v1/AODSIM/PAT_CMG_V5_16_0/cmgTuple_5_1_FzS.root
p199
(lp200
I01
aI10000
asV/store/cmst3/group/cmgtools/CMG/VBF_HToTauTau_M-160_8TeV-powheg-pythia6/Summer12_DR53X-PU_S10_START53_V7A-v1/AODSIM/PAT_CMG_V5_16_0/cmgTuple_27_1_X2x.root
p201
(lp202
I01
aI10000
asV/store/cmst3/group/cmgtools/CMG/VBF_HToTauTau_M-160_8TeV-powheg-pythia6/Summer12_DR53X-PU_S10_START53_V7A-v1/AODSIM/PAT_CMG_V5_16_0/cmgTuple_16_1_DF9.root
p203
(lp204
I01
aI10000
assVPhysicsGroup
p205
VCMG
p206
sVFilesCount
p207
I52
sVFilesEntries
p208
I499376
sVRunList
p209
(lp210
sVValidDuplicates
p211
(dp212
V/store/cmst3/group/cmgtools/CMG/VBF_HToTauTau_M-160_8TeV-powheg-pythia6/Summer12_DR53X-PU_S10_START53_V7A-v1/AODSIM/PAT_CMG_V5_16_0/cmgTuple_9_1_ZBW.root
p213
I10000
ssVPrimaryDataset
p214
V/VBF_HToTauTau_M-160_8TeV-powheg-pythia6/Summer12_DR53X-PU_S10_START53_V7A-v1/AODSIM
p215
sVStatus
p216
VVALID
p217
sVName
p218
V/VBF_HToTauTau_M-160_8TeV-powheg-pythia6/Summer12_DR53X-PU_S10_START53_V7A-v1/AODSIM/PAT_CMG_V5_16_0
p219
sVTopdir
p220
V/eos/cms/store/cmst3/group/cmgtools/CMG
p221
sVdata
p222
(dp223
sVFilesBad
p224
I0
sVMinRun
p225
I-1
sVAlgoList
p226
(lp227
sVTierList
p228
(lp229
sVDateCreated
p230
V1370942455
p231
sVCreatedBy
p232
Vcmgtools_group
p233
sVMaxRun
p234
I-1
sVBadJobs
p235
(lp236
ssg69
I01
ssS'MonitorJobs'
p237
(dp238
S'LSFJobStatus'
p239
(dp240
g72
S'VBF_HToTauTau_M-160_8TeV-powheg-pythia6/Summer12_DR53X-PU_S10_START53_V7A-v1/AODSIM/PAT_CMG_V5_16_0_1377467530/HTT_24Jul_newTES_manzoni_Up_Jobs/Job_11/LSFJOB_440973064/STDOUT.gz'
p241
sg73
S'VBF_HToTauTau_M-160_8TeV-powheg-pythia6/Summer12_DR53X-PU_S10_START53_V7A-v1/AODSIM/PAT_CMG_V5_16_0_1377467530/HTT_24Jul_newTES_manzoni_Up_Jobs/Job_10/LSFJOB_440972954/STDOUT.gz'
p242
sg74
S'VBF_HToTauTau_M-160_8TeV-powheg-pythia6/Summer12_DR53X-PU_S10_START53_V7A-v1/AODSIM/PAT_CMG_V5_16_0_1377467530/HTT_24Jul_newTES_manzoni_Up_Jobs/Job_9/LSFJOB_440972852/STDOUT.gz'
p243
sg75
S'VBF_HToTauTau_M-160_8TeV-powheg-pythia6/Summer12_DR53X-PU_S10_START53_V7A-v1/AODSIM/PAT_CMG_V5_16_0_1377467530/HTT_24Jul_newTES_manzoni_Up_Jobs/Job_8/LSFJOB_440972741/STDOUT.gz'
p244
sg76
S'VBF_HToTauTau_M-160_8TeV-powheg-pythia6/Summer12_DR53X-PU_S10_START53_V7A-v1/AODSIM/PAT_CMG_V5_16_0_1377467530/HTT_24Jul_newTES_manzoni_Up_Jobs/Job_1/LSFJOB_440972076/STDOUT.gz'
p245
sg77
S'VBF_HToTauTau_M-160_8TeV-powheg-pythia6/Summer12_DR53X-PU_S10_START53_V7A-v1/AODSIM/PAT_CMG_V5_16_0_1377467530/HTT_24Jul_newTES_manzoni_Up_Jobs/Job_3/LSFJOB_440972245/STDOUT.gz'
p246
sg78
S'VBF_HToTauTau_M-160_8TeV-powheg-pythia6/Summer12_DR53X-PU_S10_START53_V7A-v1/AODSIM/PAT_CMG_V5_16_0_1377467530/HTT_24Jul_newTES_manzoni_Up_Jobs/Job_2/LSFJOB_440972168/STDOUT.gz'
p247
sg79
S'VBF_HToTauTau_M-160_8TeV-powheg-pythia6/Summer12_DR53X-PU_S10_START53_V7A-v1/AODSIM/PAT_CMG_V5_16_0_1377467530/HTT_24Jul_newTES_manzoni_Up_Jobs/Job_5/LSFJOB_440972462/STDOUT.gz'
p248
sg80
S'VBF_HToTauTau_M-160_8TeV-powheg-pythia6/Summer12_DR53X-PU_S10_START53_V7A-v1/AODSIM/PAT_CMG_V5_16_0_1377467530/HTT_24Jul_newTES_manzoni_Up_Jobs/Job_4/LSFJOB_440972350/STDOUT.gz'
p249
sg81
S'VBF_HToTauTau_M-160_8TeV-powheg-pythia6/Summer12_DR53X-PU_S10_START53_V7A-v1/AODSIM/PAT_CMG_V5_16_0_1377467530/HTT_24Jul_newTES_manzoni_Up_Jobs/Job_7/LSFJOB_440972631/STDOUT.gz'
p250
sg82
S'VBF_HToTauTau_M-160_8TeV-powheg-pythia6/Summer12_DR53X-PU_S10_START53_V7A-v1/AODSIM/PAT_CMG_V5_16_0_1377467530/HTT_24Jul_newTES_manzoni_Up_Jobs/Job_6/LSFJOB_440972560/STDOUT.gz'
p251
ssS'LSFJobIDs'
p252
(dp253
g72
S'440973064'
p254
sg73
S'440972954'
p255
sg74
S'440972852'
p256
sg75
S'440972741'
p257
sg76
S'440972076'
p258
sg77
S'440972245'
p259
sg78
S'440972168'
p260
sg79
S'440972462'
p261
sg80
S'440972350'
p262
sg81
S'440972631'
p263
sg82
S'440972560'
p264
sssS'FindOnCastor'
p265
(dp266
g31
S'/eos/cms/store/cmst3/group/cmgtools/CMG'
p267
sS'Directory'
p268
S'/eos/cms/store/cmst3/group/cmgtools/CMG/VBF_HToTauTau_M-160_8TeV-powheg-pythia6/Summer12_DR53X-PU_S10_START53_V7A-v1/AODSIM/PAT_CMG_V5_16_0'
p269
ssS'CheckConfig'
p270
(dp271
g47
g48
ssS'FullCFG'
p272
(dp273
S'FullCFG'
p274
S'VBF_HToTauTau_M-160_8TeV-powheg-pythia6/Summer12_DR53X-PU_S10_START53_V7A-v1/AODSIM/PAT_CMG_V5_16_0_1377467530/full_cfg.py'
p275
ssS'WriteJobReport'
p276
(dp277
S'SummaryFile'
p278
S'VBF_HToTauTau_M-160_8TeV-powheg-pythia6/Summer12_DR53X-PU_S10_START53_V7A-v1/AODSIM/PAT_CMG_V5_16_0_1377467530/resubmit.sh'
p279
ssS'ExpandConfig'
p280
(dp281
S'ExpandedFullCFG'
p282
S'VBF_HToTauTau_M-160_8TeV-powheg-pythia6/Summer12_DR53X-PU_S10_START53_V7A-v1/AODSIM/PAT_CMG_V5_16_0_1377467530/Expandedfull_cfg.py'
p283
ssS'RunTestEvents'
p284
(dp285
g47
g48
sS'TestCFG'
p286
S'VBF_HToTauTau_M-160_8TeV-powheg-pythia6/Summer12_DR53X-PU_S10_START53_V7A-v1/AODSIM/PAT_CMG_V5_16_0_1377467530/test_cfg.py'
p287
ssS'SourceCFG'
p288
(dp289
S'SourceCFG'
p290
S'VBF_HToTauTau_M-160_8TeV-powheg-pythia6/Summer12_DR53X-PU_S10_START53_V7A-v1/AODSIM/PAT_CMG_V5_16_0_1377467530/source_cfg.py'
p291
ssS'CheckForWrite'
p292
(dp293
g268
g269
sS'WriteAccess'
p294
I01
ssS'WriteToDatasets'
p295
(dp296
S'Added'
p297
I00
sg29
S'/VBF_HToTauTau_M-160_8TeV-powheg-pythia6/Summer12_DR53X-PU_S10_START53_V7A-v1/AODSIM/PAT_CMG_V5_16_0/HTT_24Jul_newTES_manzoni_Up'
p298
sS'User'
p299
g62
ssS'RunCMSBatch'
p300
(dp301
S'BatchUser'
p302
g62
sS'SampleOutputDir'
p303
S'/store/cmst3/user/manzoni/CMG/VBF_HToTauTau_M-160_8TeV-powheg-pythia6/Summer12_DR53X-PU_S10_START53_V7A-v1/AODSIM/PAT_CMG_V5_16_0/HTT_24Jul_newTES_manzoni_Up'
p304
sS'SampleDataset'
p305
g30
sS'LSFJobsTopDir'
p306
S'VBF_HToTauTau_M-160_8TeV-powheg-pythia6/Summer12_DR53X-PU_S10_START53_V7A-v1/AODSIM/PAT_CMG_V5_16_0_1377467530/HTT_24Jul_newTES_manzoni_Up_Jobs'
p307
ssS'CreateJobDirectory'
p308
(dp309
S'JobDir'
p310
S'VBF_HToTauTau_M-160_8TeV-powheg-pythia6/Summer12_DR53X-PU_S10_START53_V7A-v1/AODSIM/PAT_CMG_V5_16_0_1377467530'
p311
sS'PWD'
p312
S'/afs/cern.ch/user/m/manzoni/summer13/CMGTools/CMSSW_5_3_9/src/CMGTools/H2TauTau/prod/25aug_corrMC/up/mc'
p313
ssS'CleanJobFiles'
p314
(dp315
S'Compressed'
p316
(dp317
S'CompressedFiles'
p318
(lp319
ssS'Cleaned'
p320
(dp321
S'CleanedFiles'
p322
(lp323
g283
ag287
aS'VBF_HToTauTau_M-160_8TeV-powheg-pythia6/Summer12_DR53X-PU_S10_START53_V7A-v1/AODSIM/PAT_CMG_V5_16_0_1377467530/diTau_fullsel_tree_CMG.root'
p324
aS'VBF_HToTauTau_M-160_8TeV-powheg-pythia6/Summer12_DR53X-PU_S10_START53_V7A-v1/AODSIM/PAT_CMG_V5_16_0_1377467530/source_cfg.pyc'
p325
aS'VBF_HToTauTau_M-160_8TeV-powheg-pythia6/Summer12_DR53X-PU_S10_START53_V7A-v1/AODSIM/PAT_CMG_V5_16_0_1377467530/Expandedfull_cfg.pyc'
p326
asssS'CheckForMask'
p327
(dp328
g3
g89
sg69
I01
ss.