(dp0
S'CheckJobStatus'
p1
(dp2
S'Report'
p3
(dp4
S'Files'
p5
(dp6
S'/store/cmst3/user/manzoni/CMG/SUSYGluGluToHToTauTau_M-600_8TeV-pythia6-tauola/Summer12_DR53X-PU_S10_START53_V7A-v1/AODSIM/PAT_CMG_V5_16_0/HTT_24Jul_newTES_manzoni_Up/diTau_fullsel_tree_CMG_31.root'
p7
(I01
I4776
tp8
sS'/store/cmst3/user/manzoni/CMG/SUSYGluGluToHToTauTau_M-600_8TeV-pythia6-tauola/Summer12_DR53X-PU_S10_START53_V7A-v1/AODSIM/PAT_CMG_V5_16_0/HTT_24Jul_newTES_manzoni_Up/diTau_fullsel_tree_CMG_21.root'
p9
(I01
I4862
tp10
sS'/store/cmst3/user/manzoni/CMG/SUSYGluGluToHToTauTau_M-600_8TeV-pythia6-tauola/Summer12_DR53X-PU_S10_START53_V7A-v1/AODSIM/PAT_CMG_V5_16_0/HTT_24Jul_newTES_manzoni_Up/diTau_fullsel_tree_CMG_33.root'
p11
(I01
I1691
tp12
sS'/store/cmst3/user/manzoni/CMG/SUSYGluGluToHToTauTau_M-600_8TeV-pythia6-tauola/Summer12_DR53X-PU_S10_START53_V7A-v1/AODSIM/PAT_CMG_V5_16_0/HTT_24Jul_newTES_manzoni_Up/diTau_fullsel_tree_CMG_4.root'
p13
(I01
I4794
tp14
sS'/store/cmst3/user/manzoni/CMG/SUSYGluGluToHToTauTau_M-600_8TeV-pythia6-tauola/Summer12_DR53X-PU_S10_START53_V7A-v1/AODSIM/PAT_CMG_V5_16_0/HTT_24Jul_newTES_manzoni_Up/diTau_fullsel_tree_CMG_3.root'
p15
(I01
I4844
tp16
sS'/store/cmst3/user/manzoni/CMG/SUSYGluGluToHToTauTau_M-600_8TeV-pythia6-tauola/Summer12_DR53X-PU_S10_START53_V7A-v1/AODSIM/PAT_CMG_V5_16_0/HTT_24Jul_newTES_manzoni_Up/diTau_fullsel_tree_CMG_30.root'
p17
(I01
I4868
tp18
sS'/store/cmst3/user/manzoni/CMG/SUSYGluGluToHToTauTau_M-600_8TeV-pythia6-tauola/Summer12_DR53X-PU_S10_START53_V7A-v1/AODSIM/PAT_CMG_V5_16_0/HTT_24Jul_newTES_manzoni_Up/diTau_fullsel_tree_CMG_10.root'
p19
(I01
I4874
tp20
sS'/store/cmst3/user/manzoni/CMG/SUSYGluGluToHToTauTau_M-600_8TeV-pythia6-tauola/Summer12_DR53X-PU_S10_START53_V7A-v1/AODSIM/PAT_CMG_V5_16_0/HTT_24Jul_newTES_manzoni_Up/diTau_fullsel_tree_CMG_7.root'
p21
(I01
I4827
tp22
sS'/store/cmst3/user/manzoni/CMG/SUSYGluGluToHToTauTau_M-600_8TeV-pythia6-tauola/Summer12_DR53X-PU_S10_START53_V7A-v1/AODSIM/PAT_CMG_V5_16_0/HTT_24Jul_newTES_manzoni_Up/diTau_fullsel_tree_CMG_17.root'
p23
(I01
I4888
tp24
sS'/store/cmst3/user/manzoni/CMG/SUSYGluGluToHToTauTau_M-600_8TeV-pythia6-tauola/Summer12_DR53X-PU_S10_START53_V7A-v1/AODSIM/PAT_CMG_V5_16_0/HTT_24Jul_newTES_manzoni_Up/diTau_fullsel_tree_CMG_18.root'
p25
(I01
I4956
tp26
sS'/store/cmst3/user/manzoni/CMG/SUSYGluGluToHToTauTau_M-600_8TeV-pythia6-tauola/Summer12_DR53X-PU_S10_START53_V7A-v1/AODSIM/PAT_CMG_V5_16_0/HTT_24Jul_newTES_manzoni_Up/diTau_fullsel_tree_CMG_29.root'
p27
(I01
I4864
tp28
sS'/store/cmst3/user/manzoni/CMG/SUSYGluGluToHToTauTau_M-600_8TeV-pythia6-tauola/Summer12_DR53X-PU_S10_START53_V7A-v1/AODSIM/PAT_CMG_V5_16_0/HTT_24Jul_newTES_manzoni_Up/diTau_fullsel_tree_CMG_15.root'
p29
(I01
I4862
tp30
sS'/store/cmst3/user/manzoni/CMG/SUSYGluGluToHToTauTau_M-600_8TeV-pythia6-tauola/Summer12_DR53X-PU_S10_START53_V7A-v1/AODSIM/PAT_CMG_V5_16_0/HTT_24Jul_newTES_manzoni_Up/diTau_fullsel_tree_CMG_13.root'
p31
(I01
I4835
tp32
sS'/store/cmst3/user/manzoni/CMG/SUSYGluGluToHToTauTau_M-600_8TeV-pythia6-tauola/Summer12_DR53X-PU_S10_START53_V7A-v1/AODSIM/PAT_CMG_V5_16_0/HTT_24Jul_newTES_manzoni_Up/diTau_fullsel_tree_CMG_16.root'
p33
(I01
I4932
tp34
sS'/store/cmst3/user/manzoni/CMG/SUSYGluGluToHToTauTau_M-600_8TeV-pythia6-tauola/Summer12_DR53X-PU_S10_START53_V7A-v1/AODSIM/PAT_CMG_V5_16_0/HTT_24Jul_newTES_manzoni_Up/diTau_fullsel_tree_CMG_32.root'
p35
(I01
I4991
tp36
sS'/store/cmst3/user/manzoni/CMG/SUSYGluGluToHToTauTau_M-600_8TeV-pythia6-tauola/Summer12_DR53X-PU_S10_START53_V7A-v1/AODSIM/PAT_CMG_V5_16_0/HTT_24Jul_newTES_manzoni_Up/diTau_fullsel_tree_CMG_19.root'
p37
(I01
I4873
tp38
sS'/store/cmst3/user/manzoni/CMG/SUSYGluGluToHToTauTau_M-600_8TeV-pythia6-tauola/Summer12_DR53X-PU_S10_START53_V7A-v1/AODSIM/PAT_CMG_V5_16_0/HTT_24Jul_newTES_manzoni_Up/diTau_fullsel_tree_CMG_9.root'
p39
(I01
I4922
tp40
sS'/store/cmst3/user/manzoni/CMG/SUSYGluGluToHToTauTau_M-600_8TeV-pythia6-tauola/Summer12_DR53X-PU_S10_START53_V7A-v1/AODSIM/PAT_CMG_V5_16_0/HTT_24Jul_newTES_manzoni_Up/diTau_fullsel_tree_CMG_11.root'
p41
(I01
I4906
tp42
sS'/store/cmst3/user/manzoni/CMG/SUSYGluGluToHToTauTau_M-600_8TeV-pythia6-tauola/Summer12_DR53X-PU_S10_START53_V7A-v1/AODSIM/PAT_CMG_V5_16_0/HTT_24Jul_newTES_manzoni_Up/diTau_fullsel_tree_CMG_26.root'
p43
(I01
I4754
tp44
sS'/store/cmst3/user/manzoni/CMG/SUSYGluGluToHToTauTau_M-600_8TeV-pythia6-tauola/Summer12_DR53X-PU_S10_START53_V7A-v1/AODSIM/PAT_CMG_V5_16_0/HTT_24Jul_newTES_manzoni_Up/diTau_fullsel_tree_CMG_24.root'
p45
(I01
I4941
tp46
sS'/store/cmst3/user/manzoni/CMG/SUSYGluGluToHToTauTau_M-600_8TeV-pythia6-tauola/Summer12_DR53X-PU_S10_START53_V7A-v1/AODSIM/PAT_CMG_V5_16_0/HTT_24Jul_newTES_manzoni_Up/diTau_fullsel_tree_CMG_12.root'
p47
(I01
I4860
tp48
sS'/store/cmst3/user/manzoni/CMG/SUSYGluGluToHToTauTau_M-600_8TeV-pythia6-tauola/Summer12_DR53X-PU_S10_START53_V7A-v1/AODSIM/PAT_CMG_V5_16_0/HTT_24Jul_newTES_manzoni_Up/diTau_fullsel_tree_CMG_27.root'
p49
(I01
I4807
tp50
sS'/store/cmst3/user/manzoni/CMG/SUSYGluGluToHToTauTau_M-600_8TeV-pythia6-tauola/Summer12_DR53X-PU_S10_START53_V7A-v1/AODSIM/PAT_CMG_V5_16_0/HTT_24Jul_newTES_manzoni_Up/diTau_fullsel_tree_CMG_20.root'
p51
(I01
I4875
tp52
sS'/store/cmst3/user/manzoni/CMG/SUSYGluGluToHToTauTau_M-600_8TeV-pythia6-tauola/Summer12_DR53X-PU_S10_START53_V7A-v1/AODSIM/PAT_CMG_V5_16_0/HTT_24Jul_newTES_manzoni_Up/diTau_fullsel_tree_CMG_14.root'
p53
(I01
I4848
tp54
sS'/store/cmst3/user/manzoni/CMG/SUSYGluGluToHToTauTau_M-600_8TeV-pythia6-tauola/Summer12_DR53X-PU_S10_START53_V7A-v1/AODSIM/PAT_CMG_V5_16_0/HTT_24Jul_newTES_manzoni_Up/diTau_fullsel_tree_CMG_23.root'
p55
(I01
I4835
tp56
sS'/store/cmst3/user/manzoni/CMG/SUSYGluGluToHToTauTau_M-600_8TeV-pythia6-tauola/Summer12_DR53X-PU_S10_START53_V7A-v1/AODSIM/PAT_CMG_V5_16_0/HTT_24Jul_newTES_manzoni_Up/diTau_fullsel_tree_CMG_8.root'
p57
(I01
I4835
tp58
sS'/store/cmst3/user/manzoni/CMG/SUSYGluGluToHToTauTau_M-600_8TeV-pythia6-tauola/Summer12_DR53X-PU_S10_START53_V7A-v1/AODSIM/PAT_CMG_V5_16_0/HTT_24Jul_newTES_manzoni_Up/diTau_fullsel_tree_CMG_22.root'
p59
(I01
I4806
tp60
sS'/store/cmst3/user/manzoni/CMG/SUSYGluGluToHToTauTau_M-600_8TeV-pythia6-tauola/Summer12_DR53X-PU_S10_START53_V7A-v1/AODSIM/PAT_CMG_V5_16_0/HTT_24Jul_newTES_manzoni_Up/diTau_fullsel_tree_CMG_2.root'
p61
(I01
I4895
tp62
sS'/store/cmst3/user/manzoni/CMG/SUSYGluGluToHToTauTau_M-600_8TeV-pythia6-tauola/Summer12_DR53X-PU_S10_START53_V7A-v1/AODSIM/PAT_CMG_V5_16_0/HTT_24Jul_newTES_manzoni_Up/diTau_fullsel_tree_CMG_6.root'
p63
(I01
I4834
tp64
sS'/store/cmst3/user/manzoni/CMG/SUSYGluGluToHToTauTau_M-600_8TeV-pythia6-tauola/Summer12_DR53X-PU_S10_START53_V7A-v1/AODSIM/PAT_CMG_V5_16_0/HTT_24Jul_newTES_manzoni_Up/diTau_fullsel_tree_CMG_1.root'
p65
(I01
I4888
tp66
sS'/store/cmst3/user/manzoni/CMG/SUSYGluGluToHToTauTau_M-600_8TeV-pythia6-tauola/Summer12_DR53X-PU_S10_START53_V7A-v1/AODSIM/PAT_CMG_V5_16_0/HTT_24Jul_newTES_manzoni_Up/diTau_fullsel_tree_CMG_25.root'
p67
(I01
I4726
tp68
sS'/store/cmst3/user/manzoni/CMG/SUSYGluGluToHToTauTau_M-600_8TeV-pythia6-tauola/Summer12_DR53X-PU_S10_START53_V7A-v1/AODSIM/PAT_CMG_V5_16_0/HTT_24Jul_newTES_manzoni_Up/diTau_fullsel_tree_CMG_5.root'
p69
(I01
I4879
tp70
sS'/store/cmst3/user/manzoni/CMG/SUSYGluGluToHToTauTau_M-600_8TeV-pythia6-tauola/Summer12_DR53X-PU_S10_START53_V7A-v1/AODSIM/PAT_CMG_V5_16_0/HTT_24Jul_newTES_manzoni_Up/diTau_fullsel_tree_CMG_28.root'
p71
(I01
I4984
tp72
ssS'Name'
p73
S'/SUSYGluGluToHToTauTau_M-600_8TeV-pythia6-tauola/Summer12_DR53X-PU_S10_START53_V7A-v1/AODSIM/PAT_CMG_V5_16_0/HTT_24Jul_newTES_manzoni_Up'
p74
sS'Topdir'
p75
S'/eos/cms/store/cmst3/user/manzoni/CMG'
p76
sS'RunList'
p77
(lp78
sS'PathList'
p79
(lp80
S'/store/cmst3/user/manzoni/CMG/SUSYGluGluToHToTauTau_M-600_8TeV-pythia6-tauola/Summer12_DR53X-PU_S10_START53_V7A-v1/AODSIM/PAT_CMG_V5_16_0/HTT_24Jul_newTES_manzoni_Up'
p81
asS'AlgoList'
p82
(lp83
sS'PrimaryDatasetFraction'
p84
F0.16049110694918781
sS'FilesGood'
p85
I33
sS'PrimaryDatasetEntries'
p86
I980316
sS'data'
p87
(dp88
sS'FilesBad'
p89
I0
sS'ReportVersion'
p90
I3
sS'Status'
p91
S'VALID'
p92
sS'MaxRun'
p93
I-1
sS'PhysicsGroup'
p94
S'CMG'
p95
sS'MinRun'
p96
I-1
sS'StageHost'
p97
S'castorcms'
p98
sS'FilesCount'
p99
I33
sS'FilesEntries'
p100
I157332
sS'TierList'
p101
(lp102
sS'DateCreated'
p103
S'1377482060'
p104
sS'CreatedBy'
p105
S'manzoni'
p106
sS'ValidDuplicates'
p107
(dp108
sS'PrimaryDataset'
p109
S'/SUSYGluGluToHToTauTau_M-600_8TeV-pythia6-tauola/Summer12_DR53X-PU_S10_START53_V7A-v1/AODSIM'
p110
sS'BadJobs'
p111
(lp112
ssS'MaskPresent'
p113
I01
sS'LSFJobStatusCheck'
p114
(dp115
S'SUSYGluGluToHToTauTau_M-600_8TeV-pythia6-tauola/Summer12_DR53X-PU_S10_START53_V7A-v1/AODSIM/PAT_CMG_V5_16_0_1377467542/HTT_24Jul_newTES_manzoni_Up_Jobs/Job_24'
p116
g92
sS'SUSYGluGluToHToTauTau_M-600_8TeV-pythia6-tauola/Summer12_DR53X-PU_S10_START53_V7A-v1/AODSIM/PAT_CMG_V5_16_0_1377467542/HTT_24Jul_newTES_manzoni_Up_Jobs/Job_25'
p117
g92
sS'SUSYGluGluToHToTauTau_M-600_8TeV-pythia6-tauola/Summer12_DR53X-PU_S10_START53_V7A-v1/AODSIM/PAT_CMG_V5_16_0_1377467542/HTT_24Jul_newTES_manzoni_Up_Jobs/Job_26'
p118
g92
sS'SUSYGluGluToHToTauTau_M-600_8TeV-pythia6-tauola/Summer12_DR53X-PU_S10_START53_V7A-v1/AODSIM/PAT_CMG_V5_16_0_1377467542/HTT_24Jul_newTES_manzoni_Up_Jobs/Job_27'
p119
g92
sS'SUSYGluGluToHToTauTau_M-600_8TeV-pythia6-tauola/Summer12_DR53X-PU_S10_START53_V7A-v1/AODSIM/PAT_CMG_V5_16_0_1377467542/HTT_24Jul_newTES_manzoni_Up_Jobs/Job_20'
p120
g92
sS'SUSYGluGluToHToTauTau_M-600_8TeV-pythia6-tauola/Summer12_DR53X-PU_S10_START53_V7A-v1/AODSIM/PAT_CMG_V5_16_0_1377467542/HTT_24Jul_newTES_manzoni_Up_Jobs/Job_21'
p121
g92
sS'SUSYGluGluToHToTauTau_M-600_8TeV-pythia6-tauola/Summer12_DR53X-PU_S10_START53_V7A-v1/AODSIM/PAT_CMG_V5_16_0_1377467542/HTT_24Jul_newTES_manzoni_Up_Jobs/Job_22'
p122
g92
sS'SUSYGluGluToHToTauTau_M-600_8TeV-pythia6-tauola/Summer12_DR53X-PU_S10_START53_V7A-v1/AODSIM/PAT_CMG_V5_16_0_1377467542/HTT_24Jul_newTES_manzoni_Up_Jobs/Job_23'
p123
g92
sS'SUSYGluGluToHToTauTau_M-600_8TeV-pythia6-tauola/Summer12_DR53X-PU_S10_START53_V7A-v1/AODSIM/PAT_CMG_V5_16_0_1377467542/HTT_24Jul_newTES_manzoni_Up_Jobs/Job_28'
p124
g92
sS'SUSYGluGluToHToTauTau_M-600_8TeV-pythia6-tauola/Summer12_DR53X-PU_S10_START53_V7A-v1/AODSIM/PAT_CMG_V5_16_0_1377467542/HTT_24Jul_newTES_manzoni_Up_Jobs/Job_29'
p125
g92
sS'SUSYGluGluToHToTauTau_M-600_8TeV-pythia6-tauola/Summer12_DR53X-PU_S10_START53_V7A-v1/AODSIM/PAT_CMG_V5_16_0_1377467542/HTT_24Jul_newTES_manzoni_Up_Jobs/Job_1'
p126
g92
sS'SUSYGluGluToHToTauTau_M-600_8TeV-pythia6-tauola/Summer12_DR53X-PU_S10_START53_V7A-v1/AODSIM/PAT_CMG_V5_16_0_1377467542/HTT_24Jul_newTES_manzoni_Up_Jobs/Job_3'
p127
g92
sS'SUSYGluGluToHToTauTau_M-600_8TeV-pythia6-tauola/Summer12_DR53X-PU_S10_START53_V7A-v1/AODSIM/PAT_CMG_V5_16_0_1377467542/HTT_24Jul_newTES_manzoni_Up_Jobs/Job_2'
p128
g92
sS'SUSYGluGluToHToTauTau_M-600_8TeV-pythia6-tauola/Summer12_DR53X-PU_S10_START53_V7A-v1/AODSIM/PAT_CMG_V5_16_0_1377467542/HTT_24Jul_newTES_manzoni_Up_Jobs/Job_5'
p129
g92
sS'SUSYGluGluToHToTauTau_M-600_8TeV-pythia6-tauola/Summer12_DR53X-PU_S10_START53_V7A-v1/AODSIM/PAT_CMG_V5_16_0_1377467542/HTT_24Jul_newTES_manzoni_Up_Jobs/Job_4'
p130
g92
sS'SUSYGluGluToHToTauTau_M-600_8TeV-pythia6-tauola/Summer12_DR53X-PU_S10_START53_V7A-v1/AODSIM/PAT_CMG_V5_16_0_1377467542/HTT_24Jul_newTES_manzoni_Up_Jobs/Job_7'
p131
g92
sS'SUSYGluGluToHToTauTau_M-600_8TeV-pythia6-tauola/Summer12_DR53X-PU_S10_START53_V7A-v1/AODSIM/PAT_CMG_V5_16_0_1377467542/HTT_24Jul_newTES_manzoni_Up_Jobs/Job_6'
p132
g92
sS'SUSYGluGluToHToTauTau_M-600_8TeV-pythia6-tauola/Summer12_DR53X-PU_S10_START53_V7A-v1/AODSIM/PAT_CMG_V5_16_0_1377467542/HTT_24Jul_newTES_manzoni_Up_Jobs/Job_9'
p133
g92
sS'SUSYGluGluToHToTauTau_M-600_8TeV-pythia6-tauola/Summer12_DR53X-PU_S10_START53_V7A-v1/AODSIM/PAT_CMG_V5_16_0_1377467542/HTT_24Jul_newTES_manzoni_Up_Jobs/Job_8'
p134
g92
sS'SUSYGluGluToHToTauTau_M-600_8TeV-pythia6-tauola/Summer12_DR53X-PU_S10_START53_V7A-v1/AODSIM/PAT_CMG_V5_16_0_1377467542/HTT_24Jul_newTES_manzoni_Up_Jobs/Job_33'
p135
g92
sS'SUSYGluGluToHToTauTau_M-600_8TeV-pythia6-tauola/Summer12_DR53X-PU_S10_START53_V7A-v1/AODSIM/PAT_CMG_V5_16_0_1377467542/HTT_24Jul_newTES_manzoni_Up_Jobs/Job_32'
p136
g92
sS'SUSYGluGluToHToTauTau_M-600_8TeV-pythia6-tauola/Summer12_DR53X-PU_S10_START53_V7A-v1/AODSIM/PAT_CMG_V5_16_0_1377467542/HTT_24Jul_newTES_manzoni_Up_Jobs/Job_19'
p137
g92
sS'SUSYGluGluToHToTauTau_M-600_8TeV-pythia6-tauola/Summer12_DR53X-PU_S10_START53_V7A-v1/AODSIM/PAT_CMG_V5_16_0_1377467542/HTT_24Jul_newTES_manzoni_Up_Jobs/Job_18'
p138
g92
sS'SUSYGluGluToHToTauTau_M-600_8TeV-pythia6-tauola/Summer12_DR53X-PU_S10_START53_V7A-v1/AODSIM/PAT_CMG_V5_16_0_1377467542/HTT_24Jul_newTES_manzoni_Up_Jobs/Job_31'
p139
g92
sS'SUSYGluGluToHToTauTau_M-600_8TeV-pythia6-tauola/Summer12_DR53X-PU_S10_START53_V7A-v1/AODSIM/PAT_CMG_V5_16_0_1377467542/HTT_24Jul_newTES_manzoni_Up_Jobs/Job_30'
p140
g92
sS'SUSYGluGluToHToTauTau_M-600_8TeV-pythia6-tauola/Summer12_DR53X-PU_S10_START53_V7A-v1/AODSIM/PAT_CMG_V5_16_0_1377467542/HTT_24Jul_newTES_manzoni_Up_Jobs/Job_11'
p141
g92
sS'SUSYGluGluToHToTauTau_M-600_8TeV-pythia6-tauola/Summer12_DR53X-PU_S10_START53_V7A-v1/AODSIM/PAT_CMG_V5_16_0_1377467542/HTT_24Jul_newTES_manzoni_Up_Jobs/Job_10'
p142
g92
sS'SUSYGluGluToHToTauTau_M-600_8TeV-pythia6-tauola/Summer12_DR53X-PU_S10_START53_V7A-v1/AODSIM/PAT_CMG_V5_16_0_1377467542/HTT_24Jul_newTES_manzoni_Up_Jobs/Job_13'
p143
g92
sS'SUSYGluGluToHToTauTau_M-600_8TeV-pythia6-tauola/Summer12_DR53X-PU_S10_START53_V7A-v1/AODSIM/PAT_CMG_V5_16_0_1377467542/HTT_24Jul_newTES_manzoni_Up_Jobs/Job_12'
p144
g92
sS'SUSYGluGluToHToTauTau_M-600_8TeV-pythia6-tauola/Summer12_DR53X-PU_S10_START53_V7A-v1/AODSIM/PAT_CMG_V5_16_0_1377467542/HTT_24Jul_newTES_manzoni_Up_Jobs/Job_15'
p145
g92
sS'SUSYGluGluToHToTauTau_M-600_8TeV-pythia6-tauola/Summer12_DR53X-PU_S10_START53_V7A-v1/AODSIM/PAT_CMG_V5_16_0_1377467542/HTT_24Jul_newTES_manzoni_Up_Jobs/Job_14'
p146
g92
sS'SUSYGluGluToHToTauTau_M-600_8TeV-pythia6-tauola/Summer12_DR53X-PU_S10_START53_V7A-v1/AODSIM/PAT_CMG_V5_16_0_1377467542/HTT_24Jul_newTES_manzoni_Up_Jobs/Job_17'
p147
g92
sS'SUSYGluGluToHToTauTau_M-600_8TeV-pythia6-tauola/Summer12_DR53X-PU_S10_START53_V7A-v1/AODSIM/PAT_CMG_V5_16_0_1377467542/HTT_24Jul_newTES_manzoni_Up_Jobs/Job_16'
p148
g92
sssS'CheckDatasetExists'
p149
(dp150
S'Dataset'
p151
S'/SUSYGluGluToHToTauTau_M-600_8TeV-pythia6-tauola/Summer12_DR53X-PU_S10_START53_V7A-v1/AODSIM/PAT_CMG_V5_16_0'
p152
ssS'GenerateMask'
p153
(dp154
g3
(dp155
VPathList
p156
(lp157
V/store/cmst3/group/cmgtools/CMG/SUSYGluGluToHToTauTau_M-600_8TeV-pythia6-tauola/Summer12_DR53X-PU_S10_START53_V7A-v1/AODSIM/PAT_CMG_V5_16_0
p158
asVStageHost
p159
Vcastorcms
p160
sVPrimaryDatasetFraction
p161
F0.98979920760244655
sVFilesGood
p162
I98
sVPrimaryDatasetEntries
p163
I980316
sVReportVersion
p164
I3
sVFiles
p165
(dp166
V/store/cmst3/group/cmgtools/CMG/SUSYGluGluToHToTauTau_M-600_8TeV-pythia6-tauola/Summer12_DR53X-PU_S10_START53_V7A-v1/AODSIM/PAT_CMG_V5_16_0/cmgTuple_41_1_Ly3.root
p167
(lp168
I01
aI10000
asV/store/cmst3/group/cmgtools/CMG/SUSYGluGluToHToTauTau_M-600_8TeV-pythia6-tauola/Summer12_DR53X-PU_S10_START53_V7A-v1/AODSIM/PAT_CMG_V5_16_0/cmgTuple_18_1_lXG.root
p169
(lp170
I01
aI10000
asV/store/cmst3/group/cmgtools/CMG/SUSYGluGluToHToTauTau_M-600_8TeV-pythia6-tauola/Summer12_DR53X-PU_S10_START53_V7A-v1/AODSIM/PAT_CMG_V5_16_0/cmgTuple_82_1_NHv.root
p171
(lp172
I01
aI10000
asV/store/cmst3/group/cmgtools/CMG/SUSYGluGluToHToTauTau_M-600_8TeV-pythia6-tauola/Summer12_DR53X-PU_S10_START53_V7A-v1/AODSIM/PAT_CMG_V5_16_0/cmgTuple_3_1_w9B.root
p173
(lp174
I01
aI10000
asV/store/cmst3/group/cmgtools/CMG/SUSYGluGluToHToTauTau_M-600_8TeV-pythia6-tauola/Summer12_DR53X-PU_S10_START53_V7A-v1/AODSIM/PAT_CMG_V5_16_0/cmgTuple_87_1_bPJ.root
p175
(lp176
I01
aI10000
asV/store/cmst3/group/cmgtools/CMG/SUSYGluGluToHToTauTau_M-600_8TeV-pythia6-tauola/Summer12_DR53X-PU_S10_START53_V7A-v1/AODSIM/PAT_CMG_V5_16_0/cmgTuple_91_1_Hwi.root
p177
(lp178
I01
aI10000
asV/store/cmst3/group/cmgtools/CMG/SUSYGluGluToHToTauTau_M-600_8TeV-pythia6-tauola/Summer12_DR53X-PU_S10_START53_V7A-v1/AODSIM/PAT_CMG_V5_16_0/cmgTuple_29_1_yZY.root
p179
(lp180
I01
aI10000
asV/store/cmst3/group/cmgtools/CMG/SUSYGluGluToHToTauTau_M-600_8TeV-pythia6-tauola/Summer12_DR53X-PU_S10_START53_V7A-v1/AODSIM/PAT_CMG_V5_16_0/cmgTuple_81_1_rTv.root
p181
(lp182
I01
aI10000
asV/store/cmst3/group/cmgtools/CMG/SUSYGluGluToHToTauTau_M-600_8TeV-pythia6-tauola/Summer12_DR53X-PU_S10_START53_V7A-v1/AODSIM/PAT_CMG_V5_16_0/cmgTuple_59_1_n2B.root
p183
(lp184
I01
aI10000
asV/store/cmst3/group/cmgtools/CMG/SUSYGluGluToHToTauTau_M-600_8TeV-pythia6-tauola/Summer12_DR53X-PU_S10_START53_V7A-v1/AODSIM/PAT_CMG_V5_16_0/cmgTuple_19_1_q0l.root
p185
(lp186
I01
aI10000
asV/store/cmst3/group/cmgtools/CMG/SUSYGluGluToHToTauTau_M-600_8TeV-pythia6-tauola/Summer12_DR53X-PU_S10_START53_V7A-v1/AODSIM/PAT_CMG_V5_16_0/cmgTuple_14_1_7e0.root
p187
(lp188
I01
aI10000
asV/store/cmst3/group/cmgtools/CMG/SUSYGluGluToHToTauTau_M-600_8TeV-pythia6-tauola/Summer12_DR53X-PU_S10_START53_V7A-v1/AODSIM/PAT_CMG_V5_16_0/cmgTuple_47_1_p34.root
p189
(lp190
I01
aI10000
asV/store/cmst3/group/cmgtools/CMG/SUSYGluGluToHToTauTau_M-600_8TeV-pythia6-tauola/Summer12_DR53X-PU_S10_START53_V7A-v1/AODSIM/PAT_CMG_V5_16_0/cmgTuple_44_1_v6a.root
p191
(lp192
I01
aI10000
asV/store/cmst3/group/cmgtools/CMG/SUSYGluGluToHToTauTau_M-600_8TeV-pythia6-tauola/Summer12_DR53X-PU_S10_START53_V7A-v1/AODSIM/PAT_CMG_V5_16_0/cmgTuple_98_1_gY9.root
p193
(lp194
I01
aI10000
asV/store/cmst3/group/cmgtools/CMG/SUSYGluGluToHToTauTau_M-600_8TeV-pythia6-tauola/Summer12_DR53X-PU_S10_START53_V7A-v1/AODSIM/PAT_CMG_V5_16_0/cmgTuple_20_1_tzk.root
p195
(lp196
I01
aI10000
asV/store/cmst3/group/cmgtools/CMG/SUSYGluGluToHToTauTau_M-600_8TeV-pythia6-tauola/Summer12_DR53X-PU_S10_START53_V7A-v1/AODSIM/PAT_CMG_V5_16_0/cmgTuple_58_1_A5e.root
p197
(lp198
I01
aI10000
asV/store/cmst3/group/cmgtools/CMG/SUSYGluGluToHToTauTau_M-600_8TeV-pythia6-tauola/Summer12_DR53X-PU_S10_START53_V7A-v1/AODSIM/PAT_CMG_V5_16_0/cmgTuple_61_1_RXr.root
p199
(lp200
I01
aI10000
asV/store/cmst3/group/cmgtools/CMG/SUSYGluGluToHToTauTau_M-600_8TeV-pythia6-tauola/Summer12_DR53X-PU_S10_START53_V7A-v1/AODSIM/PAT_CMG_V5_16_0/cmgTuple_85_1_uQ2.root
p201
(lp202
I01
aI10000
asV/store/cmst3/group/cmgtools/CMG/SUSYGluGluToHToTauTau_M-600_8TeV-pythia6-tauola/Summer12_DR53X-PU_S10_START53_V7A-v1/AODSIM/PAT_CMG_V5_16_0/cmgTuple_70_1_5wx.root
p203
(lp204
I01
aI10000
asV/store/cmst3/group/cmgtools/CMG/SUSYGluGluToHToTauTau_M-600_8TeV-pythia6-tauola/Summer12_DR53X-PU_S10_START53_V7A-v1/AODSIM/PAT_CMG_V5_16_0/cmgTuple_36_1_VoV.root
p205
(lp206
I01
aI10000
asV/store/cmst3/group/cmgtools/CMG/SUSYGluGluToHToTauTau_M-600_8TeV-pythia6-tauola/Summer12_DR53X-PU_S10_START53_V7A-v1/AODSIM/PAT_CMG_V5_16_0/cmgTuple_57_1_2v1.root
p207
(lp208
I01
aI10000
asV/store/cmst3/group/cmgtools/CMG/SUSYGluGluToHToTauTau_M-600_8TeV-pythia6-tauola/Summer12_DR53X-PU_S10_START53_V7A-v1/AODSIM/PAT_CMG_V5_16_0/cmgTuple_23_1_8yd.root
p209
(lp210
I01
aI10000
asV/store/cmst3/group/cmgtools/CMG/SUSYGluGluToHToTauTau_M-600_8TeV-pythia6-tauola/Summer12_DR53X-PU_S10_START53_V7A-v1/AODSIM/PAT_CMG_V5_16_0/cmgTuple_15_1_Hew.root
p211
(lp212
I01
aI10000
asV/store/cmst3/group/cmgtools/CMG/SUSYGluGluToHToTauTau_M-600_8TeV-pythia6-tauola/Summer12_DR53X-PU_S10_START53_V7A-v1/AODSIM/PAT_CMG_V5_16_0/cmgTuple_51_1_dTB.root
p213
(lp214
I01
aI10000
asV/store/cmst3/group/cmgtools/CMG/SUSYGluGluToHToTauTau_M-600_8TeV-pythia6-tauola/Summer12_DR53X-PU_S10_START53_V7A-v1/AODSIM/PAT_CMG_V5_16_0/cmgTuple_92_1_1xj.root
p215
(lp216
I01
aI10000
asV/store/cmst3/group/cmgtools/CMG/SUSYGluGluToHToTauTau_M-600_8TeV-pythia6-tauola/Summer12_DR53X-PU_S10_START53_V7A-v1/AODSIM/PAT_CMG_V5_16_0/cmgTuple_26_1_CbS.root
p217
(lp218
I01
aI10000
asV/store/cmst3/group/cmgtools/CMG/SUSYGluGluToHToTauTau_M-600_8TeV-pythia6-tauola/Summer12_DR53X-PU_S10_START53_V7A-v1/AODSIM/PAT_CMG_V5_16_0/cmgTuple_76_1_fxE.root
p219
(lp220
I01
aI10000
asV/store/cmst3/group/cmgtools/CMG/SUSYGluGluToHToTauTau_M-600_8TeV-pythia6-tauola/Summer12_DR53X-PU_S10_START53_V7A-v1/AODSIM/PAT_CMG_V5_16_0/cmgTuple_13_1_yoy.root
p221
(lp222
I01
aI10000
asV/store/cmst3/group/cmgtools/CMG/SUSYGluGluToHToTauTau_M-600_8TeV-pythia6-tauola/Summer12_DR53X-PU_S10_START53_V7A-v1/AODSIM/PAT_CMG_V5_16_0/cmgTuple_46_1_oj8.root
p223
(lp224
I01
aI10000
asV/store/cmst3/group/cmgtools/CMG/SUSYGluGluToHToTauTau_M-600_8TeV-pythia6-tauola/Summer12_DR53X-PU_S10_START53_V7A-v1/AODSIM/PAT_CMG_V5_16_0/cmgTuple_75_1_yJp.root
p225
(lp226
I01
aI10000
asV/store/cmst3/group/cmgtools/CMG/SUSYGluGluToHToTauTau_M-600_8TeV-pythia6-tauola/Summer12_DR53X-PU_S10_START53_V7A-v1/AODSIM/PAT_CMG_V5_16_0/cmgTuple_27_1_tYb.root
p227
(lp228
I01
aI10000
asV/store/cmst3/group/cmgtools/CMG/SUSYGluGluToHToTauTau_M-600_8TeV-pythia6-tauola/Summer12_DR53X-PU_S10_START53_V7A-v1/AODSIM/PAT_CMG_V5_16_0/cmgTuple_4_1_TLZ.root
p229
(lp230
I01
aI10000
asV/store/cmst3/group/cmgtools/CMG/SUSYGluGluToHToTauTau_M-600_8TeV-pythia6-tauola/Summer12_DR53X-PU_S10_START53_V7A-v1/AODSIM/PAT_CMG_V5_16_0/cmgTuple_89_1_bhJ.root
p231
(lp232
I01
aI10000
asV/store/cmst3/group/cmgtools/CMG/SUSYGluGluToHToTauTau_M-600_8TeV-pythia6-tauola/Summer12_DR53X-PU_S10_START53_V7A-v1/AODSIM/PAT_CMG_V5_16_0/cmgTuple_78_1_SRg.root
p233
(lp234
I01
aI10000
asV/store/cmst3/group/cmgtools/CMG/SUSYGluGluToHToTauTau_M-600_8TeV-pythia6-tauola/Summer12_DR53X-PU_S10_START53_V7A-v1/AODSIM/PAT_CMG_V5_16_0/cmgTuple_54_1_67d.root
p235
(lp236
I01
aI10000
asV/store/cmst3/group/cmgtools/CMG/SUSYGluGluToHToTauTau_M-600_8TeV-pythia6-tauola/Summer12_DR53X-PU_S10_START53_V7A-v1/AODSIM/PAT_CMG_V5_16_0/cmgTuple_56_1_jmu.root
p237
(lp238
I01
aI10000
asV/store/cmst3/group/cmgtools/CMG/SUSYGluGluToHToTauTau_M-600_8TeV-pythia6-tauola/Summer12_DR53X-PU_S10_START53_V7A-v1/AODSIM/PAT_CMG_V5_16_0/cmgTuple_88_1_SoI.root
p239
(lp240
I01
aI10000
asV/store/cmst3/group/cmgtools/CMG/SUSYGluGluToHToTauTau_M-600_8TeV-pythia6-tauola/Summer12_DR53X-PU_S10_START53_V7A-v1/AODSIM/PAT_CMG_V5_16_0/cmgTuple_33_1_sgD.root
p241
(lp242
I01
aI10000
asV/store/cmst3/group/cmgtools/CMG/SUSYGluGluToHToTauTau_M-600_8TeV-pythia6-tauola/Summer12_DR53X-PU_S10_START53_V7A-v1/AODSIM/PAT_CMG_V5_16_0/cmgTuple_34_1_BP1.root
p243
(lp244
I01
aI10000
asV/store/cmst3/group/cmgtools/CMG/SUSYGluGluToHToTauTau_M-600_8TeV-pythia6-tauola/Summer12_DR53X-PU_S10_START53_V7A-v1/AODSIM/PAT_CMG_V5_16_0/cmgTuple_80_1_bzL.root
p245
(lp246
I01
aI10000
asV/store/cmst3/group/cmgtools/CMG/SUSYGluGluToHToTauTau_M-600_8TeV-pythia6-tauola/Summer12_DR53X-PU_S10_START53_V7A-v1/AODSIM/PAT_CMG_V5_16_0/cmgTuple_60_1_bL8.root
p247
(lp248
I01
aI10000
asV/store/cmst3/group/cmgtools/CMG/SUSYGluGluToHToTauTau_M-600_8TeV-pythia6-tauola/Summer12_DR53X-PU_S10_START53_V7A-v1/AODSIM/PAT_CMG_V5_16_0/cmgTuple_38_1_8cx.root
p249
(lp250
I01
aI10000
asV/store/cmst3/group/cmgtools/CMG/SUSYGluGluToHToTauTau_M-600_8TeV-pythia6-tauola/Summer12_DR53X-PU_S10_START53_V7A-v1/AODSIM/PAT_CMG_V5_16_0/cmgTuple_25_1_y5Y.root
p251
(lp252
I01
aI10000
asV/store/cmst3/group/cmgtools/CMG/SUSYGluGluToHToTauTau_M-600_8TeV-pythia6-tauola/Summer12_DR53X-PU_S10_START53_V7A-v1/AODSIM/PAT_CMG_V5_16_0/cmgTuple_2_1_1dg.root
p253
(lp254
I01
aI10000
asV/store/cmst3/group/cmgtools/CMG/SUSYGluGluToHToTauTau_M-600_8TeV-pythia6-tauola/Summer12_DR53X-PU_S10_START53_V7A-v1/AODSIM/PAT_CMG_V5_16_0/cmgTuple_67_1_TBW.root
p255
(lp256
I01
aI10000
asV/store/cmst3/group/cmgtools/CMG/SUSYGluGluToHToTauTau_M-600_8TeV-pythia6-tauola/Summer12_DR53X-PU_S10_START53_V7A-v1/AODSIM/PAT_CMG_V5_16_0/cmgTuple_31_1_39a.root
p257
(lp258
I01
aI10000
asV/store/cmst3/group/cmgtools/CMG/SUSYGluGluToHToTauTau_M-600_8TeV-pythia6-tauola/Summer12_DR53X-PU_S10_START53_V7A-v1/AODSIM/PAT_CMG_V5_16_0/cmgTuple_83_1_FBA.root
p259
(lp260
I01
aI10000
asV/store/cmst3/group/cmgtools/CMG/SUSYGluGluToHToTauTau_M-600_8TeV-pythia6-tauola/Summer12_DR53X-PU_S10_START53_V7A-v1/AODSIM/PAT_CMG_V5_16_0/cmgTuple_8_1_XzA.root
p261
(lp262
I01
aI10000
asV/store/cmst3/group/cmgtools/CMG/SUSYGluGluToHToTauTau_M-600_8TeV-pythia6-tauola/Summer12_DR53X-PU_S10_START53_V7A-v1/AODSIM/PAT_CMG_V5_16_0/cmgTuple_63_1_dLO.root
p263
(lp264
I01
aI10000
asV/store/cmst3/group/cmgtools/CMG/SUSYGluGluToHToTauTau_M-600_8TeV-pythia6-tauola/Summer12_DR53X-PU_S10_START53_V7A-v1/AODSIM/PAT_CMG_V5_16_0/cmgTuple_30_1_ild.root
p265
(lp266
I01
aI10000
asV/store/cmst3/group/cmgtools/CMG/SUSYGluGluToHToTauTau_M-600_8TeV-pythia6-tauola/Summer12_DR53X-PU_S10_START53_V7A-v1/AODSIM/PAT_CMG_V5_16_0/cmgTuple_28_1_DfE.root
p267
(lp268
I01
aI10000
asV/store/cmst3/group/cmgtools/CMG/SUSYGluGluToHToTauTau_M-600_8TeV-pythia6-tauola/Summer12_DR53X-PU_S10_START53_V7A-v1/AODSIM/PAT_CMG_V5_16_0/cmgTuple_65_1_Jn1.root
p269
(lp270
I01
aI10000
asV/store/cmst3/group/cmgtools/CMG/SUSYGluGluToHToTauTau_M-600_8TeV-pythia6-tauola/Summer12_DR53X-PU_S10_START53_V7A-v1/AODSIM/PAT_CMG_V5_16_0/cmgTuple_1_1_jn0.root
p271
(lp272
I01
aI10000
asV/store/cmst3/group/cmgtools/CMG/SUSYGluGluToHToTauTau_M-600_8TeV-pythia6-tauola/Summer12_DR53X-PU_S10_START53_V7A-v1/AODSIM/PAT_CMG_V5_16_0/cmgTuple_64_1_pfQ.root
p273
(lp274
I01
aI10000
asV/store/cmst3/group/cmgtools/CMG/SUSYGluGluToHToTauTau_M-600_8TeV-pythia6-tauola/Summer12_DR53X-PU_S10_START53_V7A-v1/AODSIM/PAT_CMG_V5_16_0/cmgTuple_66_1_MzQ.root
p275
(lp276
I01
aI10000
asV/store/cmst3/group/cmgtools/CMG/SUSYGluGluToHToTauTau_M-600_8TeV-pythia6-tauola/Summer12_DR53X-PU_S10_START53_V7A-v1/AODSIM/PAT_CMG_V5_16_0/cmgTuple_21_1_lkq.root
p277
(lp278
I01
aI10000
asV/store/cmst3/group/cmgtools/CMG/SUSYGluGluToHToTauTau_M-600_8TeV-pythia6-tauola/Summer12_DR53X-PU_S10_START53_V7A-v1/AODSIM/PAT_CMG_V5_16_0/cmgTuple_77_1_ooT.root
p279
(lp280
I01
aI10000
asV/store/cmst3/group/cmgtools/CMG/SUSYGluGluToHToTauTau_M-600_8TeV-pythia6-tauola/Summer12_DR53X-PU_S10_START53_V7A-v1/AODSIM/PAT_CMG_V5_16_0/cmgTuple_32_1_C1b.root
p281
(lp282
I01
aI10000
asV/store/cmst3/group/cmgtools/CMG/SUSYGluGluToHToTauTau_M-600_8TeV-pythia6-tauola/Summer12_DR53X-PU_S10_START53_V7A-v1/AODSIM/PAT_CMG_V5_16_0/cmgTuple_48_1_WmU.root
p283
(lp284
I01
aI10000
asV/store/cmst3/group/cmgtools/CMG/SUSYGluGluToHToTauTau_M-600_8TeV-pythia6-tauola/Summer12_DR53X-PU_S10_START53_V7A-v1/AODSIM/PAT_CMG_V5_16_0/cmgTuple_24_1_ShR.root
p285
(lp286
I01
aI10000
asV/store/cmst3/group/cmgtools/CMG/SUSYGluGluToHToTauTau_M-600_8TeV-pythia6-tauola/Summer12_DR53X-PU_S10_START53_V7A-v1/AODSIM/PAT_CMG_V5_16_0/cmgTuple_7_1_6XX.root
p287
(lp288
I01
aI10000
asV/store/cmst3/group/cmgtools/CMG/SUSYGluGluToHToTauTau_M-600_8TeV-pythia6-tauola/Summer12_DR53X-PU_S10_START53_V7A-v1/AODSIM/PAT_CMG_V5_16_0/cmgTuple_17_1_PWT.root
p289
(lp290
I01
aI10000
asV/store/cmst3/group/cmgtools/CMG/SUSYGluGluToHToTauTau_M-600_8TeV-pythia6-tauola/Summer12_DR53X-PU_S10_START53_V7A-v1/AODSIM/PAT_CMG_V5_16_0/cmgTuple_93_1_Irk.root
p291
(lp292
I01
aI10000
asV/store/cmst3/group/cmgtools/CMG/SUSYGluGluToHToTauTau_M-600_8TeV-pythia6-tauola/Summer12_DR53X-PU_S10_START53_V7A-v1/AODSIM/PAT_CMG_V5_16_0/cmgTuple_96_1_FB6.root
p293
(lp294
I01
aI10000
asV/store/cmst3/group/cmgtools/CMG/SUSYGluGluToHToTauTau_M-600_8TeV-pythia6-tauola/Summer12_DR53X-PU_S10_START53_V7A-v1/AODSIM/PAT_CMG_V5_16_0/cmgTuple_22_1_ZOi.root
p295
(lp296
I01
aI10000
asV/store/cmst3/group/cmgtools/CMG/SUSYGluGluToHToTauTau_M-600_8TeV-pythia6-tauola/Summer12_DR53X-PU_S10_START53_V7A-v1/AODSIM/PAT_CMG_V5_16_0/cmgTuple_71_1_GQz.root
p297
(lp298
I01
aI10000
asV/store/cmst3/group/cmgtools/CMG/SUSYGluGluToHToTauTau_M-600_8TeV-pythia6-tauola/Summer12_DR53X-PU_S10_START53_V7A-v1/AODSIM/PAT_CMG_V5_16_0/cmgTuple_45_1_mGO.root
p299
(lp300
I01
aI10000
asV/store/cmst3/group/cmgtools/CMG/SUSYGluGluToHToTauTau_M-600_8TeV-pythia6-tauola/Summer12_DR53X-PU_S10_START53_V7A-v1/AODSIM/PAT_CMG_V5_16_0/cmgTuple_52_1_ASo.root
p301
(lp302
I01
aI10000
asV/store/cmst3/group/cmgtools/CMG/SUSYGluGluToHToTauTau_M-600_8TeV-pythia6-tauola/Summer12_DR53X-PU_S10_START53_V7A-v1/AODSIM/PAT_CMG_V5_16_0/cmgTuple_73_1_S3m.root
p303
(lp304
I01
aI10000
asV/store/cmst3/group/cmgtools/CMG/SUSYGluGluToHToTauTau_M-600_8TeV-pythia6-tauola/Summer12_DR53X-PU_S10_START53_V7A-v1/AODSIM/PAT_CMG_V5_16_0/cmgTuple_72_1_yxq.root
p305
(lp306
I01
aI10000
asV/store/cmst3/group/cmgtools/CMG/SUSYGluGluToHToTauTau_M-600_8TeV-pythia6-tauola/Summer12_DR53X-PU_S10_START53_V7A-v1/AODSIM/PAT_CMG_V5_16_0/cmgTuple_42_1_MhB.root
p307
(lp308
I01
aI10000
asV/store/cmst3/group/cmgtools/CMG/SUSYGluGluToHToTauTau_M-600_8TeV-pythia6-tauola/Summer12_DR53X-PU_S10_START53_V7A-v1/AODSIM/PAT_CMG_V5_16_0/cmgTuple_99_1_NpL.root
p309
(lp310
I01
aI316
asV/store/cmst3/group/cmgtools/CMG/SUSYGluGluToHToTauTau_M-600_8TeV-pythia6-tauola/Summer12_DR53X-PU_S10_START53_V7A-v1/AODSIM/PAT_CMG_V5_16_0/cmgTuple_79_1_Vrm.root
p311
(lp312
I01
aI10000
asV/store/cmst3/group/cmgtools/CMG/SUSYGluGluToHToTauTau_M-600_8TeV-pythia6-tauola/Summer12_DR53X-PU_S10_START53_V7A-v1/AODSIM/PAT_CMG_V5_16_0/cmgTuple_95_1_1Gp.root
p313
(lp314
I01
aI10000
asV/store/cmst3/group/cmgtools/CMG/SUSYGluGluToHToTauTau_M-600_8TeV-pythia6-tauola/Summer12_DR53X-PU_S10_START53_V7A-v1/AODSIM/PAT_CMG_V5_16_0/cmgTuple_53_1_Xk6.root
p315
(lp316
I01
aI10000
asV/store/cmst3/group/cmgtools/CMG/SUSYGluGluToHToTauTau_M-600_8TeV-pythia6-tauola/Summer12_DR53X-PU_S10_START53_V7A-v1/AODSIM/PAT_CMG_V5_16_0/cmgTuple_12_1_FD0.root
p317
(lp318
I01
aI10000
asV/store/cmst3/group/cmgtools/CMG/SUSYGluGluToHToTauTau_M-600_8TeV-pythia6-tauola/Summer12_DR53X-PU_S10_START53_V7A-v1/AODSIM/PAT_CMG_V5_16_0/cmgTuple_86_1_d8R.root
p319
(lp320
I01
aI10000
asV/store/cmst3/group/cmgtools/CMG/SUSYGluGluToHToTauTau_M-600_8TeV-pythia6-tauola/Summer12_DR53X-PU_S10_START53_V7A-v1/AODSIM/PAT_CMG_V5_16_0/cmgTuple_74_1_Txi.root
p321
(lp322
I01
aI10000
asV/store/cmst3/group/cmgtools/CMG/SUSYGluGluToHToTauTau_M-600_8TeV-pythia6-tauola/Summer12_DR53X-PU_S10_START53_V7A-v1/AODSIM/PAT_CMG_V5_16_0/cmgTuple_11_1_E52.root
p323
(lp324
I01
aI10000
asV/store/cmst3/group/cmgtools/CMG/SUSYGluGluToHToTauTau_M-600_8TeV-pythia6-tauola/Summer12_DR53X-PU_S10_START53_V7A-v1/AODSIM/PAT_CMG_V5_16_0/cmgTuple_55_1_hay.root
p325
(lp326
I01
aI10000
asV/store/cmst3/group/cmgtools/CMG/SUSYGluGluToHToTauTau_M-600_8TeV-pythia6-tauola/Summer12_DR53X-PU_S10_START53_V7A-v1/AODSIM/PAT_CMG_V5_16_0/cmgTuple_90_1_9Eo.root
p327
(lp328
I01
aI10000
asV/store/cmst3/group/cmgtools/CMG/SUSYGluGluToHToTauTau_M-600_8TeV-pythia6-tauola/Summer12_DR53X-PU_S10_START53_V7A-v1/AODSIM/PAT_CMG_V5_16_0/cmgTuple_68_1_L19.root
p329
(lp330
I01
aI10000
asV/store/cmst3/group/cmgtools/CMG/SUSYGluGluToHToTauTau_M-600_8TeV-pythia6-tauola/Summer12_DR53X-PU_S10_START53_V7A-v1/AODSIM/PAT_CMG_V5_16_0/cmgTuple_69_1_thi.root
p331
(lp332
I01
aI10000
asV/store/cmst3/group/cmgtools/CMG/SUSYGluGluToHToTauTau_M-600_8TeV-pythia6-tauola/Summer12_DR53X-PU_S10_START53_V7A-v1/AODSIM/PAT_CMG_V5_16_0/cmgTuple_40_1_jhq.root
p333
(lp334
I01
aI10000
asV/store/cmst3/group/cmgtools/CMG/SUSYGluGluToHToTauTau_M-600_8TeV-pythia6-tauola/Summer12_DR53X-PU_S10_START53_V7A-v1/AODSIM/PAT_CMG_V5_16_0/cmgTuple_62_1_PhS.root
p335
(lp336
I01
aI10000
asV/store/cmst3/group/cmgtools/CMG/SUSYGluGluToHToTauTau_M-600_8TeV-pythia6-tauola/Summer12_DR53X-PU_S10_START53_V7A-v1/AODSIM/PAT_CMG_V5_16_0/cmgTuple_10_1_oav.root
p337
(lp338
I01
aI10000
asV/store/cmst3/group/cmgtools/CMG/SUSYGluGluToHToTauTau_M-600_8TeV-pythia6-tauola/Summer12_DR53X-PU_S10_START53_V7A-v1/AODSIM/PAT_CMG_V5_16_0/cmgTuple_97_1_PYP.root
p339
(lp340
I01
aI10000
asV/store/cmst3/group/cmgtools/CMG/SUSYGluGluToHToTauTau_M-600_8TeV-pythia6-tauola/Summer12_DR53X-PU_S10_START53_V7A-v1/AODSIM/PAT_CMG_V5_16_0/cmgTuple_6_1_YK0.root
p341
(lp342
I01
aI10000
asV/store/cmst3/group/cmgtools/CMG/SUSYGluGluToHToTauTau_M-600_8TeV-pythia6-tauola/Summer12_DR53X-PU_S10_START53_V7A-v1/AODSIM/PAT_CMG_V5_16_0/cmgTuple_39_1_pUb.root
p343
(lp344
I01
aI10000
asV/store/cmst3/group/cmgtools/CMG/SUSYGluGluToHToTauTau_M-600_8TeV-pythia6-tauola/Summer12_DR53X-PU_S10_START53_V7A-v1/AODSIM/PAT_CMG_V5_16_0/cmgTuple_50_1_3X5.root
p345
(lp346
I01
aI10000
asV/store/cmst3/group/cmgtools/CMG/SUSYGluGluToHToTauTau_M-600_8TeV-pythia6-tauola/Summer12_DR53X-PU_S10_START53_V7A-v1/AODSIM/PAT_CMG_V5_16_0/cmgTuple_84_1_ZtA.root
p347
(lp348
I01
aI10000
asV/store/cmst3/group/cmgtools/CMG/SUSYGluGluToHToTauTau_M-600_8TeV-pythia6-tauola/Summer12_DR53X-PU_S10_START53_V7A-v1/AODSIM/PAT_CMG_V5_16_0/cmgTuple_43_1_NTb.root
p349
(lp350
I01
aI10000
asV/store/cmst3/group/cmgtools/CMG/SUSYGluGluToHToTauTau_M-600_8TeV-pythia6-tauola/Summer12_DR53X-PU_S10_START53_V7A-v1/AODSIM/PAT_CMG_V5_16_0/cmgTuple_5_1_Zt0.root
p351
(lp352
I01
aI10000
asV/store/cmst3/group/cmgtools/CMG/SUSYGluGluToHToTauTau_M-600_8TeV-pythia6-tauola/Summer12_DR53X-PU_S10_START53_V7A-v1/AODSIM/PAT_CMG_V5_16_0/cmgTuple_35_1_Lge.root
p353
(lp354
I01
aI10000
asV/store/cmst3/group/cmgtools/CMG/SUSYGluGluToHToTauTau_M-600_8TeV-pythia6-tauola/Summer12_DR53X-PU_S10_START53_V7A-v1/AODSIM/PAT_CMG_V5_16_0/cmgTuple_16_1_MSN.root
p355
(lp356
I01
aI10000
asV/store/cmst3/group/cmgtools/CMG/SUSYGluGluToHToTauTau_M-600_8TeV-pythia6-tauola/Summer12_DR53X-PU_S10_START53_V7A-v1/AODSIM/PAT_CMG_V5_16_0/cmgTuple_9_1_0wd.root
p357
(lp358
I01
aI10000
asV/store/cmst3/group/cmgtools/CMG/SUSYGluGluToHToTauTau_M-600_8TeV-pythia6-tauola/Summer12_DR53X-PU_S10_START53_V7A-v1/AODSIM/PAT_CMG_V5_16_0/cmgTuple_94_1_EuP.root
p359
(lp360
I01
aI10000
asV/store/cmst3/group/cmgtools/CMG/SUSYGluGluToHToTauTau_M-600_8TeV-pythia6-tauola/Summer12_DR53X-PU_S10_START53_V7A-v1/AODSIM/PAT_CMG_V5_16_0/cmgTuple_49_1_nfq.root
p361
(lp362
I01
aI10000
assVPhysicsGroup
p363
VCMG
p364
sVFilesCount
p365
I98
sVFilesEntries
p366
I970316
sVRunList
p367
(lp368
sVValidDuplicates
p369
(dp370
sVPrimaryDataset
p371
V/SUSYGluGluToHToTauTau_M-600_8TeV-pythia6-tauola/Summer12_DR53X-PU_S10_START53_V7A-v1/AODSIM
p372
sVStatus
p373
VVALID
p374
sVName
p375
V/SUSYGluGluToHToTauTau_M-600_8TeV-pythia6-tauola/Summer12_DR53X-PU_S10_START53_V7A-v1/AODSIM/PAT_CMG_V5_16_0
p376
sVTopdir
p377
V/eos/cms/store/cmst3/group/cmgtools/CMG
p378
sVdata
p379
(dp380
sVFilesBad
p381
I0
sVMinRun
p382
I-1
sVAlgoList
p383
(lp384
sVTierList
p385
(lp386
sVDateCreated
p387
V1371077203
p388
sVCreatedBy
p389
Vcmgtools_group
p390
sVMaxRun
p391
I-1
sVBadJobs
p392
(lp393
I37
assg113
I01
ssS'MonitorJobs'
p394
(dp395
S'LSFJobStatus'
p396
(dp397
g116
S'SUSYGluGluToHToTauTau_M-600_8TeV-pythia6-tauola/Summer12_DR53X-PU_S10_START53_V7A-v1/AODSIM/PAT_CMG_V5_16_0_1377467542/HTT_24Jul_newTES_manzoni_Up_Jobs/Job_24/LSFJOB_440973725/STDOUT.gz'
p398
sg117
S'SUSYGluGluToHToTauTau_M-600_8TeV-pythia6-tauola/Summer12_DR53X-PU_S10_START53_V7A-v1/AODSIM/PAT_CMG_V5_16_0_1377467542/HTT_24Jul_newTES_manzoni_Up_Jobs/Job_25/LSFJOB_440973834/STDOUT.gz'
p399
sg118
S'SUSYGluGluToHToTauTau_M-600_8TeV-pythia6-tauola/Summer12_DR53X-PU_S10_START53_V7A-v1/AODSIM/PAT_CMG_V5_16_0_1377467542/HTT_24Jul_newTES_manzoni_Up_Jobs/Job_26/LSFJOB_440973941/STDOUT.gz'
p400
sg119
S'SUSYGluGluToHToTauTau_M-600_8TeV-pythia6-tauola/Summer12_DR53X-PU_S10_START53_V7A-v1/AODSIM/PAT_CMG_V5_16_0_1377467542/HTT_24Jul_newTES_manzoni_Up_Jobs/Job_27/LSFJOB_440974029/STDOUT.gz'
p401
sg120
S'SUSYGluGluToHToTauTau_M-600_8TeV-pythia6-tauola/Summer12_DR53X-PU_S10_START53_V7A-v1/AODSIM/PAT_CMG_V5_16_0_1377467542/HTT_24Jul_newTES_manzoni_Up_Jobs/Job_20/LSFJOB_440973443/STDOUT.gz'
p402
sg121
S'SUSYGluGluToHToTauTau_M-600_8TeV-pythia6-tauola/Summer12_DR53X-PU_S10_START53_V7A-v1/AODSIM/PAT_CMG_V5_16_0_1377467542/HTT_24Jul_newTES_manzoni_Up_Jobs/Job_21/LSFJOB_440973500/STDOUT.gz'
p403
sg122
S'SUSYGluGluToHToTauTau_M-600_8TeV-pythia6-tauola/Summer12_DR53X-PU_S10_START53_V7A-v1/AODSIM/PAT_CMG_V5_16_0_1377467542/HTT_24Jul_newTES_manzoni_Up_Jobs/Job_22/LSFJOB_440973564/STDOUT.gz'
p404
sg123
S'SUSYGluGluToHToTauTau_M-600_8TeV-pythia6-tauola/Summer12_DR53X-PU_S10_START53_V7A-v1/AODSIM/PAT_CMG_V5_16_0_1377467542/HTT_24Jul_newTES_manzoni_Up_Jobs/Job_23/LSFJOB_440973654/STDOUT.gz'
p405
sg124
S'SUSYGluGluToHToTauTau_M-600_8TeV-pythia6-tauola/Summer12_DR53X-PU_S10_START53_V7A-v1/AODSIM/PAT_CMG_V5_16_0_1377467542/HTT_24Jul_newTES_manzoni_Up_Jobs/Job_28/LSFJOB_440974099/STDOUT.gz'
p406
sg125
S'SUSYGluGluToHToTauTau_M-600_8TeV-pythia6-tauola/Summer12_DR53X-PU_S10_START53_V7A-v1/AODSIM/PAT_CMG_V5_16_0_1377467542/HTT_24Jul_newTES_manzoni_Up_Jobs/Job_29/LSFJOB_440974183/STDOUT.gz'
p407
sg126
S'SUSYGluGluToHToTauTau_M-600_8TeV-pythia6-tauola/Summer12_DR53X-PU_S10_START53_V7A-v1/AODSIM/PAT_CMG_V5_16_0_1377467542/HTT_24Jul_newTES_manzoni_Up_Jobs/Job_1/LSFJOB_440971661/STDOUT.gz'
p408
sg127
S'SUSYGluGluToHToTauTau_M-600_8TeV-pythia6-tauola/Summer12_DR53X-PU_S10_START53_V7A-v1/AODSIM/PAT_CMG_V5_16_0_1377467542/HTT_24Jul_newTES_manzoni_Up_Jobs/Job_3/LSFJOB_440971832/STDOUT.gz'
p409
sg128
S'SUSYGluGluToHToTauTau_M-600_8TeV-pythia6-tauola/Summer12_DR53X-PU_S10_START53_V7A-v1/AODSIM/PAT_CMG_V5_16_0_1377467542/HTT_24Jul_newTES_manzoni_Up_Jobs/Job_2/LSFJOB_440971757/STDOUT.gz'
p410
sg129
S'SUSYGluGluToHToTauTau_M-600_8TeV-pythia6-tauola/Summer12_DR53X-PU_S10_START53_V7A-v1/AODSIM/PAT_CMG_V5_16_0_1377467542/HTT_24Jul_newTES_manzoni_Up_Jobs/Job_5/LSFJOB_440972007/STDOUT.gz'
p411
sg130
S'SUSYGluGluToHToTauTau_M-600_8TeV-pythia6-tauola/Summer12_DR53X-PU_S10_START53_V7A-v1/AODSIM/PAT_CMG_V5_16_0_1377467542/HTT_24Jul_newTES_manzoni_Up_Jobs/Job_4/LSFJOB_440971895/STDOUT.gz'
p412
sg131
S'SUSYGluGluToHToTauTau_M-600_8TeV-pythia6-tauola/Summer12_DR53X-PU_S10_START53_V7A-v1/AODSIM/PAT_CMG_V5_16_0_1377467542/HTT_24Jul_newTES_manzoni_Up_Jobs/Job_7/LSFJOB_440972166/STDOUT.gz'
p413
sg132
S'SUSYGluGluToHToTauTau_M-600_8TeV-pythia6-tauola/Summer12_DR53X-PU_S10_START53_V7A-v1/AODSIM/PAT_CMG_V5_16_0_1377467542/HTT_24Jul_newTES_manzoni_Up_Jobs/Job_6/LSFJOB_440972077/STDOUT.gz'
p414
sg133
S'SUSYGluGluToHToTauTau_M-600_8TeV-pythia6-tauola/Summer12_DR53X-PU_S10_START53_V7A-v1/AODSIM/PAT_CMG_V5_16_0_1377467542/HTT_24Jul_newTES_manzoni_Up_Jobs/Job_9/LSFJOB_440972360/STDOUT.gz'
p415
sg134
S'SUSYGluGluToHToTauTau_M-600_8TeV-pythia6-tauola/Summer12_DR53X-PU_S10_START53_V7A-v1/AODSIM/PAT_CMG_V5_16_0_1377467542/HTT_24Jul_newTES_manzoni_Up_Jobs/Job_8/LSFJOB_440972257/STDOUT.gz'
p416
sg135
S'SUSYGluGluToHToTauTau_M-600_8TeV-pythia6-tauola/Summer12_DR53X-PU_S10_START53_V7A-v1/AODSIM/PAT_CMG_V5_16_0_1377467542/HTT_24Jul_newTES_manzoni_Up_Jobs/Job_33/LSFJOB_440974378/STDOUT.gz'
p417
sg138
S'SUSYGluGluToHToTauTau_M-600_8TeV-pythia6-tauola/Summer12_DR53X-PU_S10_START53_V7A-v1/AODSIM/PAT_CMG_V5_16_0_1377467542/HTT_24Jul_newTES_manzoni_Up_Jobs/Job_18/LSFJOB_440973288/STDOUT.gz'
p418
sg137
S'SUSYGluGluToHToTauTau_M-600_8TeV-pythia6-tauola/Summer12_DR53X-PU_S10_START53_V7A-v1/AODSIM/PAT_CMG_V5_16_0_1377467542/HTT_24Jul_newTES_manzoni_Up_Jobs/Job_19/LSFJOB_440973373/STDOUT.gz'
p419
sg136
S'SUSYGluGluToHToTauTau_M-600_8TeV-pythia6-tauola/Summer12_DR53X-PU_S10_START53_V7A-v1/AODSIM/PAT_CMG_V5_16_0_1377467542/HTT_24Jul_newTES_manzoni_Up_Jobs/Job_32/LSFJOB_440974335/STDOUT.gz'
p420
sg139
S'SUSYGluGluToHToTauTau_M-600_8TeV-pythia6-tauola/Summer12_DR53X-PU_S10_START53_V7A-v1/AODSIM/PAT_CMG_V5_16_0_1377467542/HTT_24Jul_newTES_manzoni_Up_Jobs/Job_31/LSFJOB_440974292/STDOUT.gz'
p421
sg140
S'SUSYGluGluToHToTauTau_M-600_8TeV-pythia6-tauola/Summer12_DR53X-PU_S10_START53_V7A-v1/AODSIM/PAT_CMG_V5_16_0_1377467542/HTT_24Jul_newTES_manzoni_Up_Jobs/Job_30/LSFJOB_440974230/STDOUT.gz'
p422
sg141
S'SUSYGluGluToHToTauTau_M-600_8TeV-pythia6-tauola/Summer12_DR53X-PU_S10_START53_V7A-v1/AODSIM/PAT_CMG_V5_16_0_1377467542/HTT_24Jul_newTES_manzoni_Up_Jobs/Job_11/LSFJOB_440972625/STDOUT.gz'
p423
sg142
S'SUSYGluGluToHToTauTau_M-600_8TeV-pythia6-tauola/Summer12_DR53X-PU_S10_START53_V7A-v1/AODSIM/PAT_CMG_V5_16_0_1377467542/HTT_24Jul_newTES_manzoni_Up_Jobs/Job_10/LSFJOB_440972491/STDOUT.gz'
p424
sg143
S'SUSYGluGluToHToTauTau_M-600_8TeV-pythia6-tauola/Summer12_DR53X-PU_S10_START53_V7A-v1/AODSIM/PAT_CMG_V5_16_0_1377467542/HTT_24Jul_newTES_manzoni_Up_Jobs/Job_13/LSFJOB_440972838/STDOUT.gz'
p425
sg144
S'SUSYGluGluToHToTauTau_M-600_8TeV-pythia6-tauola/Summer12_DR53X-PU_S10_START53_V7A-v1/AODSIM/PAT_CMG_V5_16_0_1377467542/HTT_24Jul_newTES_manzoni_Up_Jobs/Job_12/LSFJOB_440972726/STDOUT.gz'
p426
sg145
S'SUSYGluGluToHToTauTau_M-600_8TeV-pythia6-tauola/Summer12_DR53X-PU_S10_START53_V7A-v1/AODSIM/PAT_CMG_V5_16_0_1377467542/HTT_24Jul_newTES_manzoni_Up_Jobs/Job_15/LSFJOB_440973057/STDOUT.gz'
p427
sg146
S'SUSYGluGluToHToTauTau_M-600_8TeV-pythia6-tauola/Summer12_DR53X-PU_S10_START53_V7A-v1/AODSIM/PAT_CMG_V5_16_0_1377467542/HTT_24Jul_newTES_manzoni_Up_Jobs/Job_14/LSFJOB_440972966/STDOUT.gz'
p428
sg147
S'SUSYGluGluToHToTauTau_M-600_8TeV-pythia6-tauola/Summer12_DR53X-PU_S10_START53_V7A-v1/AODSIM/PAT_CMG_V5_16_0_1377467542/HTT_24Jul_newTES_manzoni_Up_Jobs/Job_17/LSFJOB_440973202/STDOUT.gz'
p429
sg148
S'SUSYGluGluToHToTauTau_M-600_8TeV-pythia6-tauola/Summer12_DR53X-PU_S10_START53_V7A-v1/AODSIM/PAT_CMG_V5_16_0_1377467542/HTT_24Jul_newTES_manzoni_Up_Jobs/Job_16/LSFJOB_440973120/STDOUT.gz'
p430
ssS'LSFJobIDs'
p431
(dp432
g116
S'440973725'
p433
sg117
S'440973834'
p434
sg118
S'440973941'
p435
sg119
S'440974029'
p436
sg120
S'440973443'
p437
sg121
S'440973500'
p438
sg122
S'440973564'
p439
sg123
S'440973654'
p440
sg124
S'440974099'
p441
sg125
S'440974183'
p442
sg126
S'440971661'
p443
sg127
S'440971832'
p444
sg128
S'440971757'
p445
sg129
S'440972007'
p446
sg130
S'440971895'
p447
sg131
S'440972166'
p448
sg132
S'440972077'
p449
sg133
S'440972360'
p450
sg134
S'440972257'
p451
sg135
S'440974378'
p452
sg136
S'440974335'
p453
sg137
S'440973373'
p454
sg138
S'440973288'
p455
sg139
S'440974292'
p456
sg140
S'440974230'
p457
sg141
S'440972625'
p458
sg142
S'440972491'
p459
sg143
S'440972838'
p460
sg144
S'440972726'
p461
sg145
S'440973057'
p462
sg146
S'440972966'
p463
sg147
S'440973202'
p464
sg148
S'440973120'
p465
sssS'FindOnCastor'
p466
(dp467
g75
S'/eos/cms/store/cmst3/group/cmgtools/CMG'
p468
sS'Directory'
p469
S'/eos/cms/store/cmst3/group/cmgtools/CMG/SUSYGluGluToHToTauTau_M-600_8TeV-pythia6-tauola/Summer12_DR53X-PU_S10_START53_V7A-v1/AODSIM/PAT_CMG_V5_16_0'
p470
ssS'CheckConfig'
p471
(dp472
g91
g92
ssS'FullCFG'
p473
(dp474
S'FullCFG'
p475
S'SUSYGluGluToHToTauTau_M-600_8TeV-pythia6-tauola/Summer12_DR53X-PU_S10_START53_V7A-v1/AODSIM/PAT_CMG_V5_16_0_1377467542/full_cfg.py'
p476
ssS'WriteJobReport'
p477
(dp478
S'SummaryFile'
p479
S'SUSYGluGluToHToTauTau_M-600_8TeV-pythia6-tauola/Summer12_DR53X-PU_S10_START53_V7A-v1/AODSIM/PAT_CMG_V5_16_0_1377467542/resubmit.sh'
p480
ssS'ExpandConfig'
p481
(dp482
S'ExpandedFullCFG'
p483
S'SUSYGluGluToHToTauTau_M-600_8TeV-pythia6-tauola/Summer12_DR53X-PU_S10_START53_V7A-v1/AODSIM/PAT_CMG_V5_16_0_1377467542/Expandedfull_cfg.py'
p484
ssS'RunTestEvents'
p485
(dp486
g91
g92
sS'TestCFG'
p487
S'SUSYGluGluToHToTauTau_M-600_8TeV-pythia6-tauola/Summer12_DR53X-PU_S10_START53_V7A-v1/AODSIM/PAT_CMG_V5_16_0_1377467542/test_cfg.py'
p488
ssS'SourceCFG'
p489
(dp490
S'SourceCFG'
p491
S'SUSYGluGluToHToTauTau_M-600_8TeV-pythia6-tauola/Summer12_DR53X-PU_S10_START53_V7A-v1/AODSIM/PAT_CMG_V5_16_0_1377467542/source_cfg.py'
p492
ssS'CheckForWrite'
p493
(dp494
g469
g470
sS'WriteAccess'
p495
I01
ssS'WriteToDatasets'
p496
(dp497
S'Added'
p498
I00
sg73
S'/SUSYGluGluToHToTauTau_M-600_8TeV-pythia6-tauola/Summer12_DR53X-PU_S10_START53_V7A-v1/AODSIM/PAT_CMG_V5_16_0/HTT_24Jul_newTES_manzoni_Up'
p499
sS'User'
p500
g106
ssS'RunCMSBatch'
p501
(dp502
S'BatchUser'
p503
g106
sS'SampleOutputDir'
p504
S'/store/cmst3/user/manzoni/CMG/SUSYGluGluToHToTauTau_M-600_8TeV-pythia6-tauola/Summer12_DR53X-PU_S10_START53_V7A-v1/AODSIM/PAT_CMG_V5_16_0/HTT_24Jul_newTES_manzoni_Up'
p505
sS'SampleDataset'
p506
g74
sS'LSFJobsTopDir'
p507
S'SUSYGluGluToHToTauTau_M-600_8TeV-pythia6-tauola/Summer12_DR53X-PU_S10_START53_V7A-v1/AODSIM/PAT_CMG_V5_16_0_1377467542/HTT_24Jul_newTES_manzoni_Up_Jobs'
p508
ssS'CreateJobDirectory'
p509
(dp510
S'JobDir'
p511
S'SUSYGluGluToHToTauTau_M-600_8TeV-pythia6-tauola/Summer12_DR53X-PU_S10_START53_V7A-v1/AODSIM/PAT_CMG_V5_16_0_1377467542'
p512
sS'PWD'
p513
S'/afs/cern.ch/user/m/manzoni/summer13/CMGTools/CMSSW_5_3_9/src/CMGTools/H2TauTau/prod/25aug_corrMC/up/mc'
p514
ssS'CleanJobFiles'
p515
(dp516
S'Compressed'
p517
(dp518
S'CompressedFiles'
p519
(lp520
ssS'Cleaned'
p521
(dp522
S'CleanedFiles'
p523
(lp524
g484
ag488
aS'SUSYGluGluToHToTauTau_M-600_8TeV-pythia6-tauola/Summer12_DR53X-PU_S10_START53_V7A-v1/AODSIM/PAT_CMG_V5_16_0_1377467542/diTau_fullsel_tree_CMG.root'
p525
aS'SUSYGluGluToHToTauTau_M-600_8TeV-pythia6-tauola/Summer12_DR53X-PU_S10_START53_V7A-v1/AODSIM/PAT_CMG_V5_16_0_1377467542/source_cfg.pyc'
p526
aS'SUSYGluGluToHToTauTau_M-600_8TeV-pythia6-tauola/Summer12_DR53X-PU_S10_START53_V7A-v1/AODSIM/PAT_CMG_V5_16_0_1377467542/Expandedfull_cfg.pyc'
p527
asssS'CheckForMask'
p528
(dp529
g3
g155
sg113
I01
ss.