(dp0
S'CheckJobStatus'
p1
(dp2
S'Report'
p3
(dp4
S'Files'
p5
(dp6
S'/store/cmst3/user/manzoni/CMG/WH_ZH_TTH_HToTauTau_M-90_8TeV-pythia6-tauola/Summer12_DR53X-PU_S10_START53_V7C-v1/AODSIM/PAT_CMG_V5_16_0/HTT_24Jul_newTES_manzoni_Up/diTau_fullsel_tree_CMG_3.root'
p7
(I01
I2068
tp8
sS'/store/cmst3/user/manzoni/CMG/WH_ZH_TTH_HToTauTau_M-90_8TeV-pythia6-tauola/Summer12_DR53X-PU_S10_START53_V7C-v1/AODSIM/PAT_CMG_V5_16_0/HTT_24Jul_newTES_manzoni_Up/diTau_fullsel_tree_CMG_2.root'
p9
(I01
I2127
tp10
sS'/store/cmst3/user/manzoni/CMG/WH_ZH_TTH_HToTauTau_M-90_8TeV-pythia6-tauola/Summer12_DR53X-PU_S10_START53_V7C-v1/AODSIM/PAT_CMG_V5_16_0/HTT_24Jul_newTES_manzoni_Up/diTau_fullsel_tree_CMG_4.root'
p11
(I01
I2169
tp12
ssS'Name'
p13
S'/WH_ZH_TTH_HToTauTau_M-90_8TeV-pythia6-tauola/Summer12_DR53X-PU_S10_START53_V7C-v1/AODSIM/PAT_CMG_V5_16_0/HTT_24Jul_newTES_manzoni_Up'
p14
sS'Topdir'
p15
S'/eos/cms/store/cmst3/user/manzoni/CMG'
p16
sS'RunList'
p17
(lp18
sS'PathList'
p19
(lp20
S'/store/cmst3/user/manzoni/CMG/WH_ZH_TTH_HToTauTau_M-90_8TeV-pythia6-tauola/Summer12_DR53X-PU_S10_START53_V7C-v1/AODSIM/PAT_CMG_V5_16_0/HTT_24Jul_newTES_manzoni_Up'
p21
asS'AlgoList'
p22
(lp23
sS'PrimaryDatasetFraction'
p24
F0.031820000000000001
sS'FilesGood'
p25
I3
sS'PrimaryDatasetEntries'
p26
I200000
sS'data'
p27
(dp28
sS'FilesBad'
p29
I0
sS'ReportVersion'
p30
I3
sS'Status'
p31
S'VALID'
p32
sS'MaxRun'
p33
I-1
sS'PhysicsGroup'
p34
S'CMG'
p35
sS'MinRun'
p36
I-1
sS'StageHost'
p37
S'castorcms'
p38
sS'FilesCount'
p39
I3
sS'FilesEntries'
p40
I6364
sS'TierList'
p41
(lp42
sS'DateCreated'
p43
S'1377471813'
p44
sS'CreatedBy'
p45
S'manzoni'
p46
sS'ValidDuplicates'
p47
(dp48
sS'PrimaryDataset'
p49
S'/WH_ZH_TTH_HToTauTau_M-90_8TeV-pythia6-tauola/Summer12_DR53X-PU_S10_START53_V7C-v1/AODSIM'
p50
sS'BadJobs'
p51
(lp52
ssS'MaskPresent'
p53
I01
sS'LSFJobStatusCheck'
p54
(dp55
S'WH_ZH_TTH_HToTauTau_M-90_8TeV-pythia6-tauola/Summer12_DR53X-PU_S10_START53_V7C-v1/AODSIM/PAT_CMG_V5_16_0_1377467471/HTT_24Jul_newTES_manzoni_Up_Jobs/Job_3'
p56
g32
sS'WH_ZH_TTH_HToTauTau_M-90_8TeV-pythia6-tauola/Summer12_DR53X-PU_S10_START53_V7C-v1/AODSIM/PAT_CMG_V5_16_0_1377467471/HTT_24Jul_newTES_manzoni_Up_Jobs/Job_2'
p57
g32
sS'WH_ZH_TTH_HToTauTau_M-90_8TeV-pythia6-tauola/Summer12_DR53X-PU_S10_START53_V7C-v1/AODSIM/PAT_CMG_V5_16_0_1377467471/HTT_24Jul_newTES_manzoni_Up_Jobs/Job_1'
p58
S'Exception'
p59
sS'WH_ZH_TTH_HToTauTau_M-90_8TeV-pythia6-tauola/Summer12_DR53X-PU_S10_START53_V7C-v1/AODSIM/PAT_CMG_V5_16_0_1377467471/HTT_24Jul_newTES_manzoni_Up_Jobs/Job_4'
p60
g32
sssS'CheckDatasetExists'
p61
(dp62
S'Dataset'
p63
S'/WH_ZH_TTH_HToTauTau_M-90_8TeV-pythia6-tauola/Summer12_DR53X-PU_S10_START53_V7C-v1/AODSIM/PAT_CMG_V5_16_0'
p64
ssS'GenerateMask'
p65
(dp66
g3
(dp67
VPathList
p68
(lp69
V/store/cmst3/group/cmgtools/CMG/WH_ZH_TTH_HToTauTau_M-90_8TeV-pythia6-tauola/Summer12_DR53X-PU_S10_START53_V7C-v1/AODSIM/PAT_CMG_V5_16_0
p70
asVStageHost
p71
Vcastorcms
p72
sVPrimaryDatasetFraction
p73
F1.0
sVFilesGood
p74
I20
sVPrimaryDatasetEntries
p75
I200000
sVReportVersion
p76
I3
sVFiles
p77
(dp78
V/store/cmst3/group/cmgtools/CMG/WH_ZH_TTH_HToTauTau_M-90_8TeV-pythia6-tauola/Summer12_DR53X-PU_S10_START53_V7C-v1/AODSIM/PAT_CMG_V5_16_0/cmgTuple_11_1_0ZX.root
p79
(lp80
I01
aI10000
asV/store/cmst3/group/cmgtools/CMG/WH_ZH_TTH_HToTauTau_M-90_8TeV-pythia6-tauola/Summer12_DR53X-PU_S10_START53_V7C-v1/AODSIM/PAT_CMG_V5_16_0/cmgTuple_16_1_l7u.root
p81
(lp82
I01
aI10000
asV/store/cmst3/group/cmgtools/CMG/WH_ZH_TTH_HToTauTau_M-90_8TeV-pythia6-tauola/Summer12_DR53X-PU_S10_START53_V7C-v1/AODSIM/PAT_CMG_V5_16_0/cmgTuple_10_1_FIx.root
p83
(lp84
I01
aI10000
asV/store/cmst3/group/cmgtools/CMG/WH_ZH_TTH_HToTauTau_M-90_8TeV-pythia6-tauola/Summer12_DR53X-PU_S10_START53_V7C-v1/AODSIM/PAT_CMG_V5_16_0/cmgTuple_3_1_HQo.root
p85
(lp86
I01
aI10000
asV/store/cmst3/group/cmgtools/CMG/WH_ZH_TTH_HToTauTau_M-90_8TeV-pythia6-tauola/Summer12_DR53X-PU_S10_START53_V7C-v1/AODSIM/PAT_CMG_V5_16_0/cmgTuple_19_1_VPh.root
p87
(lp88
I01
aI10000
asV/store/cmst3/group/cmgtools/CMG/WH_ZH_TTH_HToTauTau_M-90_8TeV-pythia6-tauola/Summer12_DR53X-PU_S10_START53_V7C-v1/AODSIM/PAT_CMG_V5_16_0/cmgTuple_17_1_9vk.root
p89
(lp90
I01
aI10000
asV/store/cmst3/group/cmgtools/CMG/WH_ZH_TTH_HToTauTau_M-90_8TeV-pythia6-tauola/Summer12_DR53X-PU_S10_START53_V7C-v1/AODSIM/PAT_CMG_V5_16_0/cmgTuple_15_1_Dmz.root
p91
(lp92
I01
aI10000
asV/store/cmst3/group/cmgtools/CMG/WH_ZH_TTH_HToTauTau_M-90_8TeV-pythia6-tauola/Summer12_DR53X-PU_S10_START53_V7C-v1/AODSIM/PAT_CMG_V5_16_0/cmgTuple_13_1_18P.root
p93
(lp94
I01
aI10000
asV/store/cmst3/group/cmgtools/CMG/WH_ZH_TTH_HToTauTau_M-90_8TeV-pythia6-tauola/Summer12_DR53X-PU_S10_START53_V7C-v1/AODSIM/PAT_CMG_V5_16_0/cmgTuple_14_1_4QP.root
p95
(lp96
I01
aI10000
asV/store/cmst3/group/cmgtools/CMG/WH_ZH_TTH_HToTauTau_M-90_8TeV-pythia6-tauola/Summer12_DR53X-PU_S10_START53_V7C-v1/AODSIM/PAT_CMG_V5_16_0/cmgTuple_2_1_qo6.root
p97
(lp98
I01
aI10000
asV/store/cmst3/group/cmgtools/CMG/WH_ZH_TTH_HToTauTau_M-90_8TeV-pythia6-tauola/Summer12_DR53X-PU_S10_START53_V7C-v1/AODSIM/PAT_CMG_V5_16_0/cmgTuple_20_1_xJe.root
p99
(lp100
I01
aI10000
asV/store/cmst3/group/cmgtools/CMG/WH_ZH_TTH_HToTauTau_M-90_8TeV-pythia6-tauola/Summer12_DR53X-PU_S10_START53_V7C-v1/AODSIM/PAT_CMG_V5_16_0/cmgTuple_1_1_cAF.root
p101
(lp102
I01
aI10000
asV/store/cmst3/group/cmgtools/CMG/WH_ZH_TTH_HToTauTau_M-90_8TeV-pythia6-tauola/Summer12_DR53X-PU_S10_START53_V7C-v1/AODSIM/PAT_CMG_V5_16_0/cmgTuple_4_1_1LJ.root
p103
(lp104
I01
aI10000
asV/store/cmst3/group/cmgtools/CMG/WH_ZH_TTH_HToTauTau_M-90_8TeV-pythia6-tauola/Summer12_DR53X-PU_S10_START53_V7C-v1/AODSIM/PAT_CMG_V5_16_0/cmgTuple_12_1_pYq.root
p105
(lp106
I01
aI10000
asV/store/cmst3/group/cmgtools/CMG/WH_ZH_TTH_HToTauTau_M-90_8TeV-pythia6-tauola/Summer12_DR53X-PU_S10_START53_V7C-v1/AODSIM/PAT_CMG_V5_16_0/cmgTuple_6_1_3fa.root
p107
(lp108
I01
aI10000
asV/store/cmst3/group/cmgtools/CMG/WH_ZH_TTH_HToTauTau_M-90_8TeV-pythia6-tauola/Summer12_DR53X-PU_S10_START53_V7C-v1/AODSIM/PAT_CMG_V5_16_0/cmgTuple_9_1_jYb.root
p109
(lp110
I01
aI10000
asV/store/cmst3/group/cmgtools/CMG/WH_ZH_TTH_HToTauTau_M-90_8TeV-pythia6-tauola/Summer12_DR53X-PU_S10_START53_V7C-v1/AODSIM/PAT_CMG_V5_16_0/cmgTuple_5_1_pvD.root
p111
(lp112
I01
aI10000
asV/store/cmst3/group/cmgtools/CMG/WH_ZH_TTH_HToTauTau_M-90_8TeV-pythia6-tauola/Summer12_DR53X-PU_S10_START53_V7C-v1/AODSIM/PAT_CMG_V5_16_0/cmgTuple_8_1_jUu.root
p113
(lp114
I01
aI10000
asV/store/cmst3/group/cmgtools/CMG/WH_ZH_TTH_HToTauTau_M-90_8TeV-pythia6-tauola/Summer12_DR53X-PU_S10_START53_V7C-v1/AODSIM/PAT_CMG_V5_16_0/cmgTuple_7_1_II5.root
p115
(lp116
I01
aI10000
asV/store/cmst3/group/cmgtools/CMG/WH_ZH_TTH_HToTauTau_M-90_8TeV-pythia6-tauola/Summer12_DR53X-PU_S10_START53_V7C-v1/AODSIM/PAT_CMG_V5_16_0/cmgTuple_18_1_4Tz.root
p117
(lp118
I01
aI10000
assVPhysicsGroup
p119
VCMG
p120
sVFilesCount
p121
I20
sVFilesEntries
p122
I200000
sVRunList
p123
(lp124
sVValidDuplicates
p125
(dp126
sVPrimaryDataset
p127
V/WH_ZH_TTH_HToTauTau_M-90_8TeV-pythia6-tauola/Summer12_DR53X-PU_S10_START53_V7C-v1/AODSIM
p128
sVStatus
p129
VVALID
p130
sVName
p131
V/WH_ZH_TTH_HToTauTau_M-90_8TeV-pythia6-tauola/Summer12_DR53X-PU_S10_START53_V7C-v1/AODSIM/PAT_CMG_V5_16_0
p132
sVTopdir
p133
V/eos/cms/store/cmst3/group/cmgtools/CMG
p134
sVdata
p135
(dp136
sVFilesBad
p137
I0
sVMinRun
p138
I-1
sVAlgoList
p139
(lp140
sVTierList
p141
(lp142
sVDateCreated
p143
V1370942745
p144
sVCreatedBy
p145
Vcmgtools_group
p146
sVMaxRun
p147
I-1
sVBadJobs
p148
(lp149
ssg53
I01
ssS'MonitorJobs'
p150
(dp151
S'LSFJobStatus'
p152
(dp153
g56
S'WH_ZH_TTH_HToTauTau_M-90_8TeV-pythia6-tauola/Summer12_DR53X-PU_S10_START53_V7C-v1/AODSIM/PAT_CMG_V5_16_0_1377467471/HTT_24Jul_newTES_manzoni_Up_Jobs/Job_3/LSFJOB_440970897/STDOUT.gz'
p154
sg57
S'WH_ZH_TTH_HToTauTau_M-90_8TeV-pythia6-tauola/Summer12_DR53X-PU_S10_START53_V7C-v1/AODSIM/PAT_CMG_V5_16_0_1377467471/HTT_24Jul_newTES_manzoni_Up_Jobs/Job_2/LSFJOB_440970772/STDOUT.gz'
p155
sg58
S'WH_ZH_TTH_HToTauTau_M-90_8TeV-pythia6-tauola/Summer12_DR53X-PU_S10_START53_V7C-v1/AODSIM/PAT_CMG_V5_16_0_1377467471/HTT_24Jul_newTES_manzoni_Up_Jobs/Job_1/LSFJOB_440970652/STDOUT.gz'
p156
sg60
S'WH_ZH_TTH_HToTauTau_M-90_8TeV-pythia6-tauola/Summer12_DR53X-PU_S10_START53_V7C-v1/AODSIM/PAT_CMG_V5_16_0_1377467471/HTT_24Jul_newTES_manzoni_Up_Jobs/Job_4/LSFJOB_440971000/STDOUT.gz'
p157
ssS'LSFJobIDs'
p158
(dp159
g56
S'440970897'
p160
sg57
S'440970772'
p161
sg58
S'440970652'
p162
sg60
S'440971000'
p163
sssS'FindOnCastor'
p164
(dp165
g15
S'/eos/cms/store/cmst3/group/cmgtools/CMG'
p166
sS'Directory'
p167
S'/eos/cms/store/cmst3/group/cmgtools/CMG/WH_ZH_TTH_HToTauTau_M-90_8TeV-pythia6-tauola/Summer12_DR53X-PU_S10_START53_V7C-v1/AODSIM/PAT_CMG_V5_16_0'
p168
ssS'CheckConfig'
p169
(dp170
g31
g32
ssS'FullCFG'
p171
(dp172
S'FullCFG'
p173
S'WH_ZH_TTH_HToTauTau_M-90_8TeV-pythia6-tauola/Summer12_DR53X-PU_S10_START53_V7C-v1/AODSIM/PAT_CMG_V5_16_0_1377467471/full_cfg.py'
p174
ssS'WriteJobReport'
p175
(dp176
S'SummaryFile'
p177
S'WH_ZH_TTH_HToTauTau_M-90_8TeV-pythia6-tauola/Summer12_DR53X-PU_S10_START53_V7C-v1/AODSIM/PAT_CMG_V5_16_0_1377467471/resubmit.sh'
p178
ssS'ExpandConfig'
p179
(dp180
S'ExpandedFullCFG'
p181
S'WH_ZH_TTH_HToTauTau_M-90_8TeV-pythia6-tauola/Summer12_DR53X-PU_S10_START53_V7C-v1/AODSIM/PAT_CMG_V5_16_0_1377467471/Expandedfull_cfg.py'
p182
ssS'RunTestEvents'
p183
(dp184
g31
g32
sS'TestCFG'
p185
S'WH_ZH_TTH_HToTauTau_M-90_8TeV-pythia6-tauola/Summer12_DR53X-PU_S10_START53_V7C-v1/AODSIM/PAT_CMG_V5_16_0_1377467471/test_cfg.py'
p186
ssS'SourceCFG'
p187
(dp188
S'SourceCFG'
p189
S'WH_ZH_TTH_HToTauTau_M-90_8TeV-pythia6-tauola/Summer12_DR53X-PU_S10_START53_V7C-v1/AODSIM/PAT_CMG_V5_16_0_1377467471/source_cfg.py'
p190
ssS'CheckForWrite'
p191
(dp192
g167
g168
sS'WriteAccess'
p193
I01
ssS'WriteToDatasets'
p194
(dp195
S'Added'
p196
I00
sg13
S'/WH_ZH_TTH_HToTauTau_M-90_8TeV-pythia6-tauola/Summer12_DR53X-PU_S10_START53_V7C-v1/AODSIM/PAT_CMG_V5_16_0/HTT_24Jul_newTES_manzoni_Up'
p197
sS'User'
p198
g46
ssS'RunCMSBatch'
p199
(dp200
S'BatchUser'
p201
g46
sS'SampleOutputDir'
p202
S'/store/cmst3/user/manzoni/CMG/WH_ZH_TTH_HToTauTau_M-90_8TeV-pythia6-tauola/Summer12_DR53X-PU_S10_START53_V7C-v1/AODSIM/PAT_CMG_V5_16_0/HTT_24Jul_newTES_manzoni_Up'
p203
sS'SampleDataset'
p204
g14
sS'LSFJobsTopDir'
p205
S'WH_ZH_TTH_HToTauTau_M-90_8TeV-pythia6-tauola/Summer12_DR53X-PU_S10_START53_V7C-v1/AODSIM/PAT_CMG_V5_16_0_1377467471/HTT_24Jul_newTES_manzoni_Up_Jobs'
p206
ssS'CreateJobDirectory'
p207
(dp208
S'JobDir'
p209
S'WH_ZH_TTH_HToTauTau_M-90_8TeV-pythia6-tauola/Summer12_DR53X-PU_S10_START53_V7C-v1/AODSIM/PAT_CMG_V5_16_0_1377467471'
p210
sS'PWD'
p211
S'/afs/cern.ch/user/m/manzoni/summer13/CMGTools/CMSSW_5_3_9/src/CMGTools/H2TauTau/prod/25aug_corrMC/up/mc'
p212
ssS'CleanJobFiles'
p213
(dp214
S'Compressed'
p215
(dp216
S'CompressedFiles'
p217
(lp218
ssS'Cleaned'
p219
(dp220
S'CleanedFiles'
p221
(lp222
g182
ag186
aS'WH_ZH_TTH_HToTauTau_M-90_8TeV-pythia6-tauola/Summer12_DR53X-PU_S10_START53_V7C-v1/AODSIM/PAT_CMG_V5_16_0_1377467471/diTau_fullsel_tree_CMG.root'
p223
aS'WH_ZH_TTH_HToTauTau_M-90_8TeV-pythia6-tauola/Summer12_DR53X-PU_S10_START53_V7C-v1/AODSIM/PAT_CMG_V5_16_0_1377467471/source_cfg.pyc'
p224
aS'WH_ZH_TTH_HToTauTau_M-90_8TeV-pythia6-tauola/Summer12_DR53X-PU_S10_START53_V7C-v1/AODSIM/PAT_CMG_V5_16_0_1377467471/Expandedfull_cfg.pyc'
p225
asssS'CheckForMask'
p226
(dp227
g3
g67
sg53
I01
ss.