(dp0
S'CheckJobStatus'
p1
(dp2
S'Report'
p3
(dp4
S'Files'
p5
(dp6
S'/store/cmst3/user/manzoni/CMG/GluGluToHToTauTau_M-120_8TeV-powheg-pythia6/Summer12_DR53X-PU_S10_START53_V7A-v1/AODSIM/PAT_CMG_V5_16_0/HTT_24Jul_newTES_manzoni_Up/diTau_fullsel_tree_CMG_51.root'
p7
(I01
I734
tp8
sS'/store/cmst3/user/manzoni/CMG/GluGluToHToTauTau_M-120_8TeV-powheg-pythia6/Summer12_DR53X-PU_S10_START53_V7A-v1/AODSIM/PAT_CMG_V5_16_0/HTT_24Jul_newTES_manzoni_Up/diTau_fullsel_tree_CMG_60.root'
p9
(I01
I689
tp10
sS'/store/cmst3/user/manzoni/CMG/GluGluToHToTauTau_M-120_8TeV-powheg-pythia6/Summer12_DR53X-PU_S10_START53_V7A-v1/AODSIM/PAT_CMG_V5_16_0/HTT_24Jul_newTES_manzoni_Up/diTau_fullsel_tree_CMG_36.root'
p11
(I01
I730
tp12
sS'/store/cmst3/user/manzoni/CMG/GluGluToHToTauTau_M-120_8TeV-powheg-pythia6/Summer12_DR53X-PU_S10_START53_V7A-v1/AODSIM/PAT_CMG_V5_16_0/HTT_24Jul_newTES_manzoni_Up/diTau_fullsel_tree_CMG_9.root'
p13
(I01
I682
tp14
sS'/store/cmst3/user/manzoni/CMG/GluGluToHToTauTau_M-120_8TeV-powheg-pythia6/Summer12_DR53X-PU_S10_START53_V7A-v1/AODSIM/PAT_CMG_V5_16_0/HTT_24Jul_newTES_manzoni_Up/diTau_fullsel_tree_CMG_93.root'
p15
(I01
I698
tp16
sS'/store/cmst3/user/manzoni/CMG/GluGluToHToTauTau_M-120_8TeV-powheg-pythia6/Summer12_DR53X-PU_S10_START53_V7A-v1/AODSIM/PAT_CMG_V5_16_0/HTT_24Jul_newTES_manzoni_Up/diTau_fullsel_tree_CMG_21.root'
p17
(I01
I681
tp18
sS'/store/cmst3/user/manzoni/CMG/GluGluToHToTauTau_M-120_8TeV-powheg-pythia6/Summer12_DR53X-PU_S10_START53_V7A-v1/AODSIM/PAT_CMG_V5_16_0/HTT_24Jul_newTES_manzoni_Up/diTau_fullsel_tree_CMG_17.root'
p19
(I01
I752
tp20
sS'/store/cmst3/user/manzoni/CMG/GluGluToHToTauTau_M-120_8TeV-powheg-pythia6/Summer12_DR53X-PU_S10_START53_V7A-v1/AODSIM/PAT_CMG_V5_16_0/HTT_24Jul_newTES_manzoni_Up/diTau_fullsel_tree_CMG_95.root'
p21
(I01
I689
tp22
sS'/store/cmst3/user/manzoni/CMG/GluGluToHToTauTau_M-120_8TeV-powheg-pythia6/Summer12_DR53X-PU_S10_START53_V7A-v1/AODSIM/PAT_CMG_V5_16_0/HTT_24Jul_newTES_manzoni_Up/diTau_fullsel_tree_CMG_8.root'
p23
(I01
I712
tp24
sS'/store/cmst3/user/manzoni/CMG/GluGluToHToTauTau_M-120_8TeV-powheg-pythia6/Summer12_DR53X-PU_S10_START53_V7A-v1/AODSIM/PAT_CMG_V5_16_0/HTT_24Jul_newTES_manzoni_Up/diTau_fullsel_tree_CMG_14.root'
p25
(I01
I654
tp26
sS'/store/cmst3/user/manzoni/CMG/GluGluToHToTauTau_M-120_8TeV-powheg-pythia6/Summer12_DR53X-PU_S10_START53_V7A-v1/AODSIM/PAT_CMG_V5_16_0/HTT_24Jul_newTES_manzoni_Up/diTau_fullsel_tree_CMG_73.root'
p27
(I01
I689
tp28
sS'/store/cmst3/user/manzoni/CMG/GluGluToHToTauTau_M-120_8TeV-powheg-pythia6/Summer12_DR53X-PU_S10_START53_V7A-v1/AODSIM/PAT_CMG_V5_16_0/HTT_24Jul_newTES_manzoni_Up/diTau_fullsel_tree_CMG_25.root'
p29
(I01
I753
tp30
sS'/store/cmst3/user/manzoni/CMG/GluGluToHToTauTau_M-120_8TeV-powheg-pythia6/Summer12_DR53X-PU_S10_START53_V7A-v1/AODSIM/PAT_CMG_V5_16_0/HTT_24Jul_newTES_manzoni_Up/diTau_fullsel_tree_CMG_61.root'
p31
(I01
I670
tp32
sS'/store/cmst3/user/manzoni/CMG/GluGluToHToTauTau_M-120_8TeV-powheg-pythia6/Summer12_DR53X-PU_S10_START53_V7A-v1/AODSIM/PAT_CMG_V5_16_0/HTT_24Jul_newTES_manzoni_Up/diTau_fullsel_tree_CMG_97.root'
p33
(I01
I691
tp34
sS'/store/cmst3/user/manzoni/CMG/GluGluToHToTauTau_M-120_8TeV-powheg-pythia6/Summer12_DR53X-PU_S10_START53_V7A-v1/AODSIM/PAT_CMG_V5_16_0/HTT_24Jul_newTES_manzoni_Up/diTau_fullsel_tree_CMG_74.root'
p35
(I01
I764
tp36
sS'/store/cmst3/user/manzoni/CMG/GluGluToHToTauTau_M-120_8TeV-powheg-pythia6/Summer12_DR53X-PU_S10_START53_V7A-v1/AODSIM/PAT_CMG_V5_16_0/HTT_24Jul_newTES_manzoni_Up/diTau_fullsel_tree_CMG_46.root'
p37
(I01
I660
tp38
sS'/store/cmst3/user/manzoni/CMG/GluGluToHToTauTau_M-120_8TeV-powheg-pythia6/Summer12_DR53X-PU_S10_START53_V7A-v1/AODSIM/PAT_CMG_V5_16_0/HTT_24Jul_newTES_manzoni_Up/diTau_fullsel_tree_CMG_2.root'
p39
(I01
I687
tp40
sS'/store/cmst3/user/manzoni/CMG/GluGluToHToTauTau_M-120_8TeV-powheg-pythia6/Summer12_DR53X-PU_S10_START53_V7A-v1/AODSIM/PAT_CMG_V5_16_0/HTT_24Jul_newTES_manzoni_Up/diTau_fullsel_tree_CMG_87.root'
p41
(I01
I715
tp42
sS'/store/cmst3/user/manzoni/CMG/GluGluToHToTauTau_M-120_8TeV-powheg-pythia6/Summer12_DR53X-PU_S10_START53_V7A-v1/AODSIM/PAT_CMG_V5_16_0/HTT_24Jul_newTES_manzoni_Up/diTau_fullsel_tree_CMG_34.root'
p43
(I01
I716
tp44
sS'/store/cmst3/user/manzoni/CMG/GluGluToHToTauTau_M-120_8TeV-powheg-pythia6/Summer12_DR53X-PU_S10_START53_V7A-v1/AODSIM/PAT_CMG_V5_16_0/HTT_24Jul_newTES_manzoni_Up/diTau_fullsel_tree_CMG_71.root'
p45
(I01
I684
tp46
sS'/store/cmst3/user/manzoni/CMG/GluGluToHToTauTau_M-120_8TeV-powheg-pythia6/Summer12_DR53X-PU_S10_START53_V7A-v1/AODSIM/PAT_CMG_V5_16_0/HTT_24Jul_newTES_manzoni_Up/diTau_fullsel_tree_CMG_26.root'
p47
(I01
I725
tp48
sS'/store/cmst3/user/manzoni/CMG/GluGluToHToTauTau_M-120_8TeV-powheg-pythia6/Summer12_DR53X-PU_S10_START53_V7A-v1/AODSIM/PAT_CMG_V5_16_0/HTT_24Jul_newTES_manzoni_Up/diTau_fullsel_tree_CMG_86.root'
p49
(I01
I693
tp50
sS'/store/cmst3/user/manzoni/CMG/GluGluToHToTauTau_M-120_8TeV-powheg-pythia6/Summer12_DR53X-PU_S10_START53_V7A-v1/AODSIM/PAT_CMG_V5_16_0/HTT_24Jul_newTES_manzoni_Up/diTau_fullsel_tree_CMG_75.root'
p51
(I01
I678
tp52
sS'/store/cmst3/user/manzoni/CMG/GluGluToHToTauTau_M-120_8TeV-powheg-pythia6/Summer12_DR53X-PU_S10_START53_V7A-v1/AODSIM/PAT_CMG_V5_16_0/HTT_24Jul_newTES_manzoni_Up/diTau_fullsel_tree_CMG_64.root'
p53
(I01
I680
tp54
sS'/store/cmst3/user/manzoni/CMG/GluGluToHToTauTau_M-120_8TeV-powheg-pythia6/Summer12_DR53X-PU_S10_START53_V7A-v1/AODSIM/PAT_CMG_V5_16_0/HTT_24Jul_newTES_manzoni_Up/diTau_fullsel_tree_CMG_100.root'
p55
(I01
I537
tp56
sS'/store/cmst3/user/manzoni/CMG/GluGluToHToTauTau_M-120_8TeV-powheg-pythia6/Summer12_DR53X-PU_S10_START53_V7A-v1/AODSIM/PAT_CMG_V5_16_0/HTT_24Jul_newTES_manzoni_Up/diTau_fullsel_tree_CMG_50.root'
p57
(I01
I700
tp58
sS'/store/cmst3/user/manzoni/CMG/GluGluToHToTauTau_M-120_8TeV-powheg-pythia6/Summer12_DR53X-PU_S10_START53_V7A-v1/AODSIM/PAT_CMG_V5_16_0/HTT_24Jul_newTES_manzoni_Up/diTau_fullsel_tree_CMG_57.root'
p59
(I01
I738
tp60
sS'/store/cmst3/user/manzoni/CMG/GluGluToHToTauTau_M-120_8TeV-powheg-pythia6/Summer12_DR53X-PU_S10_START53_V7A-v1/AODSIM/PAT_CMG_V5_16_0/HTT_24Jul_newTES_manzoni_Up/diTau_fullsel_tree_CMG_27.root'
p61
(I01
I658
tp62
sS'/store/cmst3/user/manzoni/CMG/GluGluToHToTauTau_M-120_8TeV-powheg-pythia6/Summer12_DR53X-PU_S10_START53_V7A-v1/AODSIM/PAT_CMG_V5_16_0/HTT_24Jul_newTES_manzoni_Up/diTau_fullsel_tree_CMG_58.root'
p63
(I01
I716
tp64
sS'/store/cmst3/user/manzoni/CMG/GluGluToHToTauTau_M-120_8TeV-powheg-pythia6/Summer12_DR53X-PU_S10_START53_V7A-v1/AODSIM/PAT_CMG_V5_16_0/HTT_24Jul_newTES_manzoni_Up/diTau_fullsel_tree_CMG_56.root'
p65
(I01
I728
tp66
sS'/store/cmst3/user/manzoni/CMG/GluGluToHToTauTau_M-120_8TeV-powheg-pythia6/Summer12_DR53X-PU_S10_START53_V7A-v1/AODSIM/PAT_CMG_V5_16_0/HTT_24Jul_newTES_manzoni_Up/diTau_fullsel_tree_CMG_84.root'
p67
(I01
I721
tp68
sS'/store/cmst3/user/manzoni/CMG/GluGluToHToTauTau_M-120_8TeV-powheg-pythia6/Summer12_DR53X-PU_S10_START53_V7A-v1/AODSIM/PAT_CMG_V5_16_0/HTT_24Jul_newTES_manzoni_Up/diTau_fullsel_tree_CMG_3.root'
p69
(I01
I759
tp70
sS'/store/cmst3/user/manzoni/CMG/GluGluToHToTauTau_M-120_8TeV-powheg-pythia6/Summer12_DR53X-PU_S10_START53_V7A-v1/AODSIM/PAT_CMG_V5_16_0/HTT_24Jul_newTES_manzoni_Up/diTau_fullsel_tree_CMG_47.root'
p71
(I01
I721
tp72
sS'/store/cmst3/user/manzoni/CMG/GluGluToHToTauTau_M-120_8TeV-powheg-pythia6/Summer12_DR53X-PU_S10_START53_V7A-v1/AODSIM/PAT_CMG_V5_16_0/HTT_24Jul_newTES_manzoni_Up/diTau_fullsel_tree_CMG_31.root'
p73
(I01
I691
tp74
sS'/store/cmst3/user/manzoni/CMG/GluGluToHToTauTau_M-120_8TeV-powheg-pythia6/Summer12_DR53X-PU_S10_START53_V7A-v1/AODSIM/PAT_CMG_V5_16_0/HTT_24Jul_newTES_manzoni_Up/diTau_fullsel_tree_CMG_66.root'
p75
(I01
I718
tp76
sS'/store/cmst3/user/manzoni/CMG/GluGluToHToTauTau_M-120_8TeV-powheg-pythia6/Summer12_DR53X-PU_S10_START53_V7A-v1/AODSIM/PAT_CMG_V5_16_0/HTT_24Jul_newTES_manzoni_Up/diTau_fullsel_tree_CMG_72.root'
p77
(I01
I719
tp78
sS'/store/cmst3/user/manzoni/CMG/GluGluToHToTauTau_M-120_8TeV-powheg-pythia6/Summer12_DR53X-PU_S10_START53_V7A-v1/AODSIM/PAT_CMG_V5_16_0/HTT_24Jul_newTES_manzoni_Up/diTau_fullsel_tree_CMG_53.root'
p79
(I01
I757
tp80
sS'/store/cmst3/user/manzoni/CMG/GluGluToHToTauTau_M-120_8TeV-powheg-pythia6/Summer12_DR53X-PU_S10_START53_V7A-v1/AODSIM/PAT_CMG_V5_16_0/HTT_24Jul_newTES_manzoni_Up/diTau_fullsel_tree_CMG_32.root'
p81
(I01
I678
tp82
sS'/store/cmst3/user/manzoni/CMG/GluGluToHToTauTau_M-120_8TeV-powheg-pythia6/Summer12_DR53X-PU_S10_START53_V7A-v1/AODSIM/PAT_CMG_V5_16_0/HTT_24Jul_newTES_manzoni_Up/diTau_fullsel_tree_CMG_5.root'
p83
(I01
I721
tp84
sS'/store/cmst3/user/manzoni/CMG/GluGluToHToTauTau_M-120_8TeV-powheg-pythia6/Summer12_DR53X-PU_S10_START53_V7A-v1/AODSIM/PAT_CMG_V5_16_0/HTT_24Jul_newTES_manzoni_Up/diTau_fullsel_tree_CMG_43.root'
p85
(I01
I701
tp86
sS'/store/cmst3/user/manzoni/CMG/GluGluToHToTauTau_M-120_8TeV-powheg-pythia6/Summer12_DR53X-PU_S10_START53_V7A-v1/AODSIM/PAT_CMG_V5_16_0/HTT_24Jul_newTES_manzoni_Up/diTau_fullsel_tree_CMG_83.root'
p87
(I01
I691
tp88
sS'/store/cmst3/user/manzoni/CMG/GluGluToHToTauTau_M-120_8TeV-powheg-pythia6/Summer12_DR53X-PU_S10_START53_V7A-v1/AODSIM/PAT_CMG_V5_16_0/HTT_24Jul_newTES_manzoni_Up/diTau_fullsel_tree_CMG_52.root'
p89
(I01
I661
tp90
sS'/store/cmst3/user/manzoni/CMG/GluGluToHToTauTau_M-120_8TeV-powheg-pythia6/Summer12_DR53X-PU_S10_START53_V7A-v1/AODSIM/PAT_CMG_V5_16_0/HTT_24Jul_newTES_manzoni_Up/diTau_fullsel_tree_CMG_24.root'
p91
(I01
I693
tp92
sS'/store/cmst3/user/manzoni/CMG/GluGluToHToTauTau_M-120_8TeV-powheg-pythia6/Summer12_DR53X-PU_S10_START53_V7A-v1/AODSIM/PAT_CMG_V5_16_0/HTT_24Jul_newTES_manzoni_Up/diTau_fullsel_tree_CMG_18.root'
p93
(I01
I711
tp94
sS'/store/cmst3/user/manzoni/CMG/GluGluToHToTauTau_M-120_8TeV-powheg-pythia6/Summer12_DR53X-PU_S10_START53_V7A-v1/AODSIM/PAT_CMG_V5_16_0/HTT_24Jul_newTES_manzoni_Up/diTau_fullsel_tree_CMG_1.root'
p95
(I01
I643
tp96
sS'/store/cmst3/user/manzoni/CMG/GluGluToHToTauTau_M-120_8TeV-powheg-pythia6/Summer12_DR53X-PU_S10_START53_V7A-v1/AODSIM/PAT_CMG_V5_16_0/HTT_24Jul_newTES_manzoni_Up/diTau_fullsel_tree_CMG_81.root'
p97
(I01
I588
tp98
sS'/store/cmst3/user/manzoni/CMG/GluGluToHToTauTau_M-120_8TeV-powheg-pythia6/Summer12_DR53X-PU_S10_START53_V7A-v1/AODSIM/PAT_CMG_V5_16_0/HTT_24Jul_newTES_manzoni_Up/diTau_fullsel_tree_CMG_11.root'
p99
(I01
I690
tp100
sS'/store/cmst3/user/manzoni/CMG/GluGluToHToTauTau_M-120_8TeV-powheg-pythia6/Summer12_DR53X-PU_S10_START53_V7A-v1/AODSIM/PAT_CMG_V5_16_0/HTT_24Jul_newTES_manzoni_Up/diTau_fullsel_tree_CMG_29.root'
p101
(I01
I686
tp102
sS'/store/cmst3/user/manzoni/CMG/GluGluToHToTauTau_M-120_8TeV-powheg-pythia6/Summer12_DR53X-PU_S10_START53_V7A-v1/AODSIM/PAT_CMG_V5_16_0/HTT_24Jul_newTES_manzoni_Up/diTau_fullsel_tree_CMG_40.root'
p103
(I01
I685
tp104
sS'/store/cmst3/user/manzoni/CMG/GluGluToHToTauTau_M-120_8TeV-powheg-pythia6/Summer12_DR53X-PU_S10_START53_V7A-v1/AODSIM/PAT_CMG_V5_16_0/HTT_24Jul_newTES_manzoni_Up/diTau_fullsel_tree_CMG_79.root'
p105
(I01
I688
tp106
sS'/store/cmst3/user/manzoni/CMG/GluGluToHToTauTau_M-120_8TeV-powheg-pythia6/Summer12_DR53X-PU_S10_START53_V7A-v1/AODSIM/PAT_CMG_V5_16_0/HTT_24Jul_newTES_manzoni_Up/diTau_fullsel_tree_CMG_41.root'
p107
(I01
I738
tp108
sS'/store/cmst3/user/manzoni/CMG/GluGluToHToTauTau_M-120_8TeV-powheg-pythia6/Summer12_DR53X-PU_S10_START53_V7A-v1/AODSIM/PAT_CMG_V5_16_0/HTT_24Jul_newTES_manzoni_Up/diTau_fullsel_tree_CMG_15.root'
p109
(I01
I745
tp110
sS'/store/cmst3/user/manzoni/CMG/GluGluToHToTauTau_M-120_8TeV-powheg-pythia6/Summer12_DR53X-PU_S10_START53_V7A-v1/AODSIM/PAT_CMG_V5_16_0/HTT_24Jul_newTES_manzoni_Up/diTau_fullsel_tree_CMG_76.root'
p111
(I01
I721
tp112
sS'/store/cmst3/user/manzoni/CMG/GluGluToHToTauTau_M-120_8TeV-powheg-pythia6/Summer12_DR53X-PU_S10_START53_V7A-v1/AODSIM/PAT_CMG_V5_16_0/HTT_24Jul_newTES_manzoni_Up/diTau_fullsel_tree_CMG_78.root'
p113
(I01
I681
tp114
sS'/store/cmst3/user/manzoni/CMG/GluGluToHToTauTau_M-120_8TeV-powheg-pythia6/Summer12_DR53X-PU_S10_START53_V7A-v1/AODSIM/PAT_CMG_V5_16_0/HTT_24Jul_newTES_manzoni_Up/diTau_fullsel_tree_CMG_49.root'
p115
(I01
I699
tp116
sS'/store/cmst3/user/manzoni/CMG/GluGluToHToTauTau_M-120_8TeV-powheg-pythia6/Summer12_DR53X-PU_S10_START53_V7A-v1/AODSIM/PAT_CMG_V5_16_0/HTT_24Jul_newTES_manzoni_Up/diTau_fullsel_tree_CMG_55.root'
p117
(I01
I728
tp118
sS'/store/cmst3/user/manzoni/CMG/GluGluToHToTauTau_M-120_8TeV-powheg-pythia6/Summer12_DR53X-PU_S10_START53_V7A-v1/AODSIM/PAT_CMG_V5_16_0/HTT_24Jul_newTES_manzoni_Up/diTau_fullsel_tree_CMG_13.root'
p119
(I01
I662
tp120
sS'/store/cmst3/user/manzoni/CMG/GluGluToHToTauTau_M-120_8TeV-powheg-pythia6/Summer12_DR53X-PU_S10_START53_V7A-v1/AODSIM/PAT_CMG_V5_16_0/HTT_24Jul_newTES_manzoni_Up/diTau_fullsel_tree_CMG_94.root'
p121
(I01
I742
tp122
sS'/store/cmst3/user/manzoni/CMG/GluGluToHToTauTau_M-120_8TeV-powheg-pythia6/Summer12_DR53X-PU_S10_START53_V7A-v1/AODSIM/PAT_CMG_V5_16_0/HTT_24Jul_newTES_manzoni_Up/diTau_fullsel_tree_CMG_70.root'
p123
(I01
I678
tp124
sS'/store/cmst3/user/manzoni/CMG/GluGluToHToTauTau_M-120_8TeV-powheg-pythia6/Summer12_DR53X-PU_S10_START53_V7A-v1/AODSIM/PAT_CMG_V5_16_0/HTT_24Jul_newTES_manzoni_Up/diTau_fullsel_tree_CMG_91.root'
p125
(I01
I692
tp126
sS'/store/cmst3/user/manzoni/CMG/GluGluToHToTauTau_M-120_8TeV-powheg-pythia6/Summer12_DR53X-PU_S10_START53_V7A-v1/AODSIM/PAT_CMG_V5_16_0/HTT_24Jul_newTES_manzoni_Up/diTau_fullsel_tree_CMG_48.root'
p127
(I01
I685
tp128
sS'/store/cmst3/user/manzoni/CMG/GluGluToHToTauTau_M-120_8TeV-powheg-pythia6/Summer12_DR53X-PU_S10_START53_V7A-v1/AODSIM/PAT_CMG_V5_16_0/HTT_24Jul_newTES_manzoni_Up/diTau_fullsel_tree_CMG_69.root'
p129
(I01
I712
tp130
sS'/store/cmst3/user/manzoni/CMG/GluGluToHToTauTau_M-120_8TeV-powheg-pythia6/Summer12_DR53X-PU_S10_START53_V7A-v1/AODSIM/PAT_CMG_V5_16_0/HTT_24Jul_newTES_manzoni_Up/diTau_fullsel_tree_CMG_22.root'
p131
(I01
I750
tp132
sS'/store/cmst3/user/manzoni/CMG/GluGluToHToTauTau_M-120_8TeV-powheg-pythia6/Summer12_DR53X-PU_S10_START53_V7A-v1/AODSIM/PAT_CMG_V5_16_0/HTT_24Jul_newTES_manzoni_Up/diTau_fullsel_tree_CMG_19.root'
p133
(I01
I708
tp134
sS'/store/cmst3/user/manzoni/CMG/GluGluToHToTauTau_M-120_8TeV-powheg-pythia6/Summer12_DR53X-PU_S10_START53_V7A-v1/AODSIM/PAT_CMG_V5_16_0/HTT_24Jul_newTES_manzoni_Up/diTau_fullsel_tree_CMG_23.root'
p135
(I01
I723
tp136
sS'/store/cmst3/user/manzoni/CMG/GluGluToHToTauTau_M-120_8TeV-powheg-pythia6/Summer12_DR53X-PU_S10_START53_V7A-v1/AODSIM/PAT_CMG_V5_16_0/HTT_24Jul_newTES_manzoni_Up/diTau_fullsel_tree_CMG_6.root'
p137
(I01
I692
tp138
sS'/store/cmst3/user/manzoni/CMG/GluGluToHToTauTau_M-120_8TeV-powheg-pythia6/Summer12_DR53X-PU_S10_START53_V7A-v1/AODSIM/PAT_CMG_V5_16_0/HTT_24Jul_newTES_manzoni_Up/diTau_fullsel_tree_CMG_42.root'
p139
(I01
I715
tp140
sS'/store/cmst3/user/manzoni/CMG/GluGluToHToTauTau_M-120_8TeV-powheg-pythia6/Summer12_DR53X-PU_S10_START53_V7A-v1/AODSIM/PAT_CMG_V5_16_0/HTT_24Jul_newTES_manzoni_Up/diTau_fullsel_tree_CMG_59.root'
p141
(I01
I680
tp142
sS'/store/cmst3/user/manzoni/CMG/GluGluToHToTauTau_M-120_8TeV-powheg-pythia6/Summer12_DR53X-PU_S10_START53_V7A-v1/AODSIM/PAT_CMG_V5_16_0/HTT_24Jul_newTES_manzoni_Up/diTau_fullsel_tree_CMG_99.root'
p143
(I01
I729
tp144
sS'/store/cmst3/user/manzoni/CMG/GluGluToHToTauTau_M-120_8TeV-powheg-pythia6/Summer12_DR53X-PU_S10_START53_V7A-v1/AODSIM/PAT_CMG_V5_16_0/HTT_24Jul_newTES_manzoni_Up/diTau_fullsel_tree_CMG_39.root'
p145
(I01
I711
tp146
sS'/store/cmst3/user/manzoni/CMG/GluGluToHToTauTau_M-120_8TeV-powheg-pythia6/Summer12_DR53X-PU_S10_START53_V7A-v1/AODSIM/PAT_CMG_V5_16_0/HTT_24Jul_newTES_manzoni_Up/diTau_fullsel_tree_CMG_80.root'
p147
(I01
I713
tp148
sS'/store/cmst3/user/manzoni/CMG/GluGluToHToTauTau_M-120_8TeV-powheg-pythia6/Summer12_DR53X-PU_S10_START53_V7A-v1/AODSIM/PAT_CMG_V5_16_0/HTT_24Jul_newTES_manzoni_Up/diTau_fullsel_tree_CMG_54.root'
p149
(I01
I715
tp150
sS'/store/cmst3/user/manzoni/CMG/GluGluToHToTauTau_M-120_8TeV-powheg-pythia6/Summer12_DR53X-PU_S10_START53_V7A-v1/AODSIM/PAT_CMG_V5_16_0/HTT_24Jul_newTES_manzoni_Up/diTau_fullsel_tree_CMG_96.root'
p151
(I01
I730
tp152
sS'/store/cmst3/user/manzoni/CMG/GluGluToHToTauTau_M-120_8TeV-powheg-pythia6/Summer12_DR53X-PU_S10_START53_V7A-v1/AODSIM/PAT_CMG_V5_16_0/HTT_24Jul_newTES_manzoni_Up/diTau_fullsel_tree_CMG_37.root'
p153
(I01
I720
tp154
sS'/store/cmst3/user/manzoni/CMG/GluGluToHToTauTau_M-120_8TeV-powheg-pythia6/Summer12_DR53X-PU_S10_START53_V7A-v1/AODSIM/PAT_CMG_V5_16_0/HTT_24Jul_newTES_manzoni_Up/diTau_fullsel_tree_CMG_67.root'
p155
(I01
I708
tp156
sS'/store/cmst3/user/manzoni/CMG/GluGluToHToTauTau_M-120_8TeV-powheg-pythia6/Summer12_DR53X-PU_S10_START53_V7A-v1/AODSIM/PAT_CMG_V5_16_0/HTT_24Jul_newTES_manzoni_Up/diTau_fullsel_tree_CMG_82.root'
p157
(I01
I717
tp158
sS'/store/cmst3/user/manzoni/CMG/GluGluToHToTauTau_M-120_8TeV-powheg-pythia6/Summer12_DR53X-PU_S10_START53_V7A-v1/AODSIM/PAT_CMG_V5_16_0/HTT_24Jul_newTES_manzoni_Up/diTau_fullsel_tree_CMG_7.root'
p159
(I01
I665
tp160
sS'/store/cmst3/user/manzoni/CMG/GluGluToHToTauTau_M-120_8TeV-powheg-pythia6/Summer12_DR53X-PU_S10_START53_V7A-v1/AODSIM/PAT_CMG_V5_16_0/HTT_24Jul_newTES_manzoni_Up/diTau_fullsel_tree_CMG_28.root'
p161
(I01
I680
tp162
sS'/store/cmst3/user/manzoni/CMG/GluGluToHToTauTau_M-120_8TeV-powheg-pythia6/Summer12_DR53X-PU_S10_START53_V7A-v1/AODSIM/PAT_CMG_V5_16_0/HTT_24Jul_newTES_manzoni_Up/diTau_fullsel_tree_CMG_16.root'
p163
(I01
I724
tp164
sS'/store/cmst3/user/manzoni/CMG/GluGluToHToTauTau_M-120_8TeV-powheg-pythia6/Summer12_DR53X-PU_S10_START53_V7A-v1/AODSIM/PAT_CMG_V5_16_0/HTT_24Jul_newTES_manzoni_Up/diTau_fullsel_tree_CMG_90.root'
p165
(I01
I708
tp166
sS'/store/cmst3/user/manzoni/CMG/GluGluToHToTauTau_M-120_8TeV-powheg-pythia6/Summer12_DR53X-PU_S10_START53_V7A-v1/AODSIM/PAT_CMG_V5_16_0/HTT_24Jul_newTES_manzoni_Up/diTau_fullsel_tree_CMG_33.root'
p167
(I01
I645
tp168
sS'/store/cmst3/user/manzoni/CMG/GluGluToHToTauTau_M-120_8TeV-powheg-pythia6/Summer12_DR53X-PU_S10_START53_V7A-v1/AODSIM/PAT_CMG_V5_16_0/HTT_24Jul_newTES_manzoni_Up/diTau_fullsel_tree_CMG_63.root'
p169
(I01
I662
tp170
sS'/store/cmst3/user/manzoni/CMG/GluGluToHToTauTau_M-120_8TeV-powheg-pythia6/Summer12_DR53X-PU_S10_START53_V7A-v1/AODSIM/PAT_CMG_V5_16_0/HTT_24Jul_newTES_manzoni_Up/diTau_fullsel_tree_CMG_89.root'
p171
(I01
I715
tp172
sS'/store/cmst3/user/manzoni/CMG/GluGluToHToTauTau_M-120_8TeV-powheg-pythia6/Summer12_DR53X-PU_S10_START53_V7A-v1/AODSIM/PAT_CMG_V5_16_0/HTT_24Jul_newTES_manzoni_Up/diTau_fullsel_tree_CMG_35.root'
p173
(I01
I720
tp174
sS'/store/cmst3/user/manzoni/CMG/GluGluToHToTauTau_M-120_8TeV-powheg-pythia6/Summer12_DR53X-PU_S10_START53_V7A-v1/AODSIM/PAT_CMG_V5_16_0/HTT_24Jul_newTES_manzoni_Up/diTau_fullsel_tree_CMG_10.root'
p175
(I01
I744
tp176
sS'/store/cmst3/user/manzoni/CMG/GluGluToHToTauTau_M-120_8TeV-powheg-pythia6/Summer12_DR53X-PU_S10_START53_V7A-v1/AODSIM/PAT_CMG_V5_16_0/HTT_24Jul_newTES_manzoni_Up/diTau_fullsel_tree_CMG_85.root'
p177
(I01
I668
tp178
sS'/store/cmst3/user/manzoni/CMG/GluGluToHToTauTau_M-120_8TeV-powheg-pythia6/Summer12_DR53X-PU_S10_START53_V7A-v1/AODSIM/PAT_CMG_V5_16_0/HTT_24Jul_newTES_manzoni_Up/diTau_fullsel_tree_CMG_92.root'
p179
(I01
I727
tp180
sS'/store/cmst3/user/manzoni/CMG/GluGluToHToTauTau_M-120_8TeV-powheg-pythia6/Summer12_DR53X-PU_S10_START53_V7A-v1/AODSIM/PAT_CMG_V5_16_0/HTT_24Jul_newTES_manzoni_Up/diTau_fullsel_tree_CMG_65.root'
p181
(I01
I684
tp182
sS'/store/cmst3/user/manzoni/CMG/GluGluToHToTauTau_M-120_8TeV-powheg-pythia6/Summer12_DR53X-PU_S10_START53_V7A-v1/AODSIM/PAT_CMG_V5_16_0/HTT_24Jul_newTES_manzoni_Up/diTau_fullsel_tree_CMG_62.root'
p183
(I01
I703
tp184
sS'/store/cmst3/user/manzoni/CMG/GluGluToHToTauTau_M-120_8TeV-powheg-pythia6/Summer12_DR53X-PU_S10_START53_V7A-v1/AODSIM/PAT_CMG_V5_16_0/HTT_24Jul_newTES_manzoni_Up/diTau_fullsel_tree_CMG_38.root'
p185
(I01
I678
tp186
sS'/store/cmst3/user/manzoni/CMG/GluGluToHToTauTau_M-120_8TeV-powheg-pythia6/Summer12_DR53X-PU_S10_START53_V7A-v1/AODSIM/PAT_CMG_V5_16_0/HTT_24Jul_newTES_manzoni_Up/diTau_fullsel_tree_CMG_44.root'
p187
(I01
I694
tp188
sS'/store/cmst3/user/manzoni/CMG/GluGluToHToTauTau_M-120_8TeV-powheg-pythia6/Summer12_DR53X-PU_S10_START53_V7A-v1/AODSIM/PAT_CMG_V5_16_0/HTT_24Jul_newTES_manzoni_Up/diTau_fullsel_tree_CMG_88.root'
p189
(I01
I726
tp190
sS'/store/cmst3/user/manzoni/CMG/GluGluToHToTauTau_M-120_8TeV-powheg-pythia6/Summer12_DR53X-PU_S10_START53_V7A-v1/AODSIM/PAT_CMG_V5_16_0/HTT_24Jul_newTES_manzoni_Up/diTau_fullsel_tree_CMG_45.root'
p191
(I01
I709
tp192
sS'/store/cmst3/user/manzoni/CMG/GluGluToHToTauTau_M-120_8TeV-powheg-pythia6/Summer12_DR53X-PU_S10_START53_V7A-v1/AODSIM/PAT_CMG_V5_16_0/HTT_24Jul_newTES_manzoni_Up/diTau_fullsel_tree_CMG_98.root'
p193
(I01
I702
tp194
sS'/store/cmst3/user/manzoni/CMG/GluGluToHToTauTau_M-120_8TeV-powheg-pythia6/Summer12_DR53X-PU_S10_START53_V7A-v1/AODSIM/PAT_CMG_V5_16_0/HTT_24Jul_newTES_manzoni_Up/diTau_fullsel_tree_CMG_68.root'
p195
(I01
I676
tp196
sS'/store/cmst3/user/manzoni/CMG/GluGluToHToTauTau_M-120_8TeV-powheg-pythia6/Summer12_DR53X-PU_S10_START53_V7A-v1/AODSIM/PAT_CMG_V5_16_0/HTT_24Jul_newTES_manzoni_Up/diTau_fullsel_tree_CMG_20.root'
p197
(I01
I707
tp198
sS'/store/cmst3/user/manzoni/CMG/GluGluToHToTauTau_M-120_8TeV-powheg-pythia6/Summer12_DR53X-PU_S10_START53_V7A-v1/AODSIM/PAT_CMG_V5_16_0/HTT_24Jul_newTES_manzoni_Up/diTau_fullsel_tree_CMG_77.root'
p199
(I01
I723
tp200
sS'/store/cmst3/user/manzoni/CMG/GluGluToHToTauTau_M-120_8TeV-powheg-pythia6/Summer12_DR53X-PU_S10_START53_V7A-v1/AODSIM/PAT_CMG_V5_16_0/HTT_24Jul_newTES_manzoni_Up/diTau_fullsel_tree_CMG_12.root'
p201
(I01
I732
tp202
sS'/store/cmst3/user/manzoni/CMG/GluGluToHToTauTau_M-120_8TeV-powheg-pythia6/Summer12_DR53X-PU_S10_START53_V7A-v1/AODSIM/PAT_CMG_V5_16_0/HTT_24Jul_newTES_manzoni_Up/diTau_fullsel_tree_CMG_4.root'
p203
(I01
I719
tp204
sS'/store/cmst3/user/manzoni/CMG/GluGluToHToTauTau_M-120_8TeV-powheg-pythia6/Summer12_DR53X-PU_S10_START53_V7A-v1/AODSIM/PAT_CMG_V5_16_0/HTT_24Jul_newTES_manzoni_Up/diTau_fullsel_tree_CMG_30.root'
p205
(I01
I737
tp206
ssS'Name'
p207
S'/GluGluToHToTauTau_M-120_8TeV-powheg-pythia6/Summer12_DR53X-PU_S10_START53_V7A-v1/AODSIM/PAT_CMG_V5_16_0/HTT_24Jul_newTES_manzoni_Up'
p208
sS'Topdir'
p209
S'/eos/cms/store/cmst3/user/manzoni/CMG'
p210
sS'RunList'
p211
(lp212
sS'PathList'
p213
(lp214
S'/store/cmst3/user/manzoni/CMG/GluGluToHToTauTau_M-120_8TeV-powheg-pythia6/Summer12_DR53X-PU_S10_START53_V7A-v1/AODSIM/PAT_CMG_V5_16_0/HTT_24Jul_newTES_manzoni_Up'
p215
asS'AlgoList'
p216
(lp217
sS'PrimaryDatasetFraction'
p218
F0.014034632240710734
sS'FilesGood'
p219
I100
sS'PrimaryDatasetEntries'
p220
I4999561
sS'data'
p221
(dp222
sS'FilesBad'
p223
I0
sS'ReportVersion'
p224
I3
sS'Status'
p225
S'VALID'
p226
sS'MaxRun'
p227
I-1
sS'PhysicsGroup'
p228
S'CMG'
p229
sS'MinRun'
p230
I-1
sS'StageHost'
p231
S'castorcms'
p232
sS'FilesCount'
p233
I100
sS'FilesEntries'
p234
I70167
sS'TierList'
p235
(lp236
sS'DateCreated'
p237
S'1377478601'
p238
sS'CreatedBy'
p239
S'manzoni'
p240
sS'ValidDuplicates'
p241
(dp242
sS'PrimaryDataset'
p243
S'/GluGluToHToTauTau_M-120_8TeV-powheg-pythia6/Summer12_DR53X-PU_S10_START53_V7A-v1/AODSIM'
p244
sS'BadJobs'
p245
(lp246
ssS'MaskPresent'
p247
I01
sS'LSFJobStatusCheck'
p248
(dp249
S'GluGluToHToTauTau_M-120_8TeV-powheg-pythia6/Summer12_DR53X-PU_S10_START53_V7A-v1/AODSIM/PAT_CMG_V5_16_0_1377467484/HTT_24Jul_newTES_manzoni_Up_Jobs/Job_59'
p250
g226
sS'GluGluToHToTauTau_M-120_8TeV-powheg-pythia6/Summer12_DR53X-PU_S10_START53_V7A-v1/AODSIM/PAT_CMG_V5_16_0_1377467484/HTT_24Jul_newTES_manzoni_Up_Jobs/Job_58'
p251
g226
sS'GluGluToHToTauTau_M-120_8TeV-powheg-pythia6/Summer12_DR53X-PU_S10_START53_V7A-v1/AODSIM/PAT_CMG_V5_16_0_1377467484/HTT_24Jul_newTES_manzoni_Up_Jobs/Job_53'
p252
g226
sS'GluGluToHToTauTau_M-120_8TeV-powheg-pythia6/Summer12_DR53X-PU_S10_START53_V7A-v1/AODSIM/PAT_CMG_V5_16_0_1377467484/HTT_24Jul_newTES_manzoni_Up_Jobs/Job_52'
p253
g226
sS'GluGluToHToTauTau_M-120_8TeV-powheg-pythia6/Summer12_DR53X-PU_S10_START53_V7A-v1/AODSIM/PAT_CMG_V5_16_0_1377467484/HTT_24Jul_newTES_manzoni_Up_Jobs/Job_51'
p254
g226
sS'GluGluToHToTauTau_M-120_8TeV-powheg-pythia6/Summer12_DR53X-PU_S10_START53_V7A-v1/AODSIM/PAT_CMG_V5_16_0_1377467484/HTT_24Jul_newTES_manzoni_Up_Jobs/Job_50'
p255
g226
sS'GluGluToHToTauTau_M-120_8TeV-powheg-pythia6/Summer12_DR53X-PU_S10_START53_V7A-v1/AODSIM/PAT_CMG_V5_16_0_1377467484/HTT_24Jul_newTES_manzoni_Up_Jobs/Job_57'
p256
g226
sS'GluGluToHToTauTau_M-120_8TeV-powheg-pythia6/Summer12_DR53X-PU_S10_START53_V7A-v1/AODSIM/PAT_CMG_V5_16_0_1377467484/HTT_24Jul_newTES_manzoni_Up_Jobs/Job_56'
p257
g226
sS'GluGluToHToTauTau_M-120_8TeV-powheg-pythia6/Summer12_DR53X-PU_S10_START53_V7A-v1/AODSIM/PAT_CMG_V5_16_0_1377467484/HTT_24Jul_newTES_manzoni_Up_Jobs/Job_55'
p258
g226
sS'GluGluToHToTauTau_M-120_8TeV-powheg-pythia6/Summer12_DR53X-PU_S10_START53_V7A-v1/AODSIM/PAT_CMG_V5_16_0_1377467484/HTT_24Jul_newTES_manzoni_Up_Jobs/Job_54'
p259
g226
sS'GluGluToHToTauTau_M-120_8TeV-powheg-pythia6/Summer12_DR53X-PU_S10_START53_V7A-v1/AODSIM/PAT_CMG_V5_16_0_1377467484/HTT_24Jul_newTES_manzoni_Up_Jobs/Job_28'
p260
g226
sS'GluGluToHToTauTau_M-120_8TeV-powheg-pythia6/Summer12_DR53X-PU_S10_START53_V7A-v1/AODSIM/PAT_CMG_V5_16_0_1377467484/HTT_24Jul_newTES_manzoni_Up_Jobs/Job_29'
p261
g226
sS'GluGluToHToTauTau_M-120_8TeV-powheg-pythia6/Summer12_DR53X-PU_S10_START53_V7A-v1/AODSIM/PAT_CMG_V5_16_0_1377467484/HTT_24Jul_newTES_manzoni_Up_Jobs/Job_26'
p262
g226
sS'GluGluToHToTauTau_M-120_8TeV-powheg-pythia6/Summer12_DR53X-PU_S10_START53_V7A-v1/AODSIM/PAT_CMG_V5_16_0_1377467484/HTT_24Jul_newTES_manzoni_Up_Jobs/Job_27'
p263
g226
sS'GluGluToHToTauTau_M-120_8TeV-powheg-pythia6/Summer12_DR53X-PU_S10_START53_V7A-v1/AODSIM/PAT_CMG_V5_16_0_1377467484/HTT_24Jul_newTES_manzoni_Up_Jobs/Job_24'
p264
g226
sS'GluGluToHToTauTau_M-120_8TeV-powheg-pythia6/Summer12_DR53X-PU_S10_START53_V7A-v1/AODSIM/PAT_CMG_V5_16_0_1377467484/HTT_24Jul_newTES_manzoni_Up_Jobs/Job_25'
p265
g226
sS'GluGluToHToTauTau_M-120_8TeV-powheg-pythia6/Summer12_DR53X-PU_S10_START53_V7A-v1/AODSIM/PAT_CMG_V5_16_0_1377467484/HTT_24Jul_newTES_manzoni_Up_Jobs/Job_22'
p266
g226
sS'GluGluToHToTauTau_M-120_8TeV-powheg-pythia6/Summer12_DR53X-PU_S10_START53_V7A-v1/AODSIM/PAT_CMG_V5_16_0_1377467484/HTT_24Jul_newTES_manzoni_Up_Jobs/Job_23'
p267
g226
sS'GluGluToHToTauTau_M-120_8TeV-powheg-pythia6/Summer12_DR53X-PU_S10_START53_V7A-v1/AODSIM/PAT_CMG_V5_16_0_1377467484/HTT_24Jul_newTES_manzoni_Up_Jobs/Job_20'
p268
g226
sS'GluGluToHToTauTau_M-120_8TeV-powheg-pythia6/Summer12_DR53X-PU_S10_START53_V7A-v1/AODSIM/PAT_CMG_V5_16_0_1377467484/HTT_24Jul_newTES_manzoni_Up_Jobs/Job_21'
p269
g226
sS'GluGluToHToTauTau_M-120_8TeV-powheg-pythia6/Summer12_DR53X-PU_S10_START53_V7A-v1/AODSIM/PAT_CMG_V5_16_0_1377467484/HTT_24Jul_newTES_manzoni_Up_Jobs/Job_71'
p270
g226
sS'GluGluToHToTauTau_M-120_8TeV-powheg-pythia6/Summer12_DR53X-PU_S10_START53_V7A-v1/AODSIM/PAT_CMG_V5_16_0_1377467484/HTT_24Jul_newTES_manzoni_Up_Jobs/Job_70'
p271
g226
sS'GluGluToHToTauTau_M-120_8TeV-powheg-pythia6/Summer12_DR53X-PU_S10_START53_V7A-v1/AODSIM/PAT_CMG_V5_16_0_1377467484/HTT_24Jul_newTES_manzoni_Up_Jobs/Job_73'
p272
g226
sS'GluGluToHToTauTau_M-120_8TeV-powheg-pythia6/Summer12_DR53X-PU_S10_START53_V7A-v1/AODSIM/PAT_CMG_V5_16_0_1377467484/HTT_24Jul_newTES_manzoni_Up_Jobs/Job_72'
p273
g226
sS'GluGluToHToTauTau_M-120_8TeV-powheg-pythia6/Summer12_DR53X-PU_S10_START53_V7A-v1/AODSIM/PAT_CMG_V5_16_0_1377467484/HTT_24Jul_newTES_manzoni_Up_Jobs/Job_75'
p274
g226
sS'GluGluToHToTauTau_M-120_8TeV-powheg-pythia6/Summer12_DR53X-PU_S10_START53_V7A-v1/AODSIM/PAT_CMG_V5_16_0_1377467484/HTT_24Jul_newTES_manzoni_Up_Jobs/Job_74'
p275
g226
sS'GluGluToHToTauTau_M-120_8TeV-powheg-pythia6/Summer12_DR53X-PU_S10_START53_V7A-v1/AODSIM/PAT_CMG_V5_16_0_1377467484/HTT_24Jul_newTES_manzoni_Up_Jobs/Job_77'
p276
g226
sS'GluGluToHToTauTau_M-120_8TeV-powheg-pythia6/Summer12_DR53X-PU_S10_START53_V7A-v1/AODSIM/PAT_CMG_V5_16_0_1377467484/HTT_24Jul_newTES_manzoni_Up_Jobs/Job_76'
p277
g226
sS'GluGluToHToTauTau_M-120_8TeV-powheg-pythia6/Summer12_DR53X-PU_S10_START53_V7A-v1/AODSIM/PAT_CMG_V5_16_0_1377467484/HTT_24Jul_newTES_manzoni_Up_Jobs/Job_79'
p278
g226
sS'GluGluToHToTauTau_M-120_8TeV-powheg-pythia6/Summer12_DR53X-PU_S10_START53_V7A-v1/AODSIM/PAT_CMG_V5_16_0_1377467484/HTT_24Jul_newTES_manzoni_Up_Jobs/Job_78'
p279
g226
sS'GluGluToHToTauTau_M-120_8TeV-powheg-pythia6/Summer12_DR53X-PU_S10_START53_V7A-v1/AODSIM/PAT_CMG_V5_16_0_1377467484/HTT_24Jul_newTES_manzoni_Up_Jobs/Job_100'
p280
g226
sS'GluGluToHToTauTau_M-120_8TeV-powheg-pythia6/Summer12_DR53X-PU_S10_START53_V7A-v1/AODSIM/PAT_CMG_V5_16_0_1377467484/HTT_24Jul_newTES_manzoni_Up_Jobs/Job_44'
p281
g226
sS'GluGluToHToTauTau_M-120_8TeV-powheg-pythia6/Summer12_DR53X-PU_S10_START53_V7A-v1/AODSIM/PAT_CMG_V5_16_0_1377467484/HTT_24Jul_newTES_manzoni_Up_Jobs/Job_45'
p282
g226
sS'GluGluToHToTauTau_M-120_8TeV-powheg-pythia6/Summer12_DR53X-PU_S10_START53_V7A-v1/AODSIM/PAT_CMG_V5_16_0_1377467484/HTT_24Jul_newTES_manzoni_Up_Jobs/Job_46'
p283
g226
sS'GluGluToHToTauTau_M-120_8TeV-powheg-pythia6/Summer12_DR53X-PU_S10_START53_V7A-v1/AODSIM/PAT_CMG_V5_16_0_1377467484/HTT_24Jul_newTES_manzoni_Up_Jobs/Job_47'
p284
g226
sS'GluGluToHToTauTau_M-120_8TeV-powheg-pythia6/Summer12_DR53X-PU_S10_START53_V7A-v1/AODSIM/PAT_CMG_V5_16_0_1377467484/HTT_24Jul_newTES_manzoni_Up_Jobs/Job_40'
p285
g226
sS'GluGluToHToTauTau_M-120_8TeV-powheg-pythia6/Summer12_DR53X-PU_S10_START53_V7A-v1/AODSIM/PAT_CMG_V5_16_0_1377467484/HTT_24Jul_newTES_manzoni_Up_Jobs/Job_41'
p286
g226
sS'GluGluToHToTauTau_M-120_8TeV-powheg-pythia6/Summer12_DR53X-PU_S10_START53_V7A-v1/AODSIM/PAT_CMG_V5_16_0_1377467484/HTT_24Jul_newTES_manzoni_Up_Jobs/Job_42'
p287
g226
sS'GluGluToHToTauTau_M-120_8TeV-powheg-pythia6/Summer12_DR53X-PU_S10_START53_V7A-v1/AODSIM/PAT_CMG_V5_16_0_1377467484/HTT_24Jul_newTES_manzoni_Up_Jobs/Job_43'
p288
g226
sS'GluGluToHToTauTau_M-120_8TeV-powheg-pythia6/Summer12_DR53X-PU_S10_START53_V7A-v1/AODSIM/PAT_CMG_V5_16_0_1377467484/HTT_24Jul_newTES_manzoni_Up_Jobs/Job_48'
p289
g226
sS'GluGluToHToTauTau_M-120_8TeV-powheg-pythia6/Summer12_DR53X-PU_S10_START53_V7A-v1/AODSIM/PAT_CMG_V5_16_0_1377467484/HTT_24Jul_newTES_manzoni_Up_Jobs/Job_49'
p290
g226
sS'GluGluToHToTauTau_M-120_8TeV-powheg-pythia6/Summer12_DR53X-PU_S10_START53_V7A-v1/AODSIM/PAT_CMG_V5_16_0_1377467484/HTT_24Jul_newTES_manzoni_Up_Jobs/Job_17'
p291
g226
sS'GluGluToHToTauTau_M-120_8TeV-powheg-pythia6/Summer12_DR53X-PU_S10_START53_V7A-v1/AODSIM/PAT_CMG_V5_16_0_1377467484/HTT_24Jul_newTES_manzoni_Up_Jobs/Job_16'
p292
g226
sS'GluGluToHToTauTau_M-120_8TeV-powheg-pythia6/Summer12_DR53X-PU_S10_START53_V7A-v1/AODSIM/PAT_CMG_V5_16_0_1377467484/HTT_24Jul_newTES_manzoni_Up_Jobs/Job_15'
p293
g226
sS'GluGluToHToTauTau_M-120_8TeV-powheg-pythia6/Summer12_DR53X-PU_S10_START53_V7A-v1/AODSIM/PAT_CMG_V5_16_0_1377467484/HTT_24Jul_newTES_manzoni_Up_Jobs/Job_14'
p294
g226
sS'GluGluToHToTauTau_M-120_8TeV-powheg-pythia6/Summer12_DR53X-PU_S10_START53_V7A-v1/AODSIM/PAT_CMG_V5_16_0_1377467484/HTT_24Jul_newTES_manzoni_Up_Jobs/Job_13'
p295
g226
sS'GluGluToHToTauTau_M-120_8TeV-powheg-pythia6/Summer12_DR53X-PU_S10_START53_V7A-v1/AODSIM/PAT_CMG_V5_16_0_1377467484/HTT_24Jul_newTES_manzoni_Up_Jobs/Job_12'
p296
g226
sS'GluGluToHToTauTau_M-120_8TeV-powheg-pythia6/Summer12_DR53X-PU_S10_START53_V7A-v1/AODSIM/PAT_CMG_V5_16_0_1377467484/HTT_24Jul_newTES_manzoni_Up_Jobs/Job_11'
p297
g226
sS'GluGluToHToTauTau_M-120_8TeV-powheg-pythia6/Summer12_DR53X-PU_S10_START53_V7A-v1/AODSIM/PAT_CMG_V5_16_0_1377467484/HTT_24Jul_newTES_manzoni_Up_Jobs/Job_10'
p298
g226
sS'GluGluToHToTauTau_M-120_8TeV-powheg-pythia6/Summer12_DR53X-PU_S10_START53_V7A-v1/AODSIM/PAT_CMG_V5_16_0_1377467484/HTT_24Jul_newTES_manzoni_Up_Jobs/Job_19'
p299
g226
sS'GluGluToHToTauTau_M-120_8TeV-powheg-pythia6/Summer12_DR53X-PU_S10_START53_V7A-v1/AODSIM/PAT_CMG_V5_16_0_1377467484/HTT_24Jul_newTES_manzoni_Up_Jobs/Job_18'
p300
g226
sS'GluGluToHToTauTau_M-120_8TeV-powheg-pythia6/Summer12_DR53X-PU_S10_START53_V7A-v1/AODSIM/PAT_CMG_V5_16_0_1377467484/HTT_24Jul_newTES_manzoni_Up_Jobs/Job_99'
p301
g226
sS'GluGluToHToTauTau_M-120_8TeV-powheg-pythia6/Summer12_DR53X-PU_S10_START53_V7A-v1/AODSIM/PAT_CMG_V5_16_0_1377467484/HTT_24Jul_newTES_manzoni_Up_Jobs/Job_98'
p302
g226
sS'GluGluToHToTauTau_M-120_8TeV-powheg-pythia6/Summer12_DR53X-PU_S10_START53_V7A-v1/AODSIM/PAT_CMG_V5_16_0_1377467484/HTT_24Jul_newTES_manzoni_Up_Jobs/Job_97'
p303
g226
sS'GluGluToHToTauTau_M-120_8TeV-powheg-pythia6/Summer12_DR53X-PU_S10_START53_V7A-v1/AODSIM/PAT_CMG_V5_16_0_1377467484/HTT_24Jul_newTES_manzoni_Up_Jobs/Job_96'
p304
g226
sS'GluGluToHToTauTau_M-120_8TeV-powheg-pythia6/Summer12_DR53X-PU_S10_START53_V7A-v1/AODSIM/PAT_CMG_V5_16_0_1377467484/HTT_24Jul_newTES_manzoni_Up_Jobs/Job_95'
p305
g226
sS'GluGluToHToTauTau_M-120_8TeV-powheg-pythia6/Summer12_DR53X-PU_S10_START53_V7A-v1/AODSIM/PAT_CMG_V5_16_0_1377467484/HTT_24Jul_newTES_manzoni_Up_Jobs/Job_94'
p306
g226
sS'GluGluToHToTauTau_M-120_8TeV-powheg-pythia6/Summer12_DR53X-PU_S10_START53_V7A-v1/AODSIM/PAT_CMG_V5_16_0_1377467484/HTT_24Jul_newTES_manzoni_Up_Jobs/Job_93'
p307
g226
sS'GluGluToHToTauTau_M-120_8TeV-powheg-pythia6/Summer12_DR53X-PU_S10_START53_V7A-v1/AODSIM/PAT_CMG_V5_16_0_1377467484/HTT_24Jul_newTES_manzoni_Up_Jobs/Job_92'
p308
g226
sS'GluGluToHToTauTau_M-120_8TeV-powheg-pythia6/Summer12_DR53X-PU_S10_START53_V7A-v1/AODSIM/PAT_CMG_V5_16_0_1377467484/HTT_24Jul_newTES_manzoni_Up_Jobs/Job_91'
p309
g226
sS'GluGluToHToTauTau_M-120_8TeV-powheg-pythia6/Summer12_DR53X-PU_S10_START53_V7A-v1/AODSIM/PAT_CMG_V5_16_0_1377467484/HTT_24Jul_newTES_manzoni_Up_Jobs/Job_90'
p310
g226
sS'GluGluToHToTauTau_M-120_8TeV-powheg-pythia6/Summer12_DR53X-PU_S10_START53_V7A-v1/AODSIM/PAT_CMG_V5_16_0_1377467484/HTT_24Jul_newTES_manzoni_Up_Jobs/Job_62'
p311
g226
sS'GluGluToHToTauTau_M-120_8TeV-powheg-pythia6/Summer12_DR53X-PU_S10_START53_V7A-v1/AODSIM/PAT_CMG_V5_16_0_1377467484/HTT_24Jul_newTES_manzoni_Up_Jobs/Job_63'
p312
g226
sS'GluGluToHToTauTau_M-120_8TeV-powheg-pythia6/Summer12_DR53X-PU_S10_START53_V7A-v1/AODSIM/PAT_CMG_V5_16_0_1377467484/HTT_24Jul_newTES_manzoni_Up_Jobs/Job_60'
p313
g226
sS'GluGluToHToTauTau_M-120_8TeV-powheg-pythia6/Summer12_DR53X-PU_S10_START53_V7A-v1/AODSIM/PAT_CMG_V5_16_0_1377467484/HTT_24Jul_newTES_manzoni_Up_Jobs/Job_61'
p314
g226
sS'GluGluToHToTauTau_M-120_8TeV-powheg-pythia6/Summer12_DR53X-PU_S10_START53_V7A-v1/AODSIM/PAT_CMG_V5_16_0_1377467484/HTT_24Jul_newTES_manzoni_Up_Jobs/Job_66'
p315
g226
sS'GluGluToHToTauTau_M-120_8TeV-powheg-pythia6/Summer12_DR53X-PU_S10_START53_V7A-v1/AODSIM/PAT_CMG_V5_16_0_1377467484/HTT_24Jul_newTES_manzoni_Up_Jobs/Job_67'
p316
g226
sS'GluGluToHToTauTau_M-120_8TeV-powheg-pythia6/Summer12_DR53X-PU_S10_START53_V7A-v1/AODSIM/PAT_CMG_V5_16_0_1377467484/HTT_24Jul_newTES_manzoni_Up_Jobs/Job_64'
p317
g226
sS'GluGluToHToTauTau_M-120_8TeV-powheg-pythia6/Summer12_DR53X-PU_S10_START53_V7A-v1/AODSIM/PAT_CMG_V5_16_0_1377467484/HTT_24Jul_newTES_manzoni_Up_Jobs/Job_65'
p318
g226
sS'GluGluToHToTauTau_M-120_8TeV-powheg-pythia6/Summer12_DR53X-PU_S10_START53_V7A-v1/AODSIM/PAT_CMG_V5_16_0_1377467484/HTT_24Jul_newTES_manzoni_Up_Jobs/Job_68'
p319
g226
sS'GluGluToHToTauTau_M-120_8TeV-powheg-pythia6/Summer12_DR53X-PU_S10_START53_V7A-v1/AODSIM/PAT_CMG_V5_16_0_1377467484/HTT_24Jul_newTES_manzoni_Up_Jobs/Job_69'
p320
g226
sS'GluGluToHToTauTau_M-120_8TeV-powheg-pythia6/Summer12_DR53X-PU_S10_START53_V7A-v1/AODSIM/PAT_CMG_V5_16_0_1377467484/HTT_24Jul_newTES_manzoni_Up_Jobs/Job_39'
p321
g226
sS'GluGluToHToTauTau_M-120_8TeV-powheg-pythia6/Summer12_DR53X-PU_S10_START53_V7A-v1/AODSIM/PAT_CMG_V5_16_0_1377467484/HTT_24Jul_newTES_manzoni_Up_Jobs/Job_38'
p322
g226
sS'GluGluToHToTauTau_M-120_8TeV-powheg-pythia6/Summer12_DR53X-PU_S10_START53_V7A-v1/AODSIM/PAT_CMG_V5_16_0_1377467484/HTT_24Jul_newTES_manzoni_Up_Jobs/Job_35'
p323
g226
sS'GluGluToHToTauTau_M-120_8TeV-powheg-pythia6/Summer12_DR53X-PU_S10_START53_V7A-v1/AODSIM/PAT_CMG_V5_16_0_1377467484/HTT_24Jul_newTES_manzoni_Up_Jobs/Job_34'
p324
g226
sS'GluGluToHToTauTau_M-120_8TeV-powheg-pythia6/Summer12_DR53X-PU_S10_START53_V7A-v1/AODSIM/PAT_CMG_V5_16_0_1377467484/HTT_24Jul_newTES_manzoni_Up_Jobs/Job_37'
p325
g226
sS'GluGluToHToTauTau_M-120_8TeV-powheg-pythia6/Summer12_DR53X-PU_S10_START53_V7A-v1/AODSIM/PAT_CMG_V5_16_0_1377467484/HTT_24Jul_newTES_manzoni_Up_Jobs/Job_36'
p326
g226
sS'GluGluToHToTauTau_M-120_8TeV-powheg-pythia6/Summer12_DR53X-PU_S10_START53_V7A-v1/AODSIM/PAT_CMG_V5_16_0_1377467484/HTT_24Jul_newTES_manzoni_Up_Jobs/Job_31'
p327
g226
sS'GluGluToHToTauTau_M-120_8TeV-powheg-pythia6/Summer12_DR53X-PU_S10_START53_V7A-v1/AODSIM/PAT_CMG_V5_16_0_1377467484/HTT_24Jul_newTES_manzoni_Up_Jobs/Job_30'
p328
g226
sS'GluGluToHToTauTau_M-120_8TeV-powheg-pythia6/Summer12_DR53X-PU_S10_START53_V7A-v1/AODSIM/PAT_CMG_V5_16_0_1377467484/HTT_24Jul_newTES_manzoni_Up_Jobs/Job_33'
p329
g226
sS'GluGluToHToTauTau_M-120_8TeV-powheg-pythia6/Summer12_DR53X-PU_S10_START53_V7A-v1/AODSIM/PAT_CMG_V5_16_0_1377467484/HTT_24Jul_newTES_manzoni_Up_Jobs/Job_32'
p330
g226
sS'GluGluToHToTauTau_M-120_8TeV-powheg-pythia6/Summer12_DR53X-PU_S10_START53_V7A-v1/AODSIM/PAT_CMG_V5_16_0_1377467484/HTT_24Jul_newTES_manzoni_Up_Jobs/Job_7'
p331
g226
sS'GluGluToHToTauTau_M-120_8TeV-powheg-pythia6/Summer12_DR53X-PU_S10_START53_V7A-v1/AODSIM/PAT_CMG_V5_16_0_1377467484/HTT_24Jul_newTES_manzoni_Up_Jobs/Job_6'
p332
g226
sS'GluGluToHToTauTau_M-120_8TeV-powheg-pythia6/Summer12_DR53X-PU_S10_START53_V7A-v1/AODSIM/PAT_CMG_V5_16_0_1377467484/HTT_24Jul_newTES_manzoni_Up_Jobs/Job_5'
p333
g226
sS'GluGluToHToTauTau_M-120_8TeV-powheg-pythia6/Summer12_DR53X-PU_S10_START53_V7A-v1/AODSIM/PAT_CMG_V5_16_0_1377467484/HTT_24Jul_newTES_manzoni_Up_Jobs/Job_4'
p334
g226
sS'GluGluToHToTauTau_M-120_8TeV-powheg-pythia6/Summer12_DR53X-PU_S10_START53_V7A-v1/AODSIM/PAT_CMG_V5_16_0_1377467484/HTT_24Jul_newTES_manzoni_Up_Jobs/Job_3'
p335
g226
sS'GluGluToHToTauTau_M-120_8TeV-powheg-pythia6/Summer12_DR53X-PU_S10_START53_V7A-v1/AODSIM/PAT_CMG_V5_16_0_1377467484/HTT_24Jul_newTES_manzoni_Up_Jobs/Job_2'
p336
g226
sS'GluGluToHToTauTau_M-120_8TeV-powheg-pythia6/Summer12_DR53X-PU_S10_START53_V7A-v1/AODSIM/PAT_CMG_V5_16_0_1377467484/HTT_24Jul_newTES_manzoni_Up_Jobs/Job_1'
p337
g226
sS'GluGluToHToTauTau_M-120_8TeV-powheg-pythia6/Summer12_DR53X-PU_S10_START53_V7A-v1/AODSIM/PAT_CMG_V5_16_0_1377467484/HTT_24Jul_newTES_manzoni_Up_Jobs/Job_9'
p338
g226
sS'GluGluToHToTauTau_M-120_8TeV-powheg-pythia6/Summer12_DR53X-PU_S10_START53_V7A-v1/AODSIM/PAT_CMG_V5_16_0_1377467484/HTT_24Jul_newTES_manzoni_Up_Jobs/Job_8'
p339
g226
sS'GluGluToHToTauTau_M-120_8TeV-powheg-pythia6/Summer12_DR53X-PU_S10_START53_V7A-v1/AODSIM/PAT_CMG_V5_16_0_1377467484/HTT_24Jul_newTES_manzoni_Up_Jobs/Job_88'
p340
g226
sS'GluGluToHToTauTau_M-120_8TeV-powheg-pythia6/Summer12_DR53X-PU_S10_START53_V7A-v1/AODSIM/PAT_CMG_V5_16_0_1377467484/HTT_24Jul_newTES_manzoni_Up_Jobs/Job_89'
p341
g226
sS'GluGluToHToTauTau_M-120_8TeV-powheg-pythia6/Summer12_DR53X-PU_S10_START53_V7A-v1/AODSIM/PAT_CMG_V5_16_0_1377467484/HTT_24Jul_newTES_manzoni_Up_Jobs/Job_80'
p342
g226
sS'GluGluToHToTauTau_M-120_8TeV-powheg-pythia6/Summer12_DR53X-PU_S10_START53_V7A-v1/AODSIM/PAT_CMG_V5_16_0_1377467484/HTT_24Jul_newTES_manzoni_Up_Jobs/Job_81'
p343
g226
sS'GluGluToHToTauTau_M-120_8TeV-powheg-pythia6/Summer12_DR53X-PU_S10_START53_V7A-v1/AODSIM/PAT_CMG_V5_16_0_1377467484/HTT_24Jul_newTES_manzoni_Up_Jobs/Job_82'
p344
g226
sS'GluGluToHToTauTau_M-120_8TeV-powheg-pythia6/Summer12_DR53X-PU_S10_START53_V7A-v1/AODSIM/PAT_CMG_V5_16_0_1377467484/HTT_24Jul_newTES_manzoni_Up_Jobs/Job_83'
p345
g226
sS'GluGluToHToTauTau_M-120_8TeV-powheg-pythia6/Summer12_DR53X-PU_S10_START53_V7A-v1/AODSIM/PAT_CMG_V5_16_0_1377467484/HTT_24Jul_newTES_manzoni_Up_Jobs/Job_84'
p346
g226
sS'GluGluToHToTauTau_M-120_8TeV-powheg-pythia6/Summer12_DR53X-PU_S10_START53_V7A-v1/AODSIM/PAT_CMG_V5_16_0_1377467484/HTT_24Jul_newTES_manzoni_Up_Jobs/Job_85'
p347
g226
sS'GluGluToHToTauTau_M-120_8TeV-powheg-pythia6/Summer12_DR53X-PU_S10_START53_V7A-v1/AODSIM/PAT_CMG_V5_16_0_1377467484/HTT_24Jul_newTES_manzoni_Up_Jobs/Job_86'
p348
g226
sS'GluGluToHToTauTau_M-120_8TeV-powheg-pythia6/Summer12_DR53X-PU_S10_START53_V7A-v1/AODSIM/PAT_CMG_V5_16_0_1377467484/HTT_24Jul_newTES_manzoni_Up_Jobs/Job_87'
p349
g226
sssS'CheckDatasetExists'
p350
(dp351
S'Dataset'
p352
S'/GluGluToHToTauTau_M-120_8TeV-powheg-pythia6/Summer12_DR53X-PU_S10_START53_V7A-v1/AODSIM/PAT_CMG_V5_16_0'
p353
ssS'GenerateMask'
p354
(dp355
g3
(dp356
VPathList
p357
(lp358
V/store/cmst3/group/cmgtools/CMG/GluGluToHToTauTau_M-120_8TeV-powheg-pythia6/Summer12_DR53X-PU_S10_START53_V7A-v1/AODSIM/PAT_CMG_V5_16_0
p359
asVStageHost
p360
Vcastorcms
p361
sVPrimaryDatasetFraction
p362
F0.99692593009666253
sVFilesGood
p363
I499
sVPrimaryDatasetEntries
p364
I4999561
sVReportVersion
p365
I3
sVFiles
p366
(dp367
V/store/cmst3/group/cmgtools/CMG/GluGluToHToTauTau_M-120_8TeV-powheg-pythia6/Summer12_DR53X-PU_S10_START53_V7A-v1/AODSIM/PAT_CMG_V5_16_0/cmgTuple_203_1_yQ3.root
p368
(lp369
I01
aI10000
asV/store/cmst3/group/cmgtools/CMG/GluGluToHToTauTau_M-120_8TeV-powheg-pythia6/Summer12_DR53X-PU_S10_START53_V7A-v1/AODSIM/PAT_CMG_V5_16_0/cmgTuple_49_1_jj6.root
p370
(lp371
I01
aI10000
asV/store/cmst3/group/cmgtools/CMG/GluGluToHToTauTau_M-120_8TeV-powheg-pythia6/Summer12_DR53X-PU_S10_START53_V7A-v1/AODSIM/PAT_CMG_V5_16_0/cmgTuple_162_1_sqj.root
p372
(lp373
I01
aI10000
asV/store/cmst3/group/cmgtools/CMG/GluGluToHToTauTau_M-120_8TeV-powheg-pythia6/Summer12_DR53X-PU_S10_START53_V7A-v1/AODSIM/PAT_CMG_V5_16_0/cmgTuple_276_1_uPT.root
p374
(lp375
I01
aI10000
asV/store/cmst3/group/cmgtools/CMG/GluGluToHToTauTau_M-120_8TeV-powheg-pythia6/Summer12_DR53X-PU_S10_START53_V7A-v1/AODSIM/PAT_CMG_V5_16_0/cmgTuple_464_1_Qtu.root
p376
(lp377
I01
aI8792
asV/store/cmst3/group/cmgtools/CMG/GluGluToHToTauTau_M-120_8TeV-powheg-pythia6/Summer12_DR53X-PU_S10_START53_V7A-v1/AODSIM/PAT_CMG_V5_16_0/cmgTuple_327_1_nOb.root
p378
(lp379
I01
aI10000
asV/store/cmst3/group/cmgtools/CMG/GluGluToHToTauTau_M-120_8TeV-powheg-pythia6/Summer12_DR53X-PU_S10_START53_V7A-v1/AODSIM/PAT_CMG_V5_16_0/cmgTuple_337_1_Ty7.root
p380
(lp381
I01
aI10000
asV/store/cmst3/group/cmgtools/CMG/GluGluToHToTauTau_M-120_8TeV-powheg-pythia6/Summer12_DR53X-PU_S10_START53_V7A-v1/AODSIM/PAT_CMG_V5_16_0/cmgTuple_235_1_sEH.root
p382
(lp383
I01
aI10000
asV/store/cmst3/group/cmgtools/CMG/GluGluToHToTauTau_M-120_8TeV-powheg-pythia6/Summer12_DR53X-PU_S10_START53_V7A-v1/AODSIM/PAT_CMG_V5_16_0/cmgTuple_481_1_DbC.root
p384
(lp385
I01
aI10000
asV/store/cmst3/group/cmgtools/CMG/GluGluToHToTauTau_M-120_8TeV-powheg-pythia6/Summer12_DR53X-PU_S10_START53_V7A-v1/AODSIM/PAT_CMG_V5_16_0/cmgTuple_311_1_pRn.root
p386
(lp387
I01
aI10000
asV/store/cmst3/group/cmgtools/CMG/GluGluToHToTauTau_M-120_8TeV-powheg-pythia6/Summer12_DR53X-PU_S10_START53_V7A-v1/AODSIM/PAT_CMG_V5_16_0/cmgTuple_193_1_mJy.root
p388
(lp389
I01
aI10000
asV/store/cmst3/group/cmgtools/CMG/GluGluToHToTauTau_M-120_8TeV-powheg-pythia6/Summer12_DR53X-PU_S10_START53_V7A-v1/AODSIM/PAT_CMG_V5_16_0/cmgTuple_244_1_TQY.root
p390
(lp391
I01
aI10000
asV/store/cmst3/group/cmgtools/CMG/GluGluToHToTauTau_M-120_8TeV-powheg-pythia6/Summer12_DR53X-PU_S10_START53_V7A-v1/AODSIM/PAT_CMG_V5_16_0/cmgTuple_437_1_7Uc.root
p392
(lp393
I01
aI10000
asV/store/cmst3/group/cmgtools/CMG/GluGluToHToTauTau_M-120_8TeV-powheg-pythia6/Summer12_DR53X-PU_S10_START53_V7A-v1/AODSIM/PAT_CMG_V5_16_0/cmgTuple_345_1_pHv.root
p394
(lp395
I01
aI10000
asV/store/cmst3/group/cmgtools/CMG/GluGluToHToTauTau_M-120_8TeV-powheg-pythia6/Summer12_DR53X-PU_S10_START53_V7A-v1/AODSIM/PAT_CMG_V5_16_0/cmgTuple_370_1_3r6.root
p396
(lp397
I01
aI10000
asV/store/cmst3/group/cmgtools/CMG/GluGluToHToTauTau_M-120_8TeV-powheg-pythia6/Summer12_DR53X-PU_S10_START53_V7A-v1/AODSIM/PAT_CMG_V5_16_0/cmgTuple_480_1_cWq.root
p398
(lp399
I01
aI10000
asV/store/cmst3/group/cmgtools/CMG/GluGluToHToTauTau_M-120_8TeV-powheg-pythia6/Summer12_DR53X-PU_S10_START53_V7A-v1/AODSIM/PAT_CMG_V5_16_0/cmgTuple_280_1_mYB.root
p400
(lp401
I01
aI10000
asV/store/cmst3/group/cmgtools/CMG/GluGluToHToTauTau_M-120_8TeV-powheg-pythia6/Summer12_DR53X-PU_S10_START53_V7A-v1/AODSIM/PAT_CMG_V5_16_0/cmgTuple_164_1_kvZ.root
p402
(lp403
I01
aI10000
asV/store/cmst3/group/cmgtools/CMG/GluGluToHToTauTau_M-120_8TeV-powheg-pythia6/Summer12_DR53X-PU_S10_START53_V7A-v1/AODSIM/PAT_CMG_V5_16_0/cmgTuple_297_1_KdF.root
p404
(lp405
I01
aI10000
asV/store/cmst3/group/cmgtools/CMG/GluGluToHToTauTau_M-120_8TeV-powheg-pythia6/Summer12_DR53X-PU_S10_START53_V7A-v1/AODSIM/PAT_CMG_V5_16_0/cmgTuple_357_1_ld4.root
p406
(lp407
I01
aI10000
asV/store/cmst3/group/cmgtools/CMG/GluGluToHToTauTau_M-120_8TeV-powheg-pythia6/Summer12_DR53X-PU_S10_START53_V7A-v1/AODSIM/PAT_CMG_V5_16_0/cmgTuple_496_1_eU3.root
p408
(lp409
I01
aI10000
asV/store/cmst3/group/cmgtools/CMG/GluGluToHToTauTau_M-120_8TeV-powheg-pythia6/Summer12_DR53X-PU_S10_START53_V7A-v1/AODSIM/PAT_CMG_V5_16_0/cmgTuple_342_1_u0U.root
p410
(lp411
I01
aI10000
asV/store/cmst3/group/cmgtools/CMG/GluGluToHToTauTau_M-120_8TeV-powheg-pythia6/Summer12_DR53X-PU_S10_START53_V7A-v1/AODSIM/PAT_CMG_V5_16_0/cmgTuple_86_1_64g.root
p412
(lp413
I01
aI10000
asV/store/cmst3/group/cmgtools/CMG/GluGluToHToTauTau_M-120_8TeV-powheg-pythia6/Summer12_DR53X-PU_S10_START53_V7A-v1/AODSIM/PAT_CMG_V5_16_0/cmgTuple_272_1_oSP.root
p414
(lp415
I01
aI10000
asV/store/cmst3/group/cmgtools/CMG/GluGluToHToTauTau_M-120_8TeV-powheg-pythia6/Summer12_DR53X-PU_S10_START53_V7A-v1/AODSIM/PAT_CMG_V5_16_0/cmgTuple_367_1_5rt.root
p416
(lp417
I01
aI10000
asV/store/cmst3/group/cmgtools/CMG/GluGluToHToTauTau_M-120_8TeV-powheg-pythia6/Summer12_DR53X-PU_S10_START53_V7A-v1/AODSIM/PAT_CMG_V5_16_0/cmgTuple_361_1_FWk.root
p418
(lp419
I01
aI10000
asV/store/cmst3/group/cmgtools/CMG/GluGluToHToTauTau_M-120_8TeV-powheg-pythia6/Summer12_DR53X-PU_S10_START53_V7A-v1/AODSIM/PAT_CMG_V5_16_0/cmgTuple_230_1_MbF.root
p420
(lp421
I01
aI10000
asV/store/cmst3/group/cmgtools/CMG/GluGluToHToTauTau_M-120_8TeV-powheg-pythia6/Summer12_DR53X-PU_S10_START53_V7A-v1/AODSIM/PAT_CMG_V5_16_0/cmgTuple_222_1_bQf.root
p422
(lp423
I01
aI10000
asV/store/cmst3/group/cmgtools/CMG/GluGluToHToTauTau_M-120_8TeV-powheg-pythia6/Summer12_DR53X-PU_S10_START53_V7A-v1/AODSIM/PAT_CMG_V5_16_0/cmgTuple_211_1_7WP.root
p424
(lp425
I01
aI10000
asV/store/cmst3/group/cmgtools/CMG/GluGluToHToTauTau_M-120_8TeV-powheg-pythia6/Summer12_DR53X-PU_S10_START53_V7A-v1/AODSIM/PAT_CMG_V5_16_0/cmgTuple_431_1_zYI.root
p426
(lp427
I01
aI10000
asV/store/cmst3/group/cmgtools/CMG/GluGluToHToTauTau_M-120_8TeV-powheg-pythia6/Summer12_DR53X-PU_S10_START53_V7A-v1/AODSIM/PAT_CMG_V5_16_0/cmgTuple_310_1_6pC.root
p428
(lp429
I01
aI10000
asV/store/cmst3/group/cmgtools/CMG/GluGluToHToTauTau_M-120_8TeV-powheg-pythia6/Summer12_DR53X-PU_S10_START53_V7A-v1/AODSIM/PAT_CMG_V5_16_0/cmgTuple_476_1_AaR.root
p430
(lp431
I01
aI10000
asV/store/cmst3/group/cmgtools/CMG/GluGluToHToTauTau_M-120_8TeV-powheg-pythia6/Summer12_DR53X-PU_S10_START53_V7A-v1/AODSIM/PAT_CMG_V5_16_0/cmgTuple_376_1_Crc.root
p432
(lp433
I01
aI10000
asV/store/cmst3/group/cmgtools/CMG/GluGluToHToTauTau_M-120_8TeV-powheg-pythia6/Summer12_DR53X-PU_S10_START53_V7A-v1/AODSIM/PAT_CMG_V5_16_0/cmgTuple_493_1_TaN.root
p434
(lp435
I01
aI10000
asV/store/cmst3/group/cmgtools/CMG/GluGluToHToTauTau_M-120_8TeV-powheg-pythia6/Summer12_DR53X-PU_S10_START53_V7A-v1/AODSIM/PAT_CMG_V5_16_0/cmgTuple_166_1_Qpt.root
p436
(lp437
I01
aI10000
asV/store/cmst3/group/cmgtools/CMG/GluGluToHToTauTau_M-120_8TeV-powheg-pythia6/Summer12_DR53X-PU_S10_START53_V7A-v1/AODSIM/PAT_CMG_V5_16_0/cmgTuple_360_1_2sG.root
p438
(lp439
I01
aI10000
asV/store/cmst3/group/cmgtools/CMG/GluGluToHToTauTau_M-120_8TeV-powheg-pythia6/Summer12_DR53X-PU_S10_START53_V7A-v1/AODSIM/PAT_CMG_V5_16_0/cmgTuple_47_1_6VC.root
p440
(lp441
I01
aI10000
asV/store/cmst3/group/cmgtools/CMG/GluGluToHToTauTau_M-120_8TeV-powheg-pythia6/Summer12_DR53X-PU_S10_START53_V7A-v1/AODSIM/PAT_CMG_V5_16_0/cmgTuple_484_1_hwM.root
p442
(lp443
I01
aI10000
asV/store/cmst3/group/cmgtools/CMG/GluGluToHToTauTau_M-120_8TeV-powheg-pythia6/Summer12_DR53X-PU_S10_START53_V7A-v1/AODSIM/PAT_CMG_V5_16_0/cmgTuple_261_1_Va1.root
p444
(lp445
I01
aI10000
asV/store/cmst3/group/cmgtools/CMG/GluGluToHToTauTau_M-120_8TeV-powheg-pythia6/Summer12_DR53X-PU_S10_START53_V7A-v1/AODSIM/PAT_CMG_V5_16_0/cmgTuple_426_1_l87.root
p446
(lp447
I01
aI10000
asV/store/cmst3/group/cmgtools/CMG/GluGluToHToTauTau_M-120_8TeV-powheg-pythia6/Summer12_DR53X-PU_S10_START53_V7A-v1/AODSIM/PAT_CMG_V5_16_0/cmgTuple_429_1_KgL.root
p448
(lp449
I01
aI10000
asV/store/cmst3/group/cmgtools/CMG/GluGluToHToTauTau_M-120_8TeV-powheg-pythia6/Summer12_DR53X-PU_S10_START53_V7A-v1/AODSIM/PAT_CMG_V5_16_0/cmgTuple_448_1_jNF.root
p450
(lp451
I01
aI10000
asV/store/cmst3/group/cmgtools/CMG/GluGluToHToTauTau_M-120_8TeV-powheg-pythia6/Summer12_DR53X-PU_S10_START53_V7A-v1/AODSIM/PAT_CMG_V5_16_0/cmgTuple_136_1_jOK.root
p452
(lp453
I01
aI10000
asV/store/cmst3/group/cmgtools/CMG/GluGluToHToTauTau_M-120_8TeV-powheg-pythia6/Summer12_DR53X-PU_S10_START53_V7A-v1/AODSIM/PAT_CMG_V5_16_0/cmgTuple_99_1_vYe.root
p454
(lp455
I01
aI10000
asV/store/cmst3/group/cmgtools/CMG/GluGluToHToTauTau_M-120_8TeV-powheg-pythia6/Summer12_DR53X-PU_S10_START53_V7A-v1/AODSIM/PAT_CMG_V5_16_0/cmgTuple_458_1_NA9.root
p456
(lp457
I01
aI10000
asV/store/cmst3/group/cmgtools/CMG/GluGluToHToTauTau_M-120_8TeV-powheg-pythia6/Summer12_DR53X-PU_S10_START53_V7A-v1/AODSIM/PAT_CMG_V5_16_0/cmgTuple_368_1_ac4.root
p458
(lp459
I01
aI10000
asV/store/cmst3/group/cmgtools/CMG/GluGluToHToTauTau_M-120_8TeV-powheg-pythia6/Summer12_DR53X-PU_S10_START53_V7A-v1/AODSIM/PAT_CMG_V5_16_0/cmgTuple_255_1_JLb.root
p460
(lp461
I01
aI10000
asV/store/cmst3/group/cmgtools/CMG/GluGluToHToTauTau_M-120_8TeV-powheg-pythia6/Summer12_DR53X-PU_S10_START53_V7A-v1/AODSIM/PAT_CMG_V5_16_0/cmgTuple_7_1_cD3.root
p462
(lp463
I01
aI10000
asV/store/cmst3/group/cmgtools/CMG/GluGluToHToTauTau_M-120_8TeV-powheg-pythia6/Summer12_DR53X-PU_S10_START53_V7A-v1/AODSIM/PAT_CMG_V5_16_0/cmgTuple_300_1_oT1.root
p464
(lp465
I01
aI10000
asV/store/cmst3/group/cmgtools/CMG/GluGluToHToTauTau_M-120_8TeV-powheg-pythia6/Summer12_DR53X-PU_S10_START53_V7A-v1/AODSIM/PAT_CMG_V5_16_0/cmgTuple_482_1_LGP.root
p466
(lp467
I01
aI10000
asV/store/cmst3/group/cmgtools/CMG/GluGluToHToTauTau_M-120_8TeV-powheg-pythia6/Summer12_DR53X-PU_S10_START53_V7A-v1/AODSIM/PAT_CMG_V5_16_0/cmgTuple_158_1_mw7.root
p468
(lp469
I01
aI10000
asV/store/cmst3/group/cmgtools/CMG/GluGluToHToTauTau_M-120_8TeV-powheg-pythia6/Summer12_DR53X-PU_S10_START53_V7A-v1/AODSIM/PAT_CMG_V5_16_0/cmgTuple_265_1_Ri1.root
p470
(lp471
I01
aI10000
asV/store/cmst3/group/cmgtools/CMG/GluGluToHToTauTau_M-120_8TeV-powheg-pythia6/Summer12_DR53X-PU_S10_START53_V7A-v1/AODSIM/PAT_CMG_V5_16_0/cmgTuple_29_1_3vP.root
p472
(lp473
I01
aI10000
asV/store/cmst3/group/cmgtools/CMG/GluGluToHToTauTau_M-120_8TeV-powheg-pythia6/Summer12_DR53X-PU_S10_START53_V7A-v1/AODSIM/PAT_CMG_V5_16_0/cmgTuple_153_1_K4J.root
p474
(lp475
I01
aI10000
asV/store/cmst3/group/cmgtools/CMG/GluGluToHToTauTau_M-120_8TeV-powheg-pythia6/Summer12_DR53X-PU_S10_START53_V7A-v1/AODSIM/PAT_CMG_V5_16_0/cmgTuple_138_1_gxs.root
p476
(lp477
I01
aI10000
asV/store/cmst3/group/cmgtools/CMG/GluGluToHToTauTau_M-120_8TeV-powheg-pythia6/Summer12_DR53X-PU_S10_START53_V7A-v1/AODSIM/PAT_CMG_V5_16_0/cmgTuple_24_1_Phj.root
p478
(lp479
I01
aI10000
asV/store/cmst3/group/cmgtools/CMG/GluGluToHToTauTau_M-120_8TeV-powheg-pythia6/Summer12_DR53X-PU_S10_START53_V7A-v1/AODSIM/PAT_CMG_V5_16_0/cmgTuple_26_1_P8G.root
p480
(lp481
I01
aI10000
asV/store/cmst3/group/cmgtools/CMG/GluGluToHToTauTau_M-120_8TeV-powheg-pythia6/Summer12_DR53X-PU_S10_START53_V7A-v1/AODSIM/PAT_CMG_V5_16_0/cmgTuple_472_1_UVy.root
p482
(lp483
I01
aI10000
asV/store/cmst3/group/cmgtools/CMG/GluGluToHToTauTau_M-120_8TeV-powheg-pythia6/Summer12_DR53X-PU_S10_START53_V7A-v1/AODSIM/PAT_CMG_V5_16_0/cmgTuple_2_1_aRW.root
p484
(lp485
I01
aI10000
asV/store/cmst3/group/cmgtools/CMG/GluGluToHToTauTau_M-120_8TeV-powheg-pythia6/Summer12_DR53X-PU_S10_START53_V7A-v1/AODSIM/PAT_CMG_V5_16_0/cmgTuple_318_1_Utk.root
p486
(lp487
I01
aI10000
asV/store/cmst3/group/cmgtools/CMG/GluGluToHToTauTau_M-120_8TeV-powheg-pythia6/Summer12_DR53X-PU_S10_START53_V7A-v1/AODSIM/PAT_CMG_V5_16_0/cmgTuple_271_1_eKs.root
p488
(lp489
I01
aI10000
asV/store/cmst3/group/cmgtools/CMG/GluGluToHToTauTau_M-120_8TeV-powheg-pythia6/Summer12_DR53X-PU_S10_START53_V7A-v1/AODSIM/PAT_CMG_V5_16_0/cmgTuple_198_1_mu4.root
p490
(lp491
I01
aI10000
asV/store/cmst3/group/cmgtools/CMG/GluGluToHToTauTau_M-120_8TeV-powheg-pythia6/Summer12_DR53X-PU_S10_START53_V7A-v1/AODSIM/PAT_CMG_V5_16_0/cmgTuple_62_1_APX.root
p492
(lp493
I01
aI10000
asV/store/cmst3/group/cmgtools/CMG/GluGluToHToTauTau_M-120_8TeV-powheg-pythia6/Summer12_DR53X-PU_S10_START53_V7A-v1/AODSIM/PAT_CMG_V5_16_0/cmgTuple_109_1_ctV.root
p494
(lp495
I01
aI10000
asV/store/cmst3/group/cmgtools/CMG/GluGluToHToTauTau_M-120_8TeV-powheg-pythia6/Summer12_DR53X-PU_S10_START53_V7A-v1/AODSIM/PAT_CMG_V5_16_0/cmgTuple_59_1_akO.root
p496
(lp497
I01
aI10000
asV/store/cmst3/group/cmgtools/CMG/GluGluToHToTauTau_M-120_8TeV-powheg-pythia6/Summer12_DR53X-PU_S10_START53_V7A-v1/AODSIM/PAT_CMG_V5_16_0/cmgTuple_418_1_oEe.root
p498
(lp499
I01
aI10000
asV/store/cmst3/group/cmgtools/CMG/GluGluToHToTauTau_M-120_8TeV-powheg-pythia6/Summer12_DR53X-PU_S10_START53_V7A-v1/AODSIM/PAT_CMG_V5_16_0/cmgTuple_412_1_VHF.root
p500
(lp501
I01
aI10000
asV/store/cmst3/group/cmgtools/CMG/GluGluToHToTauTau_M-120_8TeV-powheg-pythia6/Summer12_DR53X-PU_S10_START53_V7A-v1/AODSIM/PAT_CMG_V5_16_0/cmgTuple_254_1_D7e.root
p502
(lp503
I01
aI10000
asV/store/cmst3/group/cmgtools/CMG/GluGluToHToTauTau_M-120_8TeV-powheg-pythia6/Summer12_DR53X-PU_S10_START53_V7A-v1/AODSIM/PAT_CMG_V5_16_0/cmgTuple_199_1_7Cf.root
p504
(lp505
I01
aI10000
asV/store/cmst3/group/cmgtools/CMG/GluGluToHToTauTau_M-120_8TeV-powheg-pythia6/Summer12_DR53X-PU_S10_START53_V7A-v1/AODSIM/PAT_CMG_V5_16_0/cmgTuple_173_1_yPy.root
p506
(lp507
I01
aI10000
asV/store/cmst3/group/cmgtools/CMG/GluGluToHToTauTau_M-120_8TeV-powheg-pythia6/Summer12_DR53X-PU_S10_START53_V7A-v1/AODSIM/PAT_CMG_V5_16_0/cmgTuple_242_1_YEr.root
p508
(lp509
I01
aI10000
asV/store/cmst3/group/cmgtools/CMG/GluGluToHToTauTau_M-120_8TeV-powheg-pythia6/Summer12_DR53X-PU_S10_START53_V7A-v1/AODSIM/PAT_CMG_V5_16_0/cmgTuple_174_1_m8K.root
p510
(lp511
I01
aI10000
asV/store/cmst3/group/cmgtools/CMG/GluGluToHToTauTau_M-120_8TeV-powheg-pythia6/Summer12_DR53X-PU_S10_START53_V7A-v1/AODSIM/PAT_CMG_V5_16_0/cmgTuple_77_1_ABY.root
p512
(lp513
I01
aI10000
asV/store/cmst3/group/cmgtools/CMG/GluGluToHToTauTau_M-120_8TeV-powheg-pythia6/Summer12_DR53X-PU_S10_START53_V7A-v1/AODSIM/PAT_CMG_V5_16_0/cmgTuple_313_1_QOx.root
p514
(lp515
I01
aI10000
asV/store/cmst3/group/cmgtools/CMG/GluGluToHToTauTau_M-120_8TeV-powheg-pythia6/Summer12_DR53X-PU_S10_START53_V7A-v1/AODSIM/PAT_CMG_V5_16_0/cmgTuple_111_1_7Kg.root
p516
(lp517
I01
aI10000
asV/store/cmst3/group/cmgtools/CMG/GluGluToHToTauTau_M-120_8TeV-powheg-pythia6/Summer12_DR53X-PU_S10_START53_V7A-v1/AODSIM/PAT_CMG_V5_16_0/cmgTuple_369_1_2np.root
p518
(lp519
I01
aI10000
asV/store/cmst3/group/cmgtools/CMG/GluGluToHToTauTau_M-120_8TeV-powheg-pythia6/Summer12_DR53X-PU_S10_START53_V7A-v1/AODSIM/PAT_CMG_V5_16_0/cmgTuple_218_1_FQh.root
p520
(lp521
I01
aI10000
asV/store/cmst3/group/cmgtools/CMG/GluGluToHToTauTau_M-120_8TeV-powheg-pythia6/Summer12_DR53X-PU_S10_START53_V7A-v1/AODSIM/PAT_CMG_V5_16_0/cmgTuple_288_1_4pR.root
p522
(lp523
I01
aI10000
asV/store/cmst3/group/cmgtools/CMG/GluGluToHToTauTau_M-120_8TeV-powheg-pythia6/Summer12_DR53X-PU_S10_START53_V7A-v1/AODSIM/PAT_CMG_V5_16_0/cmgTuple_445_1_6qO.root
p524
(lp525
I01
aI10000
asV/store/cmst3/group/cmgtools/CMG/GluGluToHToTauTau_M-120_8TeV-powheg-pythia6/Summer12_DR53X-PU_S10_START53_V7A-v1/AODSIM/PAT_CMG_V5_16_0/cmgTuple_463_1_9ps.root
p526
(lp527
I01
aI10000
asV/store/cmst3/group/cmgtools/CMG/GluGluToHToTauTau_M-120_8TeV-powheg-pythia6/Summer12_DR53X-PU_S10_START53_V7A-v1/AODSIM/PAT_CMG_V5_16_0/cmgTuple_83_1_G89.root
p528
(lp529
I01
aI10000
asV/store/cmst3/group/cmgtools/CMG/GluGluToHToTauTau_M-120_8TeV-powheg-pythia6/Summer12_DR53X-PU_S10_START53_V7A-v1/AODSIM/PAT_CMG_V5_16_0/cmgTuple_34_1_HzS.root
p530
(lp531
I01
aI10000
asV/store/cmst3/group/cmgtools/CMG/GluGluToHToTauTau_M-120_8TeV-powheg-pythia6/Summer12_DR53X-PU_S10_START53_V7A-v1/AODSIM/PAT_CMG_V5_16_0/cmgTuple_57_1_9NM.root
p532
(lp533
I01
aI10000
asV/store/cmst3/group/cmgtools/CMG/GluGluToHToTauTau_M-120_8TeV-powheg-pythia6/Summer12_DR53X-PU_S10_START53_V7A-v1/AODSIM/PAT_CMG_V5_16_0/cmgTuple_320_1_YOP.root
p534
(lp535
I01
aI10000
asV/store/cmst3/group/cmgtools/CMG/GluGluToHToTauTau_M-120_8TeV-powheg-pythia6/Summer12_DR53X-PU_S10_START53_V7A-v1/AODSIM/PAT_CMG_V5_16_0/cmgTuple_434_1_YVd.root
p536
(lp537
I01
aI10000
asV/store/cmst3/group/cmgtools/CMG/GluGluToHToTauTau_M-120_8TeV-powheg-pythia6/Summer12_DR53X-PU_S10_START53_V7A-v1/AODSIM/PAT_CMG_V5_16_0/cmgTuple_157_1_dXX.root
p538
(lp539
I01
aI10000
asV/store/cmst3/group/cmgtools/CMG/GluGluToHToTauTau_M-120_8TeV-powheg-pythia6/Summer12_DR53X-PU_S10_START53_V7A-v1/AODSIM/PAT_CMG_V5_16_0/cmgTuple_195_1_rK8.root
p540
(lp541
I01
aI10000
asV/store/cmst3/group/cmgtools/CMG/GluGluToHToTauTau_M-120_8TeV-powheg-pythia6/Summer12_DR53X-PU_S10_START53_V7A-v1/AODSIM/PAT_CMG_V5_16_0/cmgTuple_390_1_DW8.root
p542
(lp543
I01
aI10000
asV/store/cmst3/group/cmgtools/CMG/GluGluToHToTauTau_M-120_8TeV-powheg-pythia6/Summer12_DR53X-PU_S10_START53_V7A-v1/AODSIM/PAT_CMG_V5_16_0/cmgTuple_122_1_1wo.root
p544
(lp545
I01
aI10000
asV/store/cmst3/group/cmgtools/CMG/GluGluToHToTauTau_M-120_8TeV-powheg-pythia6/Summer12_DR53X-PU_S10_START53_V7A-v1/AODSIM/PAT_CMG_V5_16_0/cmgTuple_186_1_ZHG.root
p546
(lp547
I01
aI10000
asV/store/cmst3/group/cmgtools/CMG/GluGluToHToTauTau_M-120_8TeV-powheg-pythia6/Summer12_DR53X-PU_S10_START53_V7A-v1/AODSIM/PAT_CMG_V5_16_0/cmgTuple_125_1_ASD.root
p548
(lp549
I01
aI10000
asV/store/cmst3/group/cmgtools/CMG/GluGluToHToTauTau_M-120_8TeV-powheg-pythia6/Summer12_DR53X-PU_S10_START53_V7A-v1/AODSIM/PAT_CMG_V5_16_0/cmgTuple_470_1_hz6.root
p550
(lp551
I01
aI10000
asV/store/cmst3/group/cmgtools/CMG/GluGluToHToTauTau_M-120_8TeV-powheg-pythia6/Summer12_DR53X-PU_S10_START53_V7A-v1/AODSIM/PAT_CMG_V5_16_0/cmgTuple_391_1_7Fc.root
p552
(lp553
I01
aI10000
asV/store/cmst3/group/cmgtools/CMG/GluGluToHToTauTau_M-120_8TeV-powheg-pythia6/Summer12_DR53X-PU_S10_START53_V7A-v1/AODSIM/PAT_CMG_V5_16_0/cmgTuple_395_1_zJv.root
p554
(lp555
I01
aI10000
asV/store/cmst3/group/cmgtools/CMG/GluGluToHToTauTau_M-120_8TeV-powheg-pythia6/Summer12_DR53X-PU_S10_START53_V7A-v1/AODSIM/PAT_CMG_V5_16_0/cmgTuple_325_1_Rzk.root
p556
(lp557
I01
aI10000
asV/store/cmst3/group/cmgtools/CMG/GluGluToHToTauTau_M-120_8TeV-powheg-pythia6/Summer12_DR53X-PU_S10_START53_V7A-v1/AODSIM/PAT_CMG_V5_16_0/cmgTuple_353_1_f6t.root
p558
(lp559
I01
aI10000
asV/store/cmst3/group/cmgtools/CMG/GluGluToHToTauTau_M-120_8TeV-powheg-pythia6/Summer12_DR53X-PU_S10_START53_V7A-v1/AODSIM/PAT_CMG_V5_16_0/cmgTuple_234_1_Keo.root
p560
(lp561
I01
aI10000
asV/store/cmst3/group/cmgtools/CMG/GluGluToHToTauTau_M-120_8TeV-powheg-pythia6/Summer12_DR53X-PU_S10_START53_V7A-v1/AODSIM/PAT_CMG_V5_16_0/cmgTuple_95_1_meb.root
p562
(lp563
I01
aI10000
asV/store/cmst3/group/cmgtools/CMG/GluGluToHToTauTau_M-120_8TeV-powheg-pythia6/Summer12_DR53X-PU_S10_START53_V7A-v1/AODSIM/PAT_CMG_V5_16_0/cmgTuple_241_1_41E.root
p564
(lp565
I01
aI10000
asV/store/cmst3/group/cmgtools/CMG/GluGluToHToTauTau_M-120_8TeV-powheg-pythia6/Summer12_DR53X-PU_S10_START53_V7A-v1/AODSIM/PAT_CMG_V5_16_0/cmgTuple_398_1_LeE.root
p566
(lp567
I01
aI10000
asV/store/cmst3/group/cmgtools/CMG/GluGluToHToTauTau_M-120_8TeV-powheg-pythia6/Summer12_DR53X-PU_S10_START53_V7A-v1/AODSIM/PAT_CMG_V5_16_0/cmgTuple_433_1_UN9.root
p568
(lp569
I01
aI10000
asV/store/cmst3/group/cmgtools/CMG/GluGluToHToTauTau_M-120_8TeV-powheg-pythia6/Summer12_DR53X-PU_S10_START53_V7A-v1/AODSIM/PAT_CMG_V5_16_0/cmgTuple_56_1_7PF.root
p570
(lp571
I01
aI10000
asV/store/cmst3/group/cmgtools/CMG/GluGluToHToTauTau_M-120_8TeV-powheg-pythia6/Summer12_DR53X-PU_S10_START53_V7A-v1/AODSIM/PAT_CMG_V5_16_0/cmgTuple_488_1_KMm.root
p572
(lp573
I01
aI10000
asV/store/cmst3/group/cmgtools/CMG/GluGluToHToTauTau_M-120_8TeV-powheg-pythia6/Summer12_DR53X-PU_S10_START53_V7A-v1/AODSIM/PAT_CMG_V5_16_0/cmgTuple_380_1_5hV.root
p574
(lp575
I01
aI10000
asV/store/cmst3/group/cmgtools/CMG/GluGluToHToTauTau_M-120_8TeV-powheg-pythia6/Summer12_DR53X-PU_S10_START53_V7A-v1/AODSIM/PAT_CMG_V5_16_0/cmgTuple_282_1_G4B.root
p576
(lp577
I01
aI10000
asV/store/cmst3/group/cmgtools/CMG/GluGluToHToTauTau_M-120_8TeV-powheg-pythia6/Summer12_DR53X-PU_S10_START53_V7A-v1/AODSIM/PAT_CMG_V5_16_0/cmgTuple_340_1_IRf.root
p578
(lp579
I01
aI10000
asV/store/cmst3/group/cmgtools/CMG/GluGluToHToTauTau_M-120_8TeV-powheg-pythia6/Summer12_DR53X-PU_S10_START53_V7A-v1/AODSIM/PAT_CMG_V5_16_0/cmgTuple_227_1_TGm.root
p580
(lp581
I01
aI10000
asV/store/cmst3/group/cmgtools/CMG/GluGluToHToTauTau_M-120_8TeV-powheg-pythia6/Summer12_DR53X-PU_S10_START53_V7A-v1/AODSIM/PAT_CMG_V5_16_0/cmgTuple_301_1_K4w.root
p582
(lp583
I01
aI10000
asV/store/cmst3/group/cmgtools/CMG/GluGluToHToTauTau_M-120_8TeV-powheg-pythia6/Summer12_DR53X-PU_S10_START53_V7A-v1/AODSIM/PAT_CMG_V5_16_0/cmgTuple_32_1_pK1.root
p584
(lp585
I01
aI10000
asV/store/cmst3/group/cmgtools/CMG/GluGluToHToTauTau_M-120_8TeV-powheg-pythia6/Summer12_DR53X-PU_S10_START53_V7A-v1/AODSIM/PAT_CMG_V5_16_0/cmgTuple_397_1_82q.root
p586
(lp587
I01
aI10000
asV/store/cmst3/group/cmgtools/CMG/GluGluToHToTauTau_M-120_8TeV-powheg-pythia6/Summer12_DR53X-PU_S10_START53_V7A-v1/AODSIM/PAT_CMG_V5_16_0/cmgTuple_413_1_Lko.root
p588
(lp589
I01
aI10000
asV/store/cmst3/group/cmgtools/CMG/GluGluToHToTauTau_M-120_8TeV-powheg-pythia6/Summer12_DR53X-PU_S10_START53_V7A-v1/AODSIM/PAT_CMG_V5_16_0/cmgTuple_411_1_iMo.root
p590
(lp591
I01
aI10000
asV/store/cmst3/group/cmgtools/CMG/GluGluToHToTauTau_M-120_8TeV-powheg-pythia6/Summer12_DR53X-PU_S10_START53_V7A-v1/AODSIM/PAT_CMG_V5_16_0/cmgTuple_80_1_ZIM.root
p592
(lp593
I01
aI10000
asV/store/cmst3/group/cmgtools/CMG/GluGluToHToTauTau_M-120_8TeV-powheg-pythia6/Summer12_DR53X-PU_S10_START53_V7A-v1/AODSIM/PAT_CMG_V5_16_0/cmgTuple_145_1_cFf.root
p594
(lp595
I01
aI10000
asV/store/cmst3/group/cmgtools/CMG/GluGluToHToTauTau_M-120_8TeV-powheg-pythia6/Summer12_DR53X-PU_S10_START53_V7A-v1/AODSIM/PAT_CMG_V5_16_0/cmgTuple_12_1_Y7T.root
p596
(lp597
I01
aI10000
asV/store/cmst3/group/cmgtools/CMG/GluGluToHToTauTau_M-120_8TeV-powheg-pythia6/Summer12_DR53X-PU_S10_START53_V7A-v1/AODSIM/PAT_CMG_V5_16_0/cmgTuple_139_1_mme.root
p598
(lp599
I01
aI10000
asV/store/cmst3/group/cmgtools/CMG/GluGluToHToTauTau_M-120_8TeV-powheg-pythia6/Summer12_DR53X-PU_S10_START53_V7A-v1/AODSIM/PAT_CMG_V5_16_0/cmgTuple_475_1_nPB.root
p600
(lp601
I01
aI10000
asV/store/cmst3/group/cmgtools/CMG/GluGluToHToTauTau_M-120_8TeV-powheg-pythia6/Summer12_DR53X-PU_S10_START53_V7A-v1/AODSIM/PAT_CMG_V5_16_0/cmgTuple_35_1_bLg.root
p602
(lp603
I01
aI10000
asV/store/cmst3/group/cmgtools/CMG/GluGluToHToTauTau_M-120_8TeV-powheg-pythia6/Summer12_DR53X-PU_S10_START53_V7A-v1/AODSIM/PAT_CMG_V5_16_0/cmgTuple_404_1_FBw.root
p604
(lp605
I01
aI10000
asV/store/cmst3/group/cmgtools/CMG/GluGluToHToTauTau_M-120_8TeV-powheg-pythia6/Summer12_DR53X-PU_S10_START53_V7A-v1/AODSIM/PAT_CMG_V5_16_0/cmgTuple_454_1_jbH.root
p606
(lp607
I01
aI10000
asV/store/cmst3/group/cmgtools/CMG/GluGluToHToTauTau_M-120_8TeV-powheg-pythia6/Summer12_DR53X-PU_S10_START53_V7A-v1/AODSIM/PAT_CMG_V5_16_0/cmgTuple_243_1_aiC.root
p608
(lp609
I01
aI10000
asV/store/cmst3/group/cmgtools/CMG/GluGluToHToTauTau_M-120_8TeV-powheg-pythia6/Summer12_DR53X-PU_S10_START53_V7A-v1/AODSIM/PAT_CMG_V5_16_0/cmgTuple_98_1_o5D.root
p610
(lp611
I01
aI10000
asV/store/cmst3/group/cmgtools/CMG/GluGluToHToTauTau_M-120_8TeV-powheg-pythia6/Summer12_DR53X-PU_S10_START53_V7A-v1/AODSIM/PAT_CMG_V5_16_0/cmgTuple_233_1_okl.root
p612
(lp613
I01
aI10000
asV/store/cmst3/group/cmgtools/CMG/GluGluToHToTauTau_M-120_8TeV-powheg-pythia6/Summer12_DR53X-PU_S10_START53_V7A-v1/AODSIM/PAT_CMG_V5_16_0/cmgTuple_66_1_bW1.root
p614
(lp615
I01
aI10000
asV/store/cmst3/group/cmgtools/CMG/GluGluToHToTauTau_M-120_8TeV-powheg-pythia6/Summer12_DR53X-PU_S10_START53_V7A-v1/AODSIM/PAT_CMG_V5_16_0/cmgTuple_373_1_gl4.root
p616
(lp617
I01
aI10000
asV/store/cmst3/group/cmgtools/CMG/GluGluToHToTauTau_M-120_8TeV-powheg-pythia6/Summer12_DR53X-PU_S10_START53_V7A-v1/AODSIM/PAT_CMG_V5_16_0/cmgTuple_279_1_KeS.root
p618
(lp619
I01
aI10000
asV/store/cmst3/group/cmgtools/CMG/GluGluToHToTauTau_M-120_8TeV-powheg-pythia6/Summer12_DR53X-PU_S10_START53_V7A-v1/AODSIM/PAT_CMG_V5_16_0/cmgTuple_274_1_Ovy.root
p620
(lp621
I01
aI10000
asV/store/cmst3/group/cmgtools/CMG/GluGluToHToTauTau_M-120_8TeV-powheg-pythia6/Summer12_DR53X-PU_S10_START53_V7A-v1/AODSIM/PAT_CMG_V5_16_0/cmgTuple_61_1_dy5.root
p622
(lp623
I01
aI10000
asV/store/cmst3/group/cmgtools/CMG/GluGluToHToTauTau_M-120_8TeV-powheg-pythia6/Summer12_DR53X-PU_S10_START53_V7A-v1/AODSIM/PAT_CMG_V5_16_0/cmgTuple_285_1_0su.root
p624
(lp625
I01
aI10000
asV/store/cmst3/group/cmgtools/CMG/GluGluToHToTauTau_M-120_8TeV-powheg-pythia6/Summer12_DR53X-PU_S10_START53_V7A-v1/AODSIM/PAT_CMG_V5_16_0/cmgTuple_78_1_hHu.root
p626
(lp627
I01
aI10000
asV/store/cmst3/group/cmgtools/CMG/GluGluToHToTauTau_M-120_8TeV-powheg-pythia6/Summer12_DR53X-PU_S10_START53_V7A-v1/AODSIM/PAT_CMG_V5_16_0/cmgTuple_163_1_TtS.root
p628
(lp629
I01
aI10000
asV/store/cmst3/group/cmgtools/CMG/GluGluToHToTauTau_M-120_8TeV-powheg-pythia6/Summer12_DR53X-PU_S10_START53_V7A-v1/AODSIM/PAT_CMG_V5_16_0/cmgTuple_485_1_IlN.root
p630
(lp631
I01
aI10000
asV/store/cmst3/group/cmgtools/CMG/GluGluToHToTauTau_M-120_8TeV-powheg-pythia6/Summer12_DR53X-PU_S10_START53_V7A-v1/AODSIM/PAT_CMG_V5_16_0/cmgTuple_14_1_laT.root
p632
(lp633
I01
aI10000
asV/store/cmst3/group/cmgtools/CMG/GluGluToHToTauTau_M-120_8TeV-powheg-pythia6/Summer12_DR53X-PU_S10_START53_V7A-v1/AODSIM/PAT_CMG_V5_16_0/cmgTuple_465_1_PWu.root
p634
(lp635
I01
aI5400
asV/store/cmst3/group/cmgtools/CMG/GluGluToHToTauTau_M-120_8TeV-powheg-pythia6/Summer12_DR53X-PU_S10_START53_V7A-v1/AODSIM/PAT_CMG_V5_16_0/cmgTuple_79_1_4Ky.root
p636
(lp637
I01
aI10000
asV/store/cmst3/group/cmgtools/CMG/GluGluToHToTauTau_M-120_8TeV-powheg-pythia6/Summer12_DR53X-PU_S10_START53_V7A-v1/AODSIM/PAT_CMG_V5_16_0/cmgTuple_495_1_q74.root
p638
(lp639
I01
aI10000
asV/store/cmst3/group/cmgtools/CMG/GluGluToHToTauTau_M-120_8TeV-powheg-pythia6/Summer12_DR53X-PU_S10_START53_V7A-v1/AODSIM/PAT_CMG_V5_16_0/cmgTuple_46_1_42I.root
p640
(lp641
I01
aI10000
asV/store/cmst3/group/cmgtools/CMG/GluGluToHToTauTau_M-120_8TeV-powheg-pythia6/Summer12_DR53X-PU_S10_START53_V7A-v1/AODSIM/PAT_CMG_V5_16_0/cmgTuple_446_1_Zi8.root
p642
(lp643
I01
aI10000
asV/store/cmst3/group/cmgtools/CMG/GluGluToHToTauTau_M-120_8TeV-powheg-pythia6/Summer12_DR53X-PU_S10_START53_V7A-v1/AODSIM/PAT_CMG_V5_16_0/cmgTuple_245_1_94v.root
p644
(lp645
I01
aI10000
asV/store/cmst3/group/cmgtools/CMG/GluGluToHToTauTau_M-120_8TeV-powheg-pythia6/Summer12_DR53X-PU_S10_START53_V7A-v1/AODSIM/PAT_CMG_V5_16_0/cmgTuple_424_1_F6O.root
p646
(lp647
I01
aI10000
asV/store/cmst3/group/cmgtools/CMG/GluGluToHToTauTau_M-120_8TeV-powheg-pythia6/Summer12_DR53X-PU_S10_START53_V7A-v1/AODSIM/PAT_CMG_V5_16_0/cmgTuple_456_1_87h.root
p648
(lp649
I01
aI10000
asV/store/cmst3/group/cmgtools/CMG/GluGluToHToTauTau_M-120_8TeV-powheg-pythia6/Summer12_DR53X-PU_S10_START53_V7A-v1/AODSIM/PAT_CMG_V5_16_0/cmgTuple_293_1_92l.root
p650
(lp651
I01
aI10000
asV/store/cmst3/group/cmgtools/CMG/GluGluToHToTauTau_M-120_8TeV-powheg-pythia6/Summer12_DR53X-PU_S10_START53_V7A-v1/AODSIM/PAT_CMG_V5_16_0/cmgTuple_455_1_I6T.root
p652
(lp653
I01
aI10000
asV/store/cmst3/group/cmgtools/CMG/GluGluToHToTauTau_M-120_8TeV-powheg-pythia6/Summer12_DR53X-PU_S10_START53_V7A-v1/AODSIM/PAT_CMG_V5_16_0/cmgTuple_459_1_MQK.root
p654
(lp655
I01
aI10000
asV/store/cmst3/group/cmgtools/CMG/GluGluToHToTauTau_M-120_8TeV-powheg-pythia6/Summer12_DR53X-PU_S10_START53_V7A-v1/AODSIM/PAT_CMG_V5_16_0/cmgTuple_308_1_A2Z.root
p656
(lp657
I01
aI10000
asV/store/cmst3/group/cmgtools/CMG/GluGluToHToTauTau_M-120_8TeV-powheg-pythia6/Summer12_DR53X-PU_S10_START53_V7A-v1/AODSIM/PAT_CMG_V5_16_0/cmgTuple_154_1_Xte.root
p658
(lp659
I01
aI10000
asV/store/cmst3/group/cmgtools/CMG/GluGluToHToTauTau_M-120_8TeV-powheg-pythia6/Summer12_DR53X-PU_S10_START53_V7A-v1/AODSIM/PAT_CMG_V5_16_0/cmgTuple_383_1_sl2.root
p660
(lp661
I01
aI10000
asV/store/cmst3/group/cmgtools/CMG/GluGluToHToTauTau_M-120_8TeV-powheg-pythia6/Summer12_DR53X-PU_S10_START53_V7A-v1/AODSIM/PAT_CMG_V5_16_0/cmgTuple_247_1_RwX.root
p662
(lp663
I01
aI10000
asV/store/cmst3/group/cmgtools/CMG/GluGluToHToTauTau_M-120_8TeV-powheg-pythia6/Summer12_DR53X-PU_S10_START53_V7A-v1/AODSIM/PAT_CMG_V5_16_0/cmgTuple_292_1_6kw.root
p664
(lp665
I01
aI10000
asV/store/cmst3/group/cmgtools/CMG/GluGluToHToTauTau_M-120_8TeV-powheg-pythia6/Summer12_DR53X-PU_S10_START53_V7A-v1/AODSIM/PAT_CMG_V5_16_0/cmgTuple_461_1_Dxm.root
p666
(lp667
I01
aI10000
asV/store/cmst3/group/cmgtools/CMG/GluGluToHToTauTau_M-120_8TeV-powheg-pythia6/Summer12_DR53X-PU_S10_START53_V7A-v1/AODSIM/PAT_CMG_V5_16_0/cmgTuple_394_1_AoZ.root
p668
(lp669
I01
aI10000
asV/store/cmst3/group/cmgtools/CMG/GluGluToHToTauTau_M-120_8TeV-powheg-pythia6/Summer12_DR53X-PU_S10_START53_V7A-v1/AODSIM/PAT_CMG_V5_16_0/cmgTuple_6_1_KOf.root
p670
(lp671
I01
aI10000
asV/store/cmst3/group/cmgtools/CMG/GluGluToHToTauTau_M-120_8TeV-powheg-pythia6/Summer12_DR53X-PU_S10_START53_V7A-v1/AODSIM/PAT_CMG_V5_16_0/cmgTuple_403_1_6Ap.root
p672
(lp673
I01
aI10000
asV/store/cmst3/group/cmgtools/CMG/GluGluToHToTauTau_M-120_8TeV-powheg-pythia6/Summer12_DR53X-PU_S10_START53_V7A-v1/AODSIM/PAT_CMG_V5_16_0/cmgTuple_256_1_eAr.root
p674
(lp675
I01
aI10000
asV/store/cmst3/group/cmgtools/CMG/GluGluToHToTauTau_M-120_8TeV-powheg-pythia6/Summer12_DR53X-PU_S10_START53_V7A-v1/AODSIM/PAT_CMG_V5_16_0/cmgTuple_96_1_dYT.root
p676
(lp677
I01
aI10000
asV/store/cmst3/group/cmgtools/CMG/GluGluToHToTauTau_M-120_8TeV-powheg-pythia6/Summer12_DR53X-PU_S10_START53_V7A-v1/AODSIM/PAT_CMG_V5_16_0/cmgTuple_68_1_n1p.root
p678
(lp679
I01
aI10000
asV/store/cmst3/group/cmgtools/CMG/GluGluToHToTauTau_M-120_8TeV-powheg-pythia6/Summer12_DR53X-PU_S10_START53_V7A-v1/AODSIM/PAT_CMG_V5_16_0/cmgTuple_406_1_2p9.root
p680
(lp681
I01
aI10000
asV/store/cmst3/group/cmgtools/CMG/GluGluToHToTauTau_M-120_8TeV-powheg-pythia6/Summer12_DR53X-PU_S10_START53_V7A-v1/AODSIM/PAT_CMG_V5_16_0/cmgTuple_489_1_Ov0.root
p682
(lp683
I01
aI10000
asV/store/cmst3/group/cmgtools/CMG/GluGluToHToTauTau_M-120_8TeV-powheg-pythia6/Summer12_DR53X-PU_S10_START53_V7A-v1/AODSIM/PAT_CMG_V5_16_0/cmgTuple_275_1_khy.root
p684
(lp685
I01
aI10000
asV/store/cmst3/group/cmgtools/CMG/GluGluToHToTauTau_M-120_8TeV-powheg-pythia6/Summer12_DR53X-PU_S10_START53_V7A-v1/AODSIM/PAT_CMG_V5_16_0/cmgTuple_133_1_njz.root
p686
(lp687
I01
aI10000
asV/store/cmst3/group/cmgtools/CMG/GluGluToHToTauTau_M-120_8TeV-powheg-pythia6/Summer12_DR53X-PU_S10_START53_V7A-v1/AODSIM/PAT_CMG_V5_16_0/cmgTuple_135_1_IN9.root
p688
(lp689
I01
aI10000
asV/store/cmst3/group/cmgtools/CMG/GluGluToHToTauTau_M-120_8TeV-powheg-pythia6/Summer12_DR53X-PU_S10_START53_V7A-v1/AODSIM/PAT_CMG_V5_16_0/cmgTuple_143_1_jOt.root
p690
(lp691
I01
aI10000
asV/store/cmst3/group/cmgtools/CMG/GluGluToHToTauTau_M-120_8TeV-powheg-pythia6/Summer12_DR53X-PU_S10_START53_V7A-v1/AODSIM/PAT_CMG_V5_16_0/cmgTuple_469_1_nch.root
p692
(lp693
I01
aI10000
asV/store/cmst3/group/cmgtools/CMG/GluGluToHToTauTau_M-120_8TeV-powheg-pythia6/Summer12_DR53X-PU_S10_START53_V7A-v1/AODSIM/PAT_CMG_V5_16_0/cmgTuple_239_1_BXs.root
p694
(lp695
I01
aI10000
asV/store/cmst3/group/cmgtools/CMG/GluGluToHToTauTau_M-120_8TeV-powheg-pythia6/Summer12_DR53X-PU_S10_START53_V7A-v1/AODSIM/PAT_CMG_V5_16_0/cmgTuple_206_1_vwc.root
p696
(lp697
I01
aI10000
asV/store/cmst3/group/cmgtools/CMG/GluGluToHToTauTau_M-120_8TeV-powheg-pythia6/Summer12_DR53X-PU_S10_START53_V7A-v1/AODSIM/PAT_CMG_V5_16_0/cmgTuple_440_1_0x5.root
p698
(lp699
I01
aI10000
asV/store/cmst3/group/cmgtools/CMG/GluGluToHToTauTau_M-120_8TeV-powheg-pythia6/Summer12_DR53X-PU_S10_START53_V7A-v1/AODSIM/PAT_CMG_V5_16_0/cmgTuple_221_1_HL4.root
p700
(lp701
I01
aI10000
asV/store/cmst3/group/cmgtools/CMG/GluGluToHToTauTau_M-120_8TeV-powheg-pythia6/Summer12_DR53X-PU_S10_START53_V7A-v1/AODSIM/PAT_CMG_V5_16_0/cmgTuple_490_1_qM6.root
p702
(lp703
I01
aI10000
asV/store/cmst3/group/cmgtools/CMG/GluGluToHToTauTau_M-120_8TeV-powheg-pythia6/Summer12_DR53X-PU_S10_START53_V7A-v1/AODSIM/PAT_CMG_V5_16_0/cmgTuple_191_1_797.root
p704
(lp705
I01
aI10000
asV/store/cmst3/group/cmgtools/CMG/GluGluToHToTauTau_M-120_8TeV-powheg-pythia6/Summer12_DR53X-PU_S10_START53_V7A-v1/AODSIM/PAT_CMG_V5_16_0/cmgTuple_224_1_lTu.root
p706
(lp707
I01
aI10000
asV/store/cmst3/group/cmgtools/CMG/GluGluToHToTauTau_M-120_8TeV-powheg-pythia6/Summer12_DR53X-PU_S10_START53_V7A-v1/AODSIM/PAT_CMG_V5_16_0/cmgTuple_43_1_A08.root
p708
(lp709
I01
aI10000
asV/store/cmst3/group/cmgtools/CMG/GluGluToHToTauTau_M-120_8TeV-powheg-pythia6/Summer12_DR53X-PU_S10_START53_V7A-v1/AODSIM/PAT_CMG_V5_16_0/cmgTuple_289_1_vnF.root
p710
(lp711
I01
aI10000
asV/store/cmst3/group/cmgtools/CMG/GluGluToHToTauTau_M-120_8TeV-powheg-pythia6/Summer12_DR53X-PU_S10_START53_V7A-v1/AODSIM/PAT_CMG_V5_16_0/cmgTuple_499_1_nz7.root
p712
(lp713
I01
aI10000
asV/store/cmst3/group/cmgtools/CMG/GluGluToHToTauTau_M-120_8TeV-powheg-pythia6/Summer12_DR53X-PU_S10_START53_V7A-v1/AODSIM/PAT_CMG_V5_16_0/cmgTuple_183_1_2IM.root
p714
(lp715
I01
aI10000
asV/store/cmst3/group/cmgtools/CMG/GluGluToHToTauTau_M-120_8TeV-powheg-pythia6/Summer12_DR53X-PU_S10_START53_V7A-v1/AODSIM/PAT_CMG_V5_16_0/cmgTuple_207_1_uwz.root
p716
(lp717
I01
aI10000
asV/store/cmst3/group/cmgtools/CMG/GluGluToHToTauTau_M-120_8TeV-powheg-pythia6/Summer12_DR53X-PU_S10_START53_V7A-v1/AODSIM/PAT_CMG_V5_16_0/cmgTuple_97_1_XZy.root
p718
(lp719
I01
aI10000
asV/store/cmst3/group/cmgtools/CMG/GluGluToHToTauTau_M-120_8TeV-powheg-pythia6/Summer12_DR53X-PU_S10_START53_V7A-v1/AODSIM/PAT_CMG_V5_16_0/cmgTuple_315_1_OST.root
p720
(lp721
I01
aI10000
asV/store/cmst3/group/cmgtools/CMG/GluGluToHToTauTau_M-120_8TeV-powheg-pythia6/Summer12_DR53X-PU_S10_START53_V7A-v1/AODSIM/PAT_CMG_V5_16_0/cmgTuple_16_1_s0w.root
p722
(lp723
I01
aI10000
asV/store/cmst3/group/cmgtools/CMG/GluGluToHToTauTau_M-120_8TeV-powheg-pythia6/Summer12_DR53X-PU_S10_START53_V7A-v1/AODSIM/PAT_CMG_V5_16_0/cmgTuple_334_1_Jz9.root
p724
(lp725
I01
aI10000
asV/store/cmst3/group/cmgtools/CMG/GluGluToHToTauTau_M-120_8TeV-powheg-pythia6/Summer12_DR53X-PU_S10_START53_V7A-v1/AODSIM/PAT_CMG_V5_16_0/cmgTuple_8_1_LjL.root
p726
(lp727
I01
aI10000
asV/store/cmst3/group/cmgtools/CMG/GluGluToHToTauTau_M-120_8TeV-powheg-pythia6/Summer12_DR53X-PU_S10_START53_V7A-v1/AODSIM/PAT_CMG_V5_16_0/cmgTuple_382_1_LYw.root
p728
(lp729
I01
aI10000
asV/store/cmst3/group/cmgtools/CMG/GluGluToHToTauTau_M-120_8TeV-powheg-pythia6/Summer12_DR53X-PU_S10_START53_V7A-v1/AODSIM/PAT_CMG_V5_16_0/cmgTuple_31_1_qB8.root
p730
(lp731
I01
aI10000
asV/store/cmst3/group/cmgtools/CMG/GluGluToHToTauTau_M-120_8TeV-powheg-pythia6/Summer12_DR53X-PU_S10_START53_V7A-v1/AODSIM/PAT_CMG_V5_16_0/cmgTuple_101_1_tgN.root
p732
(lp733
I01
aI10000
asV/store/cmst3/group/cmgtools/CMG/GluGluToHToTauTau_M-120_8TeV-powheg-pythia6/Summer12_DR53X-PU_S10_START53_V7A-v1/AODSIM/PAT_CMG_V5_16_0/cmgTuple_213_1_1yC.root
p734
(lp735
I01
aI10000
asV/store/cmst3/group/cmgtools/CMG/GluGluToHToTauTau_M-120_8TeV-powheg-pythia6/Summer12_DR53X-PU_S10_START53_V7A-v1/AODSIM/PAT_CMG_V5_16_0/cmgTuple_371_1_t9M.root
p736
(lp737
I01
aI10000
asV/store/cmst3/group/cmgtools/CMG/GluGluToHToTauTau_M-120_8TeV-powheg-pythia6/Summer12_DR53X-PU_S10_START53_V7A-v1/AODSIM/PAT_CMG_V5_16_0/cmgTuple_192_1_U9X.root
p738
(lp739
I01
aI10000
asV/store/cmst3/group/cmgtools/CMG/GluGluToHToTauTau_M-120_8TeV-powheg-pythia6/Summer12_DR53X-PU_S10_START53_V7A-v1/AODSIM/PAT_CMG_V5_16_0/cmgTuple_477_1_d81.root
p740
(lp741
I01
aI10000
asV/store/cmst3/group/cmgtools/CMG/GluGluToHToTauTau_M-120_8TeV-powheg-pythia6/Summer12_DR53X-PU_S10_START53_V7A-v1/AODSIM/PAT_CMG_V5_16_0/cmgTuple_217_1_BuN.root
p742
(lp743
I01
aI10000
asV/store/cmst3/group/cmgtools/CMG/GluGluToHToTauTau_M-120_8TeV-powheg-pythia6/Summer12_DR53X-PU_S10_START53_V7A-v1/AODSIM/PAT_CMG_V5_16_0/cmgTuple_351_1_Z7h.root
p744
(lp745
I01
aI10000
asV/store/cmst3/group/cmgtools/CMG/GluGluToHToTauTau_M-120_8TeV-powheg-pythia6/Summer12_DR53X-PU_S10_START53_V7A-v1/AODSIM/PAT_CMG_V5_16_0/cmgTuple_132_1_7YE.root
p746
(lp747
I01
aI10000
asV/store/cmst3/group/cmgtools/CMG/GluGluToHToTauTau_M-120_8TeV-powheg-pythia6/Summer12_DR53X-PU_S10_START53_V7A-v1/AODSIM/PAT_CMG_V5_16_0/cmgTuple_40_1_HCE.root
p748
(lp749
I01
aI10000
asV/store/cmst3/group/cmgtools/CMG/GluGluToHToTauTau_M-120_8TeV-powheg-pythia6/Summer12_DR53X-PU_S10_START53_V7A-v1/AODSIM/PAT_CMG_V5_16_0/cmgTuple_330_1_y9C.root
p750
(lp751
I01
aI10000
asV/store/cmst3/group/cmgtools/CMG/GluGluToHToTauTau_M-120_8TeV-powheg-pythia6/Summer12_DR53X-PU_S10_START53_V7A-v1/AODSIM/PAT_CMG_V5_16_0/cmgTuple_169_1_3Kv.root
p752
(lp753
I01
aI10000
asV/store/cmst3/group/cmgtools/CMG/GluGluToHToTauTau_M-120_8TeV-powheg-pythia6/Summer12_DR53X-PU_S10_START53_V7A-v1/AODSIM/PAT_CMG_V5_16_0/cmgTuple_209_1_am9.root
p754
(lp755
I01
aI10000
asV/store/cmst3/group/cmgtools/CMG/GluGluToHToTauTau_M-120_8TeV-powheg-pythia6/Summer12_DR53X-PU_S10_START53_V7A-v1/AODSIM/PAT_CMG_V5_16_0/cmgTuple_322_1_RG2.root
p756
(lp757
I01
aI10000
asV/store/cmst3/group/cmgtools/CMG/GluGluToHToTauTau_M-120_8TeV-powheg-pythia6/Summer12_DR53X-PU_S10_START53_V7A-v1/AODSIM/PAT_CMG_V5_16_0/cmgTuple_208_1_cj8.root
p758
(lp759
I01
aI10000
asV/store/cmst3/group/cmgtools/CMG/GluGluToHToTauTau_M-120_8TeV-powheg-pythia6/Summer12_DR53X-PU_S10_START53_V7A-v1/AODSIM/PAT_CMG_V5_16_0/cmgTuple_266_1_6mi.root
p760
(lp761
I01
aI10000
asV/store/cmst3/group/cmgtools/CMG/GluGluToHToTauTau_M-120_8TeV-powheg-pythia6/Summer12_DR53X-PU_S10_START53_V7A-v1/AODSIM/PAT_CMG_V5_16_0/cmgTuple_452_1_kAI.root
p762
(lp763
I01
aI10000
asV/store/cmst3/group/cmgtools/CMG/GluGluToHToTauTau_M-120_8TeV-powheg-pythia6/Summer12_DR53X-PU_S10_START53_V7A-v1/AODSIM/PAT_CMG_V5_16_0/cmgTuple_492_1_POp.root
p764
(lp765
I01
aI10000
asV/store/cmst3/group/cmgtools/CMG/GluGluToHToTauTau_M-120_8TeV-powheg-pythia6/Summer12_DR53X-PU_S10_START53_V7A-v1/AODSIM/PAT_CMG_V5_16_0/cmgTuple_159_1_HCp.root
p766
(lp767
I01
aI10000
asV/store/cmst3/group/cmgtools/CMG/GluGluToHToTauTau_M-120_8TeV-powheg-pythia6/Summer12_DR53X-PU_S10_START53_V7A-v1/AODSIM/PAT_CMG_V5_16_0/cmgTuple_405_1_2AP.root
p768
(lp769
I01
aI10000
asV/store/cmst3/group/cmgtools/CMG/GluGluToHToTauTau_M-120_8TeV-powheg-pythia6/Summer12_DR53X-PU_S10_START53_V7A-v1/AODSIM/PAT_CMG_V5_16_0/cmgTuple_422_1_K21.root
p770
(lp771
I01
aI10000
asV/store/cmst3/group/cmgtools/CMG/GluGluToHToTauTau_M-120_8TeV-powheg-pythia6/Summer12_DR53X-PU_S10_START53_V7A-v1/AODSIM/PAT_CMG_V5_16_0/cmgTuple_155_1_Rlm.root
p772
(lp773
I01
aI10000
asV/store/cmst3/group/cmgtools/CMG/GluGluToHToTauTau_M-120_8TeV-powheg-pythia6/Summer12_DR53X-PU_S10_START53_V7A-v1/AODSIM/PAT_CMG_V5_16_0/cmgTuple_130_1_ayG.root
p774
(lp775
I01
aI10000
asV/store/cmst3/group/cmgtools/CMG/GluGluToHToTauTau_M-120_8TeV-powheg-pythia6/Summer12_DR53X-PU_S10_START53_V7A-v1/AODSIM/PAT_CMG_V5_16_0/cmgTuple_392_1_Gpw.root
p776
(lp777
I01
aI10000
asV/store/cmst3/group/cmgtools/CMG/GluGluToHToTauTau_M-120_8TeV-powheg-pythia6/Summer12_DR53X-PU_S10_START53_V7A-v1/AODSIM/PAT_CMG_V5_16_0/cmgTuple_149_1_df0.root
p778
(lp779
I01
aI10000
asV/store/cmst3/group/cmgtools/CMG/GluGluToHToTauTau_M-120_8TeV-powheg-pythia6/Summer12_DR53X-PU_S10_START53_V7A-v1/AODSIM/PAT_CMG_V5_16_0/cmgTuple_182_1_s66.root
p780
(lp781
I01
aI10000
asV/store/cmst3/group/cmgtools/CMG/GluGluToHToTauTau_M-120_8TeV-powheg-pythia6/Summer12_DR53X-PU_S10_START53_V7A-v1/AODSIM/PAT_CMG_V5_16_0/cmgTuple_30_1_UHJ.root
p782
(lp783
I01
aI10000
asV/store/cmst3/group/cmgtools/CMG/GluGluToHToTauTau_M-120_8TeV-powheg-pythia6/Summer12_DR53X-PU_S10_START53_V7A-v1/AODSIM/PAT_CMG_V5_16_0/cmgTuple_238_1_E82.root
p784
(lp785
I01
aI10000
asV/store/cmst3/group/cmgtools/CMG/GluGluToHToTauTau_M-120_8TeV-powheg-pythia6/Summer12_DR53X-PU_S10_START53_V7A-v1/AODSIM/PAT_CMG_V5_16_0/cmgTuple_70_1_gkY.root
p786
(lp787
I01
aI10000
asV/store/cmst3/group/cmgtools/CMG/GluGluToHToTauTau_M-120_8TeV-powheg-pythia6/Summer12_DR53X-PU_S10_START53_V7A-v1/AODSIM/PAT_CMG_V5_16_0/cmgTuple_281_1_BB8.root
p788
(lp789
I01
aI10000
asV/store/cmst3/group/cmgtools/CMG/GluGluToHToTauTau_M-120_8TeV-powheg-pythia6/Summer12_DR53X-PU_S10_START53_V7A-v1/AODSIM/PAT_CMG_V5_16_0/cmgTuple_171_1_JP9.root
p790
(lp791
I01
aI10000
asV/store/cmst3/group/cmgtools/CMG/GluGluToHToTauTau_M-120_8TeV-powheg-pythia6/Summer12_DR53X-PU_S10_START53_V7A-v1/AODSIM/PAT_CMG_V5_16_0/cmgTuple_176_1_duZ.root
p792
(lp793
I01
aI10000
asV/store/cmst3/group/cmgtools/CMG/GluGluToHToTauTau_M-120_8TeV-powheg-pythia6/Summer12_DR53X-PU_S10_START53_V7A-v1/AODSIM/PAT_CMG_V5_16_0/cmgTuple_114_1_Pch.root
p794
(lp795
I01
aI10000
asV/store/cmst3/group/cmgtools/CMG/GluGluToHToTauTau_M-120_8TeV-powheg-pythia6/Summer12_DR53X-PU_S10_START53_V7A-v1/AODSIM/PAT_CMG_V5_16_0/cmgTuple_264_1_vdw.root
p796
(lp797
I01
aI10000
asV/store/cmst3/group/cmgtools/CMG/GluGluToHToTauTau_M-120_8TeV-powheg-pythia6/Summer12_DR53X-PU_S10_START53_V7A-v1/AODSIM/PAT_CMG_V5_16_0/cmgTuple_441_1_V0c.root
p798
(lp799
I01
aI10000
asV/store/cmst3/group/cmgtools/CMG/GluGluToHToTauTau_M-120_8TeV-powheg-pythia6/Summer12_DR53X-PU_S10_START53_V7A-v1/AODSIM/PAT_CMG_V5_16_0/cmgTuple_55_1_PU7.root
p800
(lp801
I01
aI10000
asV/store/cmst3/group/cmgtools/CMG/GluGluToHToTauTau_M-120_8TeV-powheg-pythia6/Summer12_DR53X-PU_S10_START53_V7A-v1/AODSIM/PAT_CMG_V5_16_0/cmgTuple_167_1_b8g.root
p802
(lp803
I01
aI10000
asV/store/cmst3/group/cmgtools/CMG/GluGluToHToTauTau_M-120_8TeV-powheg-pythia6/Summer12_DR53X-PU_S10_START53_V7A-v1/AODSIM/PAT_CMG_V5_16_0/cmgTuple_3_1_XPs.root
p804
(lp805
I01
aI10000
asV/store/cmst3/group/cmgtools/CMG/GluGluToHToTauTau_M-120_8TeV-powheg-pythia6/Summer12_DR53X-PU_S10_START53_V7A-v1/AODSIM/PAT_CMG_V5_16_0/cmgTuple_128_1_C6m.root
p806
(lp807
I01
aI10000
asV/store/cmst3/group/cmgtools/CMG/GluGluToHToTauTau_M-120_8TeV-powheg-pythia6/Summer12_DR53X-PU_S10_START53_V7A-v1/AODSIM/PAT_CMG_V5_16_0/cmgTuple_408_1_XiS.root
p808
(lp809
I01
aI10000
asV/store/cmst3/group/cmgtools/CMG/GluGluToHToTauTau_M-120_8TeV-powheg-pythia6/Summer12_DR53X-PU_S10_START53_V7A-v1/AODSIM/PAT_CMG_V5_16_0/cmgTuple_102_1_PXM.root
p810
(lp811
I01
aI10000
asV/store/cmst3/group/cmgtools/CMG/GluGluToHToTauTau_M-120_8TeV-powheg-pythia6/Summer12_DR53X-PU_S10_START53_V7A-v1/AODSIM/PAT_CMG_V5_16_0/cmgTuple_291_1_gr2.root
p812
(lp813
I01
aI10000
asV/store/cmst3/group/cmgtools/CMG/GluGluToHToTauTau_M-120_8TeV-powheg-pythia6/Summer12_DR53X-PU_S10_START53_V7A-v1/AODSIM/PAT_CMG_V5_16_0/cmgTuple_88_1_gGw.root
p814
(lp815
I01
aI10000
asV/store/cmst3/group/cmgtools/CMG/GluGluToHToTauTau_M-120_8TeV-powheg-pythia6/Summer12_DR53X-PU_S10_START53_V7A-v1/AODSIM/PAT_CMG_V5_16_0/cmgTuple_410_1_UC6.root
p816
(lp817
I01
aI10000
asV/store/cmst3/group/cmgtools/CMG/GluGluToHToTauTau_M-120_8TeV-powheg-pythia6/Summer12_DR53X-PU_S10_START53_V7A-v1/AODSIM/PAT_CMG_V5_16_0/cmgTuple_36_1_21L.root
p818
(lp819
I01
aI10000
asV/store/cmst3/group/cmgtools/CMG/GluGluToHToTauTau_M-120_8TeV-powheg-pythia6/Summer12_DR53X-PU_S10_START53_V7A-v1/AODSIM/PAT_CMG_V5_16_0/cmgTuple_267_1_hcR.root
p820
(lp821
I01
aI10000
asV/store/cmst3/group/cmgtools/CMG/GluGluToHToTauTau_M-120_8TeV-powheg-pythia6/Summer12_DR53X-PU_S10_START53_V7A-v1/AODSIM/PAT_CMG_V5_16_0/cmgTuple_104_1_74x.root
p822
(lp823
I01
aI10000
asV/store/cmst3/group/cmgtools/CMG/GluGluToHToTauTau_M-120_8TeV-powheg-pythia6/Summer12_DR53X-PU_S10_START53_V7A-v1/AODSIM/PAT_CMG_V5_16_0/cmgTuple_262_1_X7p.root
p824
(lp825
I01
aI10000
asV/store/cmst3/group/cmgtools/CMG/GluGluToHToTauTau_M-120_8TeV-powheg-pythia6/Summer12_DR53X-PU_S10_START53_V7A-v1/AODSIM/PAT_CMG_V5_16_0/cmgTuple_250_1_Vyl.root
p826
(lp827
I01
aI10000
asV/store/cmst3/group/cmgtools/CMG/GluGluToHToTauTau_M-120_8TeV-powheg-pythia6/Summer12_DR53X-PU_S10_START53_V7A-v1/AODSIM/PAT_CMG_V5_16_0/cmgTuple_50_1_AI2.root
p828
(lp829
I01
aI10000
asV/store/cmst3/group/cmgtools/CMG/GluGluToHToTauTau_M-120_8TeV-powheg-pythia6/Summer12_DR53X-PU_S10_START53_V7A-v1/AODSIM/PAT_CMG_V5_16_0/cmgTuple_339_1_MZt.root
p830
(lp831
I01
aI10000
asV/store/cmst3/group/cmgtools/CMG/GluGluToHToTauTau_M-120_8TeV-powheg-pythia6/Summer12_DR53X-PU_S10_START53_V7A-v1/AODSIM/PAT_CMG_V5_16_0/cmgTuple_225_1_Gwy.root
p832
(lp833
I01
aI10000
asV/store/cmst3/group/cmgtools/CMG/GluGluToHToTauTau_M-120_8TeV-powheg-pythia6/Summer12_DR53X-PU_S10_START53_V7A-v1/AODSIM/PAT_CMG_V5_16_0/cmgTuple_214_1_Go5.root
p834
(lp835
I01
aI10000
asV/store/cmst3/group/cmgtools/CMG/GluGluToHToTauTau_M-120_8TeV-powheg-pythia6/Summer12_DR53X-PU_S10_START53_V7A-v1/AODSIM/PAT_CMG_V5_16_0/cmgTuple_63_1_jWt.root
p836
(lp837
I01
aI10000
asV/store/cmst3/group/cmgtools/CMG/GluGluToHToTauTau_M-120_8TeV-powheg-pythia6/Summer12_DR53X-PU_S10_START53_V7A-v1/AODSIM/PAT_CMG_V5_16_0/cmgTuple_299_1_ArW.root
p838
(lp839
I01
aI10000
asV/store/cmst3/group/cmgtools/CMG/GluGluToHToTauTau_M-120_8TeV-powheg-pythia6/Summer12_DR53X-PU_S10_START53_V7A-v1/AODSIM/PAT_CMG_V5_16_0/cmgTuple_165_1_IJt.root
p840
(lp841
I01
aI10000
asV/store/cmst3/group/cmgtools/CMG/GluGluToHToTauTau_M-120_8TeV-powheg-pythia6/Summer12_DR53X-PU_S10_START53_V7A-v1/AODSIM/PAT_CMG_V5_16_0/cmgTuple_317_1_7sh.root
p842
(lp843
I01
aI10000
asV/store/cmst3/group/cmgtools/CMG/GluGluToHToTauTau_M-120_8TeV-powheg-pythia6/Summer12_DR53X-PU_S10_START53_V7A-v1/AODSIM/PAT_CMG_V5_16_0/cmgTuple_346_1_YVZ.root
p844
(lp845
I01
aI10000
asV/store/cmst3/group/cmgtools/CMG/GluGluToHToTauTau_M-120_8TeV-powheg-pythia6/Summer12_DR53X-PU_S10_START53_V7A-v1/AODSIM/PAT_CMG_V5_16_0/cmgTuple_329_1_7xD.root
p846
(lp847
I01
aI10000
asV/store/cmst3/group/cmgtools/CMG/GluGluToHToTauTau_M-120_8TeV-powheg-pythia6/Summer12_DR53X-PU_S10_START53_V7A-v1/AODSIM/PAT_CMG_V5_16_0/cmgTuple_107_1_AHn.root
p848
(lp849
I01
aI10000
asV/store/cmst3/group/cmgtools/CMG/GluGluToHToTauTau_M-120_8TeV-powheg-pythia6/Summer12_DR53X-PU_S10_START53_V7A-v1/AODSIM/PAT_CMG_V5_16_0/cmgTuple_187_1_1HQ.root
p850
(lp851
I01
aI10000
asV/store/cmst3/group/cmgtools/CMG/GluGluToHToTauTau_M-120_8TeV-powheg-pythia6/Summer12_DR53X-PU_S10_START53_V7A-v1/AODSIM/PAT_CMG_V5_16_0/cmgTuple_84_1_CJX.root
p852
(lp853
I01
aI10000
asV/store/cmst3/group/cmgtools/CMG/GluGluToHToTauTau_M-120_8TeV-powheg-pythia6/Summer12_DR53X-PU_S10_START53_V7A-v1/AODSIM/PAT_CMG_V5_16_0/cmgTuple_474_1_SL1.root
p854
(lp855
I01
aI10000
asV/store/cmst3/group/cmgtools/CMG/GluGluToHToTauTau_M-120_8TeV-powheg-pythia6/Summer12_DR53X-PU_S10_START53_V7A-v1/AODSIM/PAT_CMG_V5_16_0/cmgTuple_141_1_WkZ.root
p856
(lp857
I01
aI10000
asV/store/cmst3/group/cmgtools/CMG/GluGluToHToTauTau_M-120_8TeV-powheg-pythia6/Summer12_DR53X-PU_S10_START53_V7A-v1/AODSIM/PAT_CMG_V5_16_0/cmgTuple_232_1_ibg.root
p858
(lp859
I01
aI10000
asV/store/cmst3/group/cmgtools/CMG/GluGluToHToTauTau_M-120_8TeV-powheg-pythia6/Summer12_DR53X-PU_S10_START53_V7A-v1/AODSIM/PAT_CMG_V5_16_0/cmgTuple_338_1_ZMq.root
p860
(lp861
I01
aI10000
asV/store/cmst3/group/cmgtools/CMG/GluGluToHToTauTau_M-120_8TeV-powheg-pythia6/Summer12_DR53X-PU_S10_START53_V7A-v1/AODSIM/PAT_CMG_V5_16_0/cmgTuple_314_1_vvh.root
p862
(lp863
I01
aI10000
asV/store/cmst3/group/cmgtools/CMG/GluGluToHToTauTau_M-120_8TeV-powheg-pythia6/Summer12_DR53X-PU_S10_START53_V7A-v1/AODSIM/PAT_CMG_V5_16_0/cmgTuple_332_1_uwR.root
p864
(lp865
I01
aI10000
asV/store/cmst3/group/cmgtools/CMG/GluGluToHToTauTau_M-120_8TeV-powheg-pythia6/Summer12_DR53X-PU_S10_START53_V7A-v1/AODSIM/PAT_CMG_V5_16_0/cmgTuple_129_1_Chi.root
p866
(lp867
I01
aI10000
asV/store/cmst3/group/cmgtools/CMG/GluGluToHToTauTau_M-120_8TeV-powheg-pythia6/Summer12_DR53X-PU_S10_START53_V7A-v1/AODSIM/PAT_CMG_V5_16_0/cmgTuple_210_1_eRG.root
p868
(lp869
I01
aI10000
asV/store/cmst3/group/cmgtools/CMG/GluGluToHToTauTau_M-120_8TeV-powheg-pythia6/Summer12_DR53X-PU_S10_START53_V7A-v1/AODSIM/PAT_CMG_V5_16_0/cmgTuple_364_1_zdE.root
p870
(lp871
I01
aI10000
asV/store/cmst3/group/cmgtools/CMG/GluGluToHToTauTau_M-120_8TeV-powheg-pythia6/Summer12_DR53X-PU_S10_START53_V7A-v1/AODSIM/PAT_CMG_V5_16_0/cmgTuple_305_1_BaN.root
p872
(lp873
I01
aI10000
asV/store/cmst3/group/cmgtools/CMG/GluGluToHToTauTau_M-120_8TeV-powheg-pythia6/Summer12_DR53X-PU_S10_START53_V7A-v1/AODSIM/PAT_CMG_V5_16_0/cmgTuple_483_1_vPW.root
p874
(lp875
I01
aI10000
asV/store/cmst3/group/cmgtools/CMG/GluGluToHToTauTau_M-120_8TeV-powheg-pythia6/Summer12_DR53X-PU_S10_START53_V7A-v1/AODSIM/PAT_CMG_V5_16_0/cmgTuple_161_1_cRL.root
p876
(lp877
I01
aI10000
asV/store/cmst3/group/cmgtools/CMG/GluGluToHToTauTau_M-120_8TeV-powheg-pythia6/Summer12_DR53X-PU_S10_START53_V7A-v1/AODSIM/PAT_CMG_V5_16_0/cmgTuple_379_1_SwD.root
p878
(lp879
I01
aI10000
asV/store/cmst3/group/cmgtools/CMG/GluGluToHToTauTau_M-120_8TeV-powheg-pythia6/Summer12_DR53X-PU_S10_START53_V7A-v1/AODSIM/PAT_CMG_V5_16_0/cmgTuple_349_1_Ucd.root
p880
(lp881
I01
aI10000
asV/store/cmst3/group/cmgtools/CMG/GluGluToHToTauTau_M-120_8TeV-powheg-pythia6/Summer12_DR53X-PU_S10_START53_V7A-v1/AODSIM/PAT_CMG_V5_16_0/cmgTuple_304_1_jg3.root
p882
(lp883
I01
aI10000
asV/store/cmst3/group/cmgtools/CMG/GluGluToHToTauTau_M-120_8TeV-powheg-pythia6/Summer12_DR53X-PU_S10_START53_V7A-v1/AODSIM/PAT_CMG_V5_16_0/cmgTuple_152_1_jmI.root
p884
(lp885
I01
aI10000
asV/store/cmst3/group/cmgtools/CMG/GluGluToHToTauTau_M-120_8TeV-powheg-pythia6/Summer12_DR53X-PU_S10_START53_V7A-v1/AODSIM/PAT_CMG_V5_16_0/cmgTuple_399_1_uHm.root
p886
(lp887
I01
aI10000
asV/store/cmst3/group/cmgtools/CMG/GluGluToHToTauTau_M-120_8TeV-powheg-pythia6/Summer12_DR53X-PU_S10_START53_V7A-v1/AODSIM/PAT_CMG_V5_16_0/cmgTuple_37_1_13K.root
p888
(lp889
I01
aI10000
asV/store/cmst3/group/cmgtools/CMG/GluGluToHToTauTau_M-120_8TeV-powheg-pythia6/Summer12_DR53X-PU_S10_START53_V7A-v1/AODSIM/PAT_CMG_V5_16_0/cmgTuple_336_1_0rr.root
p890
(lp891
I01
aI10000
asV/store/cmst3/group/cmgtools/CMG/GluGluToHToTauTau_M-120_8TeV-powheg-pythia6/Summer12_DR53X-PU_S10_START53_V7A-v1/AODSIM/PAT_CMG_V5_16_0/cmgTuple_58_1_RC7.root
p892
(lp893
I01
aI10000
asV/store/cmst3/group/cmgtools/CMG/GluGluToHToTauTau_M-120_8TeV-powheg-pythia6/Summer12_DR53X-PU_S10_START53_V7A-v1/AODSIM/PAT_CMG_V5_16_0/cmgTuple_252_1_Zn8.root
p894
(lp895
I01
aI10000
asV/store/cmst3/group/cmgtools/CMG/GluGluToHToTauTau_M-120_8TeV-powheg-pythia6/Summer12_DR53X-PU_S10_START53_V7A-v1/AODSIM/PAT_CMG_V5_16_0/cmgTuple_72_1_TPK.root
p896
(lp897
I01
aI10000
asV/store/cmst3/group/cmgtools/CMG/GluGluToHToTauTau_M-120_8TeV-powheg-pythia6/Summer12_DR53X-PU_S10_START53_V7A-v1/AODSIM/PAT_CMG_V5_16_0/cmgTuple_110_1_0kW.root
p898
(lp899
I01
aI10000
asV/store/cmst3/group/cmgtools/CMG/GluGluToHToTauTau_M-120_8TeV-powheg-pythia6/Summer12_DR53X-PU_S10_START53_V7A-v1/AODSIM/PAT_CMG_V5_16_0/cmgTuple_45_1_SQA.root
p900
(lp901
I01
aI10000
asV/store/cmst3/group/cmgtools/CMG/GluGluToHToTauTau_M-120_8TeV-powheg-pythia6/Summer12_DR53X-PU_S10_START53_V7A-v1/AODSIM/PAT_CMG_V5_16_0/cmgTuple_421_1_Crw.root
p902
(lp903
I01
aI10000
asV/store/cmst3/group/cmgtools/CMG/GluGluToHToTauTau_M-120_8TeV-powheg-pythia6/Summer12_DR53X-PU_S10_START53_V7A-v1/AODSIM/PAT_CMG_V5_16_0/cmgTuple_438_1_BVS.root
p904
(lp905
I01
aI10000
asV/store/cmst3/group/cmgtools/CMG/GluGluToHToTauTau_M-120_8TeV-powheg-pythia6/Summer12_DR53X-PU_S10_START53_V7A-v1/AODSIM/PAT_CMG_V5_16_0/cmgTuple_85_1_yuI.root
p906
(lp907
I01
aI10000
asV/store/cmst3/group/cmgtools/CMG/GluGluToHToTauTau_M-120_8TeV-powheg-pythia6/Summer12_DR53X-PU_S10_START53_V7A-v1/AODSIM/PAT_CMG_V5_16_0/cmgTuple_74_1_hbo.root
p908
(lp909
I01
aI10000
asV/store/cmst3/group/cmgtools/CMG/GluGluToHToTauTau_M-120_8TeV-powheg-pythia6/Summer12_DR53X-PU_S10_START53_V7A-v1/AODSIM/PAT_CMG_V5_16_0/cmgTuple_471_1_6nz.root
p910
(lp911
I01
aI10000
asV/store/cmst3/group/cmgtools/CMG/GluGluToHToTauTau_M-120_8TeV-powheg-pythia6/Summer12_DR53X-PU_S10_START53_V7A-v1/AODSIM/PAT_CMG_V5_16_0/cmgTuple_9_1_5ey.root
p912
(lp913
I01
aI10000
asV/store/cmst3/group/cmgtools/CMG/GluGluToHToTauTau_M-120_8TeV-powheg-pythia6/Summer12_DR53X-PU_S10_START53_V7A-v1/AODSIM/PAT_CMG_V5_16_0/cmgTuple_425_1_DFB.root
p914
(lp915
I01
aI10000
asV/store/cmst3/group/cmgtools/CMG/GluGluToHToTauTau_M-120_8TeV-powheg-pythia6/Summer12_DR53X-PU_S10_START53_V7A-v1/AODSIM/PAT_CMG_V5_16_0/cmgTuple_44_1_NYP.root
p916
(lp917
I01
aI10000
asV/store/cmst3/group/cmgtools/CMG/GluGluToHToTauTau_M-120_8TeV-powheg-pythia6/Summer12_DR53X-PU_S10_START53_V7A-v1/AODSIM/PAT_CMG_V5_16_0/cmgTuple_407_1_L5c.root
p918
(lp919
I01
aI10000
asV/store/cmst3/group/cmgtools/CMG/GluGluToHToTauTau_M-120_8TeV-powheg-pythia6/Summer12_DR53X-PU_S10_START53_V7A-v1/AODSIM/PAT_CMG_V5_16_0/cmgTuple_10_1_hiu.root
p920
(lp921
I01
aI10000
asV/store/cmst3/group/cmgtools/CMG/GluGluToHToTauTau_M-120_8TeV-powheg-pythia6/Summer12_DR53X-PU_S10_START53_V7A-v1/AODSIM/PAT_CMG_V5_16_0/cmgTuple_231_1_U7t.root
p922
(lp923
I01
aI10000
asV/store/cmst3/group/cmgtools/CMG/GluGluToHToTauTau_M-120_8TeV-powheg-pythia6/Summer12_DR53X-PU_S10_START53_V7A-v1/AODSIM/PAT_CMG_V5_16_0/cmgTuple_33_1_GC4.root
p924
(lp925
I01
aI10000
asV/store/cmst3/group/cmgtools/CMG/GluGluToHToTauTau_M-120_8TeV-powheg-pythia6/Summer12_DR53X-PU_S10_START53_V7A-v1/AODSIM/PAT_CMG_V5_16_0/cmgTuple_19_1_PVo.root
p926
(lp927
I01
aI10000
asV/store/cmst3/group/cmgtools/CMG/GluGluToHToTauTau_M-120_8TeV-powheg-pythia6/Summer12_DR53X-PU_S10_START53_V7A-v1/AODSIM/PAT_CMG_V5_16_0/cmgTuple_115_1_QFs.root
p928
(lp929
I01
aI10000
asV/store/cmst3/group/cmgtools/CMG/GluGluToHToTauTau_M-120_8TeV-powheg-pythia6/Summer12_DR53X-PU_S10_START53_V7A-v1/AODSIM/PAT_CMG_V5_16_0/cmgTuple_87_1_Ub9.root
p930
(lp931
I01
aI10000
asV/store/cmst3/group/cmgtools/CMG/GluGluToHToTauTau_M-120_8TeV-powheg-pythia6/Summer12_DR53X-PU_S10_START53_V7A-v1/AODSIM/PAT_CMG_V5_16_0/cmgTuple_447_1_99L.root
p932
(lp933
I01
aI10000
asV/store/cmst3/group/cmgtools/CMG/GluGluToHToTauTau_M-120_8TeV-powheg-pythia6/Summer12_DR53X-PU_S10_START53_V7A-v1/AODSIM/PAT_CMG_V5_16_0/cmgTuple_323_1_9Js.root
p934
(lp935
I01
aI10000
asV/store/cmst3/group/cmgtools/CMG/GluGluToHToTauTau_M-120_8TeV-powheg-pythia6/Summer12_DR53X-PU_S10_START53_V7A-v1/AODSIM/PAT_CMG_V5_16_0/cmgTuple_362_1_8fr.root
p936
(lp937
I01
aI10000
asV/store/cmst3/group/cmgtools/CMG/GluGluToHToTauTau_M-120_8TeV-powheg-pythia6/Summer12_DR53X-PU_S10_START53_V7A-v1/AODSIM/PAT_CMG_V5_16_0/cmgTuple_185_1_A34.root
p938
(lp939
I01
aI10000
asV/store/cmst3/group/cmgtools/CMG/GluGluToHToTauTau_M-120_8TeV-powheg-pythia6/Summer12_DR53X-PU_S10_START53_V7A-v1/AODSIM/PAT_CMG_V5_16_0/cmgTuple_237_1_6Rj.root
p940
(lp941
I01
aI10000
asV/store/cmst3/group/cmgtools/CMG/GluGluToHToTauTau_M-120_8TeV-powheg-pythia6/Summer12_DR53X-PU_S10_START53_V7A-v1/AODSIM/PAT_CMG_V5_16_0/cmgTuple_212_1_lzA.root
p942
(lp943
I01
aI10000
asV/store/cmst3/group/cmgtools/CMG/GluGluToHToTauTau_M-120_8TeV-powheg-pythia6/Summer12_DR53X-PU_S10_START53_V7A-v1/AODSIM/PAT_CMG_V5_16_0/cmgTuple_246_1_DRh.root
p944
(lp945
I01
aI10000
asV/store/cmst3/group/cmgtools/CMG/GluGluToHToTauTau_M-120_8TeV-powheg-pythia6/Summer12_DR53X-PU_S10_START53_V7A-v1/AODSIM/PAT_CMG_V5_16_0/cmgTuple_117_1_ABq.root
p946
(lp947
I01
aI10000
asV/store/cmst3/group/cmgtools/CMG/GluGluToHToTauTau_M-120_8TeV-powheg-pythia6/Summer12_DR53X-PU_S10_START53_V7A-v1/AODSIM/PAT_CMG_V5_16_0/cmgTuple_302_1_xkH.root
p948
(lp949
I01
aI10000
asV/store/cmst3/group/cmgtools/CMG/GluGluToHToTauTau_M-120_8TeV-powheg-pythia6/Summer12_DR53X-PU_S10_START53_V7A-v1/AODSIM/PAT_CMG_V5_16_0/cmgTuple_428_1_JVT.root
p950
(lp951
I01
aI10000
asV/store/cmst3/group/cmgtools/CMG/GluGluToHToTauTau_M-120_8TeV-powheg-pythia6/Summer12_DR53X-PU_S10_START53_V7A-v1/AODSIM/PAT_CMG_V5_16_0/cmgTuple_118_1_eQe.root
p952
(lp953
I01
aI10000
asV/store/cmst3/group/cmgtools/CMG/GluGluToHToTauTau_M-120_8TeV-powheg-pythia6/Summer12_DR53X-PU_S10_START53_V7A-v1/AODSIM/PAT_CMG_V5_16_0/cmgTuple_156_1_xNv.root
p954
(lp955
I01
aI10000
asV/store/cmst3/group/cmgtools/CMG/GluGluToHToTauTau_M-120_8TeV-powheg-pythia6/Summer12_DR53X-PU_S10_START53_V7A-v1/AODSIM/PAT_CMG_V5_16_0/cmgTuple_453_1_nxa.root
p956
(lp957
I01
aI10000
asV/store/cmst3/group/cmgtools/CMG/GluGluToHToTauTau_M-120_8TeV-powheg-pythia6/Summer12_DR53X-PU_S10_START53_V7A-v1/AODSIM/PAT_CMG_V5_16_0/cmgTuple_343_1_lJ5.root
p958
(lp959
I01
aI10000
asV/store/cmst3/group/cmgtools/CMG/GluGluToHToTauTau_M-120_8TeV-powheg-pythia6/Summer12_DR53X-PU_S10_START53_V7A-v1/AODSIM/PAT_CMG_V5_16_0/cmgTuple_67_1_F5U.root
p960
(lp961
I01
aI10000
asV/store/cmst3/group/cmgtools/CMG/GluGluToHToTauTau_M-120_8TeV-powheg-pythia6/Summer12_DR53X-PU_S10_START53_V7A-v1/AODSIM/PAT_CMG_V5_16_0/cmgTuple_363_1_Q2N.root
p962
(lp963
I01
aI10000
asV/store/cmst3/group/cmgtools/CMG/GluGluToHToTauTau_M-120_8TeV-powheg-pythia6/Summer12_DR53X-PU_S10_START53_V7A-v1/AODSIM/PAT_CMG_V5_16_0/cmgTuple_51_1_Dq9.root
p964
(lp965
I01
aI10000
asV/store/cmst3/group/cmgtools/CMG/GluGluToHToTauTau_M-120_8TeV-powheg-pythia6/Summer12_DR53X-PU_S10_START53_V7A-v1/AODSIM/PAT_CMG_V5_16_0/cmgTuple_64_1_79P.root
p966
(lp967
I01
aI10000
asV/store/cmst3/group/cmgtools/CMG/GluGluToHToTauTau_M-120_8TeV-powheg-pythia6/Summer12_DR53X-PU_S10_START53_V7A-v1/AODSIM/PAT_CMG_V5_16_0/cmgTuple_467_1_7E4.root
p968
(lp969
I01
aI10000
asV/store/cmst3/group/cmgtools/CMG/GluGluToHToTauTau_M-120_8TeV-powheg-pythia6/Summer12_DR53X-PU_S10_START53_V7A-v1/AODSIM/PAT_CMG_V5_16_0/cmgTuple_53_1_AMu.root
p970
(lp971
I01
aI10000
asV/store/cmst3/group/cmgtools/CMG/GluGluToHToTauTau_M-120_8TeV-powheg-pythia6/Summer12_DR53X-PU_S10_START53_V7A-v1/AODSIM/PAT_CMG_V5_16_0/cmgTuple_172_1_wpk.root
p972
(lp973
I01
aI10000
asV/store/cmst3/group/cmgtools/CMG/GluGluToHToTauTau_M-120_8TeV-powheg-pythia6/Summer12_DR53X-PU_S10_START53_V7A-v1/AODSIM/PAT_CMG_V5_16_0/cmgTuple_296_1_0Nx.root
p974
(lp975
I01
aI10000
asV/store/cmst3/group/cmgtools/CMG/GluGluToHToTauTau_M-120_8TeV-powheg-pythia6/Summer12_DR53X-PU_S10_START53_V7A-v1/AODSIM/PAT_CMG_V5_16_0/cmgTuple_457_1_Csg.root
p976
(lp977
I01
aI10000
asV/store/cmst3/group/cmgtools/CMG/GluGluToHToTauTau_M-120_8TeV-powheg-pythia6/Summer12_DR53X-PU_S10_START53_V7A-v1/AODSIM/PAT_CMG_V5_16_0/cmgTuple_146_1_Pty.root
p978
(lp979
I01
aI10000
asV/store/cmst3/group/cmgtools/CMG/GluGluToHToTauTau_M-120_8TeV-powheg-pythia6/Summer12_DR53X-PU_S10_START53_V7A-v1/AODSIM/PAT_CMG_V5_16_0/cmgTuple_181_1_UXU.root
p980
(lp981
I01
aI10000
asV/store/cmst3/group/cmgtools/CMG/GluGluToHToTauTau_M-120_8TeV-powheg-pythia6/Summer12_DR53X-PU_S10_START53_V7A-v1/AODSIM/PAT_CMG_V5_16_0/cmgTuple_415_1_f1Q.root
p982
(lp983
I01
aI10000
asV/store/cmst3/group/cmgtools/CMG/GluGluToHToTauTau_M-120_8TeV-powheg-pythia6/Summer12_DR53X-PU_S10_START53_V7A-v1/AODSIM/PAT_CMG_V5_16_0/cmgTuple_175_1_0JN.root
p984
(lp985
I01
aI10000
asV/store/cmst3/group/cmgtools/CMG/GluGluToHToTauTau_M-120_8TeV-powheg-pythia6/Summer12_DR53X-PU_S10_START53_V7A-v1/AODSIM/PAT_CMG_V5_16_0/cmgTuple_17_1_sg3.root
p986
(lp987
I01
aI10000
asV/store/cmst3/group/cmgtools/CMG/GluGluToHToTauTau_M-120_8TeV-powheg-pythia6/Summer12_DR53X-PU_S10_START53_V7A-v1/AODSIM/PAT_CMG_V5_16_0/cmgTuple_108_1_K8A.root
p988
(lp989
I01
aI10000
asV/store/cmst3/group/cmgtools/CMG/GluGluToHToTauTau_M-120_8TeV-powheg-pythia6/Summer12_DR53X-PU_S10_START53_V7A-v1/AODSIM/PAT_CMG_V5_16_0/cmgTuple_375_1_WQu.root
p990
(lp991
I01
aI10000
asV/store/cmst3/group/cmgtools/CMG/GluGluToHToTauTau_M-120_8TeV-powheg-pythia6/Summer12_DR53X-PU_S10_START53_V7A-v1/AODSIM/PAT_CMG_V5_16_0/cmgTuple_20_1_Lfy.root
p992
(lp993
I01
aI10000
asV/store/cmst3/group/cmgtools/CMG/GluGluToHToTauTau_M-120_8TeV-powheg-pythia6/Summer12_DR53X-PU_S10_START53_V7A-v1/AODSIM/PAT_CMG_V5_16_0/cmgTuple_450_1_X5X.root
p994
(lp995
I01
aI10000
asV/store/cmst3/group/cmgtools/CMG/GluGluToHToTauTau_M-120_8TeV-powheg-pythia6/Summer12_DR53X-PU_S10_START53_V7A-v1/AODSIM/PAT_CMG_V5_16_0/cmgTuple_89_1_bhR.root
p996
(lp997
I01
aI10000
asV/store/cmst3/group/cmgtools/CMG/GluGluToHToTauTau_M-120_8TeV-powheg-pythia6/Summer12_DR53X-PU_S10_START53_V7A-v1/AODSIM/PAT_CMG_V5_16_0/cmgTuple_298_1_3s3.root
p998
(lp999
I01
aI10000
asV/store/cmst3/group/cmgtools/CMG/GluGluToHToTauTau_M-120_8TeV-powheg-pythia6/Summer12_DR53X-PU_S10_START53_V7A-v1/AODSIM/PAT_CMG_V5_16_0/cmgTuple_259_1_4Q6.root
p1000
(lp1001
I01
aI10000
asV/store/cmst3/group/cmgtools/CMG/GluGluToHToTauTau_M-120_8TeV-powheg-pythia6/Summer12_DR53X-PU_S10_START53_V7A-v1/AODSIM/PAT_CMG_V5_16_0/cmgTuple_184_1_3JG.root
p1002
(lp1003
I01
aI10000
asV/store/cmst3/group/cmgtools/CMG/GluGluToHToTauTau_M-120_8TeV-powheg-pythia6/Summer12_DR53X-PU_S10_START53_V7A-v1/AODSIM/PAT_CMG_V5_16_0/cmgTuple_326_1_S8z.root
p1004
(lp1005
I01
aI10000
asV/store/cmst3/group/cmgtools/CMG/GluGluToHToTauTau_M-120_8TeV-powheg-pythia6/Summer12_DR53X-PU_S10_START53_V7A-v1/AODSIM/PAT_CMG_V5_16_0/cmgTuple_240_1_g5N.root
p1006
(lp1007
I01
aI10000
asV/store/cmst3/group/cmgtools/CMG/GluGluToHToTauTau_M-120_8TeV-powheg-pythia6/Summer12_DR53X-PU_S10_START53_V7A-v1/AODSIM/PAT_CMG_V5_16_0/cmgTuple_197_1_wwt.root
p1008
(lp1009
I01
aI10000
asV/store/cmst3/group/cmgtools/CMG/GluGluToHToTauTau_M-120_8TeV-powheg-pythia6/Summer12_DR53X-PU_S10_START53_V7A-v1/AODSIM/PAT_CMG_V5_16_0/cmgTuple_365_1_Oni.root
p1010
(lp1011
I01
aI10000
asV/store/cmst3/group/cmgtools/CMG/GluGluToHToTauTau_M-120_8TeV-powheg-pythia6/Summer12_DR53X-PU_S10_START53_V7A-v1/AODSIM/PAT_CMG_V5_16_0/cmgTuple_381_1_s6j.root
p1012
(lp1013
I01
aI10000
asV/store/cmst3/group/cmgtools/CMG/GluGluToHToTauTau_M-120_8TeV-powheg-pythia6/Summer12_DR53X-PU_S10_START53_V7A-v1/AODSIM/PAT_CMG_V5_16_0/cmgTuple_71_1_WyR.root
p1014
(lp1015
I01
aI10000
asV/store/cmst3/group/cmgtools/CMG/GluGluToHToTauTau_M-120_8TeV-powheg-pythia6/Summer12_DR53X-PU_S10_START53_V7A-v1/AODSIM/PAT_CMG_V5_16_0/cmgTuple_93_1_5mD.root
p1016
(lp1017
I01
aI10000
asV/store/cmst3/group/cmgtools/CMG/GluGluToHToTauTau_M-120_8TeV-powheg-pythia6/Summer12_DR53X-PU_S10_START53_V7A-v1/AODSIM/PAT_CMG_V5_16_0/cmgTuple_188_1_OSC.root
p1018
(lp1019
I01
aI10000
asV/store/cmst3/group/cmgtools/CMG/GluGluToHToTauTau_M-120_8TeV-powheg-pythia6/Summer12_DR53X-PU_S10_START53_V7A-v1/AODSIM/PAT_CMG_V5_16_0/cmgTuple_287_1_Enj.root
p1020
(lp1021
I01
aI10000
asV/store/cmst3/group/cmgtools/CMG/GluGluToHToTauTau_M-120_8TeV-powheg-pythia6/Summer12_DR53X-PU_S10_START53_V7A-v1/AODSIM/PAT_CMG_V5_16_0/cmgTuple_435_1_Iuk.root
p1022
(lp1023
I01
aI10000
asV/store/cmst3/group/cmgtools/CMG/GluGluToHToTauTau_M-120_8TeV-powheg-pythia6/Summer12_DR53X-PU_S10_START53_V7A-v1/AODSIM/PAT_CMG_V5_16_0/cmgTuple_396_1_yX9.root
p1024
(lp1025
I01
aI10000
asV/store/cmst3/group/cmgtools/CMG/GluGluToHToTauTau_M-120_8TeV-powheg-pythia6/Summer12_DR53X-PU_S10_START53_V7A-v1/AODSIM/PAT_CMG_V5_16_0/cmgTuple_328_1_Vim.root
p1026
(lp1027
I01
aI10000
asV/store/cmst3/group/cmgtools/CMG/GluGluToHToTauTau_M-120_8TeV-powheg-pythia6/Summer12_DR53X-PU_S10_START53_V7A-v1/AODSIM/PAT_CMG_V5_16_0/cmgTuple_22_1_cm3.root
p1028
(lp1029
I01
aI10000
asV/store/cmst3/group/cmgtools/CMG/GluGluToHToTauTau_M-120_8TeV-powheg-pythia6/Summer12_DR53X-PU_S10_START53_V7A-v1/AODSIM/PAT_CMG_V5_16_0/cmgTuple_140_1_Zw3.root
p1030
(lp1031
I01
aI10000
asV/store/cmst3/group/cmgtools/CMG/GluGluToHToTauTau_M-120_8TeV-powheg-pythia6/Summer12_DR53X-PU_S10_START53_V7A-v1/AODSIM/PAT_CMG_V5_16_0/cmgTuple_82_1_Wat.root
p1032
(lp1033
I01
aI10000
asV/store/cmst3/group/cmgtools/CMG/GluGluToHToTauTau_M-120_8TeV-powheg-pythia6/Summer12_DR53X-PU_S10_START53_V7A-v1/AODSIM/PAT_CMG_V5_16_0/cmgTuple_387_1_nS6.root
p1034
(lp1035
I01
aI10000
asV/store/cmst3/group/cmgtools/CMG/GluGluToHToTauTau_M-120_8TeV-powheg-pythia6/Summer12_DR53X-PU_S10_START53_V7A-v1/AODSIM/PAT_CMG_V5_16_0/cmgTuple_366_1_luW.root
p1036
(lp1037
I01
aI10000
asV/store/cmst3/group/cmgtools/CMG/GluGluToHToTauTau_M-120_8TeV-powheg-pythia6/Summer12_DR53X-PU_S10_START53_V7A-v1/AODSIM/PAT_CMG_V5_16_0/cmgTuple_134_1_wGV.root
p1038
(lp1039
I01
aI10000
asV/store/cmst3/group/cmgtools/CMG/GluGluToHToTauTau_M-120_8TeV-powheg-pythia6/Summer12_DR53X-PU_S10_START53_V7A-v1/AODSIM/PAT_CMG_V5_16_0/cmgTuple_430_1_KC5.root
p1040
(lp1041
I01
aI10000
asV/store/cmst3/group/cmgtools/CMG/GluGluToHToTauTau_M-120_8TeV-powheg-pythia6/Summer12_DR53X-PU_S10_START53_V7A-v1/AODSIM/PAT_CMG_V5_16_0/cmgTuple_372_1_iAj.root
p1042
(lp1043
I01
aI10000
asV/store/cmst3/group/cmgtools/CMG/GluGluToHToTauTau_M-120_8TeV-powheg-pythia6/Summer12_DR53X-PU_S10_START53_V7A-v1/AODSIM/PAT_CMG_V5_16_0/cmgTuple_409_1_HCY.root
p1044
(lp1045
I01
aI10000
asV/store/cmst3/group/cmgtools/CMG/GluGluToHToTauTau_M-120_8TeV-powheg-pythia6/Summer12_DR53X-PU_S10_START53_V7A-v1/AODSIM/PAT_CMG_V5_16_0/cmgTuple_106_1_yxX.root
p1046
(lp1047
I01
aI10000
asV/store/cmst3/group/cmgtools/CMG/GluGluToHToTauTau_M-120_8TeV-powheg-pythia6/Summer12_DR53X-PU_S10_START53_V7A-v1/AODSIM/PAT_CMG_V5_16_0/cmgTuple_249_1_e72.root
p1048
(lp1049
I01
aI10000
asV/store/cmst3/group/cmgtools/CMG/GluGluToHToTauTau_M-120_8TeV-powheg-pythia6/Summer12_DR53X-PU_S10_START53_V7A-v1/AODSIM/PAT_CMG_V5_16_0/cmgTuple_466_1_R4e.root
p1050
(lp1051
I01
aI10000
asV/store/cmst3/group/cmgtools/CMG/GluGluToHToTauTau_M-120_8TeV-powheg-pythia6/Summer12_DR53X-PU_S10_START53_V7A-v1/AODSIM/PAT_CMG_V5_16_0/cmgTuple_290_1_rk6.root
p1052
(lp1053
I01
aI10000
asV/store/cmst3/group/cmgtools/CMG/GluGluToHToTauTau_M-120_8TeV-powheg-pythia6/Summer12_DR53X-PU_S10_START53_V7A-v1/AODSIM/PAT_CMG_V5_16_0/cmgTuple_487_1_ViZ.root
p1054
(lp1055
I01
aI10000
asV/store/cmst3/group/cmgtools/CMG/GluGluToHToTauTau_M-120_8TeV-powheg-pythia6/Summer12_DR53X-PU_S10_START53_V7A-v1/AODSIM/PAT_CMG_V5_16_0/cmgTuple_494_1_UGb.root
p1056
(lp1057
I01
aI10000
asV/store/cmst3/group/cmgtools/CMG/GluGluToHToTauTau_M-120_8TeV-powheg-pythia6/Summer12_DR53X-PU_S10_START53_V7A-v1/AODSIM/PAT_CMG_V5_16_0/cmgTuple_219_1_fS8.root
p1058
(lp1059
I01
aI10000
asV/store/cmst3/group/cmgtools/CMG/GluGluToHToTauTau_M-120_8TeV-powheg-pythia6/Summer12_DR53X-PU_S10_START53_V7A-v1/AODSIM/PAT_CMG_V5_16_0/cmgTuple_350_1_nkV.root
p1060
(lp1061
I01
aI10000
asV/store/cmst3/group/cmgtools/CMG/GluGluToHToTauTau_M-120_8TeV-powheg-pythia6/Summer12_DR53X-PU_S10_START53_V7A-v1/AODSIM/PAT_CMG_V5_16_0/cmgTuple_352_1_3Lx.root
p1062
(lp1063
I01
aI10000
asV/store/cmst3/group/cmgtools/CMG/GluGluToHToTauTau_M-120_8TeV-powheg-pythia6/Summer12_DR53X-PU_S10_START53_V7A-v1/AODSIM/PAT_CMG_V5_16_0/cmgTuple_131_1_XG6.root
p1064
(lp1065
I01
aI10000
asV/store/cmst3/group/cmgtools/CMG/GluGluToHToTauTau_M-120_8TeV-powheg-pythia6/Summer12_DR53X-PU_S10_START53_V7A-v1/AODSIM/PAT_CMG_V5_16_0/cmgTuple_385_1_HTQ.root
p1066
(lp1067
I01
aI10000
asV/store/cmst3/group/cmgtools/CMG/GluGluToHToTauTau_M-120_8TeV-powheg-pythia6/Summer12_DR53X-PU_S10_START53_V7A-v1/AODSIM/PAT_CMG_V5_16_0/cmgTuple_451_1_D4V.root
p1068
(lp1069
I01
aI10000
asV/store/cmst3/group/cmgtools/CMG/GluGluToHToTauTau_M-120_8TeV-powheg-pythia6/Summer12_DR53X-PU_S10_START53_V7A-v1/AODSIM/PAT_CMG_V5_16_0/cmgTuple_319_1_e6E.root
p1070
(lp1071
I01
aI10000
asV/store/cmst3/group/cmgtools/CMG/GluGluToHToTauTau_M-120_8TeV-powheg-pythia6/Summer12_DR53X-PU_S10_START53_V7A-v1/AODSIM/PAT_CMG_V5_16_0/cmgTuple_4_1_ZIs.root
p1072
(lp1073
I01
aI10000
asV/store/cmst3/group/cmgtools/CMG/GluGluToHToTauTau_M-120_8TeV-powheg-pythia6/Summer12_DR53X-PU_S10_START53_V7A-v1/AODSIM/PAT_CMG_V5_16_0/cmgTuple_253_1_yLV.root
p1074
(lp1075
I01
aI10000
asV/store/cmst3/group/cmgtools/CMG/GluGluToHToTauTau_M-120_8TeV-powheg-pythia6/Summer12_DR53X-PU_S10_START53_V7A-v1/AODSIM/PAT_CMG_V5_16_0/cmgTuple_105_1_ynh.root
p1076
(lp1077
I01
aI10000
asV/store/cmst3/group/cmgtools/CMG/GluGluToHToTauTau_M-120_8TeV-powheg-pythia6/Summer12_DR53X-PU_S10_START53_V7A-v1/AODSIM/PAT_CMG_V5_16_0/cmgTuple_18_1_0Dk.root
p1078
(lp1079
I01
aI10000
asV/store/cmst3/group/cmgtools/CMG/GluGluToHToTauTau_M-120_8TeV-powheg-pythia6/Summer12_DR53X-PU_S10_START53_V7A-v1/AODSIM/PAT_CMG_V5_16_0/cmgTuple_374_1_P1o.root
p1080
(lp1081
I01
aI10000
asV/store/cmst3/group/cmgtools/CMG/GluGluToHToTauTau_M-120_8TeV-powheg-pythia6/Summer12_DR53X-PU_S10_START53_V7A-v1/AODSIM/PAT_CMG_V5_16_0/cmgTuple_13_1_qZX.root
p1082
(lp1083
I01
aI10000
asV/store/cmst3/group/cmgtools/CMG/GluGluToHToTauTau_M-120_8TeV-powheg-pythia6/Summer12_DR53X-PU_S10_START53_V7A-v1/AODSIM/PAT_CMG_V5_16_0/cmgTuple_48_1_uWn.root
p1084
(lp1085
I01
aI10000
asV/store/cmst3/group/cmgtools/CMG/GluGluToHToTauTau_M-120_8TeV-powheg-pythia6/Summer12_DR53X-PU_S10_START53_V7A-v1/AODSIM/PAT_CMG_V5_16_0/cmgTuple_347_1_QjL.root
p1086
(lp1087
I01
aI10000
asV/store/cmst3/group/cmgtools/CMG/GluGluToHToTauTau_M-120_8TeV-powheg-pythia6/Summer12_DR53X-PU_S10_START53_V7A-v1/AODSIM/PAT_CMG_V5_16_0/cmgTuple_460_1_2KX.root
p1088
(lp1089
I01
aI10000
asV/store/cmst3/group/cmgtools/CMG/GluGluToHToTauTau_M-120_8TeV-powheg-pythia6/Summer12_DR53X-PU_S10_START53_V7A-v1/AODSIM/PAT_CMG_V5_16_0/cmgTuple_201_1_k5r.root
p1090
(lp1091
I01
aI10000
asV/store/cmst3/group/cmgtools/CMG/GluGluToHToTauTau_M-120_8TeV-powheg-pythia6/Summer12_DR53X-PU_S10_START53_V7A-v1/AODSIM/PAT_CMG_V5_16_0/cmgTuple_417_1_Yz1.root
p1092
(lp1093
I01
aI10000
asV/store/cmst3/group/cmgtools/CMG/GluGluToHToTauTau_M-120_8TeV-powheg-pythia6/Summer12_DR53X-PU_S10_START53_V7A-v1/AODSIM/PAT_CMG_V5_16_0/cmgTuple_358_1_Nuf.root
p1094
(lp1095
I01
aI10000
asV/store/cmst3/group/cmgtools/CMG/GluGluToHToTauTau_M-120_8TeV-powheg-pythia6/Summer12_DR53X-PU_S10_START53_V7A-v1/AODSIM/PAT_CMG_V5_16_0/cmgTuple_359_1_GY1.root
p1096
(lp1097
I01
aI10000
asV/store/cmst3/group/cmgtools/CMG/GluGluToHToTauTau_M-120_8TeV-powheg-pythia6/Summer12_DR53X-PU_S10_START53_V7A-v1/AODSIM/PAT_CMG_V5_16_0/cmgTuple_54_1_hEO.root
p1098
(lp1099
I01
aI10000
asV/store/cmst3/group/cmgtools/CMG/GluGluToHToTauTau_M-120_8TeV-powheg-pythia6/Summer12_DR53X-PU_S10_START53_V7A-v1/AODSIM/PAT_CMG_V5_16_0/cmgTuple_309_1_dzG.root
p1100
(lp1101
I01
aI10000
asV/store/cmst3/group/cmgtools/CMG/GluGluToHToTauTau_M-120_8TeV-powheg-pythia6/Summer12_DR53X-PU_S10_START53_V7A-v1/AODSIM/PAT_CMG_V5_16_0/cmgTuple_189_1_05q.root
p1102
(lp1103
I01
aI10000
asV/store/cmst3/group/cmgtools/CMG/GluGluToHToTauTau_M-120_8TeV-powheg-pythia6/Summer12_DR53X-PU_S10_START53_V7A-v1/AODSIM/PAT_CMG_V5_16_0/cmgTuple_283_1_4lZ.root
p1104
(lp1105
I01
aI10000
asV/store/cmst3/group/cmgtools/CMG/GluGluToHToTauTau_M-120_8TeV-powheg-pythia6/Summer12_DR53X-PU_S10_START53_V7A-v1/AODSIM/PAT_CMG_V5_16_0/cmgTuple_258_1_M5f.root
p1106
(lp1107
I01
aI10000
asV/store/cmst3/group/cmgtools/CMG/GluGluToHToTauTau_M-120_8TeV-powheg-pythia6/Summer12_DR53X-PU_S10_START53_V7A-v1/AODSIM/PAT_CMG_V5_16_0/cmgTuple_439_1_5PN.root
p1108
(lp1109
I01
aI10000
asV/store/cmst3/group/cmgtools/CMG/GluGluToHToTauTau_M-120_8TeV-powheg-pythia6/Summer12_DR53X-PU_S10_START53_V7A-v1/AODSIM/PAT_CMG_V5_16_0/cmgTuple_142_1_BGe.root
p1110
(lp1111
I01
aI10000
asV/store/cmst3/group/cmgtools/CMG/GluGluToHToTauTau_M-120_8TeV-powheg-pythia6/Summer12_DR53X-PU_S10_START53_V7A-v1/AODSIM/PAT_CMG_V5_16_0/cmgTuple_423_1_RK2.root
p1112
(lp1113
I01
aI10000
asV/store/cmst3/group/cmgtools/CMG/GluGluToHToTauTau_M-120_8TeV-powheg-pythia6/Summer12_DR53X-PU_S10_START53_V7A-v1/AODSIM/PAT_CMG_V5_16_0/cmgTuple_335_1_AAa.root
p1114
(lp1115
I01
aI10000
asV/store/cmst3/group/cmgtools/CMG/GluGluToHToTauTau_M-120_8TeV-powheg-pythia6/Summer12_DR53X-PU_S10_START53_V7A-v1/AODSIM/PAT_CMG_V5_16_0/cmgTuple_419_1_3We.root
p1116
(lp1117
I01
aI10000
asV/store/cmst3/group/cmgtools/CMG/GluGluToHToTauTau_M-120_8TeV-powheg-pythia6/Summer12_DR53X-PU_S10_START53_V7A-v1/AODSIM/PAT_CMG_V5_16_0/cmgTuple_15_1_DWX.root
p1118
(lp1119
I01
aI10000
asV/store/cmst3/group/cmgtools/CMG/GluGluToHToTauTau_M-120_8TeV-powheg-pythia6/Summer12_DR53X-PU_S10_START53_V7A-v1/AODSIM/PAT_CMG_V5_16_0/cmgTuple_277_1_Uwv.root
p1120
(lp1121
I01
aI10000
asV/store/cmst3/group/cmgtools/CMG/GluGluToHToTauTau_M-120_8TeV-powheg-pythia6/Summer12_DR53X-PU_S10_START53_V7A-v1/AODSIM/PAT_CMG_V5_16_0/cmgTuple_236_1_Nkf.root
p1122
(lp1123
I01
aI10000
asV/store/cmst3/group/cmgtools/CMG/GluGluToHToTauTau_M-120_8TeV-powheg-pythia6/Summer12_DR53X-PU_S10_START53_V7A-v1/AODSIM/PAT_CMG_V5_16_0/cmgTuple_81_1_8TY.root
p1124
(lp1125
I01
aI10000
asV/store/cmst3/group/cmgtools/CMG/GluGluToHToTauTau_M-120_8TeV-powheg-pythia6/Summer12_DR53X-PU_S10_START53_V7A-v1/AODSIM/PAT_CMG_V5_16_0/cmgTuple_204_1_ry8.root
p1126
(lp1127
I01
aI10000
asV/store/cmst3/group/cmgtools/CMG/GluGluToHToTauTau_M-120_8TeV-powheg-pythia6/Summer12_DR53X-PU_S10_START53_V7A-v1/AODSIM/PAT_CMG_V5_16_0/cmgTuple_269_1_M3m.root
p1128
(lp1129
I01
aI10000
asV/store/cmst3/group/cmgtools/CMG/GluGluToHToTauTau_M-120_8TeV-powheg-pythia6/Summer12_DR53X-PU_S10_START53_V7A-v1/AODSIM/PAT_CMG_V5_16_0/cmgTuple_216_1_HWy.root
p1130
(lp1131
I01
aI10000
asV/store/cmst3/group/cmgtools/CMG/GluGluToHToTauTau_M-120_8TeV-powheg-pythia6/Summer12_DR53X-PU_S10_START53_V7A-v1/AODSIM/PAT_CMG_V5_16_0/cmgTuple_179_1_vIX.root
p1132
(lp1133
I01
aI10000
asV/store/cmst3/group/cmgtools/CMG/GluGluToHToTauTau_M-120_8TeV-powheg-pythia6/Summer12_DR53X-PU_S10_START53_V7A-v1/AODSIM/PAT_CMG_V5_16_0/cmgTuple_354_1_Tmn.root
p1134
(lp1135
I01
aI10000
asV/store/cmst3/group/cmgtools/CMG/GluGluToHToTauTau_M-120_8TeV-powheg-pythia6/Summer12_DR53X-PU_S10_START53_V7A-v1/AODSIM/PAT_CMG_V5_16_0/cmgTuple_160_1_Bw1.root
p1136
(lp1137
I01
aI10000
asV/store/cmst3/group/cmgtools/CMG/GluGluToHToTauTau_M-120_8TeV-powheg-pythia6/Summer12_DR53X-PU_S10_START53_V7A-v1/AODSIM/PAT_CMG_V5_16_0/cmgTuple_427_1_959.root
p1138
(lp1139
I01
aI10000
asV/store/cmst3/group/cmgtools/CMG/GluGluToHToTauTau_M-120_8TeV-powheg-pythia6/Summer12_DR53X-PU_S10_START53_V7A-v1/AODSIM/PAT_CMG_V5_16_0/cmgTuple_443_1_S5U.root
p1140
(lp1141
I01
aI10000
asV/store/cmst3/group/cmgtools/CMG/GluGluToHToTauTau_M-120_8TeV-powheg-pythia6/Summer12_DR53X-PU_S10_START53_V7A-v1/AODSIM/PAT_CMG_V5_16_0/cmgTuple_39_1_wvz.root
p1142
(lp1143
I01
aI10000
asV/store/cmst3/group/cmgtools/CMG/GluGluToHToTauTau_M-120_8TeV-powheg-pythia6/Summer12_DR53X-PU_S10_START53_V7A-v1/AODSIM/PAT_CMG_V5_16_0/cmgTuple_23_1_xNA.root
p1144
(lp1145
I01
aI10000
asV/store/cmst3/group/cmgtools/CMG/GluGluToHToTauTau_M-120_8TeV-powheg-pythia6/Summer12_DR53X-PU_S10_START53_V7A-v1/AODSIM/PAT_CMG_V5_16_0/cmgTuple_400_1_sbq.root
p1146
(lp1147
I01
aI10000
asV/store/cmst3/group/cmgtools/CMG/GluGluToHToTauTau_M-120_8TeV-powheg-pythia6/Summer12_DR53X-PU_S10_START53_V7A-v1/AODSIM/PAT_CMG_V5_16_0/cmgTuple_414_1_YMp.root
p1148
(lp1149
I01
aI10000
asV/store/cmst3/group/cmgtools/CMG/GluGluToHToTauTau_M-120_8TeV-powheg-pythia6/Summer12_DR53X-PU_S10_START53_V7A-v1/AODSIM/PAT_CMG_V5_16_0/cmgTuple_103_1_3X9.root
p1150
(lp1151
I01
aI10000
asV/store/cmst3/group/cmgtools/CMG/GluGluToHToTauTau_M-120_8TeV-powheg-pythia6/Summer12_DR53X-PU_S10_START53_V7A-v1/AODSIM/PAT_CMG_V5_16_0/cmgTuple_42_1_MDv.root
p1152
(lp1153
I01
aI10000
asV/store/cmst3/group/cmgtools/CMG/GluGluToHToTauTau_M-120_8TeV-powheg-pythia6/Summer12_DR53X-PU_S10_START53_V7A-v1/AODSIM/PAT_CMG_V5_16_0/cmgTuple_11_1_QvO.root
p1154
(lp1155
I01
aI10000
asV/store/cmst3/group/cmgtools/CMG/GluGluToHToTauTau_M-120_8TeV-powheg-pythia6/Summer12_DR53X-PU_S10_START53_V7A-v1/AODSIM/PAT_CMG_V5_16_0/cmgTuple_268_1_L5D.root
p1156
(lp1157
I01
aI10000
asV/store/cmst3/group/cmgtools/CMG/GluGluToHToTauTau_M-120_8TeV-powheg-pythia6/Summer12_DR53X-PU_S10_START53_V7A-v1/AODSIM/PAT_CMG_V5_16_0/cmgTuple_344_1_O3x.root
p1158
(lp1159
I01
aI10000
asV/store/cmst3/group/cmgtools/CMG/GluGluToHToTauTau_M-120_8TeV-powheg-pythia6/Summer12_DR53X-PU_S10_START53_V7A-v1/AODSIM/PAT_CMG_V5_16_0/cmgTuple_257_1_cVi.root
p1160
(lp1161
I01
aI10000
asV/store/cmst3/group/cmgtools/CMG/GluGluToHToTauTau_M-120_8TeV-powheg-pythia6/Summer12_DR53X-PU_S10_START53_V7A-v1/AODSIM/PAT_CMG_V5_16_0/cmgTuple_316_1_ZLQ.root
p1162
(lp1163
I01
aI10000
asV/store/cmst3/group/cmgtools/CMG/GluGluToHToTauTau_M-120_8TeV-powheg-pythia6/Summer12_DR53X-PU_S10_START53_V7A-v1/AODSIM/PAT_CMG_V5_16_0/cmgTuple_228_1_FRz.root
p1164
(lp1165
I01
aI10000
asV/store/cmst3/group/cmgtools/CMG/GluGluToHToTauTau_M-120_8TeV-powheg-pythia6/Summer12_DR53X-PU_S10_START53_V7A-v1/AODSIM/PAT_CMG_V5_16_0/cmgTuple_21_1_sx2.root
p1166
(lp1167
I01
aI10000
asV/store/cmst3/group/cmgtools/CMG/GluGluToHToTauTau_M-120_8TeV-powheg-pythia6/Summer12_DR53X-PU_S10_START53_V7A-v1/AODSIM/PAT_CMG_V5_16_0/cmgTuple_260_1_GDm.root
p1168
(lp1169
I01
aI10000
asV/store/cmst3/group/cmgtools/CMG/GluGluToHToTauTau_M-120_8TeV-powheg-pythia6/Summer12_DR53X-PU_S10_START53_V7A-v1/AODSIM/PAT_CMG_V5_16_0/cmgTuple_202_1_V9z.root
p1170
(lp1171
I01
aI10000
asV/store/cmst3/group/cmgtools/CMG/GluGluToHToTauTau_M-120_8TeV-powheg-pythia6/Summer12_DR53X-PU_S10_START53_V7A-v1/AODSIM/PAT_CMG_V5_16_0/cmgTuple_251_1_5JN.root
p1172
(lp1173
I01
aI10000
asV/store/cmst3/group/cmgtools/CMG/GluGluToHToTauTau_M-120_8TeV-powheg-pythia6/Summer12_DR53X-PU_S10_START53_V7A-v1/AODSIM/PAT_CMG_V5_16_0/cmgTuple_196_1_U1V.root
p1174
(lp1175
I01
aI10000
asV/store/cmst3/group/cmgtools/CMG/GluGluToHToTauTau_M-120_8TeV-powheg-pythia6/Summer12_DR53X-PU_S10_START53_V7A-v1/AODSIM/PAT_CMG_V5_16_0/cmgTuple_38_1_otx.root
p1176
(lp1177
I01
aI10000
asV/store/cmst3/group/cmgtools/CMG/GluGluToHToTauTau_M-120_8TeV-powheg-pythia6/Summer12_DR53X-PU_S10_START53_V7A-v1/AODSIM/PAT_CMG_V5_16_0/cmgTuple_120_1_uTu.root
p1178
(lp1179
I01
aI10000
asV/store/cmst3/group/cmgtools/CMG/GluGluToHToTauTau_M-120_8TeV-powheg-pythia6/Summer12_DR53X-PU_S10_START53_V7A-v1/AODSIM/PAT_CMG_V5_16_0/cmgTuple_194_1_ekX.root
p1180
(lp1181
I01
aI10000
asV/store/cmst3/group/cmgtools/CMG/GluGluToHToTauTau_M-120_8TeV-powheg-pythia6/Summer12_DR53X-PU_S10_START53_V7A-v1/AODSIM/PAT_CMG_V5_16_0/cmgTuple_473_1_Stw.root
p1182
(lp1183
I01
aI10000
asV/store/cmst3/group/cmgtools/CMG/GluGluToHToTauTau_M-120_8TeV-powheg-pythia6/Summer12_DR53X-PU_S10_START53_V7A-v1/AODSIM/PAT_CMG_V5_16_0/cmgTuple_384_1_X56.root
p1184
(lp1185
I01
aI10000
asV/store/cmst3/group/cmgtools/CMG/GluGluToHToTauTau_M-120_8TeV-powheg-pythia6/Summer12_DR53X-PU_S10_START53_V7A-v1/AODSIM/PAT_CMG_V5_16_0/cmgTuple_462_1_rWd.root
p1186
(lp1187
I01
aI10000
asV/store/cmst3/group/cmgtools/CMG/GluGluToHToTauTau_M-120_8TeV-powheg-pythia6/Summer12_DR53X-PU_S10_START53_V7A-v1/AODSIM/PAT_CMG_V5_16_0/cmgTuple_94_1_EkW.root
p1188
(lp1189
I01
aI10000
asV/store/cmst3/group/cmgtools/CMG/GluGluToHToTauTau_M-120_8TeV-powheg-pythia6/Summer12_DR53X-PU_S10_START53_V7A-v1/AODSIM/PAT_CMG_V5_16_0/cmgTuple_486_1_mcW.root
p1190
(lp1191
I01
aI10000
asV/store/cmst3/group/cmgtools/CMG/GluGluToHToTauTau_M-120_8TeV-powheg-pythia6/Summer12_DR53X-PU_S10_START53_V7A-v1/AODSIM/PAT_CMG_V5_16_0/cmgTuple_127_1_DKY.root
p1192
(lp1193
I01
aI10000
asV/store/cmst3/group/cmgtools/CMG/GluGluToHToTauTau_M-120_8TeV-powheg-pythia6/Summer12_DR53X-PU_S10_START53_V7A-v1/AODSIM/PAT_CMG_V5_16_0/cmgTuple_126_1_fpD.root
p1194
(lp1195
I01
aI10000
asV/store/cmst3/group/cmgtools/CMG/GluGluToHToTauTau_M-120_8TeV-powheg-pythia6/Summer12_DR53X-PU_S10_START53_V7A-v1/AODSIM/PAT_CMG_V5_16_0/cmgTuple_348_1_Lrv.root
p1196
(lp1197
I01
aI10000
asV/store/cmst3/group/cmgtools/CMG/GluGluToHToTauTau_M-120_8TeV-powheg-pythia6/Summer12_DR53X-PU_S10_START53_V7A-v1/AODSIM/PAT_CMG_V5_16_0/cmgTuple_76_1_LFZ.root
p1198
(lp1199
I01
aI10000
asV/store/cmst3/group/cmgtools/CMG/GluGluToHToTauTau_M-120_8TeV-powheg-pythia6/Summer12_DR53X-PU_S10_START53_V7A-v1/AODSIM/PAT_CMG_V5_16_0/cmgTuple_341_1_lLC.root
p1200
(lp1201
I01
aI10000
asV/store/cmst3/group/cmgtools/CMG/GluGluToHToTauTau_M-120_8TeV-powheg-pythia6/Summer12_DR53X-PU_S10_START53_V7A-v1/AODSIM/PAT_CMG_V5_16_0/cmgTuple_190_1_qJF.root
p1202
(lp1203
I01
aI10000
asV/store/cmst3/group/cmgtools/CMG/GluGluToHToTauTau_M-120_8TeV-powheg-pythia6/Summer12_DR53X-PU_S10_START53_V7A-v1/AODSIM/PAT_CMG_V5_16_0/cmgTuple_278_1_ffs.root
p1204
(lp1205
I01
aI10000
asV/store/cmst3/group/cmgtools/CMG/GluGluToHToTauTau_M-120_8TeV-powheg-pythia6/Summer12_DR53X-PU_S10_START53_V7A-v1/AODSIM/PAT_CMG_V5_16_0/cmgTuple_356_1_viQ.root
p1206
(lp1207
I01
aI10000
asV/store/cmst3/group/cmgtools/CMG/GluGluToHToTauTau_M-120_8TeV-powheg-pythia6/Summer12_DR53X-PU_S10_START53_V7A-v1/AODSIM/PAT_CMG_V5_16_0/cmgTuple_442_1_WZN.root
p1208
(lp1209
I01
aI10000
asV/store/cmst3/group/cmgtools/CMG/GluGluToHToTauTau_M-120_8TeV-powheg-pythia6/Summer12_DR53X-PU_S10_START53_V7A-v1/AODSIM/PAT_CMG_V5_16_0/cmgTuple_151_1_BV0.root
p1210
(lp1211
I01
aI10000
asV/store/cmst3/group/cmgtools/CMG/GluGluToHToTauTau_M-120_8TeV-powheg-pythia6/Summer12_DR53X-PU_S10_START53_V7A-v1/AODSIM/PAT_CMG_V5_16_0/cmgTuple_41_1_AKp.root
p1212
(lp1213
I01
aI10000
asV/store/cmst3/group/cmgtools/CMG/GluGluToHToTauTau_M-120_8TeV-powheg-pythia6/Summer12_DR53X-PU_S10_START53_V7A-v1/AODSIM/PAT_CMG_V5_16_0/cmgTuple_178_1_SId.root
p1214
(lp1215
I01
aI10000
asV/store/cmst3/group/cmgtools/CMG/GluGluToHToTauTau_M-120_8TeV-powheg-pythia6/Summer12_DR53X-PU_S10_START53_V7A-v1/AODSIM/PAT_CMG_V5_16_0/cmgTuple_121_1_r3R.root
p1216
(lp1217
I01
aI10000
asV/store/cmst3/group/cmgtools/CMG/GluGluToHToTauTau_M-120_8TeV-powheg-pythia6/Summer12_DR53X-PU_S10_START53_V7A-v1/AODSIM/PAT_CMG_V5_16_0/cmgTuple_147_1_hXz.root
p1218
(lp1219
I01
aI10000
asV/store/cmst3/group/cmgtools/CMG/GluGluToHToTauTau_M-120_8TeV-powheg-pythia6/Summer12_DR53X-PU_S10_START53_V7A-v1/AODSIM/PAT_CMG_V5_16_0/cmgTuple_60_1_W0i.root
p1220
(lp1221
I01
aI10000
asV/store/cmst3/group/cmgtools/CMG/GluGluToHToTauTau_M-120_8TeV-powheg-pythia6/Summer12_DR53X-PU_S10_START53_V7A-v1/AODSIM/PAT_CMG_V5_16_0/cmgTuple_377_1_bcz.root
p1222
(lp1223
I01
aI10000
asV/store/cmst3/group/cmgtools/CMG/GluGluToHToTauTau_M-120_8TeV-powheg-pythia6/Summer12_DR53X-PU_S10_START53_V7A-v1/AODSIM/PAT_CMG_V5_16_0/cmgTuple_170_1_HeQ.root
p1224
(lp1225
I01
aI10000
asV/store/cmst3/group/cmgtools/CMG/GluGluToHToTauTau_M-120_8TeV-powheg-pythia6/Summer12_DR53X-PU_S10_START53_V7A-v1/AODSIM/PAT_CMG_V5_16_0/cmgTuple_324_1_I21.root
p1226
(lp1227
I01
aI10000
asV/store/cmst3/group/cmgtools/CMG/GluGluToHToTauTau_M-120_8TeV-powheg-pythia6/Summer12_DR53X-PU_S10_START53_V7A-v1/AODSIM/PAT_CMG_V5_16_0/cmgTuple_52_1_tV7.root
p1228
(lp1229
I01
aI10000
asV/store/cmst3/group/cmgtools/CMG/GluGluToHToTauTau_M-120_8TeV-powheg-pythia6/Summer12_DR53X-PU_S10_START53_V7A-v1/AODSIM/PAT_CMG_V5_16_0/cmgTuple_436_1_566.root
p1230
(lp1231
I01
aI10000
asV/store/cmst3/group/cmgtools/CMG/GluGluToHToTauTau_M-120_8TeV-powheg-pythia6/Summer12_DR53X-PU_S10_START53_V7A-v1/AODSIM/PAT_CMG_V5_16_0/cmgTuple_75_1_kry.root
p1232
(lp1233
I01
aI10000
asV/store/cmst3/group/cmgtools/CMG/GluGluToHToTauTau_M-120_8TeV-powheg-pythia6/Summer12_DR53X-PU_S10_START53_V7A-v1/AODSIM/PAT_CMG_V5_16_0/cmgTuple_65_1_mPi.root
p1234
(lp1235
I01
aI10000
asV/store/cmst3/group/cmgtools/CMG/GluGluToHToTauTau_M-120_8TeV-powheg-pythia6/Summer12_DR53X-PU_S10_START53_V7A-v1/AODSIM/PAT_CMG_V5_16_0/cmgTuple_73_1_uF3.root
p1236
(lp1237
I01
aI10000
asV/store/cmst3/group/cmgtools/CMG/GluGluToHToTauTau_M-120_8TeV-powheg-pythia6/Summer12_DR53X-PU_S10_START53_V7A-v1/AODSIM/PAT_CMG_V5_16_0/cmgTuple_273_1_8pl.root
p1238
(lp1239
I01
aI10000
asV/store/cmst3/group/cmgtools/CMG/GluGluToHToTauTau_M-120_8TeV-powheg-pythia6/Summer12_DR53X-PU_S10_START53_V7A-v1/AODSIM/PAT_CMG_V5_16_0/cmgTuple_226_1_0uw.root
p1240
(lp1241
I01
aI10000
asV/store/cmst3/group/cmgtools/CMG/GluGluToHToTauTau_M-120_8TeV-powheg-pythia6/Summer12_DR53X-PU_S10_START53_V7A-v1/AODSIM/PAT_CMG_V5_16_0/cmgTuple_1_1_ISl.root
p1242
(lp1243
I01
aI10000
asV/store/cmst3/group/cmgtools/CMG/GluGluToHToTauTau_M-120_8TeV-powheg-pythia6/Summer12_DR53X-PU_S10_START53_V7A-v1/AODSIM/PAT_CMG_V5_16_0/cmgTuple_90_1_R4u.root
p1244
(lp1245
I01
aI10000
asV/store/cmst3/group/cmgtools/CMG/GluGluToHToTauTau_M-120_8TeV-powheg-pythia6/Summer12_DR53X-PU_S10_START53_V7A-v1/AODSIM/PAT_CMG_V5_16_0/cmgTuple_468_1_bwR.root
p1246
(lp1247
I01
aI10000
asV/store/cmst3/group/cmgtools/CMG/GluGluToHToTauTau_M-120_8TeV-powheg-pythia6/Summer12_DR53X-PU_S10_START53_V7A-v1/AODSIM/PAT_CMG_V5_16_0/cmgTuple_402_1_JKd.root
p1248
(lp1249
I01
aI10000
asV/store/cmst3/group/cmgtools/CMG/GluGluToHToTauTau_M-120_8TeV-powheg-pythia6/Summer12_DR53X-PU_S10_START53_V7A-v1/AODSIM/PAT_CMG_V5_16_0/cmgTuple_168_1_jyM.root
p1250
(lp1251
I01
aI10000
asV/store/cmst3/group/cmgtools/CMG/GluGluToHToTauTau_M-120_8TeV-powheg-pythia6/Summer12_DR53X-PU_S10_START53_V7A-v1/AODSIM/PAT_CMG_V5_16_0/cmgTuple_498_1_sQO.root
p1252
(lp1253
I01
aI10000
asV/store/cmst3/group/cmgtools/CMG/GluGluToHToTauTau_M-120_8TeV-powheg-pythia6/Summer12_DR53X-PU_S10_START53_V7A-v1/AODSIM/PAT_CMG_V5_16_0/cmgTuple_180_1_YWZ.root
p1254
(lp1255
I01
aI10000
asV/store/cmst3/group/cmgtools/CMG/GluGluToHToTauTau_M-120_8TeV-powheg-pythia6/Summer12_DR53X-PU_S10_START53_V7A-v1/AODSIM/PAT_CMG_V5_16_0/cmgTuple_478_1_0Sf.root
p1256
(lp1257
I01
aI10000
asV/store/cmst3/group/cmgtools/CMG/GluGluToHToTauTau_M-120_8TeV-powheg-pythia6/Summer12_DR53X-PU_S10_START53_V7A-v1/AODSIM/PAT_CMG_V5_16_0/cmgTuple_393_1_sHd.root
p1258
(lp1259
I01
aI10000
asV/store/cmst3/group/cmgtools/CMG/GluGluToHToTauTau_M-120_8TeV-powheg-pythia6/Summer12_DR53X-PU_S10_START53_V7A-v1/AODSIM/PAT_CMG_V5_16_0/cmgTuple_401_1_sD1.root
p1260
(lp1261
I01
aI10000
asV/store/cmst3/group/cmgtools/CMG/GluGluToHToTauTau_M-120_8TeV-powheg-pythia6/Summer12_DR53X-PU_S10_START53_V7A-v1/AODSIM/PAT_CMG_V5_16_0/cmgTuple_116_1_MZg.root
p1262
(lp1263
I01
aI10000
asV/store/cmst3/group/cmgtools/CMG/GluGluToHToTauTau_M-120_8TeV-powheg-pythia6/Summer12_DR53X-PU_S10_START53_V7A-v1/AODSIM/PAT_CMG_V5_16_0/cmgTuple_306_1_eLz.root
p1264
(lp1265
I01
aI10000
asV/store/cmst3/group/cmgtools/CMG/GluGluToHToTauTau_M-120_8TeV-powheg-pythia6/Summer12_DR53X-PU_S10_START53_V7A-v1/AODSIM/PAT_CMG_V5_16_0/cmgTuple_200_1_D6z.root
p1266
(lp1267
I01
aI10000
asV/store/cmst3/group/cmgtools/CMG/GluGluToHToTauTau_M-120_8TeV-powheg-pythia6/Summer12_DR53X-PU_S10_START53_V7A-v1/AODSIM/PAT_CMG_V5_16_0/cmgTuple_386_1_PrW.root
p1268
(lp1269
I01
aI10000
asV/store/cmst3/group/cmgtools/CMG/GluGluToHToTauTau_M-120_8TeV-powheg-pythia6/Summer12_DR53X-PU_S10_START53_V7A-v1/AODSIM/PAT_CMG_V5_16_0/cmgTuple_444_1_XmB.root
p1270
(lp1271
I01
aI10000
asV/store/cmst3/group/cmgtools/CMG/GluGluToHToTauTau_M-120_8TeV-powheg-pythia6/Summer12_DR53X-PU_S10_START53_V7A-v1/AODSIM/PAT_CMG_V5_16_0/cmgTuple_294_1_MEb.root
p1272
(lp1273
I01
aI10000
asV/store/cmst3/group/cmgtools/CMG/GluGluToHToTauTau_M-120_8TeV-powheg-pythia6/Summer12_DR53X-PU_S10_START53_V7A-v1/AODSIM/PAT_CMG_V5_16_0/cmgTuple_378_1_KuB.root
p1274
(lp1275
I01
aI10000
asV/store/cmst3/group/cmgtools/CMG/GluGluToHToTauTau_M-120_8TeV-powheg-pythia6/Summer12_DR53X-PU_S10_START53_V7A-v1/AODSIM/PAT_CMG_V5_16_0/cmgTuple_449_1_ADU.root
p1276
(lp1277
I01
aI10000
asV/store/cmst3/group/cmgtools/CMG/GluGluToHToTauTau_M-120_8TeV-powheg-pythia6/Summer12_DR53X-PU_S10_START53_V7A-v1/AODSIM/PAT_CMG_V5_16_0/cmgTuple_229_1_2c4.root
p1278
(lp1279
I01
aI10000
asV/store/cmst3/group/cmgtools/CMG/GluGluToHToTauTau_M-120_8TeV-powheg-pythia6/Summer12_DR53X-PU_S10_START53_V7A-v1/AODSIM/PAT_CMG_V5_16_0/cmgTuple_263_1_c77.root
p1280
(lp1281
I01
aI10000
asV/store/cmst3/group/cmgtools/CMG/GluGluToHToTauTau_M-120_8TeV-powheg-pythia6/Summer12_DR53X-PU_S10_START53_V7A-v1/AODSIM/PAT_CMG_V5_16_0/cmgTuple_303_1_31c.root
p1282
(lp1283
I01
aI10000
asV/store/cmst3/group/cmgtools/CMG/GluGluToHToTauTau_M-120_8TeV-powheg-pythia6/Summer12_DR53X-PU_S10_START53_V7A-v1/AODSIM/PAT_CMG_V5_16_0/cmgTuple_388_1_ZOU.root
p1284
(lp1285
I01
aI10000
asV/store/cmst3/group/cmgtools/CMG/GluGluToHToTauTau_M-120_8TeV-powheg-pythia6/Summer12_DR53X-PU_S10_START53_V7A-v1/AODSIM/PAT_CMG_V5_16_0/cmgTuple_112_1_1iT.root
p1286
(lp1287
I01
aI10000
asV/store/cmst3/group/cmgtools/CMG/GluGluToHToTauTau_M-120_8TeV-powheg-pythia6/Summer12_DR53X-PU_S10_START53_V7A-v1/AODSIM/PAT_CMG_V5_16_0/cmgTuple_432_1_rDO.root
p1288
(lp1289
I01
aI10000
asV/store/cmst3/group/cmgtools/CMG/GluGluToHToTauTau_M-120_8TeV-powheg-pythia6/Summer12_DR53X-PU_S10_START53_V7A-v1/AODSIM/PAT_CMG_V5_16_0/cmgTuple_270_1_vsS.root
p1290
(lp1291
I01
aI10000
asV/store/cmst3/group/cmgtools/CMG/GluGluToHToTauTau_M-120_8TeV-powheg-pythia6/Summer12_DR53X-PU_S10_START53_V7A-v1/AODSIM/PAT_CMG_V5_16_0/cmgTuple_113_1_K4M.root
p1292
(lp1293
I01
aI10000
asV/store/cmst3/group/cmgtools/CMG/GluGluToHToTauTau_M-120_8TeV-powheg-pythia6/Summer12_DR53X-PU_S10_START53_V7A-v1/AODSIM/PAT_CMG_V5_16_0/cmgTuple_223_1_5wZ.root
p1294
(lp1295
I01
aI10000
asV/store/cmst3/group/cmgtools/CMG/GluGluToHToTauTau_M-120_8TeV-powheg-pythia6/Summer12_DR53X-PU_S10_START53_V7A-v1/AODSIM/PAT_CMG_V5_16_0/cmgTuple_497_1_Ozm.root
p1296
(lp1297
I01
aI10000
asV/store/cmst3/group/cmgtools/CMG/GluGluToHToTauTau_M-120_8TeV-powheg-pythia6/Summer12_DR53X-PU_S10_START53_V7A-v1/AODSIM/PAT_CMG_V5_16_0/cmgTuple_91_1_eJQ.root
p1298
(lp1299
I01
aI10000
asV/store/cmst3/group/cmgtools/CMG/GluGluToHToTauTau_M-120_8TeV-powheg-pythia6/Summer12_DR53X-PU_S10_START53_V7A-v1/AODSIM/PAT_CMG_V5_16_0/cmgTuple_307_1_4fz.root
p1300
(lp1301
I01
aI10000
asV/store/cmst3/group/cmgtools/CMG/GluGluToHToTauTau_M-120_8TeV-powheg-pythia6/Summer12_DR53X-PU_S10_START53_V7A-v1/AODSIM/PAT_CMG_V5_16_0/cmgTuple_333_1_LHU.root
p1302
(lp1303
I01
aI10000
asV/store/cmst3/group/cmgtools/CMG/GluGluToHToTauTau_M-120_8TeV-powheg-pythia6/Summer12_DR53X-PU_S10_START53_V7A-v1/AODSIM/PAT_CMG_V5_16_0/cmgTuple_5_1_hwL.root
p1304
(lp1305
I01
aI10000
asV/store/cmst3/group/cmgtools/CMG/GluGluToHToTauTau_M-120_8TeV-powheg-pythia6/Summer12_DR53X-PU_S10_START53_V7A-v1/AODSIM/PAT_CMG_V5_16_0/cmgTuple_479_1_uHJ.root
p1306
(lp1307
I01
aI10000
asV/store/cmst3/group/cmgtools/CMG/GluGluToHToTauTau_M-120_8TeV-powheg-pythia6/Summer12_DR53X-PU_S10_START53_V7A-v1/AODSIM/PAT_CMG_V5_16_0/cmgTuple_355_1_36U.root
p1308
(lp1309
I01
aI10000
asV/store/cmst3/group/cmgtools/CMG/GluGluToHToTauTau_M-120_8TeV-powheg-pythia6/Summer12_DR53X-PU_S10_START53_V7A-v1/AODSIM/PAT_CMG_V5_16_0/cmgTuple_248_1_lTl.root
p1310
(lp1311
I01
aI10000
asV/store/cmst3/group/cmgtools/CMG/GluGluToHToTauTau_M-120_8TeV-powheg-pythia6/Summer12_DR53X-PU_S10_START53_V7A-v1/AODSIM/PAT_CMG_V5_16_0/cmgTuple_286_1_NWf.root
p1312
(lp1313
I01
aI10000
asV/store/cmst3/group/cmgtools/CMG/GluGluToHToTauTau_M-120_8TeV-powheg-pythia6/Summer12_DR53X-PU_S10_START53_V7A-v1/AODSIM/PAT_CMG_V5_16_0/cmgTuple_331_1_RZ2.root
p1314
(lp1315
I01
aI10000
asV/store/cmst3/group/cmgtools/CMG/GluGluToHToTauTau_M-120_8TeV-powheg-pythia6/Summer12_DR53X-PU_S10_START53_V7A-v1/AODSIM/PAT_CMG_V5_16_0/cmgTuple_295_1_tdJ.root
p1316
(lp1317
I01
aI10000
asV/store/cmst3/group/cmgtools/CMG/GluGluToHToTauTau_M-120_8TeV-powheg-pythia6/Summer12_DR53X-PU_S10_START53_V7A-v1/AODSIM/PAT_CMG_V5_16_0/cmgTuple_312_1_vJF.root
p1318
(lp1319
I01
aI10000
asV/store/cmst3/group/cmgtools/CMG/GluGluToHToTauTau_M-120_8TeV-powheg-pythia6/Summer12_DR53X-PU_S10_START53_V7A-v1/AODSIM/PAT_CMG_V5_16_0/cmgTuple_123_1_VhY.root
p1320
(lp1321
I01
aI10000
asV/store/cmst3/group/cmgtools/CMG/GluGluToHToTauTau_M-120_8TeV-powheg-pythia6/Summer12_DR53X-PU_S10_START53_V7A-v1/AODSIM/PAT_CMG_V5_16_0/cmgTuple_25_1_Rhl.root
p1322
(lp1323
I01
aI10000
asV/store/cmst3/group/cmgtools/CMG/GluGluToHToTauTau_M-120_8TeV-powheg-pythia6/Summer12_DR53X-PU_S10_START53_V7A-v1/AODSIM/PAT_CMG_V5_16_0/cmgTuple_491_1_9Aj.root
p1324
(lp1325
I01
aI10000
asV/store/cmst3/group/cmgtools/CMG/GluGluToHToTauTau_M-120_8TeV-powheg-pythia6/Summer12_DR53X-PU_S10_START53_V7A-v1/AODSIM/PAT_CMG_V5_16_0/cmgTuple_150_1_hlw.root
p1326
(lp1327
I01
aI10000
asV/store/cmst3/group/cmgtools/CMG/GluGluToHToTauTau_M-120_8TeV-powheg-pythia6/Summer12_DR53X-PU_S10_START53_V7A-v1/AODSIM/PAT_CMG_V5_16_0/cmgTuple_69_1_1rm.root
p1328
(lp1329
I01
aI10000
asV/store/cmst3/group/cmgtools/CMG/GluGluToHToTauTau_M-120_8TeV-powheg-pythia6/Summer12_DR53X-PU_S10_START53_V7A-v1/AODSIM/PAT_CMG_V5_16_0/cmgTuple_420_1_SAP.root
p1330
(lp1331
I01
aI10000
asV/store/cmst3/group/cmgtools/CMG/GluGluToHToTauTau_M-120_8TeV-powheg-pythia6/Summer12_DR53X-PU_S10_START53_V7A-v1/AODSIM/PAT_CMG_V5_16_0/cmgTuple_177_1_3D7.root
p1332
(lp1333
I01
aI10000
asV/store/cmst3/group/cmgtools/CMG/GluGluToHToTauTau_M-120_8TeV-powheg-pythia6/Summer12_DR53X-PU_S10_START53_V7A-v1/AODSIM/PAT_CMG_V5_16_0/cmgTuple_284_1_DGo.root
p1334
(lp1335
I01
aI10000
asV/store/cmst3/group/cmgtools/CMG/GluGluToHToTauTau_M-120_8TeV-powheg-pythia6/Summer12_DR53X-PU_S10_START53_V7A-v1/AODSIM/PAT_CMG_V5_16_0/cmgTuple_215_1_CKD.root
p1336
(lp1337
I01
aI10000
asV/store/cmst3/group/cmgtools/CMG/GluGluToHToTauTau_M-120_8TeV-powheg-pythia6/Summer12_DR53X-PU_S10_START53_V7A-v1/AODSIM/PAT_CMG_V5_16_0/cmgTuple_220_1_OVq.root
p1338
(lp1339
I01
aI10000
asV/store/cmst3/group/cmgtools/CMG/GluGluToHToTauTau_M-120_8TeV-powheg-pythia6/Summer12_DR53X-PU_S10_START53_V7A-v1/AODSIM/PAT_CMG_V5_16_0/cmgTuple_124_1_Xx9.root
p1340
(lp1341
I01
aI10000
asV/store/cmst3/group/cmgtools/CMG/GluGluToHToTauTau_M-120_8TeV-powheg-pythia6/Summer12_DR53X-PU_S10_START53_V7A-v1/AODSIM/PAT_CMG_V5_16_0/cmgTuple_144_1_gps.root
p1342
(lp1343
I01
aI10000
asV/store/cmst3/group/cmgtools/CMG/GluGluToHToTauTau_M-120_8TeV-powheg-pythia6/Summer12_DR53X-PU_S10_START53_V7A-v1/AODSIM/PAT_CMG_V5_16_0/cmgTuple_416_1_RT5.root
p1344
(lp1345
I01
aI10000
asV/store/cmst3/group/cmgtools/CMG/GluGluToHToTauTau_M-120_8TeV-powheg-pythia6/Summer12_DR53X-PU_S10_START53_V7A-v1/AODSIM/PAT_CMG_V5_16_0/cmgTuple_500_1_HNC.root
p1346
(lp1347
I01
aI10000
asV/store/cmst3/group/cmgtools/CMG/GluGluToHToTauTau_M-120_8TeV-powheg-pythia6/Summer12_DR53X-PU_S10_START53_V7A-v1/AODSIM/PAT_CMG_V5_16_0/cmgTuple_137_1_dhy.root
p1348
(lp1349
I01
aI10000
asV/store/cmst3/group/cmgtools/CMG/GluGluToHToTauTau_M-120_8TeV-powheg-pythia6/Summer12_DR53X-PU_S10_START53_V7A-v1/AODSIM/PAT_CMG_V5_16_0/cmgTuple_205_1_5iH.root
p1350
(lp1351
I01
aI10000
asV/store/cmst3/group/cmgtools/CMG/GluGluToHToTauTau_M-120_8TeV-powheg-pythia6/Summer12_DR53X-PU_S10_START53_V7A-v1/AODSIM/PAT_CMG_V5_16_0/cmgTuple_28_1_Q5R.root
p1352
(lp1353
I01
aI10000
asV/store/cmst3/group/cmgtools/CMG/GluGluToHToTauTau_M-120_8TeV-powheg-pythia6/Summer12_DR53X-PU_S10_START53_V7A-v1/AODSIM/PAT_CMG_V5_16_0/cmgTuple_100_1_Zhq.root
p1354
(lp1355
I01
aI10000
asV/store/cmst3/group/cmgtools/CMG/GluGluToHToTauTau_M-120_8TeV-powheg-pythia6/Summer12_DR53X-PU_S10_START53_V7A-v1/AODSIM/PAT_CMG_V5_16_0/cmgTuple_119_1_80b.root
p1356
(lp1357
I01
aI10000
asV/store/cmst3/group/cmgtools/CMG/GluGluToHToTauTau_M-120_8TeV-powheg-pythia6/Summer12_DR53X-PU_S10_START53_V7A-v1/AODSIM/PAT_CMG_V5_16_0/cmgTuple_27_1_MdY.root
p1358
(lp1359
I01
aI10000
asV/store/cmst3/group/cmgtools/CMG/GluGluToHToTauTau_M-120_8TeV-powheg-pythia6/Summer12_DR53X-PU_S10_START53_V7A-v1/AODSIM/PAT_CMG_V5_16_0/cmgTuple_148_1_K1C.root
p1360
(lp1361
I01
aI10000
asV/store/cmst3/group/cmgtools/CMG/GluGluToHToTauTau_M-120_8TeV-powheg-pythia6/Summer12_DR53X-PU_S10_START53_V7A-v1/AODSIM/PAT_CMG_V5_16_0/cmgTuple_389_1_NY5.root
p1362
(lp1363
I01
aI10000
asV/store/cmst3/group/cmgtools/CMG/GluGluToHToTauTau_M-120_8TeV-powheg-pythia6/Summer12_DR53X-PU_S10_START53_V7A-v1/AODSIM/PAT_CMG_V5_16_0/cmgTuple_92_1_19k.root
p1364
(lp1365
I01
aI10000
assVPhysicsGroup
p1366
VCMG
p1367
sVFilesCount
p1368
I499
sVFilesEntries
p1369
I4984192
sVRunList
p1370
(lp1371
sVValidDuplicates
p1372
(dp1373
sVPrimaryDataset
p1374
V/GluGluToHToTauTau_M-120_8TeV-powheg-pythia6/Summer12_DR53X-PU_S10_START53_V7A-v1/AODSIM
p1375
sVStatus
p1376
VVALID
p1377
sVName
p1378
V/GluGluToHToTauTau_M-120_8TeV-powheg-pythia6/Summer12_DR53X-PU_S10_START53_V7A-v1/AODSIM/PAT_CMG_V5_16_0
p1379
sVTopdir
p1380
V/eos/cms/store/cmst3/group/cmgtools/CMG
p1381
sVdata
p1382
(dp1383
sVFilesBad
p1384
I0
sVMinRun
p1385
I-1
sVAlgoList
p1386
(lp1387
sVTierList
p1388
(lp1389
sVDateCreated
p1390
V1370943613
p1391
sVCreatedBy
p1392
Vcmgtools_group
p1393
sVMaxRun
p1394
I-1
sVBadJobs
p1395
(lp1396
I321
assg247
I01
ssS'MonitorJobs'
p1397
(dp1398
S'LSFJobStatus'
p1399
(dp1400
g250
S'GluGluToHToTauTau_M-120_8TeV-powheg-pythia6/Summer12_DR53X-PU_S10_START53_V7A-v1/AODSIM/PAT_CMG_V5_16_0_1377467484/HTT_24Jul_newTES_manzoni_Up_Jobs/Job_59/LSFJOB_440974618/STDOUT.gz'
p1401
sg251
S'GluGluToHToTauTau_M-120_8TeV-powheg-pythia6/Summer12_DR53X-PU_S10_START53_V7A-v1/AODSIM/PAT_CMG_V5_16_0_1377467484/HTT_24Jul_newTES_manzoni_Up_Jobs/Job_58/LSFJOB_440974605/STDOUT.gz'
p1402
sg252
S'GluGluToHToTauTau_M-120_8TeV-powheg-pythia6/Summer12_DR53X-PU_S10_START53_V7A-v1/AODSIM/PAT_CMG_V5_16_0_1377467484/HTT_24Jul_newTES_manzoni_Up_Jobs/Job_53/LSFJOB_440974531/STDOUT.gz'
p1403
sg253
S'GluGluToHToTauTau_M-120_8TeV-powheg-pythia6/Summer12_DR53X-PU_S10_START53_V7A-v1/AODSIM/PAT_CMG_V5_16_0_1377467484/HTT_24Jul_newTES_manzoni_Up_Jobs/Job_52/LSFJOB_440974514/STDOUT.gz'
p1404
sg254
S'GluGluToHToTauTau_M-120_8TeV-powheg-pythia6/Summer12_DR53X-PU_S10_START53_V7A-v1/AODSIM/PAT_CMG_V5_16_0_1377467484/HTT_24Jul_newTES_manzoni_Up_Jobs/Job_51/LSFJOB_440974499/STDOUT.gz'
p1405
sg255
S'GluGluToHToTauTau_M-120_8TeV-powheg-pythia6/Summer12_DR53X-PU_S10_START53_V7A-v1/AODSIM/PAT_CMG_V5_16_0_1377467484/HTT_24Jul_newTES_manzoni_Up_Jobs/Job_50/LSFJOB_440974485/STDOUT.gz'
p1406
sg256
S'GluGluToHToTauTau_M-120_8TeV-powheg-pythia6/Summer12_DR53X-PU_S10_START53_V7A-v1/AODSIM/PAT_CMG_V5_16_0_1377467484/HTT_24Jul_newTES_manzoni_Up_Jobs/Job_57/LSFJOB_440974590/STDOUT.gz'
p1407
sg257
S'GluGluToHToTauTau_M-120_8TeV-powheg-pythia6/Summer12_DR53X-PU_S10_START53_V7A-v1/AODSIM/PAT_CMG_V5_16_0_1377467484/HTT_24Jul_newTES_manzoni_Up_Jobs/Job_56/LSFJOB_440974582/STDOUT.gz'
p1408
sg258
S'GluGluToHToTauTau_M-120_8TeV-powheg-pythia6/Summer12_DR53X-PU_S10_START53_V7A-v1/AODSIM/PAT_CMG_V5_16_0_1377467484/HTT_24Jul_newTES_manzoni_Up_Jobs/Job_55/LSFJOB_440974569/STDOUT.gz'
p1409
sg259
S'GluGluToHToTauTau_M-120_8TeV-powheg-pythia6/Summer12_DR53X-PU_S10_START53_V7A-v1/AODSIM/PAT_CMG_V5_16_0_1377467484/HTT_24Jul_newTES_manzoni_Up_Jobs/Job_54/LSFJOB_440974556/STDOUT.gz'
p1410
sg260
S'GluGluToHToTauTau_M-120_8TeV-powheg-pythia6/Summer12_DR53X-PU_S10_START53_V7A-v1/AODSIM/PAT_CMG_V5_16_0_1377467484/HTT_24Jul_newTES_manzoni_Up_Jobs/Job_28/LSFJOB_440973955/STDOUT.gz'
p1411
sg261
S'GluGluToHToTauTau_M-120_8TeV-powheg-pythia6/Summer12_DR53X-PU_S10_START53_V7A-v1/AODSIM/PAT_CMG_V5_16_0_1377467484/HTT_24Jul_newTES_manzoni_Up_Jobs/Job_29/LSFJOB_440973976/STDOUT.gz'
p1412
sg262
S'GluGluToHToTauTau_M-120_8TeV-powheg-pythia6/Summer12_DR53X-PU_S10_START53_V7A-v1/AODSIM/PAT_CMG_V5_16_0_1377467484/HTT_24Jul_newTES_manzoni_Up_Jobs/Job_26/LSFJOB_440973854/STDOUT.gz'
p1413
sg263
S'GluGluToHToTauTau_M-120_8TeV-powheg-pythia6/Summer12_DR53X-PU_S10_START53_V7A-v1/AODSIM/PAT_CMG_V5_16_0_1377467484/HTT_24Jul_newTES_manzoni_Up_Jobs/Job_27/LSFJOB_440973900/STDOUT.gz'
p1414
sg264
S'GluGluToHToTauTau_M-120_8TeV-powheg-pythia6/Summer12_DR53X-PU_S10_START53_V7A-v1/AODSIM/PAT_CMG_V5_16_0_1377467484/HTT_24Jul_newTES_manzoni_Up_Jobs/Job_24/LSFJOB_440973758/STDOUT.gz'
p1415
sg265
S'GluGluToHToTauTau_M-120_8TeV-powheg-pythia6/Summer12_DR53X-PU_S10_START53_V7A-v1/AODSIM/PAT_CMG_V5_16_0_1377467484/HTT_24Jul_newTES_manzoni_Up_Jobs/Job_25/LSFJOB_440973794/STDOUT.gz'
p1416
sg266
S'GluGluToHToTauTau_M-120_8TeV-powheg-pythia6/Summer12_DR53X-PU_S10_START53_V7A-v1/AODSIM/PAT_CMG_V5_16_0_1377467484/HTT_24Jul_newTES_manzoni_Up_Jobs/Job_22/LSFJOB_440973643/STDOUT.gz'
p1417
sg267
S'GluGluToHToTauTau_M-120_8TeV-powheg-pythia6/Summer12_DR53X-PU_S10_START53_V7A-v1/AODSIM/PAT_CMG_V5_16_0_1377467484/HTT_24Jul_newTES_manzoni_Up_Jobs/Job_23/LSFJOB_440973681/STDOUT.gz'
p1418
sg268
S'GluGluToHToTauTau_M-120_8TeV-powheg-pythia6/Summer12_DR53X-PU_S10_START53_V7A-v1/AODSIM/PAT_CMG_V5_16_0_1377467484/HTT_24Jul_newTES_manzoni_Up_Jobs/Job_20/LSFJOB_440973545/STDOUT.gz'
p1419
sg269
S'GluGluToHToTauTau_M-120_8TeV-powheg-pythia6/Summer12_DR53X-PU_S10_START53_V7A-v1/AODSIM/PAT_CMG_V5_16_0_1377467484/HTT_24Jul_newTES_manzoni_Up_Jobs/Job_21/LSFJOB_440973581/STDOUT.gz'
p1420
sg270
S'GluGluToHToTauTau_M-120_8TeV-powheg-pythia6/Summer12_DR53X-PU_S10_START53_V7A-v1/AODSIM/PAT_CMG_V5_16_0_1377467484/HTT_24Jul_newTES_manzoni_Up_Jobs/Job_71/LSFJOB_440974764/STDOUT.gz'
p1421
sg271
S'GluGluToHToTauTau_M-120_8TeV-powheg-pythia6/Summer12_DR53X-PU_S10_START53_V7A-v1/AODSIM/PAT_CMG_V5_16_0_1377467484/HTT_24Jul_newTES_manzoni_Up_Jobs/Job_70/LSFJOB_440974754/STDOUT.gz'
p1422
sg272
S'GluGluToHToTauTau_M-120_8TeV-powheg-pythia6/Summer12_DR53X-PU_S10_START53_V7A-v1/AODSIM/PAT_CMG_V5_16_0_1377467484/HTT_24Jul_newTES_manzoni_Up_Jobs/Job_73/LSFJOB_440974786/STDOUT.gz'
p1423
sg273
S'GluGluToHToTauTau_M-120_8TeV-powheg-pythia6/Summer12_DR53X-PU_S10_START53_V7A-v1/AODSIM/PAT_CMG_V5_16_0_1377467484/HTT_24Jul_newTES_manzoni_Up_Jobs/Job_72/LSFJOB_440974773/STDOUT.gz'
p1424
sg274
S'GluGluToHToTauTau_M-120_8TeV-powheg-pythia6/Summer12_DR53X-PU_S10_START53_V7A-v1/AODSIM/PAT_CMG_V5_16_0_1377467484/HTT_24Jul_newTES_manzoni_Up_Jobs/Job_75/LSFJOB_440974812/STDOUT.gz'
p1425
sg275
S'GluGluToHToTauTau_M-120_8TeV-powheg-pythia6/Summer12_DR53X-PU_S10_START53_V7A-v1/AODSIM/PAT_CMG_V5_16_0_1377467484/HTT_24Jul_newTES_manzoni_Up_Jobs/Job_74/LSFJOB_440974801/STDOUT.gz'
p1426
sg276
S'GluGluToHToTauTau_M-120_8TeV-powheg-pythia6/Summer12_DR53X-PU_S10_START53_V7A-v1/AODSIM/PAT_CMG_V5_16_0_1377467484/HTT_24Jul_newTES_manzoni_Up_Jobs/Job_77/LSFJOB_440974829/STDOUT.gz'
p1427
sg277
S'GluGluToHToTauTau_M-120_8TeV-powheg-pythia6/Summer12_DR53X-PU_S10_START53_V7A-v1/AODSIM/PAT_CMG_V5_16_0_1377467484/HTT_24Jul_newTES_manzoni_Up_Jobs/Job_76/LSFJOB_440974821/STDOUT.gz'
p1428
sg278
S'GluGluToHToTauTau_M-120_8TeV-powheg-pythia6/Summer12_DR53X-PU_S10_START53_V7A-v1/AODSIM/PAT_CMG_V5_16_0_1377467484/HTT_24Jul_newTES_manzoni_Up_Jobs/Job_79/LSFJOB_440974860/STDOUT.gz'
p1429
sg279
S'GluGluToHToTauTau_M-120_8TeV-powheg-pythia6/Summer12_DR53X-PU_S10_START53_V7A-v1/AODSIM/PAT_CMG_V5_16_0_1377467484/HTT_24Jul_newTES_manzoni_Up_Jobs/Job_78/LSFJOB_440974841/STDOUT.gz'
p1430
sg280
S'GluGluToHToTauTau_M-120_8TeV-powheg-pythia6/Summer12_DR53X-PU_S10_START53_V7A-v1/AODSIM/PAT_CMG_V5_16_0_1377467484/HTT_24Jul_newTES_manzoni_Up_Jobs/Job_100/LSFJOB_440975096/STDOUT.gz'
p1431
sg281
S'GluGluToHToTauTau_M-120_8TeV-powheg-pythia6/Summer12_DR53X-PU_S10_START53_V7A-v1/AODSIM/PAT_CMG_V5_16_0_1377467484/HTT_24Jul_newTES_manzoni_Up_Jobs/Job_44/LSFJOB_440974360/STDOUT.gz'
p1432
sg282
S'GluGluToHToTauTau_M-120_8TeV-powheg-pythia6/Summer12_DR53X-PU_S10_START53_V7A-v1/AODSIM/PAT_CMG_V5_16_0_1377467484/HTT_24Jul_newTES_manzoni_Up_Jobs/Job_45/LSFJOB_440974381/STDOUT.gz'
p1433
sg283
S'GluGluToHToTauTau_M-120_8TeV-powheg-pythia6/Summer12_DR53X-PU_S10_START53_V7A-v1/AODSIM/PAT_CMG_V5_16_0_1377467484/HTT_24Jul_newTES_manzoni_Up_Jobs/Job_46/LSFJOB_440974394/STDOUT.gz'
p1434
sg284
S'GluGluToHToTauTau_M-120_8TeV-powheg-pythia6/Summer12_DR53X-PU_S10_START53_V7A-v1/AODSIM/PAT_CMG_V5_16_0_1377467484/HTT_24Jul_newTES_manzoni_Up_Jobs/Job_47/LSFJOB_440974429/STDOUT.gz'
p1435
sg285
S'GluGluToHToTauTau_M-120_8TeV-powheg-pythia6/Summer12_DR53X-PU_S10_START53_V7A-v1/AODSIM/PAT_CMG_V5_16_0_1377467484/HTT_24Jul_newTES_manzoni_Up_Jobs/Job_40/LSFJOB_440974270/STDOUT.gz'
p1436
sg286
S'GluGluToHToTauTau_M-120_8TeV-powheg-pythia6/Summer12_DR53X-PU_S10_START53_V7A-v1/AODSIM/PAT_CMG_V5_16_0_1377467484/HTT_24Jul_newTES_manzoni_Up_Jobs/Job_41/LSFJOB_440974288/STDOUT.gz'
p1437
sg287
S'GluGluToHToTauTau_M-120_8TeV-powheg-pythia6/Summer12_DR53X-PU_S10_START53_V7A-v1/AODSIM/PAT_CMG_V5_16_0_1377467484/HTT_24Jul_newTES_manzoni_Up_Jobs/Job_42/LSFJOB_440974323/STDOUT.gz'
p1438
sg288
S'GluGluToHToTauTau_M-120_8TeV-powheg-pythia6/Summer12_DR53X-PU_S10_START53_V7A-v1/AODSIM/PAT_CMG_V5_16_0_1377467484/HTT_24Jul_newTES_manzoni_Up_Jobs/Job_43/LSFJOB_440974339/STDOUT.gz'
p1439
sg289
S'GluGluToHToTauTau_M-120_8TeV-powheg-pythia6/Summer12_DR53X-PU_S10_START53_V7A-v1/AODSIM/PAT_CMG_V5_16_0_1377467484/HTT_24Jul_newTES_manzoni_Up_Jobs/Job_48/LSFJOB_440974447/STDOUT.gz'
p1440
sg290
S'GluGluToHToTauTau_M-120_8TeV-powheg-pythia6/Summer12_DR53X-PU_S10_START53_V7A-v1/AODSIM/PAT_CMG_V5_16_0_1377467484/HTT_24Jul_newTES_manzoni_Up_Jobs/Job_49/LSFJOB_440974465/STDOUT.gz'
p1441
sg291
S'GluGluToHToTauTau_M-120_8TeV-powheg-pythia6/Summer12_DR53X-PU_S10_START53_V7A-v1/AODSIM/PAT_CMG_V5_16_0_1377467484/HTT_24Jul_newTES_manzoni_Up_Jobs/Job_17/LSFJOB_440973355/STDOUT.gz'
p1442
sg292
S'GluGluToHToTauTau_M-120_8TeV-powheg-pythia6/Summer12_DR53X-PU_S10_START53_V7A-v1/AODSIM/PAT_CMG_V5_16_0_1377467484/HTT_24Jul_newTES_manzoni_Up_Jobs/Job_16/LSFJOB_440973317/STDOUT.gz'
p1443
sg293
S'GluGluToHToTauTau_M-120_8TeV-powheg-pythia6/Summer12_DR53X-PU_S10_START53_V7A-v1/AODSIM/PAT_CMG_V5_16_0_1377467484/HTT_24Jul_newTES_manzoni_Up_Jobs/Job_15/LSFJOB_440973262/STDOUT.gz'
p1444
sg294
S'GluGluToHToTauTau_M-120_8TeV-powheg-pythia6/Summer12_DR53X-PU_S10_START53_V7A-v1/AODSIM/PAT_CMG_V5_16_0_1377467484/HTT_24Jul_newTES_manzoni_Up_Jobs/Job_14/LSFJOB_440973209/STDOUT.gz'
p1445
sg295
S'GluGluToHToTauTau_M-120_8TeV-powheg-pythia6/Summer12_DR53X-PU_S10_START53_V7A-v1/AODSIM/PAT_CMG_V5_16_0_1377467484/HTT_24Jul_newTES_manzoni_Up_Jobs/Job_13/LSFJOB_440973132/STDOUT.gz'
p1446
sg296
S'GluGluToHToTauTau_M-120_8TeV-powheg-pythia6/Summer12_DR53X-PU_S10_START53_V7A-v1/AODSIM/PAT_CMG_V5_16_0_1377467484/HTT_24Jul_newTES_manzoni_Up_Jobs/Job_12/LSFJOB_440973070/STDOUT.gz'
p1447
sg297
S'GluGluToHToTauTau_M-120_8TeV-powheg-pythia6/Summer12_DR53X-PU_S10_START53_V7A-v1/AODSIM/PAT_CMG_V5_16_0_1377467484/HTT_24Jul_newTES_manzoni_Up_Jobs/Job_11/LSFJOB_440972964/STDOUT.gz'
p1448
sg298
S'GluGluToHToTauTau_M-120_8TeV-powheg-pythia6/Summer12_DR53X-PU_S10_START53_V7A-v1/AODSIM/PAT_CMG_V5_16_0_1377467484/HTT_24Jul_newTES_manzoni_Up_Jobs/Job_10/LSFJOB_440972857/STDOUT.gz'
p1449
sg299
S'GluGluToHToTauTau_M-120_8TeV-powheg-pythia6/Summer12_DR53X-PU_S10_START53_V7A-v1/AODSIM/PAT_CMG_V5_16_0_1377467484/HTT_24Jul_newTES_manzoni_Up_Jobs/Job_19/LSFJOB_440973483/STDOUT.gz'
p1450
sg300
S'GluGluToHToTauTau_M-120_8TeV-powheg-pythia6/Summer12_DR53X-PU_S10_START53_V7A-v1/AODSIM/PAT_CMG_V5_16_0_1377467484/HTT_24Jul_newTES_manzoni_Up_Jobs/Job_18/LSFJOB_440973412/STDOUT.gz'
p1451
sg301
S'GluGluToHToTauTau_M-120_8TeV-powheg-pythia6/Summer12_DR53X-PU_S10_START53_V7A-v1/AODSIM/PAT_CMG_V5_16_0_1377467484/HTT_24Jul_newTES_manzoni_Up_Jobs/Job_99/LSFJOB_440975084/STDOUT.gz'
p1452
sg302
S'GluGluToHToTauTau_M-120_8TeV-powheg-pythia6/Summer12_DR53X-PU_S10_START53_V7A-v1/AODSIM/PAT_CMG_V5_16_0_1377467484/HTT_24Jul_newTES_manzoni_Up_Jobs/Job_98/LSFJOB_440975074/STDOUT.gz'
p1453
sg303
S'GluGluToHToTauTau_M-120_8TeV-powheg-pythia6/Summer12_DR53X-PU_S10_START53_V7A-v1/AODSIM/PAT_CMG_V5_16_0_1377467484/HTT_24Jul_newTES_manzoni_Up_Jobs/Job_97/LSFJOB_440975065/STDOUT.gz'
p1454
sg304
S'GluGluToHToTauTau_M-120_8TeV-powheg-pythia6/Summer12_DR53X-PU_S10_START53_V7A-v1/AODSIM/PAT_CMG_V5_16_0_1377467484/HTT_24Jul_newTES_manzoni_Up_Jobs/Job_96/LSFJOB_440975054/STDOUT.gz'
p1455
sg305
S'GluGluToHToTauTau_M-120_8TeV-powheg-pythia6/Summer12_DR53X-PU_S10_START53_V7A-v1/AODSIM/PAT_CMG_V5_16_0_1377467484/HTT_24Jul_newTES_manzoni_Up_Jobs/Job_95/LSFJOB_440975046/STDOUT.gz'
p1456
sg306
S'GluGluToHToTauTau_M-120_8TeV-powheg-pythia6/Summer12_DR53X-PU_S10_START53_V7A-v1/AODSIM/PAT_CMG_V5_16_0_1377467484/HTT_24Jul_newTES_manzoni_Up_Jobs/Job_94/LSFJOB_440975037/STDOUT.gz'
p1457
sg307
S'GluGluToHToTauTau_M-120_8TeV-powheg-pythia6/Summer12_DR53X-PU_S10_START53_V7A-v1/AODSIM/PAT_CMG_V5_16_0_1377467484/HTT_24Jul_newTES_manzoni_Up_Jobs/Job_93/LSFJOB_440975028/STDOUT.gz'
p1458
sg308
S'GluGluToHToTauTau_M-120_8TeV-powheg-pythia6/Summer12_DR53X-PU_S10_START53_V7A-v1/AODSIM/PAT_CMG_V5_16_0_1377467484/HTT_24Jul_newTES_manzoni_Up_Jobs/Job_92/LSFJOB_440975015/STDOUT.gz'
p1459
sg309
S'GluGluToHToTauTau_M-120_8TeV-powheg-pythia6/Summer12_DR53X-PU_S10_START53_V7A-v1/AODSIM/PAT_CMG_V5_16_0_1377467484/HTT_24Jul_newTES_manzoni_Up_Jobs/Job_91/LSFJOB_440974999/STDOUT.gz'
p1460
sg310
S'GluGluToHToTauTau_M-120_8TeV-powheg-pythia6/Summer12_DR53X-PU_S10_START53_V7A-v1/AODSIM/PAT_CMG_V5_16_0_1377467484/HTT_24Jul_newTES_manzoni_Up_Jobs/Job_90/LSFJOB_440974990/STDOUT.gz'
p1461
sg311
S'GluGluToHToTauTau_M-120_8TeV-powheg-pythia6/Summer12_DR53X-PU_S10_START53_V7A-v1/AODSIM/PAT_CMG_V5_16_0_1377467484/HTT_24Jul_newTES_manzoni_Up_Jobs/Job_62/LSFJOB_440974652/STDOUT.gz'
p1462
sg312
S'GluGluToHToTauTau_M-120_8TeV-powheg-pythia6/Summer12_DR53X-PU_S10_START53_V7A-v1/AODSIM/PAT_CMG_V5_16_0_1377467484/HTT_24Jul_newTES_manzoni_Up_Jobs/Job_63/LSFJOB_440974662/STDOUT.gz'
p1463
sg313
S'GluGluToHToTauTau_M-120_8TeV-powheg-pythia6/Summer12_DR53X-PU_S10_START53_V7A-v1/AODSIM/PAT_CMG_V5_16_0_1377467484/HTT_24Jul_newTES_manzoni_Up_Jobs/Job_60/LSFJOB_440974634/STDOUT.gz'
p1464
sg314
S'GluGluToHToTauTau_M-120_8TeV-powheg-pythia6/Summer12_DR53X-PU_S10_START53_V7A-v1/AODSIM/PAT_CMG_V5_16_0_1377467484/HTT_24Jul_newTES_manzoni_Up_Jobs/Job_61/LSFJOB_440974642/STDOUT.gz'
p1465
sg315
S'GluGluToHToTauTau_M-120_8TeV-powheg-pythia6/Summer12_DR53X-PU_S10_START53_V7A-v1/AODSIM/PAT_CMG_V5_16_0_1377467484/HTT_24Jul_newTES_manzoni_Up_Jobs/Job_66/LSFJOB_440974706/STDOUT.gz'
p1466
sg316
S'GluGluToHToTauTau_M-120_8TeV-powheg-pythia6/Summer12_DR53X-PU_S10_START53_V7A-v1/AODSIM/PAT_CMG_V5_16_0_1377467484/HTT_24Jul_newTES_manzoni_Up_Jobs/Job_67/LSFJOB_440974721/STDOUT.gz'
p1467
sg317
S'GluGluToHToTauTau_M-120_8TeV-powheg-pythia6/Summer12_DR53X-PU_S10_START53_V7A-v1/AODSIM/PAT_CMG_V5_16_0_1377467484/HTT_24Jul_newTES_manzoni_Up_Jobs/Job_64/LSFJOB_440974671/STDOUT.gz'
p1468
sg318
S'GluGluToHToTauTau_M-120_8TeV-powheg-pythia6/Summer12_DR53X-PU_S10_START53_V7A-v1/AODSIM/PAT_CMG_V5_16_0_1377467484/HTT_24Jul_newTES_manzoni_Up_Jobs/Job_65/LSFJOB_440974682/STDOUT.gz'
p1469
sg319
S'GluGluToHToTauTau_M-120_8TeV-powheg-pythia6/Summer12_DR53X-PU_S10_START53_V7A-v1/AODSIM/PAT_CMG_V5_16_0_1377467484/HTT_24Jul_newTES_manzoni_Up_Jobs/Job_68/LSFJOB_440974731/STDOUT.gz'
p1470
sg320
S'GluGluToHToTauTau_M-120_8TeV-powheg-pythia6/Summer12_DR53X-PU_S10_START53_V7A-v1/AODSIM/PAT_CMG_V5_16_0_1377467484/HTT_24Jul_newTES_manzoni_Up_Jobs/Job_69/LSFJOB_440974741/STDOUT.gz'
p1471
sg321
S'GluGluToHToTauTau_M-120_8TeV-powheg-pythia6/Summer12_DR53X-PU_S10_START53_V7A-v1/AODSIM/PAT_CMG_V5_16_0_1377467484/HTT_24Jul_newTES_manzoni_Up_Jobs/Job_39/LSFJOB_440974247/STDOUT.gz'
p1472
sg322
S'GluGluToHToTauTau_M-120_8TeV-powheg-pythia6/Summer12_DR53X-PU_S10_START53_V7A-v1/AODSIM/PAT_CMG_V5_16_0_1377467484/HTT_24Jul_newTES_manzoni_Up_Jobs/Job_38/LSFJOB_440974238/STDOUT.gz'
p1473
sg323
S'GluGluToHToTauTau_M-120_8TeV-powheg-pythia6/Summer12_DR53X-PU_S10_START53_V7A-v1/AODSIM/PAT_CMG_V5_16_0_1377467484/HTT_24Jul_newTES_manzoni_Up_Jobs/Job_35/LSFJOB_440974164/STDOUT.gz'
p1474
sg324
S'GluGluToHToTauTau_M-120_8TeV-powheg-pythia6/Summer12_DR53X-PU_S10_START53_V7A-v1/AODSIM/PAT_CMG_V5_16_0_1377467484/HTT_24Jul_newTES_manzoni_Up_Jobs/Job_34/LSFJOB_440974131/STDOUT.gz'
p1475
sg325
S'GluGluToHToTauTau_M-120_8TeV-powheg-pythia6/Summer12_DR53X-PU_S10_START53_V7A-v1/AODSIM/PAT_CMG_V5_16_0_1377467484/HTT_24Jul_newTES_manzoni_Up_Jobs/Job_37/LSFJOB_440974206/STDOUT.gz'
p1476
sg326
S'GluGluToHToTauTau_M-120_8TeV-powheg-pythia6/Summer12_DR53X-PU_S10_START53_V7A-v1/AODSIM/PAT_CMG_V5_16_0_1377467484/HTT_24Jul_newTES_manzoni_Up_Jobs/Job_36/LSFJOB_440974197/STDOUT.gz'
p1477
sg327
S'GluGluToHToTauTau_M-120_8TeV-powheg-pythia6/Summer12_DR53X-PU_S10_START53_V7A-v1/AODSIM/PAT_CMG_V5_16_0_1377467484/HTT_24Jul_newTES_manzoni_Up_Jobs/Job_31/LSFJOB_440974049/STDOUT.gz'
p1478
sg328
S'GluGluToHToTauTau_M-120_8TeV-powheg-pythia6/Summer12_DR53X-PU_S10_START53_V7A-v1/AODSIM/PAT_CMG_V5_16_0_1377467484/HTT_24Jul_newTES_manzoni_Up_Jobs/Job_30/LSFJOB_440974021/STDOUT.gz'
p1479
sg329
S'GluGluToHToTauTau_M-120_8TeV-powheg-pythia6/Summer12_DR53X-PU_S10_START53_V7A-v1/AODSIM/PAT_CMG_V5_16_0_1377467484/HTT_24Jul_newTES_manzoni_Up_Jobs/Job_33/LSFJOB_440974109/STDOUT.gz'
p1480
sg330
S'GluGluToHToTauTau_M-120_8TeV-powheg-pythia6/Summer12_DR53X-PU_S10_START53_V7A-v1/AODSIM/PAT_CMG_V5_16_0_1377467484/HTT_24Jul_newTES_manzoni_Up_Jobs/Job_32/LSFJOB_440974061/STDOUT.gz'
p1481
sg331
S'GluGluToHToTauTau_M-120_8TeV-powheg-pythia6/Summer12_DR53X-PU_S10_START53_V7A-v1/AODSIM/PAT_CMG_V5_16_0_1377467484/HTT_24Jul_newTES_manzoni_Up_Jobs/Job_7/LSFJOB_440972563/STDOUT.gz'
p1482
sg332
S'GluGluToHToTauTau_M-120_8TeV-powheg-pythia6/Summer12_DR53X-PU_S10_START53_V7A-v1/AODSIM/PAT_CMG_V5_16_0_1377467484/HTT_24Jul_newTES_manzoni_Up_Jobs/Job_6/LSFJOB_440972464/STDOUT.gz'
p1483
sg333
S'GluGluToHToTauTau_M-120_8TeV-powheg-pythia6/Summer12_DR53X-PU_S10_START53_V7A-v1/AODSIM/PAT_CMG_V5_16_0_1377467484/HTT_24Jul_newTES_manzoni_Up_Jobs/Job_5/LSFJOB_440972351/STDOUT.gz'
p1484
sg334
S'GluGluToHToTauTau_M-120_8TeV-powheg-pythia6/Summer12_DR53X-PU_S10_START53_V7A-v1/AODSIM/PAT_CMG_V5_16_0_1377467484/HTT_24Jul_newTES_manzoni_Up_Jobs/Job_4/LSFJOB_440972233/STDOUT.gz'
p1485
sg335
S'GluGluToHToTauTau_M-120_8TeV-powheg-pythia6/Summer12_DR53X-PU_S10_START53_V7A-v1/AODSIM/PAT_CMG_V5_16_0_1377467484/HTT_24Jul_newTES_manzoni_Up_Jobs/Job_3/LSFJOB_440972148/STDOUT.gz'
p1486
sg336
S'GluGluToHToTauTau_M-120_8TeV-powheg-pythia6/Summer12_DR53X-PU_S10_START53_V7A-v1/AODSIM/PAT_CMG_V5_16_0_1377467484/HTT_24Jul_newTES_manzoni_Up_Jobs/Job_2/LSFJOB_440972070/STDOUT.gz'
p1487
sg337
S'GluGluToHToTauTau_M-120_8TeV-powheg-pythia6/Summer12_DR53X-PU_S10_START53_V7A-v1/AODSIM/PAT_CMG_V5_16_0_1377467484/HTT_24Jul_newTES_manzoni_Up_Jobs/Job_1/LSFJOB_440971975/STDOUT.gz'
p1488
sg338
S'GluGluToHToTauTau_M-120_8TeV-powheg-pythia6/Summer12_DR53X-PU_S10_START53_V7A-v1/AODSIM/PAT_CMG_V5_16_0_1377467484/HTT_24Jul_newTES_manzoni_Up_Jobs/Job_9/LSFJOB_440972737/STDOUT.gz'
p1489
sg339
S'GluGluToHToTauTau_M-120_8TeV-powheg-pythia6/Summer12_DR53X-PU_S10_START53_V7A-v1/AODSIM/PAT_CMG_V5_16_0_1377467484/HTT_24Jul_newTES_manzoni_Up_Jobs/Job_8/LSFJOB_440972654/STDOUT.gz'
p1490
sg340
S'GluGluToHToTauTau_M-120_8TeV-powheg-pythia6/Summer12_DR53X-PU_S10_START53_V7A-v1/AODSIM/PAT_CMG_V5_16_0_1377467484/HTT_24Jul_newTES_manzoni_Up_Jobs/Job_88/LSFJOB_440974971/STDOUT.gz'
p1491
sg341
S'GluGluToHToTauTau_M-120_8TeV-powheg-pythia6/Summer12_DR53X-PU_S10_START53_V7A-v1/AODSIM/PAT_CMG_V5_16_0_1377467484/HTT_24Jul_newTES_manzoni_Up_Jobs/Job_89/LSFJOB_440974981/STDOUT.gz'
p1492
sg342
S'GluGluToHToTauTau_M-120_8TeV-powheg-pythia6/Summer12_DR53X-PU_S10_START53_V7A-v1/AODSIM/PAT_CMG_V5_16_0_1377467484/HTT_24Jul_newTES_manzoni_Up_Jobs/Job_80/LSFJOB_440974873/STDOUT.gz'
p1493
sg343
S'GluGluToHToTauTau_M-120_8TeV-powheg-pythia6/Summer12_DR53X-PU_S10_START53_V7A-v1/AODSIM/PAT_CMG_V5_16_0_1377467484/HTT_24Jul_newTES_manzoni_Up_Jobs/Job_81/LSFJOB_440974885/STDOUT.gz'
p1494
sg344
S'GluGluToHToTauTau_M-120_8TeV-powheg-pythia6/Summer12_DR53X-PU_S10_START53_V7A-v1/AODSIM/PAT_CMG_V5_16_0_1377467484/HTT_24Jul_newTES_manzoni_Up_Jobs/Job_82/LSFJOB_440974898/STDOUT.gz'
p1495
sg345
S'GluGluToHToTauTau_M-120_8TeV-powheg-pythia6/Summer12_DR53X-PU_S10_START53_V7A-v1/AODSIM/PAT_CMG_V5_16_0_1377467484/HTT_24Jul_newTES_manzoni_Up_Jobs/Job_83/LSFJOB_440974907/STDOUT.gz'
p1496
sg346
S'GluGluToHToTauTau_M-120_8TeV-powheg-pythia6/Summer12_DR53X-PU_S10_START53_V7A-v1/AODSIM/PAT_CMG_V5_16_0_1377467484/HTT_24Jul_newTES_manzoni_Up_Jobs/Job_84/LSFJOB_440974916/STDOUT.gz'
p1497
sg347
S'GluGluToHToTauTau_M-120_8TeV-powheg-pythia6/Summer12_DR53X-PU_S10_START53_V7A-v1/AODSIM/PAT_CMG_V5_16_0_1377467484/HTT_24Jul_newTES_manzoni_Up_Jobs/Job_85/LSFJOB_440974927/STDOUT.gz'
p1498
sg348
S'GluGluToHToTauTau_M-120_8TeV-powheg-pythia6/Summer12_DR53X-PU_S10_START53_V7A-v1/AODSIM/PAT_CMG_V5_16_0_1377467484/HTT_24Jul_newTES_manzoni_Up_Jobs/Job_86/LSFJOB_440974944/STDOUT.gz'
p1499
sg349
S'GluGluToHToTauTau_M-120_8TeV-powheg-pythia6/Summer12_DR53X-PU_S10_START53_V7A-v1/AODSIM/PAT_CMG_V5_16_0_1377467484/HTT_24Jul_newTES_manzoni_Up_Jobs/Job_87/LSFJOB_440974960/STDOUT.gz'
p1500
ssS'LSFJobIDs'
p1501
(dp1502
g250
S'440974618'
p1503
sg251
S'440974605'
p1504
sg252
S'440974531'
p1505
sg253
S'440974514'
p1506
sg254
S'440974499'
p1507
sg255
S'440974485'
p1508
sg256
S'440974590'
p1509
sg257
S'440974582'
p1510
sg258
S'440974569'
p1511
sg259
S'440974556'
p1512
sg260
S'440973955'
p1513
sg261
S'440973976'
p1514
sg262
S'440973854'
p1515
sg263
S'440973900'
p1516
sg264
S'440973758'
p1517
sg265
S'440973794'
p1518
sg266
S'440973643'
p1519
sg267
S'440973681'
p1520
sg268
S'440973545'
p1521
sg269
S'440973581'
p1522
sg270
S'440974764'
p1523
sg271
S'440974754'
p1524
sg272
S'440974786'
p1525
sg273
S'440974773'
p1526
sg274
S'440974812'
p1527
sg275
S'440974801'
p1528
sg276
S'440974829'
p1529
sg277
S'440974821'
p1530
sg278
S'440974860'
p1531
sg279
S'440974841'
p1532
sg280
S'440975096'
p1533
sg281
S'440974360'
p1534
sg282
S'440974381'
p1535
sg283
S'440974394'
p1536
sg284
S'440974429'
p1537
sg285
S'440974270'
p1538
sg286
S'440974288'
p1539
sg287
S'440974323'
p1540
sg288
S'440974339'
p1541
sg289
S'440974447'
p1542
sg290
S'440974465'
p1543
sg291
S'440973355'
p1544
sg292
S'440973317'
p1545
sg293
S'440973262'
p1546
sg294
S'440973209'
p1547
sg295
S'440973132'
p1548
sg296
S'440973070'
p1549
sg297
S'440972964'
p1550
sg298
S'440972857'
p1551
sg299
S'440973483'
p1552
sg300
S'440973412'
p1553
sg301
S'440975084'
p1554
sg302
S'440975074'
p1555
sg303
S'440975065'
p1556
sg304
S'440975054'
p1557
sg305
S'440975046'
p1558
sg306
S'440975037'
p1559
sg307
S'440975028'
p1560
sg308
S'440975015'
p1561
sg309
S'440974999'
p1562
sg310
S'440974990'
p1563
sg311
S'440974652'
p1564
sg312
S'440974662'
p1565
sg313
S'440974634'
p1566
sg314
S'440974642'
p1567
sg315
S'440974706'
p1568
sg316
S'440974721'
p1569
sg317
S'440974671'
p1570
sg318
S'440974682'
p1571
sg319
S'440974731'
p1572
sg320
S'440974741'
p1573
sg321
S'440974247'
p1574
sg322
S'440974238'
p1575
sg323
S'440974164'
p1576
sg324
S'440974131'
p1577
sg325
S'440974206'
p1578
sg326
S'440974197'
p1579
sg327
S'440974049'
p1580
sg328
S'440974021'
p1581
sg329
S'440974109'
p1582
sg330
S'440974061'
p1583
sg331
S'440972563'
p1584
sg332
S'440972464'
p1585
sg333
S'440972351'
p1586
sg334
S'440972233'
p1587
sg335
S'440972148'
p1588
sg336
S'440972070'
p1589
sg337
S'440971975'
p1590
sg338
S'440972737'
p1591
sg339
S'440972654'
p1592
sg340
S'440974971'
p1593
sg341
S'440974981'
p1594
sg342
S'440974873'
p1595
sg343
S'440974885'
p1596
sg344
S'440974898'
p1597
sg345
S'440974907'
p1598
sg346
S'440974916'
p1599
sg347
S'440974927'
p1600
sg348
S'440974944'
p1601
sg349
S'440974960'
p1602
sssS'FindOnCastor'
p1603
(dp1604
g209
S'/eos/cms/store/cmst3/group/cmgtools/CMG'
p1605
sS'Directory'
p1606
S'/eos/cms/store/cmst3/group/cmgtools/CMG/GluGluToHToTauTau_M-120_8TeV-powheg-pythia6/Summer12_DR53X-PU_S10_START53_V7A-v1/AODSIM/PAT_CMG_V5_16_0'
p1607
ssS'CheckConfig'
p1608
(dp1609
g225
g226
ssS'FullCFG'
p1610
(dp1611
S'FullCFG'
p1612
S'GluGluToHToTauTau_M-120_8TeV-powheg-pythia6/Summer12_DR53X-PU_S10_START53_V7A-v1/AODSIM/PAT_CMG_V5_16_0_1377467484/full_cfg.py'
p1613
ssS'WriteJobReport'
p1614
(dp1615
S'SummaryFile'
p1616
S'GluGluToHToTauTau_M-120_8TeV-powheg-pythia6/Summer12_DR53X-PU_S10_START53_V7A-v1/AODSIM/PAT_CMG_V5_16_0_1377467484/resubmit.sh'
p1617
ssS'ExpandConfig'
p1618
(dp1619
S'ExpandedFullCFG'
p1620
S'GluGluToHToTauTau_M-120_8TeV-powheg-pythia6/Summer12_DR53X-PU_S10_START53_V7A-v1/AODSIM/PAT_CMG_V5_16_0_1377467484/Expandedfull_cfg.py'
p1621
ssS'RunTestEvents'
p1622
(dp1623
g225
g226
sS'TestCFG'
p1624
S'GluGluToHToTauTau_M-120_8TeV-powheg-pythia6/Summer12_DR53X-PU_S10_START53_V7A-v1/AODSIM/PAT_CMG_V5_16_0_1377467484/test_cfg.py'
p1625
ssS'SourceCFG'
p1626
(dp1627
S'SourceCFG'
p1628
S'GluGluToHToTauTau_M-120_8TeV-powheg-pythia6/Summer12_DR53X-PU_S10_START53_V7A-v1/AODSIM/PAT_CMG_V5_16_0_1377467484/source_cfg.py'
p1629
ssS'CheckForWrite'
p1630
(dp1631
g1606
g1607
sS'WriteAccess'
p1632
I01
ssS'WriteToDatasets'
p1633
(dp1634
S'Added'
p1635
I00
sg207
S'/GluGluToHToTauTau_M-120_8TeV-powheg-pythia6/Summer12_DR53X-PU_S10_START53_V7A-v1/AODSIM/PAT_CMG_V5_16_0/HTT_24Jul_newTES_manzoni_Up'
p1636
sS'User'
p1637
g240
ssS'RunCMSBatch'
p1638
(dp1639
S'BatchUser'
p1640
g240
sS'SampleOutputDir'
p1641
S'/store/cmst3/user/manzoni/CMG/GluGluToHToTauTau_M-120_8TeV-powheg-pythia6/Summer12_DR53X-PU_S10_START53_V7A-v1/AODSIM/PAT_CMG_V5_16_0/HTT_24Jul_newTES_manzoni_Up'
p1642
sS'SampleDataset'
p1643
g208
sS'LSFJobsTopDir'
p1644
S'GluGluToHToTauTau_M-120_8TeV-powheg-pythia6/Summer12_DR53X-PU_S10_START53_V7A-v1/AODSIM/PAT_CMG_V5_16_0_1377467484/HTT_24Jul_newTES_manzoni_Up_Jobs'
p1645
ssS'CreateJobDirectory'
p1646
(dp1647
S'JobDir'
p1648
S'GluGluToHToTauTau_M-120_8TeV-powheg-pythia6/Summer12_DR53X-PU_S10_START53_V7A-v1/AODSIM/PAT_CMG_V5_16_0_1377467484'
p1649
sS'PWD'
p1650
S'/afs/cern.ch/user/m/manzoni/summer13/CMGTools/CMSSW_5_3_9/src/CMGTools/H2TauTau/prod/25aug_corrMC/up/mc'
p1651
ssS'CleanJobFiles'
p1652
(dp1653
S'Compressed'
p1654
(dp1655
S'CompressedFiles'
p1656
(lp1657
ssS'Cleaned'
p1658
(dp1659
S'CleanedFiles'
p1660
(lp1661
g1621
ag1625
aS'GluGluToHToTauTau_M-120_8TeV-powheg-pythia6/Summer12_DR53X-PU_S10_START53_V7A-v1/AODSIM/PAT_CMG_V5_16_0_1377467484/diTau_fullsel_tree_CMG.root'
p1662
aS'GluGluToHToTauTau_M-120_8TeV-powheg-pythia6/Summer12_DR53X-PU_S10_START53_V7A-v1/AODSIM/PAT_CMG_V5_16_0_1377467484/source_cfg.pyc'
p1663
aS'GluGluToHToTauTau_M-120_8TeV-powheg-pythia6/Summer12_DR53X-PU_S10_START53_V7A-v1/AODSIM/PAT_CMG_V5_16_0_1377467484/Expandedfull_cfg.pyc'
p1664
asssS'CheckForMask'
p1665
(dp1666
g3
g356
sg247
I01
ss.