(dp0
S'CheckJobStatus'
p1
(dp2
S'Report'
p3
(dp4
S'Files'
p5
(dp6
S'/store/cmst3/user/manzoni/CMG/SUSYGluGluToHToTauTau_M-100_8TeV-pythia6-tauola/Summer12_DR53X-PU_S10_START53_V7A-v1/AODSIM/PAT_CMG_V5_16_0/HTT_24Jul_newTES_manzoni_Up/diTau_fullsel_tree_CMG_1.root'
p7
(I01
I112
tp8
sS'/store/cmst3/user/manzoni/CMG/SUSYGluGluToHToTauTau_M-100_8TeV-pythia6-tauola/Summer12_DR53X-PU_S10_START53_V7A-v1/AODSIM/PAT_CMG_V5_16_0/HTT_24Jul_newTES_manzoni_Up/diTau_fullsel_tree_CMG_14.root'
p9
(I01
I177
tp10
sS'/store/cmst3/user/manzoni/CMG/SUSYGluGluToHToTauTau_M-100_8TeV-pythia6-tauola/Summer12_DR53X-PU_S10_START53_V7A-v1/AODSIM/PAT_CMG_V5_16_0/HTT_24Jul_newTES_manzoni_Up/diTau_fullsel_tree_CMG_16.root'
p11
(I01
I172
tp12
sS'/store/cmst3/user/manzoni/CMG/SUSYGluGluToHToTauTau_M-100_8TeV-pythia6-tauola/Summer12_DR53X-PU_S10_START53_V7A-v1/AODSIM/PAT_CMG_V5_16_0/HTT_24Jul_newTES_manzoni_Up/diTau_fullsel_tree_CMG_9.root'
p13
(I01
I187
tp14
sS'/store/cmst3/user/manzoni/CMG/SUSYGluGluToHToTauTau_M-100_8TeV-pythia6-tauola/Summer12_DR53X-PU_S10_START53_V7A-v1/AODSIM/PAT_CMG_V5_16_0/HTT_24Jul_newTES_manzoni_Up/diTau_fullsel_tree_CMG_32.root'
p15
(I01
I182
tp16
sS'/store/cmst3/user/manzoni/CMG/SUSYGluGluToHToTauTau_M-100_8TeV-pythia6-tauola/Summer12_DR53X-PU_S10_START53_V7A-v1/AODSIM/PAT_CMG_V5_16_0/HTT_24Jul_newTES_manzoni_Up/diTau_fullsel_tree_CMG_3.root'
p17
(I01
I190
tp18
sS'/store/cmst3/user/manzoni/CMG/SUSYGluGluToHToTauTau_M-100_8TeV-pythia6-tauola/Summer12_DR53X-PU_S10_START53_V7A-v1/AODSIM/PAT_CMG_V5_16_0/HTT_24Jul_newTES_manzoni_Up/diTau_fullsel_tree_CMG_7.root'
p19
(I01
I164
tp20
sS'/store/cmst3/user/manzoni/CMG/SUSYGluGluToHToTauTau_M-100_8TeV-pythia6-tauola/Summer12_DR53X-PU_S10_START53_V7A-v1/AODSIM/PAT_CMG_V5_16_0/HTT_24Jul_newTES_manzoni_Up/diTau_fullsel_tree_CMG_15.root'
p21
(I01
I157
tp22
sS'/store/cmst3/user/manzoni/CMG/SUSYGluGluToHToTauTau_M-100_8TeV-pythia6-tauola/Summer12_DR53X-PU_S10_START53_V7A-v1/AODSIM/PAT_CMG_V5_16_0/HTT_24Jul_newTES_manzoni_Up/diTau_fullsel_tree_CMG_4.root'
p23
(I01
I188
tp24
sS'/store/cmst3/user/manzoni/CMG/SUSYGluGluToHToTauTau_M-100_8TeV-pythia6-tauola/Summer12_DR53X-PU_S10_START53_V7A-v1/AODSIM/PAT_CMG_V5_16_0/HTT_24Jul_newTES_manzoni_Up/diTau_fullsel_tree_CMG_12.root'
p25
(I01
I172
tp26
sS'/store/cmst3/user/manzoni/CMG/SUSYGluGluToHToTauTau_M-100_8TeV-pythia6-tauola/Summer12_DR53X-PU_S10_START53_V7A-v1/AODSIM/PAT_CMG_V5_16_0/HTT_24Jul_newTES_manzoni_Up/diTau_fullsel_tree_CMG_21.root'
p27
(I01
I158
tp28
sS'/store/cmst3/user/manzoni/CMG/SUSYGluGluToHToTauTau_M-100_8TeV-pythia6-tauola/Summer12_DR53X-PU_S10_START53_V7A-v1/AODSIM/PAT_CMG_V5_16_0/HTT_24Jul_newTES_manzoni_Up/diTau_fullsel_tree_CMG_31.root'
p29
(I01
I193
tp30
sS'/store/cmst3/user/manzoni/CMG/SUSYGluGluToHToTauTau_M-100_8TeV-pythia6-tauola/Summer12_DR53X-PU_S10_START53_V7A-v1/AODSIM/PAT_CMG_V5_16_0/HTT_24Jul_newTES_manzoni_Up/diTau_fullsel_tree_CMG_23.root'
p31
(I01
I187
tp32
sS'/store/cmst3/user/manzoni/CMG/SUSYGluGluToHToTauTau_M-100_8TeV-pythia6-tauola/Summer12_DR53X-PU_S10_START53_V7A-v1/AODSIM/PAT_CMG_V5_16_0/HTT_24Jul_newTES_manzoni_Up/diTau_fullsel_tree_CMG_5.root'
p33
(I01
I172
tp34
sS'/store/cmst3/user/manzoni/CMG/SUSYGluGluToHToTauTau_M-100_8TeV-pythia6-tauola/Summer12_DR53X-PU_S10_START53_V7A-v1/AODSIM/PAT_CMG_V5_16_0/HTT_24Jul_newTES_manzoni_Up/diTau_fullsel_tree_CMG_29.root'
p35
(I01
I182
tp36
sS'/store/cmst3/user/manzoni/CMG/SUSYGluGluToHToTauTau_M-100_8TeV-pythia6-tauola/Summer12_DR53X-PU_S10_START53_V7A-v1/AODSIM/PAT_CMG_V5_16_0/HTT_24Jul_newTES_manzoni_Up/diTau_fullsel_tree_CMG_2.root'
p37
(I01
I168
tp38
sS'/store/cmst3/user/manzoni/CMG/SUSYGluGluToHToTauTau_M-100_8TeV-pythia6-tauola/Summer12_DR53X-PU_S10_START53_V7A-v1/AODSIM/PAT_CMG_V5_16_0/HTT_24Jul_newTES_manzoni_Up/diTau_fullsel_tree_CMG_20.root'
p39
(I01
I205
tp40
sS'/store/cmst3/user/manzoni/CMG/SUSYGluGluToHToTauTau_M-100_8TeV-pythia6-tauola/Summer12_DR53X-PU_S10_START53_V7A-v1/AODSIM/PAT_CMG_V5_16_0/HTT_24Jul_newTES_manzoni_Up/diTau_fullsel_tree_CMG_27.root'
p41
(I01
I162
tp42
sS'/store/cmst3/user/manzoni/CMG/SUSYGluGluToHToTauTau_M-100_8TeV-pythia6-tauola/Summer12_DR53X-PU_S10_START53_V7A-v1/AODSIM/PAT_CMG_V5_16_0/HTT_24Jul_newTES_manzoni_Up/diTau_fullsel_tree_CMG_17.root'
p43
(I01
I166
tp44
sS'/store/cmst3/user/manzoni/CMG/SUSYGluGluToHToTauTau_M-100_8TeV-pythia6-tauola/Summer12_DR53X-PU_S10_START53_V7A-v1/AODSIM/PAT_CMG_V5_16_0/HTT_24Jul_newTES_manzoni_Up/diTau_fullsel_tree_CMG_24.root'
p45
(I01
I170
tp46
sS'/store/cmst3/user/manzoni/CMG/SUSYGluGluToHToTauTau_M-100_8TeV-pythia6-tauola/Summer12_DR53X-PU_S10_START53_V7A-v1/AODSIM/PAT_CMG_V5_16_0/HTT_24Jul_newTES_manzoni_Up/diTau_fullsel_tree_CMG_6.root'
p47
(I01
I177
tp48
sS'/store/cmst3/user/manzoni/CMG/SUSYGluGluToHToTauTau_M-100_8TeV-pythia6-tauola/Summer12_DR53X-PU_S10_START53_V7A-v1/AODSIM/PAT_CMG_V5_16_0/HTT_24Jul_newTES_manzoni_Up/diTau_fullsel_tree_CMG_25.root'
p49
(I01
I161
tp50
sS'/store/cmst3/user/manzoni/CMG/SUSYGluGluToHToTauTau_M-100_8TeV-pythia6-tauola/Summer12_DR53X-PU_S10_START53_V7A-v1/AODSIM/PAT_CMG_V5_16_0/HTT_24Jul_newTES_manzoni_Up/diTau_fullsel_tree_CMG_13.root'
p51
(I01
I178
tp52
sS'/store/cmst3/user/manzoni/CMG/SUSYGluGluToHToTauTau_M-100_8TeV-pythia6-tauola/Summer12_DR53X-PU_S10_START53_V7A-v1/AODSIM/PAT_CMG_V5_16_0/HTT_24Jul_newTES_manzoni_Up/diTau_fullsel_tree_CMG_18.root'
p53
(I01
I182
tp54
sS'/store/cmst3/user/manzoni/CMG/SUSYGluGluToHToTauTau_M-100_8TeV-pythia6-tauola/Summer12_DR53X-PU_S10_START53_V7A-v1/AODSIM/PAT_CMG_V5_16_0/HTT_24Jul_newTES_manzoni_Up/diTau_fullsel_tree_CMG_22.root'
p55
(I01
I171
tp56
sS'/store/cmst3/user/manzoni/CMG/SUSYGluGluToHToTauTau_M-100_8TeV-pythia6-tauola/Summer12_DR53X-PU_S10_START53_V7A-v1/AODSIM/PAT_CMG_V5_16_0/HTT_24Jul_newTES_manzoni_Up/diTau_fullsel_tree_CMG_10.root'
p57
(I01
I159
tp58
sS'/store/cmst3/user/manzoni/CMG/SUSYGluGluToHToTauTau_M-100_8TeV-pythia6-tauola/Summer12_DR53X-PU_S10_START53_V7A-v1/AODSIM/PAT_CMG_V5_16_0/HTT_24Jul_newTES_manzoni_Up/diTau_fullsel_tree_CMG_8.root'
p59
(I01
I192
tp60
sS'/store/cmst3/user/manzoni/CMG/SUSYGluGluToHToTauTau_M-100_8TeV-pythia6-tauola/Summer12_DR53X-PU_S10_START53_V7A-v1/AODSIM/PAT_CMG_V5_16_0/HTT_24Jul_newTES_manzoni_Up/diTau_fullsel_tree_CMG_19.root'
p61
(I01
I182
tp62
sS'/store/cmst3/user/manzoni/CMG/SUSYGluGluToHToTauTau_M-100_8TeV-pythia6-tauola/Summer12_DR53X-PU_S10_START53_V7A-v1/AODSIM/PAT_CMG_V5_16_0/HTT_24Jul_newTES_manzoni_Up/diTau_fullsel_tree_CMG_26.root'
p63
(I01
I164
tp64
sS'/store/cmst3/user/manzoni/CMG/SUSYGluGluToHToTauTau_M-100_8TeV-pythia6-tauola/Summer12_DR53X-PU_S10_START53_V7A-v1/AODSIM/PAT_CMG_V5_16_0/HTT_24Jul_newTES_manzoni_Up/diTau_fullsel_tree_CMG_34.root'
p65
(I01
I168
tp66
sS'/store/cmst3/user/manzoni/CMG/SUSYGluGluToHToTauTau_M-100_8TeV-pythia6-tauola/Summer12_DR53X-PU_S10_START53_V7A-v1/AODSIM/PAT_CMG_V5_16_0/HTT_24Jul_newTES_manzoni_Up/diTau_fullsel_tree_CMG_30.root'
p67
(I01
I161
tp68
sS'/store/cmst3/user/manzoni/CMG/SUSYGluGluToHToTauTau_M-100_8TeV-pythia6-tauola/Summer12_DR53X-PU_S10_START53_V7A-v1/AODSIM/PAT_CMG_V5_16_0/HTT_24Jul_newTES_manzoni_Up/diTau_fullsel_tree_CMG_11.root'
p69
(I01
I168
tp70
sS'/store/cmst3/user/manzoni/CMG/SUSYGluGluToHToTauTau_M-100_8TeV-pythia6-tauola/Summer12_DR53X-PU_S10_START53_V7A-v1/AODSIM/PAT_CMG_V5_16_0/HTT_24Jul_newTES_manzoni_Up/diTau_fullsel_tree_CMG_28.root'
p71
(I01
I112
tp72
sS'/store/cmst3/user/manzoni/CMG/SUSYGluGluToHToTauTau_M-100_8TeV-pythia6-tauola/Summer12_DR53X-PU_S10_START53_V7A-v1/AODSIM/PAT_CMG_V5_16_0/HTT_24Jul_newTES_manzoni_Up/diTau_fullsel_tree_CMG_33.root'
p73
(I01
I143
tp74
ssS'Name'
p75
S'/SUSYGluGluToHToTauTau_M-100_8TeV-pythia6-tauola/Summer12_DR53X-PU_S10_START53_V7A-v1/AODSIM/PAT_CMG_V5_16_0/HTT_24Jul_newTES_manzoni_Up'
p76
sS'Topdir'
p77
S'/eos/cms/store/cmst3/user/manzoni/CMG'
p78
sS'RunList'
p79
(lp80
sS'PathList'
p81
(lp82
S'/store/cmst3/user/manzoni/CMG/SUSYGluGluToHToTauTau_M-100_8TeV-pythia6-tauola/Summer12_DR53X-PU_S10_START53_V7A-v1/AODSIM/PAT_CMG_V5_16_0/HTT_24Jul_newTES_manzoni_Up'
p83
asS'AlgoList'
p84
(lp85
sS'PrimaryDatasetFraction'
p86
F0.0057815374770018397
sS'FilesGood'
p87
I34
sS'PrimaryDatasetEntries'
p88
I1000080
sS'data'
p89
(dp90
sS'FilesBad'
p91
I0
sS'ReportVersion'
p92
I3
sS'Status'
p93
S'VALID'
p94
sS'MaxRun'
p95
I-1
sS'PhysicsGroup'
p96
S'CMG'
p97
sS'MinRun'
p98
I-1
sS'StageHost'
p99
S'castorcms'
p100
sS'FilesCount'
p101
I34
sS'FilesEntries'
p102
I5782
sS'TierList'
p103
(lp104
sS'DateCreated'
p105
S'1377478312'
p106
sS'CreatedBy'
p107
S'manzoni'
p108
sS'ValidDuplicates'
p109
(dp110
sS'PrimaryDataset'
p111
S'/SUSYGluGluToHToTauTau_M-100_8TeV-pythia6-tauola/Summer12_DR53X-PU_S10_START53_V7A-v1/AODSIM'
p112
sS'BadJobs'
p113
(lp114
ssS'MaskPresent'
p115
I01
sS'LSFJobStatusCheck'
p116
(dp117
S'SUSYGluGluToHToTauTau_M-100_8TeV-pythia6-tauola/Summer12_DR53X-PU_S10_START53_V7A-v1/AODSIM/PAT_CMG_V5_16_0_1377467521/HTT_24Jul_newTES_manzoni_Up_Jobs/Job_28'
p118
g94
sS'SUSYGluGluToHToTauTau_M-100_8TeV-pythia6-tauola/Summer12_DR53X-PU_S10_START53_V7A-v1/AODSIM/PAT_CMG_V5_16_0_1377467521/HTT_24Jul_newTES_manzoni_Up_Jobs/Job_29'
p119
g94
sS'SUSYGluGluToHToTauTau_M-100_8TeV-pythia6-tauola/Summer12_DR53X-PU_S10_START53_V7A-v1/AODSIM/PAT_CMG_V5_16_0_1377467521/HTT_24Jul_newTES_manzoni_Up_Jobs/Job_24'
p120
g94
sS'SUSYGluGluToHToTauTau_M-100_8TeV-pythia6-tauola/Summer12_DR53X-PU_S10_START53_V7A-v1/AODSIM/PAT_CMG_V5_16_0_1377467521/HTT_24Jul_newTES_manzoni_Up_Jobs/Job_25'
p121
g94
sS'SUSYGluGluToHToTauTau_M-100_8TeV-pythia6-tauola/Summer12_DR53X-PU_S10_START53_V7A-v1/AODSIM/PAT_CMG_V5_16_0_1377467521/HTT_24Jul_newTES_manzoni_Up_Jobs/Job_26'
p122
g94
sS'SUSYGluGluToHToTauTau_M-100_8TeV-pythia6-tauola/Summer12_DR53X-PU_S10_START53_V7A-v1/AODSIM/PAT_CMG_V5_16_0_1377467521/HTT_24Jul_newTES_manzoni_Up_Jobs/Job_27'
p123
g94
sS'SUSYGluGluToHToTauTau_M-100_8TeV-pythia6-tauola/Summer12_DR53X-PU_S10_START53_V7A-v1/AODSIM/PAT_CMG_V5_16_0_1377467521/HTT_24Jul_newTES_manzoni_Up_Jobs/Job_20'
p124
g94
sS'SUSYGluGluToHToTauTau_M-100_8TeV-pythia6-tauola/Summer12_DR53X-PU_S10_START53_V7A-v1/AODSIM/PAT_CMG_V5_16_0_1377467521/HTT_24Jul_newTES_manzoni_Up_Jobs/Job_21'
p125
g94
sS'SUSYGluGluToHToTauTau_M-100_8TeV-pythia6-tauola/Summer12_DR53X-PU_S10_START53_V7A-v1/AODSIM/PAT_CMG_V5_16_0_1377467521/HTT_24Jul_newTES_manzoni_Up_Jobs/Job_22'
p126
g94
sS'SUSYGluGluToHToTauTau_M-100_8TeV-pythia6-tauola/Summer12_DR53X-PU_S10_START53_V7A-v1/AODSIM/PAT_CMG_V5_16_0_1377467521/HTT_24Jul_newTES_manzoni_Up_Jobs/Job_23'
p127
g94
sS'SUSYGluGluToHToTauTau_M-100_8TeV-pythia6-tauola/Summer12_DR53X-PU_S10_START53_V7A-v1/AODSIM/PAT_CMG_V5_16_0_1377467521/HTT_24Jul_newTES_manzoni_Up_Jobs/Job_9'
p128
g94
sS'SUSYGluGluToHToTauTau_M-100_8TeV-pythia6-tauola/Summer12_DR53X-PU_S10_START53_V7A-v1/AODSIM/PAT_CMG_V5_16_0_1377467521/HTT_24Jul_newTES_manzoni_Up_Jobs/Job_8'
p129
g94
sS'SUSYGluGluToHToTauTau_M-100_8TeV-pythia6-tauola/Summer12_DR53X-PU_S10_START53_V7A-v1/AODSIM/PAT_CMG_V5_16_0_1377467521/HTT_24Jul_newTES_manzoni_Up_Jobs/Job_1'
p130
g94
sS'SUSYGluGluToHToTauTau_M-100_8TeV-pythia6-tauola/Summer12_DR53X-PU_S10_START53_V7A-v1/AODSIM/PAT_CMG_V5_16_0_1377467521/HTT_24Jul_newTES_manzoni_Up_Jobs/Job_3'
p131
g94
sS'SUSYGluGluToHToTauTau_M-100_8TeV-pythia6-tauola/Summer12_DR53X-PU_S10_START53_V7A-v1/AODSIM/PAT_CMG_V5_16_0_1377467521/HTT_24Jul_newTES_manzoni_Up_Jobs/Job_2'
p132
g94
sS'SUSYGluGluToHToTauTau_M-100_8TeV-pythia6-tauola/Summer12_DR53X-PU_S10_START53_V7A-v1/AODSIM/PAT_CMG_V5_16_0_1377467521/HTT_24Jul_newTES_manzoni_Up_Jobs/Job_5'
p133
g94
sS'SUSYGluGluToHToTauTau_M-100_8TeV-pythia6-tauola/Summer12_DR53X-PU_S10_START53_V7A-v1/AODSIM/PAT_CMG_V5_16_0_1377467521/HTT_24Jul_newTES_manzoni_Up_Jobs/Job_4'
p134
g94
sS'SUSYGluGluToHToTauTau_M-100_8TeV-pythia6-tauola/Summer12_DR53X-PU_S10_START53_V7A-v1/AODSIM/PAT_CMG_V5_16_0_1377467521/HTT_24Jul_newTES_manzoni_Up_Jobs/Job_7'
p135
g94
sS'SUSYGluGluToHToTauTau_M-100_8TeV-pythia6-tauola/Summer12_DR53X-PU_S10_START53_V7A-v1/AODSIM/PAT_CMG_V5_16_0_1377467521/HTT_24Jul_newTES_manzoni_Up_Jobs/Job_6'
p136
g94
sS'SUSYGluGluToHToTauTau_M-100_8TeV-pythia6-tauola/Summer12_DR53X-PU_S10_START53_V7A-v1/AODSIM/PAT_CMG_V5_16_0_1377467521/HTT_24Jul_newTES_manzoni_Up_Jobs/Job_33'
p137
g94
sS'SUSYGluGluToHToTauTau_M-100_8TeV-pythia6-tauola/Summer12_DR53X-PU_S10_START53_V7A-v1/AODSIM/PAT_CMG_V5_16_0_1377467521/HTT_24Jul_newTES_manzoni_Up_Jobs/Job_32'
p138
g94
sS'SUSYGluGluToHToTauTau_M-100_8TeV-pythia6-tauola/Summer12_DR53X-PU_S10_START53_V7A-v1/AODSIM/PAT_CMG_V5_16_0_1377467521/HTT_24Jul_newTES_manzoni_Up_Jobs/Job_31'
p139
g94
sS'SUSYGluGluToHToTauTau_M-100_8TeV-pythia6-tauola/Summer12_DR53X-PU_S10_START53_V7A-v1/AODSIM/PAT_CMG_V5_16_0_1377467521/HTT_24Jul_newTES_manzoni_Up_Jobs/Job_30'
p140
g94
sS'SUSYGluGluToHToTauTau_M-100_8TeV-pythia6-tauola/Summer12_DR53X-PU_S10_START53_V7A-v1/AODSIM/PAT_CMG_V5_16_0_1377467521/HTT_24Jul_newTES_manzoni_Up_Jobs/Job_34'
p141
g94
sS'SUSYGluGluToHToTauTau_M-100_8TeV-pythia6-tauola/Summer12_DR53X-PU_S10_START53_V7A-v1/AODSIM/PAT_CMG_V5_16_0_1377467521/HTT_24Jul_newTES_manzoni_Up_Jobs/Job_11'
p142
g94
sS'SUSYGluGluToHToTauTau_M-100_8TeV-pythia6-tauola/Summer12_DR53X-PU_S10_START53_V7A-v1/AODSIM/PAT_CMG_V5_16_0_1377467521/HTT_24Jul_newTES_manzoni_Up_Jobs/Job_10'
p143
g94
sS'SUSYGluGluToHToTauTau_M-100_8TeV-pythia6-tauola/Summer12_DR53X-PU_S10_START53_V7A-v1/AODSIM/PAT_CMG_V5_16_0_1377467521/HTT_24Jul_newTES_manzoni_Up_Jobs/Job_13'
p144
g94
sS'SUSYGluGluToHToTauTau_M-100_8TeV-pythia6-tauola/Summer12_DR53X-PU_S10_START53_V7A-v1/AODSIM/PAT_CMG_V5_16_0_1377467521/HTT_24Jul_newTES_manzoni_Up_Jobs/Job_12'
p145
g94
sS'SUSYGluGluToHToTauTau_M-100_8TeV-pythia6-tauola/Summer12_DR53X-PU_S10_START53_V7A-v1/AODSIM/PAT_CMG_V5_16_0_1377467521/HTT_24Jul_newTES_manzoni_Up_Jobs/Job_15'
p146
g94
sS'SUSYGluGluToHToTauTau_M-100_8TeV-pythia6-tauola/Summer12_DR53X-PU_S10_START53_V7A-v1/AODSIM/PAT_CMG_V5_16_0_1377467521/HTT_24Jul_newTES_manzoni_Up_Jobs/Job_14'
p147
g94
sS'SUSYGluGluToHToTauTau_M-100_8TeV-pythia6-tauola/Summer12_DR53X-PU_S10_START53_V7A-v1/AODSIM/PAT_CMG_V5_16_0_1377467521/HTT_24Jul_newTES_manzoni_Up_Jobs/Job_17'
p148
g94
sS'SUSYGluGluToHToTauTau_M-100_8TeV-pythia6-tauola/Summer12_DR53X-PU_S10_START53_V7A-v1/AODSIM/PAT_CMG_V5_16_0_1377467521/HTT_24Jul_newTES_manzoni_Up_Jobs/Job_16'
p149
g94
sS'SUSYGluGluToHToTauTau_M-100_8TeV-pythia6-tauola/Summer12_DR53X-PU_S10_START53_V7A-v1/AODSIM/PAT_CMG_V5_16_0_1377467521/HTT_24Jul_newTES_manzoni_Up_Jobs/Job_19'
p150
g94
sS'SUSYGluGluToHToTauTau_M-100_8TeV-pythia6-tauola/Summer12_DR53X-PU_S10_START53_V7A-v1/AODSIM/PAT_CMG_V5_16_0_1377467521/HTT_24Jul_newTES_manzoni_Up_Jobs/Job_18'
p151
g94
sssS'CheckDatasetExists'
p152
(dp153
S'Dataset'
p154
S'/SUSYGluGluToHToTauTau_M-100_8TeV-pythia6-tauola/Summer12_DR53X-PU_S10_START53_V7A-v1/AODSIM/PAT_CMG_V5_16_0'
p155
ssS'GenerateMask'
p156
(dp157
g3
(dp158
VPathList
p159
(lp160
V/store/cmst3/group/cmgtools/CMG/SUSYGluGluToHToTauTau_M-100_8TeV-pythia6-tauola/Summer12_DR53X-PU_S10_START53_V7A-v1/AODSIM/PAT_CMG_V5_16_0
p161
asVStageHost
p162
Vcastorcms
p163
sVPrimaryDatasetFraction
p164
F1.0
sVFilesGood
p165
I102
sVPrimaryDatasetEntries
p166
I1000080
sVReportVersion
p167
I3
sVFiles
p168
(dp169
V/store/cmst3/group/cmgtools/CMG/SUSYGluGluToHToTauTau_M-100_8TeV-pythia6-tauola/Summer12_DR53X-PU_S10_START53_V7A-v1/AODSIM/PAT_CMG_V5_16_0/cmgTuple_38_1_K0w.root
p170
(lp171
I01
aI10000
asV/store/cmst3/group/cmgtools/CMG/SUSYGluGluToHToTauTau_M-100_8TeV-pythia6-tauola/Summer12_DR53X-PU_S10_START53_V7A-v1/AODSIM/PAT_CMG_V5_16_0/cmgTuple_102_1_rMS.root
p172
(lp173
I01
aI4320
asV/store/cmst3/group/cmgtools/CMG/SUSYGluGluToHToTauTau_M-100_8TeV-pythia6-tauola/Summer12_DR53X-PU_S10_START53_V7A-v1/AODSIM/PAT_CMG_V5_16_0/cmgTuple_92_1_NbR.root
p174
(lp175
I01
aI10000
asV/store/cmst3/group/cmgtools/CMG/SUSYGluGluToHToTauTau_M-100_8TeV-pythia6-tauola/Summer12_DR53X-PU_S10_START53_V7A-v1/AODSIM/PAT_CMG_V5_16_0/cmgTuple_81_1_4tq.root
p176
(lp177
I01
aI10000
asV/store/cmst3/group/cmgtools/CMG/SUSYGluGluToHToTauTau_M-100_8TeV-pythia6-tauola/Summer12_DR53X-PU_S10_START53_V7A-v1/AODSIM/PAT_CMG_V5_16_0/cmgTuple_55_1_rZV.root
p178
(lp179
I01
aI10000
asV/store/cmst3/group/cmgtools/CMG/SUSYGluGluToHToTauTau_M-100_8TeV-pythia6-tauola/Summer12_DR53X-PU_S10_START53_V7A-v1/AODSIM/PAT_CMG_V5_16_0/cmgTuple_90_1_dg0.root
p180
(lp181
I01
aI10000
asV/store/cmst3/group/cmgtools/CMG/SUSYGluGluToHToTauTau_M-100_8TeV-pythia6-tauola/Summer12_DR53X-PU_S10_START53_V7A-v1/AODSIM/PAT_CMG_V5_16_0/cmgTuple_71_1_uDf.root
p182
(lp183
I01
aI10000
asV/store/cmst3/group/cmgtools/CMG/SUSYGluGluToHToTauTau_M-100_8TeV-pythia6-tauola/Summer12_DR53X-PU_S10_START53_V7A-v1/AODSIM/PAT_CMG_V5_16_0/cmgTuple_73_1_k1i.root
p184
(lp185
I01
aI10000
asV/store/cmst3/group/cmgtools/CMG/SUSYGluGluToHToTauTau_M-100_8TeV-pythia6-tauola/Summer12_DR53X-PU_S10_START53_V7A-v1/AODSIM/PAT_CMG_V5_16_0/cmgTuple_17_1_381.root
p186
(lp187
I01
aI10000
asV/store/cmst3/group/cmgtools/CMG/SUSYGluGluToHToTauTau_M-100_8TeV-pythia6-tauola/Summer12_DR53X-PU_S10_START53_V7A-v1/AODSIM/PAT_CMG_V5_16_0/cmgTuple_51_1_HXB.root
p188
(lp189
I01
aI10000
asV/store/cmst3/group/cmgtools/CMG/SUSYGluGluToHToTauTau_M-100_8TeV-pythia6-tauola/Summer12_DR53X-PU_S10_START53_V7A-v1/AODSIM/PAT_CMG_V5_16_0/cmgTuple_3_1_U4h.root
p190
(lp191
I01
aI10000
asV/store/cmst3/group/cmgtools/CMG/SUSYGluGluToHToTauTau_M-100_8TeV-pythia6-tauola/Summer12_DR53X-PU_S10_START53_V7A-v1/AODSIM/PAT_CMG_V5_16_0/cmgTuple_62_1_EE4.root
p192
(lp193
I01
aI10000
asV/store/cmst3/group/cmgtools/CMG/SUSYGluGluToHToTauTau_M-100_8TeV-pythia6-tauola/Summer12_DR53X-PU_S10_START53_V7A-v1/AODSIM/PAT_CMG_V5_16_0/cmgTuple_39_1_MQ7.root
p194
(lp195
I01
aI10000
asV/store/cmst3/group/cmgtools/CMG/SUSYGluGluToHToTauTau_M-100_8TeV-pythia6-tauola/Summer12_DR53X-PU_S10_START53_V7A-v1/AODSIM/PAT_CMG_V5_16_0/cmgTuple_6_1_HDG.root
p196
(lp197
I01
aI10000
asV/store/cmst3/group/cmgtools/CMG/SUSYGluGluToHToTauTau_M-100_8TeV-pythia6-tauola/Summer12_DR53X-PU_S10_START53_V7A-v1/AODSIM/PAT_CMG_V5_16_0/cmgTuple_48_1_CIo.root
p198
(lp199
I01
aI10000
asV/store/cmst3/group/cmgtools/CMG/SUSYGluGluToHToTauTau_M-100_8TeV-pythia6-tauola/Summer12_DR53X-PU_S10_START53_V7A-v1/AODSIM/PAT_CMG_V5_16_0/cmgTuple_65_1_ANB.root
p200
(lp201
I01
aI10000
asV/store/cmst3/group/cmgtools/CMG/SUSYGluGluToHToTauTau_M-100_8TeV-pythia6-tauola/Summer12_DR53X-PU_S10_START53_V7A-v1/AODSIM/PAT_CMG_V5_16_0/cmgTuple_49_1_Z6B.root
p202
(lp203
I01
aI10000
asV/store/cmst3/group/cmgtools/CMG/SUSYGluGluToHToTauTau_M-100_8TeV-pythia6-tauola/Summer12_DR53X-PU_S10_START53_V7A-v1/AODSIM/PAT_CMG_V5_16_0/cmgTuple_84_1_ryi.root
p204
(lp205
I01
aI10000
asV/store/cmst3/group/cmgtools/CMG/SUSYGluGluToHToTauTau_M-100_8TeV-pythia6-tauola/Summer12_DR53X-PU_S10_START53_V7A-v1/AODSIM/PAT_CMG_V5_16_0/cmgTuple_70_1_TOa.root
p206
(lp207
I01
aI10000
asV/store/cmst3/group/cmgtools/CMG/SUSYGluGluToHToTauTau_M-100_8TeV-pythia6-tauola/Summer12_DR53X-PU_S10_START53_V7A-v1/AODSIM/PAT_CMG_V5_16_0/cmgTuple_59_1_aDA.root
p208
(lp209
I01
aI10000
asV/store/cmst3/group/cmgtools/CMG/SUSYGluGluToHToTauTau_M-100_8TeV-pythia6-tauola/Summer12_DR53X-PU_S10_START53_V7A-v1/AODSIM/PAT_CMG_V5_16_0/cmgTuple_87_1_y98.root
p210
(lp211
I01
aI10000
asV/store/cmst3/group/cmgtools/CMG/SUSYGluGluToHToTauTau_M-100_8TeV-pythia6-tauola/Summer12_DR53X-PU_S10_START53_V7A-v1/AODSIM/PAT_CMG_V5_16_0/cmgTuple_16_1_rkB.root
p212
(lp213
I01
aI10000
asV/store/cmst3/group/cmgtools/CMG/SUSYGluGluToHToTauTau_M-100_8TeV-pythia6-tauola/Summer12_DR53X-PU_S10_START53_V7A-v1/AODSIM/PAT_CMG_V5_16_0/cmgTuple_75_1_649.root
p214
(lp215
I01
aI10000
asV/store/cmst3/group/cmgtools/CMG/SUSYGluGluToHToTauTau_M-100_8TeV-pythia6-tauola/Summer12_DR53X-PU_S10_START53_V7A-v1/AODSIM/PAT_CMG_V5_16_0/cmgTuple_74_1_zEV.root
p216
(lp217
I01
aI10000
asV/store/cmst3/group/cmgtools/CMG/SUSYGluGluToHToTauTau_M-100_8TeV-pythia6-tauola/Summer12_DR53X-PU_S10_START53_V7A-v1/AODSIM/PAT_CMG_V5_16_0/cmgTuple_83_1_N6s.root
p218
(lp219
I01
aI10000
asV/store/cmst3/group/cmgtools/CMG/SUSYGluGluToHToTauTau_M-100_8TeV-pythia6-tauola/Summer12_DR53X-PU_S10_START53_V7A-v1/AODSIM/PAT_CMG_V5_16_0/cmgTuple_61_1_Cdy.root
p220
(lp221
I01
aI10000
asV/store/cmst3/group/cmgtools/CMG/SUSYGluGluToHToTauTau_M-100_8TeV-pythia6-tauola/Summer12_DR53X-PU_S10_START53_V7A-v1/AODSIM/PAT_CMG_V5_16_0/cmgTuple_15_1_66F.root
p222
(lp223
I01
aI10000
asV/store/cmst3/group/cmgtools/CMG/SUSYGluGluToHToTauTau_M-100_8TeV-pythia6-tauola/Summer12_DR53X-PU_S10_START53_V7A-v1/AODSIM/PAT_CMG_V5_16_0/cmgTuple_91_1_cAQ.root
p224
(lp225
I01
aI10000
asV/store/cmst3/group/cmgtools/CMG/SUSYGluGluToHToTauTau_M-100_8TeV-pythia6-tauola/Summer12_DR53X-PU_S10_START53_V7A-v1/AODSIM/PAT_CMG_V5_16_0/cmgTuple_76_1_wUR.root
p226
(lp227
I01
aI10000
asV/store/cmst3/group/cmgtools/CMG/SUSYGluGluToHToTauTau_M-100_8TeV-pythia6-tauola/Summer12_DR53X-PU_S10_START53_V7A-v1/AODSIM/PAT_CMG_V5_16_0/cmgTuple_12_1_li2.root
p228
(lp229
I01
aI10000
asV/store/cmst3/group/cmgtools/CMG/SUSYGluGluToHToTauTau_M-100_8TeV-pythia6-tauola/Summer12_DR53X-PU_S10_START53_V7A-v1/AODSIM/PAT_CMG_V5_16_0/cmgTuple_40_1_Jim.root
p230
(lp231
I01
aI10000
asV/store/cmst3/group/cmgtools/CMG/SUSYGluGluToHToTauTau_M-100_8TeV-pythia6-tauola/Summer12_DR53X-PU_S10_START53_V7A-v1/AODSIM/PAT_CMG_V5_16_0/cmgTuple_42_1_H3j.root
p232
(lp233
I01
aI10000
asV/store/cmst3/group/cmgtools/CMG/SUSYGluGluToHToTauTau_M-100_8TeV-pythia6-tauola/Summer12_DR53X-PU_S10_START53_V7A-v1/AODSIM/PAT_CMG_V5_16_0/cmgTuple_86_1_OlA.root
p234
(lp235
I01
aI10000
asV/store/cmst3/group/cmgtools/CMG/SUSYGluGluToHToTauTau_M-100_8TeV-pythia6-tauola/Summer12_DR53X-PU_S10_START53_V7A-v1/AODSIM/PAT_CMG_V5_16_0/cmgTuple_99_1_j6U.root
p236
(lp237
I01
aI10000
asV/store/cmst3/group/cmgtools/CMG/SUSYGluGluToHToTauTau_M-100_8TeV-pythia6-tauola/Summer12_DR53X-PU_S10_START53_V7A-v1/AODSIM/PAT_CMG_V5_16_0/cmgTuple_46_1_q7l.root
p238
(lp239
I01
aI10000
asV/store/cmst3/group/cmgtools/CMG/SUSYGluGluToHToTauTau_M-100_8TeV-pythia6-tauola/Summer12_DR53X-PU_S10_START53_V7A-v1/AODSIM/PAT_CMG_V5_16_0/cmgTuple_5_1_BSp.root
p240
(lp241
I01
aI10000
asV/store/cmst3/group/cmgtools/CMG/SUSYGluGluToHToTauTau_M-100_8TeV-pythia6-tauola/Summer12_DR53X-PU_S10_START53_V7A-v1/AODSIM/PAT_CMG_V5_16_0/cmgTuple_54_1_Vfa.root
p242
(lp243
I01
aI10000
asV/store/cmst3/group/cmgtools/CMG/SUSYGluGluToHToTauTau_M-100_8TeV-pythia6-tauola/Summer12_DR53X-PU_S10_START53_V7A-v1/AODSIM/PAT_CMG_V5_16_0/cmgTuple_30_1_0S5.root
p244
(lp245
I01
aI10000
asV/store/cmst3/group/cmgtools/CMG/SUSYGluGluToHToTauTau_M-100_8TeV-pythia6-tauola/Summer12_DR53X-PU_S10_START53_V7A-v1/AODSIM/PAT_CMG_V5_16_0/cmgTuple_9_1_ZML.root
p246
(lp247
I01
aI10000
asV/store/cmst3/group/cmgtools/CMG/SUSYGluGluToHToTauTau_M-100_8TeV-pythia6-tauola/Summer12_DR53X-PU_S10_START53_V7A-v1/AODSIM/PAT_CMG_V5_16_0/cmgTuple_7_1_FUG.root
p248
(lp249
I01
aI10000
asV/store/cmst3/group/cmgtools/CMG/SUSYGluGluToHToTauTau_M-100_8TeV-pythia6-tauola/Summer12_DR53X-PU_S10_START53_V7A-v1/AODSIM/PAT_CMG_V5_16_0/cmgTuple_47_1_aAo.root
p250
(lp251
I01
aI10000
asV/store/cmst3/group/cmgtools/CMG/SUSYGluGluToHToTauTau_M-100_8TeV-pythia6-tauola/Summer12_DR53X-PU_S10_START53_V7A-v1/AODSIM/PAT_CMG_V5_16_0/cmgTuple_58_1_7rY.root
p252
(lp253
I01
aI10000
asV/store/cmst3/group/cmgtools/CMG/SUSYGluGluToHToTauTau_M-100_8TeV-pythia6-tauola/Summer12_DR53X-PU_S10_START53_V7A-v1/AODSIM/PAT_CMG_V5_16_0/cmgTuple_37_1_JnF.root
p254
(lp255
I01
aI10000
asV/store/cmst3/group/cmgtools/CMG/SUSYGluGluToHToTauTau_M-100_8TeV-pythia6-tauola/Summer12_DR53X-PU_S10_START53_V7A-v1/AODSIM/PAT_CMG_V5_16_0/cmgTuple_34_1_Kb3.root
p256
(lp257
I01
aI10000
asV/store/cmst3/group/cmgtools/CMG/SUSYGluGluToHToTauTau_M-100_8TeV-pythia6-tauola/Summer12_DR53X-PU_S10_START53_V7A-v1/AODSIM/PAT_CMG_V5_16_0/cmgTuple_93_1_blh.root
p258
(lp259
I01
aI10000
asV/store/cmst3/group/cmgtools/CMG/SUSYGluGluToHToTauTau_M-100_8TeV-pythia6-tauola/Summer12_DR53X-PU_S10_START53_V7A-v1/AODSIM/PAT_CMG_V5_16_0/cmgTuple_50_1_q8k.root
p260
(lp261
I01
aI10000
asV/store/cmst3/group/cmgtools/CMG/SUSYGluGluToHToTauTau_M-100_8TeV-pythia6-tauola/Summer12_DR53X-PU_S10_START53_V7A-v1/AODSIM/PAT_CMG_V5_16_0/cmgTuple_35_1_eNu.root
p262
(lp263
I01
aI10000
asV/store/cmst3/group/cmgtools/CMG/SUSYGluGluToHToTauTau_M-100_8TeV-pythia6-tauola/Summer12_DR53X-PU_S10_START53_V7A-v1/AODSIM/PAT_CMG_V5_16_0/cmgTuple_4_1_qV2.root
p264
(lp265
I01
aI10000
asV/store/cmst3/group/cmgtools/CMG/SUSYGluGluToHToTauTau_M-100_8TeV-pythia6-tauola/Summer12_DR53X-PU_S10_START53_V7A-v1/AODSIM/PAT_CMG_V5_16_0/cmgTuple_23_1_pYi.root
p266
(lp267
I01
aI10000
asV/store/cmst3/group/cmgtools/CMG/SUSYGluGluToHToTauTau_M-100_8TeV-pythia6-tauola/Summer12_DR53X-PU_S10_START53_V7A-v1/AODSIM/PAT_CMG_V5_16_0/cmgTuple_25_1_OCS.root
p268
(lp269
I01
aI10000
asV/store/cmst3/group/cmgtools/CMG/SUSYGluGluToHToTauTau_M-100_8TeV-pythia6-tauola/Summer12_DR53X-PU_S10_START53_V7A-v1/AODSIM/PAT_CMG_V5_16_0/cmgTuple_77_1_iRb.root
p270
(lp271
I01
aI10000
asV/store/cmst3/group/cmgtools/CMG/SUSYGluGluToHToTauTau_M-100_8TeV-pythia6-tauola/Summer12_DR53X-PU_S10_START53_V7A-v1/AODSIM/PAT_CMG_V5_16_0/cmgTuple_82_1_wEg.root
p272
(lp273
I01
aI720
asV/store/cmst3/group/cmgtools/CMG/SUSYGluGluToHToTauTau_M-100_8TeV-pythia6-tauola/Summer12_DR53X-PU_S10_START53_V7A-v1/AODSIM/PAT_CMG_V5_16_0/cmgTuple_56_1_Bnf.root
p274
(lp275
I01
aI10000
asV/store/cmst3/group/cmgtools/CMG/SUSYGluGluToHToTauTau_M-100_8TeV-pythia6-tauola/Summer12_DR53X-PU_S10_START53_V7A-v1/AODSIM/PAT_CMG_V5_16_0/cmgTuple_2_1_G4T.root
p276
(lp277
I01
aI10000
asV/store/cmst3/group/cmgtools/CMG/SUSYGluGluToHToTauTau_M-100_8TeV-pythia6-tauola/Summer12_DR53X-PU_S10_START53_V7A-v1/AODSIM/PAT_CMG_V5_16_0/cmgTuple_41_1_Kbo.root
p278
(lp279
I01
aI10000
asV/store/cmst3/group/cmgtools/CMG/SUSYGluGluToHToTauTau_M-100_8TeV-pythia6-tauola/Summer12_DR53X-PU_S10_START53_V7A-v1/AODSIM/PAT_CMG_V5_16_0/cmgTuple_8_1_Sw5.root
p280
(lp281
I01
aI10000
asV/store/cmst3/group/cmgtools/CMG/SUSYGluGluToHToTauTau_M-100_8TeV-pythia6-tauola/Summer12_DR53X-PU_S10_START53_V7A-v1/AODSIM/PAT_CMG_V5_16_0/cmgTuple_52_1_Gzf.root
p282
(lp283
I01
aI10000
asV/store/cmst3/group/cmgtools/CMG/SUSYGluGluToHToTauTau_M-100_8TeV-pythia6-tauola/Summer12_DR53X-PU_S10_START53_V7A-v1/AODSIM/PAT_CMG_V5_16_0/cmgTuple_69_1_MMx.root
p284
(lp285
I01
aI10000
asV/store/cmst3/group/cmgtools/CMG/SUSYGluGluToHToTauTau_M-100_8TeV-pythia6-tauola/Summer12_DR53X-PU_S10_START53_V7A-v1/AODSIM/PAT_CMG_V5_16_0/cmgTuple_29_1_A9r.root
p286
(lp287
I01
aI10000
asV/store/cmst3/group/cmgtools/CMG/SUSYGluGluToHToTauTau_M-100_8TeV-pythia6-tauola/Summer12_DR53X-PU_S10_START53_V7A-v1/AODSIM/PAT_CMG_V5_16_0/cmgTuple_63_1_xch.root
p288
(lp289
I01
aI10000
asV/store/cmst3/group/cmgtools/CMG/SUSYGluGluToHToTauTau_M-100_8TeV-pythia6-tauola/Summer12_DR53X-PU_S10_START53_V7A-v1/AODSIM/PAT_CMG_V5_16_0/cmgTuple_95_1_snx.root
p290
(lp291
I01
aI10000
asV/store/cmst3/group/cmgtools/CMG/SUSYGluGluToHToTauTau_M-100_8TeV-pythia6-tauola/Summer12_DR53X-PU_S10_START53_V7A-v1/AODSIM/PAT_CMG_V5_16_0/cmgTuple_10_1_kPA.root
p292
(lp293
I01
aI10000
asV/store/cmst3/group/cmgtools/CMG/SUSYGluGluToHToTauTau_M-100_8TeV-pythia6-tauola/Summer12_DR53X-PU_S10_START53_V7A-v1/AODSIM/PAT_CMG_V5_16_0/cmgTuple_89_1_Nsr.root
p294
(lp295
I01
aI10000
asV/store/cmst3/group/cmgtools/CMG/SUSYGluGluToHToTauTau_M-100_8TeV-pythia6-tauola/Summer12_DR53X-PU_S10_START53_V7A-v1/AODSIM/PAT_CMG_V5_16_0/cmgTuple_32_1_hVD.root
p296
(lp297
I01
aI10000
asV/store/cmst3/group/cmgtools/CMG/SUSYGluGluToHToTauTau_M-100_8TeV-pythia6-tauola/Summer12_DR53X-PU_S10_START53_V7A-v1/AODSIM/PAT_CMG_V5_16_0/cmgTuple_19_1_g8c.root
p298
(lp299
I01
aI10000
asV/store/cmst3/group/cmgtools/CMG/SUSYGluGluToHToTauTau_M-100_8TeV-pythia6-tauola/Summer12_DR53X-PU_S10_START53_V7A-v1/AODSIM/PAT_CMG_V5_16_0/cmgTuple_28_1_KDB.root
p300
(lp301
I01
aI10000
asV/store/cmst3/group/cmgtools/CMG/SUSYGluGluToHToTauTau_M-100_8TeV-pythia6-tauola/Summer12_DR53X-PU_S10_START53_V7A-v1/AODSIM/PAT_CMG_V5_16_0/cmgTuple_31_1_Q9F.root
p302
(lp303
I01
aI10000
asV/store/cmst3/group/cmgtools/CMG/SUSYGluGluToHToTauTau_M-100_8TeV-pythia6-tauola/Summer12_DR53X-PU_S10_START53_V7A-v1/AODSIM/PAT_CMG_V5_16_0/cmgTuple_98_1_yq0.root
p304
(lp305
I01
aI10000
asV/store/cmst3/group/cmgtools/CMG/SUSYGluGluToHToTauTau_M-100_8TeV-pythia6-tauola/Summer12_DR53X-PU_S10_START53_V7A-v1/AODSIM/PAT_CMG_V5_16_0/cmgTuple_36_1_7CV.root
p306
(lp307
I01
aI10000
asV/store/cmst3/group/cmgtools/CMG/SUSYGluGluToHToTauTau_M-100_8TeV-pythia6-tauola/Summer12_DR53X-PU_S10_START53_V7A-v1/AODSIM/PAT_CMG_V5_16_0/cmgTuple_88_1_rDC.root
p308
(lp309
I01
aI10000
asV/store/cmst3/group/cmgtools/CMG/SUSYGluGluToHToTauTau_M-100_8TeV-pythia6-tauola/Summer12_DR53X-PU_S10_START53_V7A-v1/AODSIM/PAT_CMG_V5_16_0/cmgTuple_67_1_2OX.root
p310
(lp311
I01
aI10000
asV/store/cmst3/group/cmgtools/CMG/SUSYGluGluToHToTauTau_M-100_8TeV-pythia6-tauola/Summer12_DR53X-PU_S10_START53_V7A-v1/AODSIM/PAT_CMG_V5_16_0/cmgTuple_72_1_zTt.root
p312
(lp313
I01
aI10000
asV/store/cmst3/group/cmgtools/CMG/SUSYGluGluToHToTauTau_M-100_8TeV-pythia6-tauola/Summer12_DR53X-PU_S10_START53_V7A-v1/AODSIM/PAT_CMG_V5_16_0/cmgTuple_21_1_CLk.root
p314
(lp315
I01
aI10000
asV/store/cmst3/group/cmgtools/CMG/SUSYGluGluToHToTauTau_M-100_8TeV-pythia6-tauola/Summer12_DR53X-PU_S10_START53_V7A-v1/AODSIM/PAT_CMG_V5_16_0/cmgTuple_45_1_hlP.root
p316
(lp317
I01
aI10000
asV/store/cmst3/group/cmgtools/CMG/SUSYGluGluToHToTauTau_M-100_8TeV-pythia6-tauola/Summer12_DR53X-PU_S10_START53_V7A-v1/AODSIM/PAT_CMG_V5_16_0/cmgTuple_43_1_996.root
p318
(lp319
I01
aI10000
asV/store/cmst3/group/cmgtools/CMG/SUSYGluGluToHToTauTau_M-100_8TeV-pythia6-tauola/Summer12_DR53X-PU_S10_START53_V7A-v1/AODSIM/PAT_CMG_V5_16_0/cmgTuple_68_1_dzT.root
p320
(lp321
I01
aI10000
asV/store/cmst3/group/cmgtools/CMG/SUSYGluGluToHToTauTau_M-100_8TeV-pythia6-tauola/Summer12_DR53X-PU_S10_START53_V7A-v1/AODSIM/PAT_CMG_V5_16_0/cmgTuple_97_1_DPW.root
p322
(lp323
I01
aI10000
asV/store/cmst3/group/cmgtools/CMG/SUSYGluGluToHToTauTau_M-100_8TeV-pythia6-tauola/Summer12_DR53X-PU_S10_START53_V7A-v1/AODSIM/PAT_CMG_V5_16_0/cmgTuple_18_1_fDy.root
p324
(lp325
I01
aI10000
asV/store/cmst3/group/cmgtools/CMG/SUSYGluGluToHToTauTau_M-100_8TeV-pythia6-tauola/Summer12_DR53X-PU_S10_START53_V7A-v1/AODSIM/PAT_CMG_V5_16_0/cmgTuple_20_1_OHz.root
p326
(lp327
I01
aI10000
asV/store/cmst3/group/cmgtools/CMG/SUSYGluGluToHToTauTau_M-100_8TeV-pythia6-tauola/Summer12_DR53X-PU_S10_START53_V7A-v1/AODSIM/PAT_CMG_V5_16_0/cmgTuple_80_1_3Mz.root
p328
(lp329
I01
aI10000
asV/store/cmst3/group/cmgtools/CMG/SUSYGluGluToHToTauTau_M-100_8TeV-pythia6-tauola/Summer12_DR53X-PU_S10_START53_V7A-v1/AODSIM/PAT_CMG_V5_16_0/cmgTuple_22_1_szy.root
p330
(lp331
I01
aI10000
asV/store/cmst3/group/cmgtools/CMG/SUSYGluGluToHToTauTau_M-100_8TeV-pythia6-tauola/Summer12_DR53X-PU_S10_START53_V7A-v1/AODSIM/PAT_CMG_V5_16_0/cmgTuple_85_1_xWa.root
p332
(lp333
I01
aI10000
asV/store/cmst3/group/cmgtools/CMG/SUSYGluGluToHToTauTau_M-100_8TeV-pythia6-tauola/Summer12_DR53X-PU_S10_START53_V7A-v1/AODSIM/PAT_CMG_V5_16_0/cmgTuple_79_1_kpx.root
p334
(lp335
I01
aI10000
asV/store/cmst3/group/cmgtools/CMG/SUSYGluGluToHToTauTau_M-100_8TeV-pythia6-tauola/Summer12_DR53X-PU_S10_START53_V7A-v1/AODSIM/PAT_CMG_V5_16_0/cmgTuple_53_1_gLM.root
p336
(lp337
I01
aI10000
asV/store/cmst3/group/cmgtools/CMG/SUSYGluGluToHToTauTau_M-100_8TeV-pythia6-tauola/Summer12_DR53X-PU_S10_START53_V7A-v1/AODSIM/PAT_CMG_V5_16_0/cmgTuple_26_1_6JQ.root
p338
(lp339
I01
aI10000
asV/store/cmst3/group/cmgtools/CMG/SUSYGluGluToHToTauTau_M-100_8TeV-pythia6-tauola/Summer12_DR53X-PU_S10_START53_V7A-v1/AODSIM/PAT_CMG_V5_16_0/cmgTuple_24_1_8yz.root
p340
(lp341
I01
aI10000
asV/store/cmst3/group/cmgtools/CMG/SUSYGluGluToHToTauTau_M-100_8TeV-pythia6-tauola/Summer12_DR53X-PU_S10_START53_V7A-v1/AODSIM/PAT_CMG_V5_16_0/cmgTuple_96_1_XjJ.root
p342
(lp343
I01
aI10000
asV/store/cmst3/group/cmgtools/CMG/SUSYGluGluToHToTauTau_M-100_8TeV-pythia6-tauola/Summer12_DR53X-PU_S10_START53_V7A-v1/AODSIM/PAT_CMG_V5_16_0/cmgTuple_64_1_40Z.root
p344
(lp345
I01
aI10000
asV/store/cmst3/group/cmgtools/CMG/SUSYGluGluToHToTauTau_M-100_8TeV-pythia6-tauola/Summer12_DR53X-PU_S10_START53_V7A-v1/AODSIM/PAT_CMG_V5_16_0/cmgTuple_94_1_K7j.root
p346
(lp347
I01
aI10000
asV/store/cmst3/group/cmgtools/CMG/SUSYGluGluToHToTauTau_M-100_8TeV-pythia6-tauola/Summer12_DR53X-PU_S10_START53_V7A-v1/AODSIM/PAT_CMG_V5_16_0/cmgTuple_44_1_LuM.root
p348
(lp349
I01
aI10000
asV/store/cmst3/group/cmgtools/CMG/SUSYGluGluToHToTauTau_M-100_8TeV-pythia6-tauola/Summer12_DR53X-PU_S10_START53_V7A-v1/AODSIM/PAT_CMG_V5_16_0/cmgTuple_33_1_SHq.root
p350
(lp351
I01
aI10000
asV/store/cmst3/group/cmgtools/CMG/SUSYGluGluToHToTauTau_M-100_8TeV-pythia6-tauola/Summer12_DR53X-PU_S10_START53_V7A-v1/AODSIM/PAT_CMG_V5_16_0/cmgTuple_57_1_lr7.root
p352
(lp353
I01
aI10000
asV/store/cmst3/group/cmgtools/CMG/SUSYGluGluToHToTauTau_M-100_8TeV-pythia6-tauola/Summer12_DR53X-PU_S10_START53_V7A-v1/AODSIM/PAT_CMG_V5_16_0/cmgTuple_27_1_XSx.root
p354
(lp355
I01
aI10000
asV/store/cmst3/group/cmgtools/CMG/SUSYGluGluToHToTauTau_M-100_8TeV-pythia6-tauola/Summer12_DR53X-PU_S10_START53_V7A-v1/AODSIM/PAT_CMG_V5_16_0/cmgTuple_1_1_zUA.root
p356
(lp357
I01
aI10000
asV/store/cmst3/group/cmgtools/CMG/SUSYGluGluToHToTauTau_M-100_8TeV-pythia6-tauola/Summer12_DR53X-PU_S10_START53_V7A-v1/AODSIM/PAT_CMG_V5_16_0/cmgTuple_100_1_TL3.root
p358
(lp359
I01
aI10000
asV/store/cmst3/group/cmgtools/CMG/SUSYGluGluToHToTauTau_M-100_8TeV-pythia6-tauola/Summer12_DR53X-PU_S10_START53_V7A-v1/AODSIM/PAT_CMG_V5_16_0/cmgTuple_13_1_lik.root
p360
(lp361
I01
aI10000
asV/store/cmst3/group/cmgtools/CMG/SUSYGluGluToHToTauTau_M-100_8TeV-pythia6-tauola/Summer12_DR53X-PU_S10_START53_V7A-v1/AODSIM/PAT_CMG_V5_16_0/cmgTuple_14_1_Vmr.root
p362
(lp363
I01
aI10000
asV/store/cmst3/group/cmgtools/CMG/SUSYGluGluToHToTauTau_M-100_8TeV-pythia6-tauola/Summer12_DR53X-PU_S10_START53_V7A-v1/AODSIM/PAT_CMG_V5_16_0/cmgTuple_66_1_WpH.root
p364
(lp365
I01
aI10000
asV/store/cmst3/group/cmgtools/CMG/SUSYGluGluToHToTauTau_M-100_8TeV-pythia6-tauola/Summer12_DR53X-PU_S10_START53_V7A-v1/AODSIM/PAT_CMG_V5_16_0/cmgTuple_60_1_YAX.root
p366
(lp367
I01
aI10000
asV/store/cmst3/group/cmgtools/CMG/SUSYGluGluToHToTauTau_M-100_8TeV-pythia6-tauola/Summer12_DR53X-PU_S10_START53_V7A-v1/AODSIM/PAT_CMG_V5_16_0/cmgTuple_78_1_DNH.root
p368
(lp369
I01
aI10000
asV/store/cmst3/group/cmgtools/CMG/SUSYGluGluToHToTauTau_M-100_8TeV-pythia6-tauola/Summer12_DR53X-PU_S10_START53_V7A-v1/AODSIM/PAT_CMG_V5_16_0/cmgTuple_11_1_qQb.root
p370
(lp371
I01
aI10000
asV/store/cmst3/group/cmgtools/CMG/SUSYGluGluToHToTauTau_M-100_8TeV-pythia6-tauola/Summer12_DR53X-PU_S10_START53_V7A-v1/AODSIM/PAT_CMG_V5_16_0/cmgTuple_101_1_K73.root
p372
(lp373
I01
aI5040
assVPhysicsGroup
p374
VCMG
p375
sVFilesCount
p376
I102
sVFilesEntries
p377
I1000080
sVRunList
p378
(lp379
sVValidDuplicates
p380
(dp381
sVPrimaryDataset
p382
V/SUSYGluGluToHToTauTau_M-100_8TeV-pythia6-tauola/Summer12_DR53X-PU_S10_START53_V7A-v1/AODSIM
p383
sVStatus
p384
VVALID
p385
sVName
p386
V/SUSYGluGluToHToTauTau_M-100_8TeV-pythia6-tauola/Summer12_DR53X-PU_S10_START53_V7A-v1/AODSIM/PAT_CMG_V5_16_0
p387
sVTopdir
p388
V/eos/cms/store/cmst3/group/cmgtools/CMG
p389
sVdata
p390
(dp391
sVFilesBad
p392
I0
sVMinRun
p393
I-1
sVAlgoList
p394
(lp395
sVTierList
p396
(lp397
sVDateCreated
p398
V1371077223
p399
sVCreatedBy
p400
Vcmgtools_group
p401
sVMaxRun
p402
I-1
sVBadJobs
p403
(lp404
ssg115
I01
ssS'MonitorJobs'
p405
(dp406
S'LSFJobStatus'
p407
(dp408
g118
S'SUSYGluGluToHToTauTau_M-100_8TeV-pythia6-tauola/Summer12_DR53X-PU_S10_START53_V7A-v1/AODSIM/PAT_CMG_V5_16_0_1377467521/HTT_24Jul_newTES_manzoni_Up_Jobs/Job_28/LSFJOB_440973621/STDOUT.gz'
p409
sg119
S'SUSYGluGluToHToTauTau_M-100_8TeV-pythia6-tauola/Summer12_DR53X-PU_S10_START53_V7A-v1/AODSIM/PAT_CMG_V5_16_0_1377467521/HTT_24Jul_newTES_manzoni_Up_Jobs/Job_29/LSFJOB_440973703/STDOUT.gz'
p410
sg120
S'SUSYGluGluToHToTauTau_M-100_8TeV-pythia6-tauola/Summer12_DR53X-PU_S10_START53_V7A-v1/AODSIM/PAT_CMG_V5_16_0_1377467521/HTT_24Jul_newTES_manzoni_Up_Jobs/Job_24/LSFJOB_440973320/STDOUT.gz'
p411
sg121
S'SUSYGluGluToHToTauTau_M-100_8TeV-pythia6-tauola/Summer12_DR53X-PU_S10_START53_V7A-v1/AODSIM/PAT_CMG_V5_16_0_1377467521/HTT_24Jul_newTES_manzoni_Up_Jobs/Job_25/LSFJOB_440973394/STDOUT.gz'
p412
sg122
S'SUSYGluGluToHToTauTau_M-100_8TeV-pythia6-tauola/Summer12_DR53X-PU_S10_START53_V7A-v1/AODSIM/PAT_CMG_V5_16_0_1377467521/HTT_24Jul_newTES_manzoni_Up_Jobs/Job_26/LSFJOB_440973453/STDOUT.gz'
p413
sg123
S'SUSYGluGluToHToTauTau_M-100_8TeV-pythia6-tauola/Summer12_DR53X-PU_S10_START53_V7A-v1/AODSIM/PAT_CMG_V5_16_0_1377467521/HTT_24Jul_newTES_manzoni_Up_Jobs/Job_27/LSFJOB_440973535/STDOUT.gz'
p414
sg124
S'SUSYGluGluToHToTauTau_M-100_8TeV-pythia6-tauola/Summer12_DR53X-PU_S10_START53_V7A-v1/AODSIM/PAT_CMG_V5_16_0_1377467521/HTT_24Jul_newTES_manzoni_Up_Jobs/Job_20/LSFJOB_440972992/STDOUT.gz'
p415
sg125
S'SUSYGluGluToHToTauTau_M-100_8TeV-pythia6-tauola/Summer12_DR53X-PU_S10_START53_V7A-v1/AODSIM/PAT_CMG_V5_16_0_1377467521/HTT_24Jul_newTES_manzoni_Up_Jobs/Job_21/LSFJOB_440973094/STDOUT.gz'
p416
sg126
S'SUSYGluGluToHToTauTau_M-100_8TeV-pythia6-tauola/Summer12_DR53X-PU_S10_START53_V7A-v1/AODSIM/PAT_CMG_V5_16_0_1377467521/HTT_24Jul_newTES_manzoni_Up_Jobs/Job_22/LSFJOB_440973178/STDOUT.gz'
p417
sg127
S'SUSYGluGluToHToTauTau_M-100_8TeV-pythia6-tauola/Summer12_DR53X-PU_S10_START53_V7A-v1/AODSIM/PAT_CMG_V5_16_0_1377467521/HTT_24Jul_newTES_manzoni_Up_Jobs/Job_23/LSFJOB_440973255/STDOUT.gz'
p418
sg128
S'SUSYGluGluToHToTauTau_M-100_8TeV-pythia6-tauola/Summer12_DR53X-PU_S10_START53_V7A-v1/AODSIM/PAT_CMG_V5_16_0_1377467521/HTT_24Jul_newTES_manzoni_Up_Jobs/Job_9/LSFJOB_440971973/STDOUT.gz'
p419
sg129
S'SUSYGluGluToHToTauTau_M-100_8TeV-pythia6-tauola/Summer12_DR53X-PU_S10_START53_V7A-v1/AODSIM/PAT_CMG_V5_16_0_1377467521/HTT_24Jul_newTES_manzoni_Up_Jobs/Job_8/LSFJOB_440971882/STDOUT.gz'
p420
sg130
S'SUSYGluGluToHToTauTau_M-100_8TeV-pythia6-tauola/Summer12_DR53X-PU_S10_START53_V7A-v1/AODSIM/PAT_CMG_V5_16_0_1377467521/HTT_24Jul_newTES_manzoni_Up_Jobs/Job_1/LSFJOB_440971418/STDOUT.gz'
p421
sg131
S'SUSYGluGluToHToTauTau_M-100_8TeV-pythia6-tauola/Summer12_DR53X-PU_S10_START53_V7A-v1/AODSIM/PAT_CMG_V5_16_0_1377467521/HTT_24Jul_newTES_manzoni_Up_Jobs/Job_3/LSFJOB_440971551/STDOUT.gz'
p422
sg132
S'SUSYGluGluToHToTauTau_M-100_8TeV-pythia6-tauola/Summer12_DR53X-PU_S10_START53_V7A-v1/AODSIM/PAT_CMG_V5_16_0_1377467521/HTT_24Jul_newTES_manzoni_Up_Jobs/Job_2/LSFJOB_440971464/STDOUT.gz'
p423
sg133
S'SUSYGluGluToHToTauTau_M-100_8TeV-pythia6-tauola/Summer12_DR53X-PU_S10_START53_V7A-v1/AODSIM/PAT_CMG_V5_16_0_1377467521/HTT_24Jul_newTES_manzoni_Up_Jobs/Job_5/LSFJOB_440971698/STDOUT.gz'
p424
sg134
S'SUSYGluGluToHToTauTau_M-100_8TeV-pythia6-tauola/Summer12_DR53X-PU_S10_START53_V7A-v1/AODSIM/PAT_CMG_V5_16_0_1377467521/HTT_24Jul_newTES_manzoni_Up_Jobs/Job_4/LSFJOB_440971617/STDOUT.gz'
p425
sg135
S'SUSYGluGluToHToTauTau_M-100_8TeV-pythia6-tauola/Summer12_DR53X-PU_S10_START53_V7A-v1/AODSIM/PAT_CMG_V5_16_0_1377467521/HTT_24Jul_newTES_manzoni_Up_Jobs/Job_7/LSFJOB_440971828/STDOUT.gz'
p426
sg136
S'SUSYGluGluToHToTauTau_M-100_8TeV-pythia6-tauola/Summer12_DR53X-PU_S10_START53_V7A-v1/AODSIM/PAT_CMG_V5_16_0_1377467521/HTT_24Jul_newTES_manzoni_Up_Jobs/Job_6/LSFJOB_440971761/STDOUT.gz'
p427
sg137
S'SUSYGluGluToHToTauTau_M-100_8TeV-pythia6-tauola/Summer12_DR53X-PU_S10_START53_V7A-v1/AODSIM/PAT_CMG_V5_16_0_1377467521/HTT_24Jul_newTES_manzoni_Up_Jobs/Job_33/LSFJOB_440974034/STDOUT.gz'
p428
sg138
S'SUSYGluGluToHToTauTau_M-100_8TeV-pythia6-tauola/Summer12_DR53X-PU_S10_START53_V7A-v1/AODSIM/PAT_CMG_V5_16_0_1377467521/HTT_24Jul_newTES_manzoni_Up_Jobs/Job_32/LSFJOB_440973950/STDOUT.gz'
p429
sg139
S'SUSYGluGluToHToTauTau_M-100_8TeV-pythia6-tauola/Summer12_DR53X-PU_S10_START53_V7A-v1/AODSIM/PAT_CMG_V5_16_0_1377467521/HTT_24Jul_newTES_manzoni_Up_Jobs/Job_31/LSFJOB_440973852/STDOUT.gz'
p430
sg140
S'SUSYGluGluToHToTauTau_M-100_8TeV-pythia6-tauola/Summer12_DR53X-PU_S10_START53_V7A-v1/AODSIM/PAT_CMG_V5_16_0_1377467521/HTT_24Jul_newTES_manzoni_Up_Jobs/Job_30/LSFJOB_440973784/STDOUT.gz'
p431
sg141
S'SUSYGluGluToHToTauTau_M-100_8TeV-pythia6-tauola/Summer12_DR53X-PU_S10_START53_V7A-v1/AODSIM/PAT_CMG_V5_16_0_1377467521/HTT_24Jul_newTES_manzoni_Up_Jobs/Job_34/LSFJOB_440974111/STDOUT.gz'
p432
sg142
S'SUSYGluGluToHToTauTau_M-100_8TeV-pythia6-tauola/Summer12_DR53X-PU_S10_START53_V7A-v1/AODSIM/PAT_CMG_V5_16_0_1377467521/HTT_24Jul_newTES_manzoni_Up_Jobs/Job_11/LSFJOB_440972156/STDOUT.gz'
p433
sg143
S'SUSYGluGluToHToTauTau_M-100_8TeV-pythia6-tauola/Summer12_DR53X-PU_S10_START53_V7A-v1/AODSIM/PAT_CMG_V5_16_0_1377467521/HTT_24Jul_newTES_manzoni_Up_Jobs/Job_10/LSFJOB_440972059/STDOUT.gz'
p434
sg144
S'SUSYGluGluToHToTauTau_M-100_8TeV-pythia6-tauola/Summer12_DR53X-PU_S10_START53_V7A-v1/AODSIM/PAT_CMG_V5_16_0_1377467521/HTT_24Jul_newTES_manzoni_Up_Jobs/Job_13/LSFJOB_440972370/STDOUT.gz'
p435
sg145
S'SUSYGluGluToHToTauTau_M-100_8TeV-pythia6-tauola/Summer12_DR53X-PU_S10_START53_V7A-v1/AODSIM/PAT_CMG_V5_16_0_1377467521/HTT_24Jul_newTES_manzoni_Up_Jobs/Job_12/LSFJOB_440972244/STDOUT.gz'
p436
sg146
S'SUSYGluGluToHToTauTau_M-100_8TeV-pythia6-tauola/Summer12_DR53X-PU_S10_START53_V7A-v1/AODSIM/PAT_CMG_V5_16_0_1377467521/HTT_24Jul_newTES_manzoni_Up_Jobs/Job_15/LSFJOB_440972575/STDOUT.gz'
p437
sg147
S'SUSYGluGluToHToTauTau_M-100_8TeV-pythia6-tauola/Summer12_DR53X-PU_S10_START53_V7A-v1/AODSIM/PAT_CMG_V5_16_0_1377467521/HTT_24Jul_newTES_manzoni_Up_Jobs/Job_14/LSFJOB_440972480/STDOUT.gz'
p438
sg148
S'SUSYGluGluToHToTauTau_M-100_8TeV-pythia6-tauola/Summer12_DR53X-PU_S10_START53_V7A-v1/AODSIM/PAT_CMG_V5_16_0_1377467521/HTT_24Jul_newTES_manzoni_Up_Jobs/Job_17/LSFJOB_440972705/STDOUT.gz'
p439
sg149
S'SUSYGluGluToHToTauTau_M-100_8TeV-pythia6-tauola/Summer12_DR53X-PU_S10_START53_V7A-v1/AODSIM/PAT_CMG_V5_16_0_1377467521/HTT_24Jul_newTES_manzoni_Up_Jobs/Job_16/LSFJOB_440972652/STDOUT.gz'
p440
sg150
S'SUSYGluGluToHToTauTau_M-100_8TeV-pythia6-tauola/Summer12_DR53X-PU_S10_START53_V7A-v1/AODSIM/PAT_CMG_V5_16_0_1377467521/HTT_24Jul_newTES_manzoni_Up_Jobs/Job_19/LSFJOB_440972907/STDOUT.gz'
p441
sg151
S'SUSYGluGluToHToTauTau_M-100_8TeV-pythia6-tauola/Summer12_DR53X-PU_S10_START53_V7A-v1/AODSIM/PAT_CMG_V5_16_0_1377467521/HTT_24Jul_newTES_manzoni_Up_Jobs/Job_18/LSFJOB_440972818/STDOUT.gz'
p442
ssS'LSFJobIDs'
p443
(dp444
g118
S'440973621'
p445
sg119
S'440973703'
p446
sg120
S'440973320'
p447
sg121
S'440973394'
p448
sg122
S'440973453'
p449
sg123
S'440973535'
p450
sg124
S'440972992'
p451
sg125
S'440973094'
p452
sg126
S'440973178'
p453
sg127
S'440973255'
p454
sg128
S'440971973'
p455
sg129
S'440971882'
p456
sg130
S'440971418'
p457
sg131
S'440971551'
p458
sg132
S'440971464'
p459
sg133
S'440971698'
p460
sg134
S'440971617'
p461
sg135
S'440971828'
p462
sg136
S'440971761'
p463
sg137
S'440974034'
p464
sg138
S'440973950'
p465
sg139
S'440973852'
p466
sg140
S'440973784'
p467
sg141
S'440974111'
p468
sg142
S'440972156'
p469
sg143
S'440972059'
p470
sg144
S'440972370'
p471
sg145
S'440972244'
p472
sg146
S'440972575'
p473
sg147
S'440972480'
p474
sg148
S'440972705'
p475
sg149
S'440972652'
p476
sg150
S'440972907'
p477
sg151
S'440972818'
p478
sssS'FindOnCastor'
p479
(dp480
g77
S'/eos/cms/store/cmst3/group/cmgtools/CMG'
p481
sS'Directory'
p482
S'/eos/cms/store/cmst3/group/cmgtools/CMG/SUSYGluGluToHToTauTau_M-100_8TeV-pythia6-tauola/Summer12_DR53X-PU_S10_START53_V7A-v1/AODSIM/PAT_CMG_V5_16_0'
p483
ssS'CheckConfig'
p484
(dp485
g93
g94
ssS'FullCFG'
p486
(dp487
S'FullCFG'
p488
S'SUSYGluGluToHToTauTau_M-100_8TeV-pythia6-tauola/Summer12_DR53X-PU_S10_START53_V7A-v1/AODSIM/PAT_CMG_V5_16_0_1377467521/full_cfg.py'
p489
ssS'WriteJobReport'
p490
(dp491
S'SummaryFile'
p492
S'SUSYGluGluToHToTauTau_M-100_8TeV-pythia6-tauola/Summer12_DR53X-PU_S10_START53_V7A-v1/AODSIM/PAT_CMG_V5_16_0_1377467521/resubmit.sh'
p493
ssS'ExpandConfig'
p494
(dp495
S'ExpandedFullCFG'
p496
S'SUSYGluGluToHToTauTau_M-100_8TeV-pythia6-tauola/Summer12_DR53X-PU_S10_START53_V7A-v1/AODSIM/PAT_CMG_V5_16_0_1377467521/Expandedfull_cfg.py'
p497
ssS'RunTestEvents'
p498
(dp499
g93
g94
sS'TestCFG'
p500
S'SUSYGluGluToHToTauTau_M-100_8TeV-pythia6-tauola/Summer12_DR53X-PU_S10_START53_V7A-v1/AODSIM/PAT_CMG_V5_16_0_1377467521/test_cfg.py'
p501
ssS'SourceCFG'
p502
(dp503
S'SourceCFG'
p504
S'SUSYGluGluToHToTauTau_M-100_8TeV-pythia6-tauola/Summer12_DR53X-PU_S10_START53_V7A-v1/AODSIM/PAT_CMG_V5_16_0_1377467521/source_cfg.py'
p505
ssS'CheckForWrite'
p506
(dp507
g482
g483
sS'WriteAccess'
p508
I01
ssS'WriteToDatasets'
p509
(dp510
S'Added'
p511
I00
sg75
S'/SUSYGluGluToHToTauTau_M-100_8TeV-pythia6-tauola/Summer12_DR53X-PU_S10_START53_V7A-v1/AODSIM/PAT_CMG_V5_16_0/HTT_24Jul_newTES_manzoni_Up'
p512
sS'User'
p513
g108
ssS'RunCMSBatch'
p514
(dp515
S'BatchUser'
p516
g108
sS'SampleOutputDir'
p517
S'/store/cmst3/user/manzoni/CMG/SUSYGluGluToHToTauTau_M-100_8TeV-pythia6-tauola/Summer12_DR53X-PU_S10_START53_V7A-v1/AODSIM/PAT_CMG_V5_16_0/HTT_24Jul_newTES_manzoni_Up'
p518
sS'SampleDataset'
p519
g76
sS'LSFJobsTopDir'
p520
S'SUSYGluGluToHToTauTau_M-100_8TeV-pythia6-tauola/Summer12_DR53X-PU_S10_START53_V7A-v1/AODSIM/PAT_CMG_V5_16_0_1377467521/HTT_24Jul_newTES_manzoni_Up_Jobs'
p521
ssS'CreateJobDirectory'
p522
(dp523
S'JobDir'
p524
S'SUSYGluGluToHToTauTau_M-100_8TeV-pythia6-tauola/Summer12_DR53X-PU_S10_START53_V7A-v1/AODSIM/PAT_CMG_V5_16_0_1377467521'
p525
sS'PWD'
p526
S'/afs/cern.ch/user/m/manzoni/summer13/CMGTools/CMSSW_5_3_9/src/CMGTools/H2TauTau/prod/25aug_corrMC/up/mc'
p527
ssS'CleanJobFiles'
p528
(dp529
S'Compressed'
p530
(dp531
S'CompressedFiles'
p532
(lp533
ssS'Cleaned'
p534
(dp535
S'CleanedFiles'
p536
(lp537
g497
ag501
aS'SUSYGluGluToHToTauTau_M-100_8TeV-pythia6-tauola/Summer12_DR53X-PU_S10_START53_V7A-v1/AODSIM/PAT_CMG_V5_16_0_1377467521/diTau_fullsel_tree_CMG.root'
p538
aS'SUSYGluGluToHToTauTau_M-100_8TeV-pythia6-tauola/Summer12_DR53X-PU_S10_START53_V7A-v1/AODSIM/PAT_CMG_V5_16_0_1377467521/source_cfg.pyc'
p539
aS'SUSYGluGluToHToTauTau_M-100_8TeV-pythia6-tauola/Summer12_DR53X-PU_S10_START53_V7A-v1/AODSIM/PAT_CMG_V5_16_0_1377467521/Expandedfull_cfg.pyc'
p540
asssS'CheckForMask'
p541
(dp542
g3
g158
sg115
I01
ss.