(dp0
S'CheckJobStatus'
p1
(dp2
S'Report'
p3
(dp4
S'Files'
p5
(dp6
S'/store/cmst3/user/manzoni/CMG/GluGluToHToTauTau_M-115_8TeV-powheg-pythia6/Summer12_DR53X-PU_S10_START53_V7A-v1/AODSIM/PAT_CMG_V5_16_0/HTT_24Jul_newTES_manzoni_Up/diTau_fullsel_tree_CMG_9.root'
p7
(I01
I556
tp8
sS'/store/cmst3/user/manzoni/CMG/GluGluToHToTauTau_M-115_8TeV-powheg-pythia6/Summer12_DR53X-PU_S10_START53_V7A-v1/AODSIM/PAT_CMG_V5_16_0/HTT_24Jul_newTES_manzoni_Up/diTau_fullsel_tree_CMG_3.root'
p9
(I01
I528
tp10
sS'/store/cmst3/user/manzoni/CMG/GluGluToHToTauTau_M-115_8TeV-powheg-pythia6/Summer12_DR53X-PU_S10_START53_V7A-v1/AODSIM/PAT_CMG_V5_16_0/HTT_24Jul_newTES_manzoni_Up/diTau_fullsel_tree_CMG_5.root'
p11
(I01
I527
tp12
sS'/store/cmst3/user/manzoni/CMG/GluGluToHToTauTau_M-115_8TeV-powheg-pythia6/Summer12_DR53X-PU_S10_START53_V7A-v1/AODSIM/PAT_CMG_V5_16_0/HTT_24Jul_newTES_manzoni_Up/diTau_fullsel_tree_CMG_18.root'
p13
(I01
I523
tp14
sS'/store/cmst3/user/manzoni/CMG/GluGluToHToTauTau_M-115_8TeV-powheg-pythia6/Summer12_DR53X-PU_S10_START53_V7A-v1/AODSIM/PAT_CMG_V5_16_0/HTT_24Jul_newTES_manzoni_Up/diTau_fullsel_tree_CMG_15.root'
p15
(I01
I499
tp16
sS'/store/cmst3/user/manzoni/CMG/GluGluToHToTauTau_M-115_8TeV-powheg-pythia6/Summer12_DR53X-PU_S10_START53_V7A-v1/AODSIM/PAT_CMG_V5_16_0/HTT_24Jul_newTES_manzoni_Up/diTau_fullsel_tree_CMG_6.root'
p17
(I01
I533
tp18
sS'/store/cmst3/user/manzoni/CMG/GluGluToHToTauTau_M-115_8TeV-powheg-pythia6/Summer12_DR53X-PU_S10_START53_V7A-v1/AODSIM/PAT_CMG_V5_16_0/HTT_24Jul_newTES_manzoni_Up/diTau_fullsel_tree_CMG_1.root'
p19
(I01
I551
tp20
sS'/store/cmst3/user/manzoni/CMG/GluGluToHToTauTau_M-115_8TeV-powheg-pythia6/Summer12_DR53X-PU_S10_START53_V7A-v1/AODSIM/PAT_CMG_V5_16_0/HTT_24Jul_newTES_manzoni_Up/diTau_fullsel_tree_CMG_14.root'
p21
(I01
I527
tp22
sS'/store/cmst3/user/manzoni/CMG/GluGluToHToTauTau_M-115_8TeV-powheg-pythia6/Summer12_DR53X-PU_S10_START53_V7A-v1/AODSIM/PAT_CMG_V5_16_0/HTT_24Jul_newTES_manzoni_Up/diTau_fullsel_tree_CMG_10.root'
p23
(I01
I510
tp24
sS'/store/cmst3/user/manzoni/CMG/GluGluToHToTauTau_M-115_8TeV-powheg-pythia6/Summer12_DR53X-PU_S10_START53_V7A-v1/AODSIM/PAT_CMG_V5_16_0/HTT_24Jul_newTES_manzoni_Up/diTau_fullsel_tree_CMG_17.root'
p25
(I01
I528
tp26
sS'/store/cmst3/user/manzoni/CMG/GluGluToHToTauTau_M-115_8TeV-powheg-pythia6/Summer12_DR53X-PU_S10_START53_V7A-v1/AODSIM/PAT_CMG_V5_16_0/HTT_24Jul_newTES_manzoni_Up/diTau_fullsel_tree_CMG_8.root'
p27
(I01
I546
tp28
sS'/store/cmst3/user/manzoni/CMG/GluGluToHToTauTau_M-115_8TeV-powheg-pythia6/Summer12_DR53X-PU_S10_START53_V7A-v1/AODSIM/PAT_CMG_V5_16_0/HTT_24Jul_newTES_manzoni_Up/diTau_fullsel_tree_CMG_12.root'
p29
(I01
I563
tp30
sS'/store/cmst3/user/manzoni/CMG/GluGluToHToTauTau_M-115_8TeV-powheg-pythia6/Summer12_DR53X-PU_S10_START53_V7A-v1/AODSIM/PAT_CMG_V5_16_0/HTT_24Jul_newTES_manzoni_Up/diTau_fullsel_tree_CMG_19.root'
p31
(I01
I249
tp32
sS'/store/cmst3/user/manzoni/CMG/GluGluToHToTauTau_M-115_8TeV-powheg-pythia6/Summer12_DR53X-PU_S10_START53_V7A-v1/AODSIM/PAT_CMG_V5_16_0/HTT_24Jul_newTES_manzoni_Up/diTau_fullsel_tree_CMG_4.root'
p33
(I01
I532
tp34
sS'/store/cmst3/user/manzoni/CMG/GluGluToHToTauTau_M-115_8TeV-powheg-pythia6/Summer12_DR53X-PU_S10_START53_V7A-v1/AODSIM/PAT_CMG_V5_16_0/HTT_24Jul_newTES_manzoni_Up/diTau_fullsel_tree_CMG_16.root'
p35
(I01
I527
tp36
sS'/store/cmst3/user/manzoni/CMG/GluGluToHToTauTau_M-115_8TeV-powheg-pythia6/Summer12_DR53X-PU_S10_START53_V7A-v1/AODSIM/PAT_CMG_V5_16_0/HTT_24Jul_newTES_manzoni_Up/diTau_fullsel_tree_CMG_13.root'
p37
(I01
I534
tp38
sS'/store/cmst3/user/manzoni/CMG/GluGluToHToTauTau_M-115_8TeV-powheg-pythia6/Summer12_DR53X-PU_S10_START53_V7A-v1/AODSIM/PAT_CMG_V5_16_0/HTT_24Jul_newTES_manzoni_Up/diTau_fullsel_tree_CMG_2.root'
p39
(I01
I526
tp40
sS'/store/cmst3/user/manzoni/CMG/GluGluToHToTauTau_M-115_8TeV-powheg-pythia6/Summer12_DR53X-PU_S10_START53_V7A-v1/AODSIM/PAT_CMG_V5_16_0/HTT_24Jul_newTES_manzoni_Up/diTau_fullsel_tree_CMG_11.root'
p41
(I01
I515
tp42
sS'/store/cmst3/user/manzoni/CMG/GluGluToHToTauTau_M-115_8TeV-powheg-pythia6/Summer12_DR53X-PU_S10_START53_V7A-v1/AODSIM/PAT_CMG_V5_16_0/HTT_24Jul_newTES_manzoni_Up/diTau_fullsel_tree_CMG_7.root'
p43
(I01
I515
tp44
ssS'Name'
p45
S'/GluGluToHToTauTau_M-115_8TeV-powheg-pythia6/Summer12_DR53X-PU_S10_START53_V7A-v1/AODSIM/PAT_CMG_V5_16_0/HTT_24Jul_newTES_manzoni_Up'
p46
sS'Topdir'
p47
S'/eos/cms/store/cmst3/user/manzoni/CMG'
p48
sS'RunList'
p49
(lp50
sS'PathList'
p51
(lp52
S'/store/cmst3/user/manzoni/CMG/GluGluToHToTauTau_M-115_8TeV-powheg-pythia6/Summer12_DR53X-PU_S10_START53_V7A-v1/AODSIM/PAT_CMG_V5_16_0/HTT_24Jul_newTES_manzoni_Up'
p53
asS'AlgoList'
p54
(lp55
sS'PrimaryDatasetFraction'
p56
F0.010665431863372647
sS'FilesGood'
p57
I19
sS'PrimaryDatasetEntries'
p58
I917825
sS'data'
p59
(dp60
sS'FilesBad'
p61
I0
sS'ReportVersion'
p62
I3
sS'Status'
p63
S'VALID'
p64
sS'MaxRun'
p65
I-1
sS'PhysicsGroup'
p66
S'CMG'
p67
sS'MinRun'
p68
I-1
sS'StageHost'
p69
S'castorcms'
p70
sS'FilesCount'
p71
I19
sS'FilesEntries'
p72
I9789
sS'TierList'
p73
(lp74
sS'DateCreated'
p75
S'1377471820'
p76
sS'CreatedBy'
p77
S'manzoni'
p78
sS'ValidDuplicates'
p79
(dp80
sS'PrimaryDataset'
p81
S'/GluGluToHToTauTau_M-115_8TeV-powheg-pythia6/Summer12_DR53X-PU_S10_START53_V7A-v1/AODSIM'
p82
sS'BadJobs'
p83
(lp84
ssS'MaskPresent'
p85
I01
sS'LSFJobStatusCheck'
p86
(dp87
S'GluGluToHToTauTau_M-115_8TeV-powheg-pythia6/Summer12_DR53X-PU_S10_START53_V7A-v1/AODSIM/PAT_CMG_V5_16_0_1377467462/HTT_24Jul_newTES_manzoni_Up_Jobs/Job_14'
p88
g64
sS'GluGluToHToTauTau_M-115_8TeV-powheg-pythia6/Summer12_DR53X-PU_S10_START53_V7A-v1/AODSIM/PAT_CMG_V5_16_0_1377467462/HTT_24Jul_newTES_manzoni_Up_Jobs/Job_19'
p89
g64
sS'GluGluToHToTauTau_M-115_8TeV-powheg-pythia6/Summer12_DR53X-PU_S10_START53_V7A-v1/AODSIM/PAT_CMG_V5_16_0_1377467462/HTT_24Jul_newTES_manzoni_Up_Jobs/Job_5'
p90
g64
sS'GluGluToHToTauTau_M-115_8TeV-powheg-pythia6/Summer12_DR53X-PU_S10_START53_V7A-v1/AODSIM/PAT_CMG_V5_16_0_1377467462/HTT_24Jul_newTES_manzoni_Up_Jobs/Job_13'
p91
g64
sS'GluGluToHToTauTau_M-115_8TeV-powheg-pythia6/Summer12_DR53X-PU_S10_START53_V7A-v1/AODSIM/PAT_CMG_V5_16_0_1377467462/HTT_24Jul_newTES_manzoni_Up_Jobs/Job_18'
p92
g64
sS'GluGluToHToTauTau_M-115_8TeV-powheg-pythia6/Summer12_DR53X-PU_S10_START53_V7A-v1/AODSIM/PAT_CMG_V5_16_0_1377467462/HTT_24Jul_newTES_manzoni_Up_Jobs/Job_12'
p93
g64
sS'GluGluToHToTauTau_M-115_8TeV-powheg-pythia6/Summer12_DR53X-PU_S10_START53_V7A-v1/AODSIM/PAT_CMG_V5_16_0_1377467462/HTT_24Jul_newTES_manzoni_Up_Jobs/Job_16'
p94
g64
sS'GluGluToHToTauTau_M-115_8TeV-powheg-pythia6/Summer12_DR53X-PU_S10_START53_V7A-v1/AODSIM/PAT_CMG_V5_16_0_1377467462/HTT_24Jul_newTES_manzoni_Up_Jobs/Job_17'
p95
g64
sS'GluGluToHToTauTau_M-115_8TeV-powheg-pythia6/Summer12_DR53X-PU_S10_START53_V7A-v1/AODSIM/PAT_CMG_V5_16_0_1377467462/HTT_24Jul_newTES_manzoni_Up_Jobs/Job_11'
p96
g64
sS'GluGluToHToTauTau_M-115_8TeV-powheg-pythia6/Summer12_DR53X-PU_S10_START53_V7A-v1/AODSIM/PAT_CMG_V5_16_0_1377467462/HTT_24Jul_newTES_manzoni_Up_Jobs/Job_9'
p97
g64
sS'GluGluToHToTauTau_M-115_8TeV-powheg-pythia6/Summer12_DR53X-PU_S10_START53_V7A-v1/AODSIM/PAT_CMG_V5_16_0_1377467462/HTT_24Jul_newTES_manzoni_Up_Jobs/Job_8'
p98
g64
sS'GluGluToHToTauTau_M-115_8TeV-powheg-pythia6/Summer12_DR53X-PU_S10_START53_V7A-v1/AODSIM/PAT_CMG_V5_16_0_1377467462/HTT_24Jul_newTES_manzoni_Up_Jobs/Job_7'
p99
g64
sS'GluGluToHToTauTau_M-115_8TeV-powheg-pythia6/Summer12_DR53X-PU_S10_START53_V7A-v1/AODSIM/PAT_CMG_V5_16_0_1377467462/HTT_24Jul_newTES_manzoni_Up_Jobs/Job_6'
p100
g64
sS'GluGluToHToTauTau_M-115_8TeV-powheg-pythia6/Summer12_DR53X-PU_S10_START53_V7A-v1/AODSIM/PAT_CMG_V5_16_0_1377467462/HTT_24Jul_newTES_manzoni_Up_Jobs/Job_15'
p101
g64
sS'GluGluToHToTauTau_M-115_8TeV-powheg-pythia6/Summer12_DR53X-PU_S10_START53_V7A-v1/AODSIM/PAT_CMG_V5_16_0_1377467462/HTT_24Jul_newTES_manzoni_Up_Jobs/Job_4'
p102
g64
sS'GluGluToHToTauTau_M-115_8TeV-powheg-pythia6/Summer12_DR53X-PU_S10_START53_V7A-v1/AODSIM/PAT_CMG_V5_16_0_1377467462/HTT_24Jul_newTES_manzoni_Up_Jobs/Job_3'
p103
g64
sS'GluGluToHToTauTau_M-115_8TeV-powheg-pythia6/Summer12_DR53X-PU_S10_START53_V7A-v1/AODSIM/PAT_CMG_V5_16_0_1377467462/HTT_24Jul_newTES_manzoni_Up_Jobs/Job_2'
p104
g64
sS'GluGluToHToTauTau_M-115_8TeV-powheg-pythia6/Summer12_DR53X-PU_S10_START53_V7A-v1/AODSIM/PAT_CMG_V5_16_0_1377467462/HTT_24Jul_newTES_manzoni_Up_Jobs/Job_1'
p105
g64
sS'GluGluToHToTauTau_M-115_8TeV-powheg-pythia6/Summer12_DR53X-PU_S10_START53_V7A-v1/AODSIM/PAT_CMG_V5_16_0_1377467462/HTT_24Jul_newTES_manzoni_Up_Jobs/Job_10'
p106
g64
sssS'CheckDatasetExists'
p107
(dp108
S'Dataset'
p109
S'/GluGluToHToTauTau_M-115_8TeV-powheg-pythia6/Summer12_DR53X-PU_S10_START53_V7A-v1/AODSIM/PAT_CMG_V5_16_0'
p110
ssS'GenerateMask'
p111
(dp112
g3
(dp113
VPathList
p114
(lp115
V/store/cmst3/group/cmgtools/CMG/GluGluToHToTauTau_M-115_8TeV-powheg-pythia6/Summer12_DR53X-PU_S10_START53_V7A-v1/AODSIM/PAT_CMG_V5_16_0
p116
asVStageHost
p117
Vcastorcms
p118
sVPrimaryDatasetFraction
p119
F1.0
sVFilesGood
p120
I94
sVPrimaryDatasetEntries
p121
I917825
sVReportVersion
p122
I3
sVFiles
p123
(dp124
V/store/cmst3/group/cmgtools/CMG/GluGluToHToTauTau_M-115_8TeV-powheg-pythia6/Summer12_DR53X-PU_S10_START53_V7A-v1/AODSIM/PAT_CMG_V5_16_0/cmgTuple_15_1_gCi.root
p125
(lp126
I01
aI10000
asV/store/cmst3/group/cmgtools/CMG/GluGluToHToTauTau_M-115_8TeV-powheg-pythia6/Summer12_DR53X-PU_S10_START53_V7A-v1/AODSIM/PAT_CMG_V5_16_0/cmgTuple_87_1_qRh.root
p127
(lp128
I01
aI10000
asV/store/cmst3/group/cmgtools/CMG/GluGluToHToTauTau_M-115_8TeV-powheg-pythia6/Summer12_DR53X-PU_S10_START53_V7A-v1/AODSIM/PAT_CMG_V5_16_0/cmgTuple_71_1_7e0.root
p129
(lp130
I01
aI10000
asV/store/cmst3/group/cmgtools/CMG/GluGluToHToTauTau_M-115_8TeV-powheg-pythia6/Summer12_DR53X-PU_S10_START53_V7A-v1/AODSIM/PAT_CMG_V5_16_0/cmgTuple_85_1_Baj.root
p131
(lp132
I01
aI10000
asV/store/cmst3/group/cmgtools/CMG/GluGluToHToTauTau_M-115_8TeV-powheg-pythia6/Summer12_DR53X-PU_S10_START53_V7A-v1/AODSIM/PAT_CMG_V5_16_0/cmgTuple_8_1_6CP.root
p133
(lp134
I01
aI2595
asV/store/cmst3/group/cmgtools/CMG/GluGluToHToTauTau_M-115_8TeV-powheg-pythia6/Summer12_DR53X-PU_S10_START53_V7A-v1/AODSIM/PAT_CMG_V5_16_0/cmgTuple_61_1_a1w.root
p135
(lp136
I01
aI10000
asV/store/cmst3/group/cmgtools/CMG/GluGluToHToTauTau_M-115_8TeV-powheg-pythia6/Summer12_DR53X-PU_S10_START53_V7A-v1/AODSIM/PAT_CMG_V5_16_0/cmgTuple_55_1_dJe.root
p137
(lp138
I01
aI10000
asV/store/cmst3/group/cmgtools/CMG/GluGluToHToTauTau_M-115_8TeV-powheg-pythia6/Summer12_DR53X-PU_S10_START53_V7A-v1/AODSIM/PAT_CMG_V5_16_0/cmgTuple_28_1_DG8.root
p139
(lp140
I01
aI10000
asV/store/cmst3/group/cmgtools/CMG/GluGluToHToTauTau_M-115_8TeV-powheg-pythia6/Summer12_DR53X-PU_S10_START53_V7A-v1/AODSIM/PAT_CMG_V5_16_0/cmgTuple_37_1_e1N.root
p141
(lp142
I01
aI10000
asV/store/cmst3/group/cmgtools/CMG/GluGluToHToTauTau_M-115_8TeV-powheg-pythia6/Summer12_DR53X-PU_S10_START53_V7A-v1/AODSIM/PAT_CMG_V5_16_0/cmgTuple_86_1_XY1.root
p143
(lp144
I01
aI10000
asV/store/cmst3/group/cmgtools/CMG/GluGluToHToTauTau_M-115_8TeV-powheg-pythia6/Summer12_DR53X-PU_S10_START53_V7A-v1/AODSIM/PAT_CMG_V5_16_0/cmgTuple_24_1_AmX.root
p145
(lp146
I01
aI10000
asV/store/cmst3/group/cmgtools/CMG/GluGluToHToTauTau_M-115_8TeV-powheg-pythia6/Summer12_DR53X-PU_S10_START53_V7A-v1/AODSIM/PAT_CMG_V5_16_0/cmgTuple_80_1_kje.root
p147
(lp148
I01
aI10000
asV/store/cmst3/group/cmgtools/CMG/GluGluToHToTauTau_M-115_8TeV-powheg-pythia6/Summer12_DR53X-PU_S10_START53_V7A-v1/AODSIM/PAT_CMG_V5_16_0/cmgTuple_4_1_Ruq.root
p149
(lp150
I01
aI10000
asV/store/cmst3/group/cmgtools/CMG/GluGluToHToTauTau_M-115_8TeV-powheg-pythia6/Summer12_DR53X-PU_S10_START53_V7A-v1/AODSIM/PAT_CMG_V5_16_0/cmgTuple_53_1_bCu.root
p151
(lp152
I01
aI10000
asV/store/cmst3/group/cmgtools/CMG/GluGluToHToTauTau_M-115_8TeV-powheg-pythia6/Summer12_DR53X-PU_S10_START53_V7A-v1/AODSIM/PAT_CMG_V5_16_0/cmgTuple_78_1_QyI.root
p153
(lp154
I01
aI10000
asV/store/cmst3/group/cmgtools/CMG/GluGluToHToTauTau_M-115_8TeV-powheg-pythia6/Summer12_DR53X-PU_S10_START53_V7A-v1/AODSIM/PAT_CMG_V5_16_0/cmgTuple_7_1_M5N.root
p155
(lp156
I01
aI10000
asV/store/cmst3/group/cmgtools/CMG/GluGluToHToTauTau_M-115_8TeV-powheg-pythia6/Summer12_DR53X-PU_S10_START53_V7A-v1/AODSIM/PAT_CMG_V5_16_0/cmgTuple_35_1_t7P.root
p157
(lp158
I01
aI10000
asV/store/cmst3/group/cmgtools/CMG/GluGluToHToTauTau_M-115_8TeV-powheg-pythia6/Summer12_DR53X-PU_S10_START53_V7A-v1/AODSIM/PAT_CMG_V5_16_0/cmgTuple_91_1_eWK.root
p159
(lp160
I01
aI10000
asV/store/cmst3/group/cmgtools/CMG/GluGluToHToTauTau_M-115_8TeV-powheg-pythia6/Summer12_DR53X-PU_S10_START53_V7A-v1/AODSIM/PAT_CMG_V5_16_0/cmgTuple_51_1_KX0.root
p161
(lp162
I01
aI10000
asV/store/cmst3/group/cmgtools/CMG/GluGluToHToTauTau_M-115_8TeV-powheg-pythia6/Summer12_DR53X-PU_S10_START53_V7A-v1/AODSIM/PAT_CMG_V5_16_0/cmgTuple_93_1_Eae.root
p163
(lp164
I01
aI1630
asV/store/cmst3/group/cmgtools/CMG/GluGluToHToTauTau_M-115_8TeV-powheg-pythia6/Summer12_DR53X-PU_S10_START53_V7A-v1/AODSIM/PAT_CMG_V5_16_0/cmgTuple_26_1_kRj.root
p165
(lp166
I01
aI10000
asV/store/cmst3/group/cmgtools/CMG/GluGluToHToTauTau_M-115_8TeV-powheg-pythia6/Summer12_DR53X-PU_S10_START53_V7A-v1/AODSIM/PAT_CMG_V5_16_0/cmgTuple_16_1_IKe.root
p167
(lp168
I01
aI10000
asV/store/cmst3/group/cmgtools/CMG/GluGluToHToTauTau_M-115_8TeV-powheg-pythia6/Summer12_DR53X-PU_S10_START53_V7A-v1/AODSIM/PAT_CMG_V5_16_0/cmgTuple_36_1_d88.root
p169
(lp170
I01
aI10000
asV/store/cmst3/group/cmgtools/CMG/GluGluToHToTauTau_M-115_8TeV-powheg-pythia6/Summer12_DR53X-PU_S10_START53_V7A-v1/AODSIM/PAT_CMG_V5_16_0/cmgTuple_46_1_l4E.root
p171
(lp172
I01
aI10000
asV/store/cmst3/group/cmgtools/CMG/GluGluToHToTauTau_M-115_8TeV-powheg-pythia6/Summer12_DR53X-PU_S10_START53_V7A-v1/AODSIM/PAT_CMG_V5_16_0/cmgTuple_65_1_JOP.root
p173
(lp174
I01
aI10000
asV/store/cmst3/group/cmgtools/CMG/GluGluToHToTauTau_M-115_8TeV-powheg-pythia6/Summer12_DR53X-PU_S10_START53_V7A-v1/AODSIM/PAT_CMG_V5_16_0/cmgTuple_14_1_Xyb.root
p175
(lp176
I01
aI10000
asV/store/cmst3/group/cmgtools/CMG/GluGluToHToTauTau_M-115_8TeV-powheg-pythia6/Summer12_DR53X-PU_S10_START53_V7A-v1/AODSIM/PAT_CMG_V5_16_0/cmgTuple_57_1_KeS.root
p177
(lp178
I01
aI10000
asV/store/cmst3/group/cmgtools/CMG/GluGluToHToTauTau_M-115_8TeV-powheg-pythia6/Summer12_DR53X-PU_S10_START53_V7A-v1/AODSIM/PAT_CMG_V5_16_0/cmgTuple_69_1_PAa.root
p179
(lp180
I01
aI10000
asV/store/cmst3/group/cmgtools/CMG/GluGluToHToTauTau_M-115_8TeV-powheg-pythia6/Summer12_DR53X-PU_S10_START53_V7A-v1/AODSIM/PAT_CMG_V5_16_0/cmgTuple_49_1_CVC.root
p181
(lp182
I01
aI10000
asV/store/cmst3/group/cmgtools/CMG/GluGluToHToTauTau_M-115_8TeV-powheg-pythia6/Summer12_DR53X-PU_S10_START53_V7A-v1/AODSIM/PAT_CMG_V5_16_0/cmgTuple_2_1_luC.root
p183
(lp184
I01
aI10000
asV/store/cmst3/group/cmgtools/CMG/GluGluToHToTauTau_M-115_8TeV-powheg-pythia6/Summer12_DR53X-PU_S10_START53_V7A-v1/AODSIM/PAT_CMG_V5_16_0/cmgTuple_10_1_kCH.root
p185
(lp186
I01
aI10000
asV/store/cmst3/group/cmgtools/CMG/GluGluToHToTauTau_M-115_8TeV-powheg-pythia6/Summer12_DR53X-PU_S10_START53_V7A-v1/AODSIM/PAT_CMG_V5_16_0/cmgTuple_25_1_I1v.root
p187
(lp188
I01
aI10000
asV/store/cmst3/group/cmgtools/CMG/GluGluToHToTauTau_M-115_8TeV-powheg-pythia6/Summer12_DR53X-PU_S10_START53_V7A-v1/AODSIM/PAT_CMG_V5_16_0/cmgTuple_77_1_7mL.root
p189
(lp190
I01
aI10000
asV/store/cmst3/group/cmgtools/CMG/GluGluToHToTauTau_M-115_8TeV-powheg-pythia6/Summer12_DR53X-PU_S10_START53_V7A-v1/AODSIM/PAT_CMG_V5_16_0/cmgTuple_13_1_8M8.root
p191
(lp192
I01
aI10000
asV/store/cmst3/group/cmgtools/CMG/GluGluToHToTauTau_M-115_8TeV-powheg-pythia6/Summer12_DR53X-PU_S10_START53_V7A-v1/AODSIM/PAT_CMG_V5_16_0/cmgTuple_44_1_UbI.root
p193
(lp194
I01
aI10000
asV/store/cmst3/group/cmgtools/CMG/GluGluToHToTauTau_M-115_8TeV-powheg-pythia6/Summer12_DR53X-PU_S10_START53_V7A-v1/AODSIM/PAT_CMG_V5_16_0/cmgTuple_12_1_2Cp.root
p195
(lp196
I01
aI10000
asV/store/cmst3/group/cmgtools/CMG/GluGluToHToTauTau_M-115_8TeV-powheg-pythia6/Summer12_DR53X-PU_S10_START53_V7A-v1/AODSIM/PAT_CMG_V5_16_0/cmgTuple_79_1_pDW.root
p197
(lp198
I01
aI10000
asV/store/cmst3/group/cmgtools/CMG/GluGluToHToTauTau_M-115_8TeV-powheg-pythia6/Summer12_DR53X-PU_S10_START53_V7A-v1/AODSIM/PAT_CMG_V5_16_0/cmgTuple_75_1_ojp.root
p199
(lp200
I01
aI10000
asV/store/cmst3/group/cmgtools/CMG/GluGluToHToTauTau_M-115_8TeV-powheg-pythia6/Summer12_DR53X-PU_S10_START53_V7A-v1/AODSIM/PAT_CMG_V5_16_0/cmgTuple_18_1_Df6.root
p201
(lp202
I01
aI10000
asV/store/cmst3/group/cmgtools/CMG/GluGluToHToTauTau_M-115_8TeV-powheg-pythia6/Summer12_DR53X-PU_S10_START53_V7A-v1/AODSIM/PAT_CMG_V5_16_0/cmgTuple_40_1_vh7.root
p203
(lp204
I01
aI10000
asV/store/cmst3/group/cmgtools/CMG/GluGluToHToTauTau_M-115_8TeV-powheg-pythia6/Summer12_DR53X-PU_S10_START53_V7A-v1/AODSIM/PAT_CMG_V5_16_0/cmgTuple_38_1_zY6.root
p205
(lp206
I01
aI10000
asV/store/cmst3/group/cmgtools/CMG/GluGluToHToTauTau_M-115_8TeV-powheg-pythia6/Summer12_DR53X-PU_S10_START53_V7A-v1/AODSIM/PAT_CMG_V5_16_0/cmgTuple_30_1_R4l.root
p207
(lp208
I01
aI10000
asV/store/cmst3/group/cmgtools/CMG/GluGluToHToTauTau_M-115_8TeV-powheg-pythia6/Summer12_DR53X-PU_S10_START53_V7A-v1/AODSIM/PAT_CMG_V5_16_0/cmgTuple_20_1_C8A.root
p209
(lp210
I01
aI10000
asV/store/cmst3/group/cmgtools/CMG/GluGluToHToTauTau_M-115_8TeV-powheg-pythia6/Summer12_DR53X-PU_S10_START53_V7A-v1/AODSIM/PAT_CMG_V5_16_0/cmgTuple_42_2_8SG.root
p211
(lp212
I01
aI10000
asV/store/cmst3/group/cmgtools/CMG/GluGluToHToTauTau_M-115_8TeV-powheg-pythia6/Summer12_DR53X-PU_S10_START53_V7A-v1/AODSIM/PAT_CMG_V5_16_0/cmgTuple_32_1_6Iz.root
p213
(lp214
I01
aI10000
asV/store/cmst3/group/cmgtools/CMG/GluGluToHToTauTau_M-115_8TeV-powheg-pythia6/Summer12_DR53X-PU_S10_START53_V7A-v1/AODSIM/PAT_CMG_V5_16_0/cmgTuple_45_1_LN2.root
p215
(lp216
I01
aI10000
asV/store/cmst3/group/cmgtools/CMG/GluGluToHToTauTau_M-115_8TeV-powheg-pythia6/Summer12_DR53X-PU_S10_START53_V7A-v1/AODSIM/PAT_CMG_V5_16_0/cmgTuple_59_1_CxU.root
p217
(lp218
I01
aI10000
asV/store/cmst3/group/cmgtools/CMG/GluGluToHToTauTau_M-115_8TeV-powheg-pythia6/Summer12_DR53X-PU_S10_START53_V7A-v1/AODSIM/PAT_CMG_V5_16_0/cmgTuple_64_1_5Gl.root
p219
(lp220
I01
aI10000
asV/store/cmst3/group/cmgtools/CMG/GluGluToHToTauTau_M-115_8TeV-powheg-pythia6/Summer12_DR53X-PU_S10_START53_V7A-v1/AODSIM/PAT_CMG_V5_16_0/cmgTuple_9_1_ERh.root
p221
(lp222
I01
aI10000
asV/store/cmst3/group/cmgtools/CMG/GluGluToHToTauTau_M-115_8TeV-powheg-pythia6/Summer12_DR53X-PU_S10_START53_V7A-v1/AODSIM/PAT_CMG_V5_16_0/cmgTuple_52_1_GNk.root
p223
(lp224
I01
aI10000
asV/store/cmst3/group/cmgtools/CMG/GluGluToHToTauTau_M-115_8TeV-powheg-pythia6/Summer12_DR53X-PU_S10_START53_V7A-v1/AODSIM/PAT_CMG_V5_16_0/cmgTuple_84_1_MZE.root
p225
(lp226
I01
aI10000
asV/store/cmst3/group/cmgtools/CMG/GluGluToHToTauTau_M-115_8TeV-powheg-pythia6/Summer12_DR53X-PU_S10_START53_V7A-v1/AODSIM/PAT_CMG_V5_16_0/cmgTuple_6_1_gpv.root
p227
(lp228
I01
aI10000
asV/store/cmst3/group/cmgtools/CMG/GluGluToHToTauTau_M-115_8TeV-powheg-pythia6/Summer12_DR53X-PU_S10_START53_V7A-v1/AODSIM/PAT_CMG_V5_16_0/cmgTuple_62_1_NXh.root
p229
(lp230
I01
aI10000
asV/store/cmst3/group/cmgtools/CMG/GluGluToHToTauTau_M-115_8TeV-powheg-pythia6/Summer12_DR53X-PU_S10_START53_V7A-v1/AODSIM/PAT_CMG_V5_16_0/cmgTuple_83_1_KTw.root
p231
(lp232
I01
aI10000
asV/store/cmst3/group/cmgtools/CMG/GluGluToHToTauTau_M-115_8TeV-powheg-pythia6/Summer12_DR53X-PU_S10_START53_V7A-v1/AODSIM/PAT_CMG_V5_16_0/cmgTuple_72_1_scS.root
p233
(lp234
I01
aI10000
asV/store/cmst3/group/cmgtools/CMG/GluGluToHToTauTau_M-115_8TeV-powheg-pythia6/Summer12_DR53X-PU_S10_START53_V7A-v1/AODSIM/PAT_CMG_V5_16_0/cmgTuple_5_1_aVr.root
p235
(lp236
I01
aI10000
asV/store/cmst3/group/cmgtools/CMG/GluGluToHToTauTau_M-115_8TeV-powheg-pythia6/Summer12_DR53X-PU_S10_START53_V7A-v1/AODSIM/PAT_CMG_V5_16_0/cmgTuple_58_1_j2E.root
p237
(lp238
I01
aI10000
asV/store/cmst3/group/cmgtools/CMG/GluGluToHToTauTau_M-115_8TeV-powheg-pythia6/Summer12_DR53X-PU_S10_START53_V7A-v1/AODSIM/PAT_CMG_V5_16_0/cmgTuple_68_1_hid.root
p239
(lp240
I01
aI10000
asV/store/cmst3/group/cmgtools/CMG/GluGluToHToTauTau_M-115_8TeV-powheg-pythia6/Summer12_DR53X-PU_S10_START53_V7A-v1/AODSIM/PAT_CMG_V5_16_0/cmgTuple_23_1_VJG.root
p241
(lp242
I01
aI10000
asV/store/cmst3/group/cmgtools/CMG/GluGluToHToTauTau_M-115_8TeV-powheg-pythia6/Summer12_DR53X-PU_S10_START53_V7A-v1/AODSIM/PAT_CMG_V5_16_0/cmgTuple_3_1_lsl.root
p243
(lp244
I01
aI10000
asV/store/cmst3/group/cmgtools/CMG/GluGluToHToTauTau_M-115_8TeV-powheg-pythia6/Summer12_DR53X-PU_S10_START53_V7A-v1/AODSIM/PAT_CMG_V5_16_0/cmgTuple_19_1_kCk.root
p245
(lp246
I01
aI10000
asV/store/cmst3/group/cmgtools/CMG/GluGluToHToTauTau_M-115_8TeV-powheg-pythia6/Summer12_DR53X-PU_S10_START53_V7A-v1/AODSIM/PAT_CMG_V5_16_0/cmgTuple_21_1_pwM.root
p247
(lp248
I01
aI10000
asV/store/cmst3/group/cmgtools/CMG/GluGluToHToTauTau_M-115_8TeV-powheg-pythia6/Summer12_DR53X-PU_S10_START53_V7A-v1/AODSIM/PAT_CMG_V5_16_0/cmgTuple_81_1_jzP.root
p249
(lp250
I01
aI10000
asV/store/cmst3/group/cmgtools/CMG/GluGluToHToTauTau_M-115_8TeV-powheg-pythia6/Summer12_DR53X-PU_S10_START53_V7A-v1/AODSIM/PAT_CMG_V5_16_0/cmgTuple_17_1_ao9.root
p251
(lp252
I01
aI10000
asV/store/cmst3/group/cmgtools/CMG/GluGluToHToTauTau_M-115_8TeV-powheg-pythia6/Summer12_DR53X-PU_S10_START53_V7A-v1/AODSIM/PAT_CMG_V5_16_0/cmgTuple_89_1_RUa.root
p253
(lp254
I01
aI10000
asV/store/cmst3/group/cmgtools/CMG/GluGluToHToTauTau_M-115_8TeV-powheg-pythia6/Summer12_DR53X-PU_S10_START53_V7A-v1/AODSIM/PAT_CMG_V5_16_0/cmgTuple_54_1_Jg0.root
p255
(lp256
I01
aI10000
asV/store/cmst3/group/cmgtools/CMG/GluGluToHToTauTau_M-115_8TeV-powheg-pythia6/Summer12_DR53X-PU_S10_START53_V7A-v1/AODSIM/PAT_CMG_V5_16_0/cmgTuple_92_2_vNE.root
p257
(lp258
I01
aI10000
asV/store/cmst3/group/cmgtools/CMG/GluGluToHToTauTau_M-115_8TeV-powheg-pythia6/Summer12_DR53X-PU_S10_START53_V7A-v1/AODSIM/PAT_CMG_V5_16_0/cmgTuple_70_1_hsc.root
p259
(lp260
I01
aI10000
asV/store/cmst3/group/cmgtools/CMG/GluGluToHToTauTau_M-115_8TeV-powheg-pythia6/Summer12_DR53X-PU_S10_START53_V7A-v1/AODSIM/PAT_CMG_V5_16_0/cmgTuple_43_1_uIq.root
p261
(lp262
I01
aI10000
asV/store/cmst3/group/cmgtools/CMG/GluGluToHToTauTau_M-115_8TeV-powheg-pythia6/Summer12_DR53X-PU_S10_START53_V7A-v1/AODSIM/PAT_CMG_V5_16_0/cmgTuple_90_1_Cnm.root
p263
(lp264
I01
aI10000
asV/store/cmst3/group/cmgtools/CMG/GluGluToHToTauTau_M-115_8TeV-powheg-pythia6/Summer12_DR53X-PU_S10_START53_V7A-v1/AODSIM/PAT_CMG_V5_16_0/cmgTuple_66_1_pua.root
p265
(lp266
I01
aI10000
asV/store/cmst3/group/cmgtools/CMG/GluGluToHToTauTau_M-115_8TeV-powheg-pythia6/Summer12_DR53X-PU_S10_START53_V7A-v1/AODSIM/PAT_CMG_V5_16_0/cmgTuple_82_1_7G0.root
p267
(lp268
I01
aI10000
asV/store/cmst3/group/cmgtools/CMG/GluGluToHToTauTau_M-115_8TeV-powheg-pythia6/Summer12_DR53X-PU_S10_START53_V7A-v1/AODSIM/PAT_CMG_V5_16_0/cmgTuple_31_1_lri.root
p269
(lp270
I01
aI10000
asV/store/cmst3/group/cmgtools/CMG/GluGluToHToTauTau_M-115_8TeV-powheg-pythia6/Summer12_DR53X-PU_S10_START53_V7A-v1/AODSIM/PAT_CMG_V5_16_0/cmgTuple_33_1_LEV.root
p271
(lp272
I01
aI10000
asV/store/cmst3/group/cmgtools/CMG/GluGluToHToTauTau_M-115_8TeV-powheg-pythia6/Summer12_DR53X-PU_S10_START53_V7A-v1/AODSIM/PAT_CMG_V5_16_0/cmgTuple_50_1_z3a.root
p273
(lp274
I01
aI10000
asV/store/cmst3/group/cmgtools/CMG/GluGluToHToTauTau_M-115_8TeV-powheg-pythia6/Summer12_DR53X-PU_S10_START53_V7A-v1/AODSIM/PAT_CMG_V5_16_0/cmgTuple_1_1_ixc.root
p275
(lp276
I01
aI10000
asV/store/cmst3/group/cmgtools/CMG/GluGluToHToTauTau_M-115_8TeV-powheg-pythia6/Summer12_DR53X-PU_S10_START53_V7A-v1/AODSIM/PAT_CMG_V5_16_0/cmgTuple_34_1_Kb3.root
p277
(lp278
I01
aI10000
asV/store/cmst3/group/cmgtools/CMG/GluGluToHToTauTau_M-115_8TeV-powheg-pythia6/Summer12_DR53X-PU_S10_START53_V7A-v1/AODSIM/PAT_CMG_V5_16_0/cmgTuple_11_1_1fG.root
p279
(lp280
I01
aI10000
asV/store/cmst3/group/cmgtools/CMG/GluGluToHToTauTau_M-115_8TeV-powheg-pythia6/Summer12_DR53X-PU_S10_START53_V7A-v1/AODSIM/PAT_CMG_V5_16_0/cmgTuple_56_1_2vX.root
p281
(lp282
I01
aI10000
asV/store/cmst3/group/cmgtools/CMG/GluGluToHToTauTau_M-115_8TeV-powheg-pythia6/Summer12_DR53X-PU_S10_START53_V7A-v1/AODSIM/PAT_CMG_V5_16_0/cmgTuple_27_1_gtJ.root
p283
(lp284
I01
aI10000
asV/store/cmst3/group/cmgtools/CMG/GluGluToHToTauTau_M-115_8TeV-powheg-pythia6/Summer12_DR53X-PU_S10_START53_V7A-v1/AODSIM/PAT_CMG_V5_16_0/cmgTuple_60_1_nqU.root
p285
(lp286
I01
aI10000
asV/store/cmst3/group/cmgtools/CMG/GluGluToHToTauTau_M-115_8TeV-powheg-pythia6/Summer12_DR53X-PU_S10_START53_V7A-v1/AODSIM/PAT_CMG_V5_16_0/cmgTuple_74_1_lKX.root
p287
(lp288
I01
aI10000
asV/store/cmst3/group/cmgtools/CMG/GluGluToHToTauTau_M-115_8TeV-powheg-pythia6/Summer12_DR53X-PU_S10_START53_V7A-v1/AODSIM/PAT_CMG_V5_16_0/cmgTuple_29_1_s9m.root
p289
(lp290
I01
aI10000
asV/store/cmst3/group/cmgtools/CMG/GluGluToHToTauTau_M-115_8TeV-powheg-pythia6/Summer12_DR53X-PU_S10_START53_V7A-v1/AODSIM/PAT_CMG_V5_16_0/cmgTuple_94_1_5df.root
p291
(lp292
I01
aI3600
asV/store/cmst3/group/cmgtools/CMG/GluGluToHToTauTau_M-115_8TeV-powheg-pythia6/Summer12_DR53X-PU_S10_START53_V7A-v1/AODSIM/PAT_CMG_V5_16_0/cmgTuple_73_1_IUn.root
p293
(lp294
I01
aI10000
asV/store/cmst3/group/cmgtools/CMG/GluGluToHToTauTau_M-115_8TeV-powheg-pythia6/Summer12_DR53X-PU_S10_START53_V7A-v1/AODSIM/PAT_CMG_V5_16_0/cmgTuple_67_1_HMS.root
p295
(lp296
I01
aI10000
asV/store/cmst3/group/cmgtools/CMG/GluGluToHToTauTau_M-115_8TeV-powheg-pythia6/Summer12_DR53X-PU_S10_START53_V7A-v1/AODSIM/PAT_CMG_V5_16_0/cmgTuple_63_1_WXD.root
p297
(lp298
I01
aI10000
asV/store/cmst3/group/cmgtools/CMG/GluGluToHToTauTau_M-115_8TeV-powheg-pythia6/Summer12_DR53X-PU_S10_START53_V7A-v1/AODSIM/PAT_CMG_V5_16_0/cmgTuple_47_1_fqY.root
p299
(lp300
I01
aI10000
asV/store/cmst3/group/cmgtools/CMG/GluGluToHToTauTau_M-115_8TeV-powheg-pythia6/Summer12_DR53X-PU_S10_START53_V7A-v1/AODSIM/PAT_CMG_V5_16_0/cmgTuple_39_1_7v7.root
p301
(lp302
I01
aI10000
asV/store/cmst3/group/cmgtools/CMG/GluGluToHToTauTau_M-115_8TeV-powheg-pythia6/Summer12_DR53X-PU_S10_START53_V7A-v1/AODSIM/PAT_CMG_V5_16_0/cmgTuple_48_1_7co.root
p303
(lp304
I01
aI10000
asV/store/cmst3/group/cmgtools/CMG/GluGluToHToTauTau_M-115_8TeV-powheg-pythia6/Summer12_DR53X-PU_S10_START53_V7A-v1/AODSIM/PAT_CMG_V5_16_0/cmgTuple_22_1_X2P.root
p305
(lp306
I01
aI10000
asV/store/cmst3/group/cmgtools/CMG/GluGluToHToTauTau_M-115_8TeV-powheg-pythia6/Summer12_DR53X-PU_S10_START53_V7A-v1/AODSIM/PAT_CMG_V5_16_0/cmgTuple_76_1_QFy.root
p307
(lp308
I01
aI10000
asV/store/cmst3/group/cmgtools/CMG/GluGluToHToTauTau_M-115_8TeV-powheg-pythia6/Summer12_DR53X-PU_S10_START53_V7A-v1/AODSIM/PAT_CMG_V5_16_0/cmgTuple_88_1_e3X.root
p309
(lp310
I01
aI10000
asV/store/cmst3/group/cmgtools/CMG/GluGluToHToTauTau_M-115_8TeV-powheg-pythia6/Summer12_DR53X-PU_S10_START53_V7A-v1/AODSIM/PAT_CMG_V5_16_0/cmgTuple_41_1_1IJ.root
p311
(lp312
I01
aI10000
assVPhysicsGroup
p313
VCMG
p314
sVFilesCount
p315
I94
sVFilesEntries
p316
I917825
sVRunList
p317
(lp318
sVValidDuplicates
p319
(dp320
sVPrimaryDataset
p321
V/GluGluToHToTauTau_M-115_8TeV-powheg-pythia6/Summer12_DR53X-PU_S10_START53_V7A-v1/AODSIM
p322
sVStatus
p323
VVALID
p324
sVName
p325
V/GluGluToHToTauTau_M-115_8TeV-powheg-pythia6/Summer12_DR53X-PU_S10_START53_V7A-v1/AODSIM/PAT_CMG_V5_16_0
p326
sVTopdir
p327
V/eos/cms/store/cmst3/group/cmgtools/CMG
p328
sVdata
p329
(dp330
sVFilesBad
p331
I0
sVMinRun
p332
I-1
sVAlgoList
p333
(lp334
sVTierList
p335
(lp336
sVDateCreated
p337
V1370943210
p338
sVCreatedBy
p339
Vcmgtools_group
p340
sVMaxRun
p341
I-1
sVBadJobs
p342
(lp343
ssg85
I01
ssS'MonitorJobs'
p344
(dp345
S'LSFJobStatus'
p346
(dp347
g100
S'GluGluToHToTauTau_M-115_8TeV-powheg-pythia6/Summer12_DR53X-PU_S10_START53_V7A-v1/AODSIM/PAT_CMG_V5_16_0_1377467462/HTT_24Jul_newTES_manzoni_Up_Jobs/Job_6/LSFJOB_440972186/STDOUT.gz'
p348
sg102
S'GluGluToHToTauTau_M-115_8TeV-powheg-pythia6/Summer12_DR53X-PU_S10_START53_V7A-v1/AODSIM/PAT_CMG_V5_16_0_1377467462/HTT_24Jul_newTES_manzoni_Up_Jobs/Job_4/LSFJOB_440971996/STDOUT.gz'
p349
sg106
S'GluGluToHToTauTau_M-115_8TeV-powheg-pythia6/Summer12_DR53X-PU_S10_START53_V7A-v1/AODSIM/PAT_CMG_V5_16_0_1377467462/HTT_24Jul_newTES_manzoni_Up_Jobs/Job_10/LSFJOB_440972554/STDOUT.gz'
p350
sg97
S'GluGluToHToTauTau_M-115_8TeV-powheg-pythia6/Summer12_DR53X-PU_S10_START53_V7A-v1/AODSIM/PAT_CMG_V5_16_0_1377467462/HTT_24Jul_newTES_manzoni_Up_Jobs/Job_9/LSFJOB_440972457/STDOUT.gz'
p351
sg103
S'GluGluToHToTauTau_M-115_8TeV-powheg-pythia6/Summer12_DR53X-PU_S10_START53_V7A-v1/AODSIM/PAT_CMG_V5_16_0_1377467462/HTT_24Jul_newTES_manzoni_Up_Jobs/Job_3/LSFJOB_440971884/STDOUT.gz'
p352
sg98
S'GluGluToHToTauTau_M-115_8TeV-powheg-pythia6/Summer12_DR53X-PU_S10_START53_V7A-v1/AODSIM/PAT_CMG_V5_16_0_1377467462/HTT_24Jul_newTES_manzoni_Up_Jobs/Job_8/LSFJOB_440972345/STDOUT.gz'
p353
sg104
S'GluGluToHToTauTau_M-115_8TeV-powheg-pythia6/Summer12_DR53X-PU_S10_START53_V7A-v1/AODSIM/PAT_CMG_V5_16_0_1377467462/HTT_24Jul_newTES_manzoni_Up_Jobs/Job_2/LSFJOB_440971786/STDOUT.gz'
p354
sg99
S'GluGluToHToTauTau_M-115_8TeV-powheg-pythia6/Summer12_DR53X-PU_S10_START53_V7A-v1/AODSIM/PAT_CMG_V5_16_0_1377467462/HTT_24Jul_newTES_manzoni_Up_Jobs/Job_7/LSFJOB_440972261/STDOUT.gz'
p355
sg105
S'GluGluToHToTauTau_M-115_8TeV-powheg-pythia6/Summer12_DR53X-PU_S10_START53_V7A-v1/AODSIM/PAT_CMG_V5_16_0_1377467462/HTT_24Jul_newTES_manzoni_Up_Jobs/Job_1/LSFJOB_440971655/STDOUT.gz'
p356
sg89
S'GluGluToHToTauTau_M-115_8TeV-powheg-pythia6/Summer12_DR53X-PU_S10_START53_V7A-v1/AODSIM/PAT_CMG_V5_16_0_1377467462/HTT_24Jul_newTES_manzoni_Up_Jobs/Job_19/LSFJOB_440973335/STDOUT.gz'
p357
sg92
S'GluGluToHToTauTau_M-115_8TeV-powheg-pythia6/Summer12_DR53X-PU_S10_START53_V7A-v1/AODSIM/PAT_CMG_V5_16_0_1377467462/HTT_24Jul_newTES_manzoni_Up_Jobs/Job_18/LSFJOB_440973301/STDOUT.gz'
p358
sg95
S'GluGluToHToTauTau_M-115_8TeV-powheg-pythia6/Summer12_DR53X-PU_S10_START53_V7A-v1/AODSIM/PAT_CMG_V5_16_0_1377467462/HTT_24Jul_newTES_manzoni_Up_Jobs/Job_17/LSFJOB_440973232/STDOUT.gz'
p359
sg94
S'GluGluToHToTauTau_M-115_8TeV-powheg-pythia6/Summer12_DR53X-PU_S10_START53_V7A-v1/AODSIM/PAT_CMG_V5_16_0_1377467462/HTT_24Jul_newTES_manzoni_Up_Jobs/Job_16/LSFJOB_440973161/STDOUT.gz'
p360
sg101
S'GluGluToHToTauTau_M-115_8TeV-powheg-pythia6/Summer12_DR53X-PU_S10_START53_V7A-v1/AODSIM/PAT_CMG_V5_16_0_1377467462/HTT_24Jul_newTES_manzoni_Up_Jobs/Job_15/LSFJOB_440973072/STDOUT.gz'
p361
sg88
S'GluGluToHToTauTau_M-115_8TeV-powheg-pythia6/Summer12_DR53X-PU_S10_START53_V7A-v1/AODSIM/PAT_CMG_V5_16_0_1377467462/HTT_24Jul_newTES_manzoni_Up_Jobs/Job_14/LSFJOB_440972967/STDOUT.gz'
p362
sg91
S'GluGluToHToTauTau_M-115_8TeV-powheg-pythia6/Summer12_DR53X-PU_S10_START53_V7A-v1/AODSIM/PAT_CMG_V5_16_0_1377467462/HTT_24Jul_newTES_manzoni_Up_Jobs/Job_13/LSFJOB_440972862/STDOUT.gz'
p363
sg93
S'GluGluToHToTauTau_M-115_8TeV-powheg-pythia6/Summer12_DR53X-PU_S10_START53_V7A-v1/AODSIM/PAT_CMG_V5_16_0_1377467462/HTT_24Jul_newTES_manzoni_Up_Jobs/Job_12/LSFJOB_440972743/STDOUT.gz'
p364
sg96
S'GluGluToHToTauTau_M-115_8TeV-powheg-pythia6/Summer12_DR53X-PU_S10_START53_V7A-v1/AODSIM/PAT_CMG_V5_16_0_1377467462/HTT_24Jul_newTES_manzoni_Up_Jobs/Job_11/LSFJOB_440972615/STDOUT.gz'
p365
sg90
S'GluGluToHToTauTau_M-115_8TeV-powheg-pythia6/Summer12_DR53X-PU_S10_START53_V7A-v1/AODSIM/PAT_CMG_V5_16_0_1377467462/HTT_24Jul_newTES_manzoni_Up_Jobs/Job_5/LSFJOB_440972088/STDOUT.gz'
p366
ssS'LSFJobIDs'
p367
(dp368
g88
S'440972967'
p369
sg89
S'440973335'
p370
sg91
S'440972862'
p371
sg92
S'440973301'
p372
sg101
S'440973072'
p373
sg93
S'440972743'
p374
sg94
S'440973161'
p375
sg95
S'440973232'
p376
sg96
S'440972615'
p377
sg97
S'440972457'
p378
sg98
S'440972345'
p379
sg99
S'440972261'
p380
sg100
S'440972186'
p381
sg90
S'440972088'
p382
sg102
S'440971996'
p383
sg103
S'440971884'
p384
sg104
S'440971786'
p385
sg105
S'440971655'
p386
sg106
S'440972554'
p387
sssS'FindOnCastor'
p388
(dp389
g47
S'/eos/cms/store/cmst3/group/cmgtools/CMG'
p390
sS'Directory'
p391
S'/eos/cms/store/cmst3/group/cmgtools/CMG/GluGluToHToTauTau_M-115_8TeV-powheg-pythia6/Summer12_DR53X-PU_S10_START53_V7A-v1/AODSIM/PAT_CMG_V5_16_0'
p392
ssS'CheckConfig'
p393
(dp394
g63
g64
ssS'FullCFG'
p395
(dp396
S'FullCFG'
p397
S'GluGluToHToTauTau_M-115_8TeV-powheg-pythia6/Summer12_DR53X-PU_S10_START53_V7A-v1/AODSIM/PAT_CMG_V5_16_0_1377467462/full_cfg.py'
p398
ssS'WriteJobReport'
p399
(dp400
S'SummaryFile'
p401
S'GluGluToHToTauTau_M-115_8TeV-powheg-pythia6/Summer12_DR53X-PU_S10_START53_V7A-v1/AODSIM/PAT_CMG_V5_16_0_1377467462/resubmit.sh'
p402
ssS'ExpandConfig'
p403
(dp404
S'ExpandedFullCFG'
p405
S'GluGluToHToTauTau_M-115_8TeV-powheg-pythia6/Summer12_DR53X-PU_S10_START53_V7A-v1/AODSIM/PAT_CMG_V5_16_0_1377467462/Expandedfull_cfg.py'
p406
ssS'RunTestEvents'
p407
(dp408
g63
g64
sS'TestCFG'
p409
S'GluGluToHToTauTau_M-115_8TeV-powheg-pythia6/Summer12_DR53X-PU_S10_START53_V7A-v1/AODSIM/PAT_CMG_V5_16_0_1377467462/test_cfg.py'
p410
ssS'SourceCFG'
p411
(dp412
S'SourceCFG'
p413
S'GluGluToHToTauTau_M-115_8TeV-powheg-pythia6/Summer12_DR53X-PU_S10_START53_V7A-v1/AODSIM/PAT_CMG_V5_16_0_1377467462/source_cfg.py'
p414
ssS'CheckForWrite'
p415
(dp416
g391
g392
sS'WriteAccess'
p417
I01
ssS'WriteToDatasets'
p418
(dp419
S'Added'
p420
I00
sg45
S'/GluGluToHToTauTau_M-115_8TeV-powheg-pythia6/Summer12_DR53X-PU_S10_START53_V7A-v1/AODSIM/PAT_CMG_V5_16_0/HTT_24Jul_newTES_manzoni_Up'
p421
sS'User'
p422
g78
ssS'RunCMSBatch'
p423
(dp424
S'BatchUser'
p425
g78
sS'SampleOutputDir'
p426
S'/store/cmst3/user/manzoni/CMG/GluGluToHToTauTau_M-115_8TeV-powheg-pythia6/Summer12_DR53X-PU_S10_START53_V7A-v1/AODSIM/PAT_CMG_V5_16_0/HTT_24Jul_newTES_manzoni_Up'
p427
sS'SampleDataset'
p428
g46
sS'LSFJobsTopDir'
p429
S'GluGluToHToTauTau_M-115_8TeV-powheg-pythia6/Summer12_DR53X-PU_S10_START53_V7A-v1/AODSIM/PAT_CMG_V5_16_0_1377467462/HTT_24Jul_newTES_manzoni_Up_Jobs'
p430
ssS'CreateJobDirectory'
p431
(dp432
S'JobDir'
p433
S'GluGluToHToTauTau_M-115_8TeV-powheg-pythia6/Summer12_DR53X-PU_S10_START53_V7A-v1/AODSIM/PAT_CMG_V5_16_0_1377467462'
p434
sS'PWD'
p435
S'/afs/cern.ch/user/m/manzoni/summer13/CMGTools/CMSSW_5_3_9/src/CMGTools/H2TauTau/prod/25aug_corrMC/up/mc'
p436
ssS'CleanJobFiles'
p437
(dp438
S'Compressed'
p439
(dp440
S'CompressedFiles'
p441
(lp442
ssS'Cleaned'
p443
(dp444
S'CleanedFiles'
p445
(lp446
g406
ag410
aS'GluGluToHToTauTau_M-115_8TeV-powheg-pythia6/Summer12_DR53X-PU_S10_START53_V7A-v1/AODSIM/PAT_CMG_V5_16_0_1377467462/diTau_fullsel_tree_CMG.root'
p447
aS'GluGluToHToTauTau_M-115_8TeV-powheg-pythia6/Summer12_DR53X-PU_S10_START53_V7A-v1/AODSIM/PAT_CMG_V5_16_0_1377467462/source_cfg.pyc'
p448
aS'GluGluToHToTauTau_M-115_8TeV-powheg-pythia6/Summer12_DR53X-PU_S10_START53_V7A-v1/AODSIM/PAT_CMG_V5_16_0_1377467462/Expandedfull_cfg.pyc'
p449
asssS'CheckForMask'
p450
(dp451
g3
g113
sg85
I01
ss.