(dp0
S'CheckJobStatus'
p1
(dp2
S'Report'
p3
(dp4
S'Files'
p5
(dp6
S'/store/cmst3/user/manzoni/CMG/GluGluToHToTauTau_M-155_8TeV-powheg-pythia6/Summer12_DR53X-PU_S10_START53_V7A-v1/AODSIM/PAT_CMG_V5_16_0/HTT_24Jul_newTES_manzoni_Up/diTau_fullsel_tree_CMG_2.root'
p7
(I01
I2766
tp8
sS'/store/cmst3/user/manzoni/CMG/GluGluToHToTauTau_M-155_8TeV-powheg-pythia6/Summer12_DR53X-PU_S10_START53_V7A-v1/AODSIM/PAT_CMG_V5_16_0/HTT_24Jul_newTES_manzoni_Up/diTau_fullsel_tree_CMG_5.root'
p9
(I01
I2731
tp10
sS'/store/cmst3/user/manzoni/CMG/GluGluToHToTauTau_M-155_8TeV-powheg-pythia6/Summer12_DR53X-PU_S10_START53_V7A-v1/AODSIM/PAT_CMG_V5_16_0/HTT_24Jul_newTES_manzoni_Up/diTau_fullsel_tree_CMG_10.root'
p11
(I01
I2669
tp12
sS'/store/cmst3/user/manzoni/CMG/GluGluToHToTauTau_M-155_8TeV-powheg-pythia6/Summer12_DR53X-PU_S10_START53_V7A-v1/AODSIM/PAT_CMG_V5_16_0/HTT_24Jul_newTES_manzoni_Up/diTau_fullsel_tree_CMG_16.root'
p13
(I01
I2662
tp14
sS'/store/cmst3/user/manzoni/CMG/GluGluToHToTauTau_M-155_8TeV-powheg-pythia6/Summer12_DR53X-PU_S10_START53_V7A-v1/AODSIM/PAT_CMG_V5_16_0/HTT_24Jul_newTES_manzoni_Up/diTau_fullsel_tree_CMG_9.root'
p15
(I01
I2610
tp16
sS'/store/cmst3/user/manzoni/CMG/GluGluToHToTauTau_M-155_8TeV-powheg-pythia6/Summer12_DR53X-PU_S10_START53_V7A-v1/AODSIM/PAT_CMG_V5_16_0/HTT_24Jul_newTES_manzoni_Up/diTau_fullsel_tree_CMG_12.root'
p17
(I01
I2714
tp18
sS'/store/cmst3/user/manzoni/CMG/GluGluToHToTauTau_M-155_8TeV-powheg-pythia6/Summer12_DR53X-PU_S10_START53_V7A-v1/AODSIM/PAT_CMG_V5_16_0/HTT_24Jul_newTES_manzoni_Up/diTau_fullsel_tree_CMG_19.root'
p19
(I01
I568
tp20
sS'/store/cmst3/user/manzoni/CMG/GluGluToHToTauTau_M-155_8TeV-powheg-pythia6/Summer12_DR53X-PU_S10_START53_V7A-v1/AODSIM/PAT_CMG_V5_16_0/HTT_24Jul_newTES_manzoni_Up/diTau_fullsel_tree_CMG_17.root'
p21
(I01
I2646
tp22
sS'/store/cmst3/user/manzoni/CMG/GluGluToHToTauTau_M-155_8TeV-powheg-pythia6/Summer12_DR53X-PU_S10_START53_V7A-v1/AODSIM/PAT_CMG_V5_16_0/HTT_24Jul_newTES_manzoni_Up/diTau_fullsel_tree_CMG_15.root'
p23
(I01
I2697
tp24
sS'/store/cmst3/user/manzoni/CMG/GluGluToHToTauTau_M-155_8TeV-powheg-pythia6/Summer12_DR53X-PU_S10_START53_V7A-v1/AODSIM/PAT_CMG_V5_16_0/HTT_24Jul_newTES_manzoni_Up/diTau_fullsel_tree_CMG_11.root'
p25
(I01
I2659
tp26
sS'/store/cmst3/user/manzoni/CMG/GluGluToHToTauTau_M-155_8TeV-powheg-pythia6/Summer12_DR53X-PU_S10_START53_V7A-v1/AODSIM/PAT_CMG_V5_16_0/HTT_24Jul_newTES_manzoni_Up/diTau_fullsel_tree_CMG_4.root'
p27
(I01
I2641
tp28
sS'/store/cmst3/user/manzoni/CMG/GluGluToHToTauTau_M-155_8TeV-powheg-pythia6/Summer12_DR53X-PU_S10_START53_V7A-v1/AODSIM/PAT_CMG_V5_16_0/HTT_24Jul_newTES_manzoni_Up/diTau_fullsel_tree_CMG_6.root'
p29
(I01
I2746
tp30
sS'/store/cmst3/user/manzoni/CMG/GluGluToHToTauTau_M-155_8TeV-powheg-pythia6/Summer12_DR53X-PU_S10_START53_V7A-v1/AODSIM/PAT_CMG_V5_16_0/HTT_24Jul_newTES_manzoni_Up/diTau_fullsel_tree_CMG_8.root'
p31
(I01
I2686
tp32
sS'/store/cmst3/user/manzoni/CMG/GluGluToHToTauTau_M-155_8TeV-powheg-pythia6/Summer12_DR53X-PU_S10_START53_V7A-v1/AODSIM/PAT_CMG_V5_16_0/HTT_24Jul_newTES_manzoni_Up/diTau_fullsel_tree_CMG_3.root'
p33
(I01
I2646
tp34
sS'/store/cmst3/user/manzoni/CMG/GluGluToHToTauTau_M-155_8TeV-powheg-pythia6/Summer12_DR53X-PU_S10_START53_V7A-v1/AODSIM/PAT_CMG_V5_16_0/HTT_24Jul_newTES_manzoni_Up/diTau_fullsel_tree_CMG_18.root'
p35
(I01
I2608
tp36
sS'/store/cmst3/user/manzoni/CMG/GluGluToHToTauTau_M-155_8TeV-powheg-pythia6/Summer12_DR53X-PU_S10_START53_V7A-v1/AODSIM/PAT_CMG_V5_16_0/HTT_24Jul_newTES_manzoni_Up/diTau_fullsel_tree_CMG_7.root'
p37
(I01
I2624
tp38
sS'/store/cmst3/user/manzoni/CMG/GluGluToHToTauTau_M-155_8TeV-powheg-pythia6/Summer12_DR53X-PU_S10_START53_V7A-v1/AODSIM/PAT_CMG_V5_16_0/HTT_24Jul_newTES_manzoni_Up/diTau_fullsel_tree_CMG_1.root'
p39
(I01
I2654
tp40
sS'/store/cmst3/user/manzoni/CMG/GluGluToHToTauTau_M-155_8TeV-powheg-pythia6/Summer12_DR53X-PU_S10_START53_V7A-v1/AODSIM/PAT_CMG_V5_16_0/HTT_24Jul_newTES_manzoni_Up/diTau_fullsel_tree_CMG_14.root'
p41
(I01
I2650
tp42
sS'/store/cmst3/user/manzoni/CMG/GluGluToHToTauTau_M-155_8TeV-powheg-pythia6/Summer12_DR53X-PU_S10_START53_V7A-v1/AODSIM/PAT_CMG_V5_16_0/HTT_24Jul_newTES_manzoni_Up/diTau_fullsel_tree_CMG_13.root'
p43
(I01
I2698
tp44
ssS'Name'
p45
S'/GluGluToHToTauTau_M-155_8TeV-powheg-pythia6/Summer12_DR53X-PU_S10_START53_V7A-v1/AODSIM/PAT_CMG_V5_16_0/HTT_24Jul_newTES_manzoni_Up'
p46
sS'Topdir'
p47
S'/eos/cms/store/cmst3/user/manzoni/CMG'
p48
sS'RunList'
p49
(lp50
sS'PathList'
p51
(lp52
S'/store/cmst3/user/manzoni/CMG/GluGluToHToTauTau_M-155_8TeV-powheg-pythia6/Summer12_DR53X-PU_S10_START53_V7A-v1/AODSIM/PAT_CMG_V5_16_0/HTT_24Jul_newTES_manzoni_Up'
p53
asS'AlgoList'
p54
(lp55
sS'PrimaryDatasetFraction'
p56
F0.053618047829391613
sS'FilesGood'
p57
I19
sS'PrimaryDatasetEntries'
p58
I907810
sS'data'
p59
(dp60
sS'FilesBad'
p61
I0
sS'ReportVersion'
p62
I3
sS'Status'
p63
S'VALID'
p64
sS'MaxRun'
p65
I-1
sS'PhysicsGroup'
p66
S'CMG'
p67
sS'MinRun'
p68
I-1
sS'StageHost'
p69
S'castorcms'
p70
sS'FilesCount'
p71
I19
sS'FilesEntries'
p72
I48675
sS'TierList'
p73
(lp74
sS'DateCreated'
p75
S'1377472587'
p76
sS'CreatedBy'
p77
S'manzoni'
p78
sS'ValidDuplicates'
p79
(dp80
sS'PrimaryDataset'
p81
S'/GluGluToHToTauTau_M-155_8TeV-powheg-pythia6/Summer12_DR53X-PU_S10_START53_V7A-v1/AODSIM'
p82
sS'BadJobs'
p83
(lp84
ssS'MaskPresent'
p85
I01
sS'LSFJobStatusCheck'
p86
(dp87
S'GluGluToHToTauTau_M-155_8TeV-powheg-pythia6/Summer12_DR53X-PU_S10_START53_V7A-v1/AODSIM/PAT_CMG_V5_16_0_1377467470/HTT_24Jul_newTES_manzoni_Up_Jobs/Job_4'
p88
g64
sS'GluGluToHToTauTau_M-155_8TeV-powheg-pythia6/Summer12_DR53X-PU_S10_START53_V7A-v1/AODSIM/PAT_CMG_V5_16_0_1377467470/HTT_24Jul_newTES_manzoni_Up_Jobs/Job_5'
p89
g64
sS'GluGluToHToTauTau_M-155_8TeV-powheg-pythia6/Summer12_DR53X-PU_S10_START53_V7A-v1/AODSIM/PAT_CMG_V5_16_0_1377467470/HTT_24Jul_newTES_manzoni_Up_Jobs/Job_6'
p90
g64
sS'GluGluToHToTauTau_M-155_8TeV-powheg-pythia6/Summer12_DR53X-PU_S10_START53_V7A-v1/AODSIM/PAT_CMG_V5_16_0_1377467470/HTT_24Jul_newTES_manzoni_Up_Jobs/Job_7'
p91
g64
sS'GluGluToHToTauTau_M-155_8TeV-powheg-pythia6/Summer12_DR53X-PU_S10_START53_V7A-v1/AODSIM/PAT_CMG_V5_16_0_1377467470/HTT_24Jul_newTES_manzoni_Up_Jobs/Job_1'
p92
g64
sS'GluGluToHToTauTau_M-155_8TeV-powheg-pythia6/Summer12_DR53X-PU_S10_START53_V7A-v1/AODSIM/PAT_CMG_V5_16_0_1377467470/HTT_24Jul_newTES_manzoni_Up_Jobs/Job_2'
p93
g64
sS'GluGluToHToTauTau_M-155_8TeV-powheg-pythia6/Summer12_DR53X-PU_S10_START53_V7A-v1/AODSIM/PAT_CMG_V5_16_0_1377467470/HTT_24Jul_newTES_manzoni_Up_Jobs/Job_3'
p94
g64
sS'GluGluToHToTauTau_M-155_8TeV-powheg-pythia6/Summer12_DR53X-PU_S10_START53_V7A-v1/AODSIM/PAT_CMG_V5_16_0_1377467470/HTT_24Jul_newTES_manzoni_Up_Jobs/Job_8'
p95
g64
sS'GluGluToHToTauTau_M-155_8TeV-powheg-pythia6/Summer12_DR53X-PU_S10_START53_V7A-v1/AODSIM/PAT_CMG_V5_16_0_1377467470/HTT_24Jul_newTES_manzoni_Up_Jobs/Job_9'
p96
g64
sS'GluGluToHToTauTau_M-155_8TeV-powheg-pythia6/Summer12_DR53X-PU_S10_START53_V7A-v1/AODSIM/PAT_CMG_V5_16_0_1377467470/HTT_24Jul_newTES_manzoni_Up_Jobs/Job_18'
p97
g64
sS'GluGluToHToTauTau_M-155_8TeV-powheg-pythia6/Summer12_DR53X-PU_S10_START53_V7A-v1/AODSIM/PAT_CMG_V5_16_0_1377467470/HTT_24Jul_newTES_manzoni_Up_Jobs/Job_19'
p98
g64
sS'GluGluToHToTauTau_M-155_8TeV-powheg-pythia6/Summer12_DR53X-PU_S10_START53_V7A-v1/AODSIM/PAT_CMG_V5_16_0_1377467470/HTT_24Jul_newTES_manzoni_Up_Jobs/Job_16'
p99
g64
sS'GluGluToHToTauTau_M-155_8TeV-powheg-pythia6/Summer12_DR53X-PU_S10_START53_V7A-v1/AODSIM/PAT_CMG_V5_16_0_1377467470/HTT_24Jul_newTES_manzoni_Up_Jobs/Job_17'
p100
g64
sS'GluGluToHToTauTau_M-155_8TeV-powheg-pythia6/Summer12_DR53X-PU_S10_START53_V7A-v1/AODSIM/PAT_CMG_V5_16_0_1377467470/HTT_24Jul_newTES_manzoni_Up_Jobs/Job_14'
p101
g64
sS'GluGluToHToTauTau_M-155_8TeV-powheg-pythia6/Summer12_DR53X-PU_S10_START53_V7A-v1/AODSIM/PAT_CMG_V5_16_0_1377467470/HTT_24Jul_newTES_manzoni_Up_Jobs/Job_15'
p102
g64
sS'GluGluToHToTauTau_M-155_8TeV-powheg-pythia6/Summer12_DR53X-PU_S10_START53_V7A-v1/AODSIM/PAT_CMG_V5_16_0_1377467470/HTT_24Jul_newTES_manzoni_Up_Jobs/Job_12'
p103
g64
sS'GluGluToHToTauTau_M-155_8TeV-powheg-pythia6/Summer12_DR53X-PU_S10_START53_V7A-v1/AODSIM/PAT_CMG_V5_16_0_1377467470/HTT_24Jul_newTES_manzoni_Up_Jobs/Job_13'
p104
g64
sS'GluGluToHToTauTau_M-155_8TeV-powheg-pythia6/Summer12_DR53X-PU_S10_START53_V7A-v1/AODSIM/PAT_CMG_V5_16_0_1377467470/HTT_24Jul_newTES_manzoni_Up_Jobs/Job_10'
p105
g64
sS'GluGluToHToTauTau_M-155_8TeV-powheg-pythia6/Summer12_DR53X-PU_S10_START53_V7A-v1/AODSIM/PAT_CMG_V5_16_0_1377467470/HTT_24Jul_newTES_manzoni_Up_Jobs/Job_11'
p106
g64
sssS'CheckDatasetExists'
p107
(dp108
S'Dataset'
p109
S'/GluGluToHToTauTau_M-155_8TeV-powheg-pythia6/Summer12_DR53X-PU_S10_START53_V7A-v1/AODSIM/PAT_CMG_V5_16_0'
p110
ssS'GenerateMask'
p111
(dp112
g3
(dp113
VPathList
p114
(lp115
V/store/cmst3/group/cmgtools/CMG/GluGluToHToTauTau_M-155_8TeV-powheg-pythia6/Summer12_DR53X-PU_S10_START53_V7A-v1/AODSIM/PAT_CMG_V5_16_0
p116
asVStageHost
p117
Vcastorcms
p118
sVPrimaryDatasetFraction
p119
F1.0
sVFilesGood
p120
I91
sVPrimaryDatasetEntries
p121
I907810
sVReportVersion
p122
I3
sVFiles
p123
(dp124
V/store/cmst3/group/cmgtools/CMG/GluGluToHToTauTau_M-155_8TeV-powheg-pythia6/Summer12_DR53X-PU_S10_START53_V7A-v1/AODSIM/PAT_CMG_V5_16_0/cmgTuple_61_1_5HN.root
p125
(lp126
I01
aI10000
asV/store/cmst3/group/cmgtools/CMG/GluGluToHToTauTau_M-155_8TeV-powheg-pythia6/Summer12_DR53X-PU_S10_START53_V7A-v1/AODSIM/PAT_CMG_V5_16_0/cmgTuple_76_1_ujs.root
p127
(lp128
I01
aI10000
asV/store/cmst3/group/cmgtools/CMG/GluGluToHToTauTau_M-155_8TeV-powheg-pythia6/Summer12_DR53X-PU_S10_START53_V7A-v1/AODSIM/PAT_CMG_V5_16_0/cmgTuple_19_1_je9.root
p129
(lp130
I01
aI10000
asV/store/cmst3/group/cmgtools/CMG/GluGluToHToTauTau_M-155_8TeV-powheg-pythia6/Summer12_DR53X-PU_S10_START53_V7A-v1/AODSIM/PAT_CMG_V5_16_0/cmgTuple_46_1_bvZ.root
p131
(lp132
I01
aI10000
asV/store/cmst3/group/cmgtools/CMG/GluGluToHToTauTau_M-155_8TeV-powheg-pythia6/Summer12_DR53X-PU_S10_START53_V7A-v1/AODSIM/PAT_CMG_V5_16_0/cmgTuple_70_1_M1X.root
p133
(lp134
I01
aI10000
asV/store/cmst3/group/cmgtools/CMG/GluGluToHToTauTau_M-155_8TeV-powheg-pythia6/Summer12_DR53X-PU_S10_START53_V7A-v1/AODSIM/PAT_CMG_V5_16_0/cmgTuple_75_1_cxj.root
p135
(lp136
I01
aI10000
asV/store/cmst3/group/cmgtools/CMG/GluGluToHToTauTau_M-155_8TeV-powheg-pythia6/Summer12_DR53X-PU_S10_START53_V7A-v1/AODSIM/PAT_CMG_V5_16_0/cmgTuple_25_1_el8.root
p137
(lp138
I01
aI10000
asV/store/cmst3/group/cmgtools/CMG/GluGluToHToTauTau_M-155_8TeV-powheg-pythia6/Summer12_DR53X-PU_S10_START53_V7A-v1/AODSIM/PAT_CMG_V5_16_0/cmgTuple_42_1_LU6.root
p139
(lp140
I01
aI10000
asV/store/cmst3/group/cmgtools/CMG/GluGluToHToTauTau_M-155_8TeV-powheg-pythia6/Summer12_DR53X-PU_S10_START53_V7A-v1/AODSIM/PAT_CMG_V5_16_0/cmgTuple_40_1_tNP.root
p141
(lp142
I01
aI10000
asV/store/cmst3/group/cmgtools/CMG/GluGluToHToTauTau_M-155_8TeV-powheg-pythia6/Summer12_DR53X-PU_S10_START53_V7A-v1/AODSIM/PAT_CMG_V5_16_0/cmgTuple_4_1_Cox.root
p143
(lp144
I01
aI10000
asV/store/cmst3/group/cmgtools/CMG/GluGluToHToTauTau_M-155_8TeV-powheg-pythia6/Summer12_DR53X-PU_S10_START53_V7A-v1/AODSIM/PAT_CMG_V5_16_0/cmgTuple_68_1_DT0.root
p145
(lp146
I01
aI10000
asV/store/cmst3/group/cmgtools/CMG/GluGluToHToTauTau_M-155_8TeV-powheg-pythia6/Summer12_DR53X-PU_S10_START53_V7A-v1/AODSIM/PAT_CMG_V5_16_0/cmgTuple_3_1_BPU.root
p147
(lp148
I01
aI10000
asV/store/cmst3/group/cmgtools/CMG/GluGluToHToTauTau_M-155_8TeV-powheg-pythia6/Summer12_DR53X-PU_S10_START53_V7A-v1/AODSIM/PAT_CMG_V5_16_0/cmgTuple_73_1_ywn.root
p149
(lp150
I01
aI10000
asV/store/cmst3/group/cmgtools/CMG/GluGluToHToTauTau_M-155_8TeV-powheg-pythia6/Summer12_DR53X-PU_S10_START53_V7A-v1/AODSIM/PAT_CMG_V5_16_0/cmgTuple_8_1_xPI.root
p151
(lp152
I01
aI10000
asV/store/cmst3/group/cmgtools/CMG/GluGluToHToTauTau_M-155_8TeV-powheg-pythia6/Summer12_DR53X-PU_S10_START53_V7A-v1/AODSIM/PAT_CMG_V5_16_0/cmgTuple_69_1_aI5.root
p153
(lp154
I01
aI10000
asV/store/cmst3/group/cmgtools/CMG/GluGluToHToTauTau_M-155_8TeV-powheg-pythia6/Summer12_DR53X-PU_S10_START53_V7A-v1/AODSIM/PAT_CMG_V5_16_0/cmgTuple_41_1_Vvy.root
p155
(lp156
I01
aI10000
asV/store/cmst3/group/cmgtools/CMG/GluGluToHToTauTau_M-155_8TeV-powheg-pythia6/Summer12_DR53X-PU_S10_START53_V7A-v1/AODSIM/PAT_CMG_V5_16_0/cmgTuple_62_1_FE7.root
p157
(lp158
I01
aI10000
asV/store/cmst3/group/cmgtools/CMG/GluGluToHToTauTau_M-155_8TeV-powheg-pythia6/Summer12_DR53X-PU_S10_START53_V7A-v1/AODSIM/PAT_CMG_V5_16_0/cmgTuple_85_1_0i1.root
p159
(lp160
I01
aI8997
asV/store/cmst3/group/cmgtools/CMG/GluGluToHToTauTau_M-155_8TeV-powheg-pythia6/Summer12_DR53X-PU_S10_START53_V7A-v1/AODSIM/PAT_CMG_V5_16_0/cmgTuple_55_1_t1k.root
p161
(lp162
I01
aI10000
asV/store/cmst3/group/cmgtools/CMG/GluGluToHToTauTau_M-155_8TeV-powheg-pythia6/Summer12_DR53X-PU_S10_START53_V7A-v1/AODSIM/PAT_CMG_V5_16_0/cmgTuple_23_1_iEW.root
p163
(lp164
I01
aI10000
asV/store/cmst3/group/cmgtools/CMG/GluGluToHToTauTau_M-155_8TeV-powheg-pythia6/Summer12_DR53X-PU_S10_START53_V7A-v1/AODSIM/PAT_CMG_V5_16_0/cmgTuple_74_1_Y9o.root
p165
(lp166
I01
aI10000
asV/store/cmst3/group/cmgtools/CMG/GluGluToHToTauTau_M-155_8TeV-powheg-pythia6/Summer12_DR53X-PU_S10_START53_V7A-v1/AODSIM/PAT_CMG_V5_16_0/cmgTuple_79_1_UEl.root
p167
(lp168
I01
aI10000
asV/store/cmst3/group/cmgtools/CMG/GluGluToHToTauTau_M-155_8TeV-powheg-pythia6/Summer12_DR53X-PU_S10_START53_V7A-v1/AODSIM/PAT_CMG_V5_16_0/cmgTuple_33_1_uL5.root
p169
(lp170
I01
aI10000
asV/store/cmst3/group/cmgtools/CMG/GluGluToHToTauTau_M-155_8TeV-powheg-pythia6/Summer12_DR53X-PU_S10_START53_V7A-v1/AODSIM/PAT_CMG_V5_16_0/cmgTuple_48_1_qN8.root
p171
(lp172
I01
aI10000
asV/store/cmst3/group/cmgtools/CMG/GluGluToHToTauTau_M-155_8TeV-powheg-pythia6/Summer12_DR53X-PU_S10_START53_V7A-v1/AODSIM/PAT_CMG_V5_16_0/cmgTuple_64_1_Iif.root
p173
(lp174
I01
aI10000
asV/store/cmst3/group/cmgtools/CMG/GluGluToHToTauTau_M-155_8TeV-powheg-pythia6/Summer12_DR53X-PU_S10_START53_V7A-v1/AODSIM/PAT_CMG_V5_16_0/cmgTuple_59_1_GFI.root
p175
(lp176
I01
aI10000
asV/store/cmst3/group/cmgtools/CMG/GluGluToHToTauTau_M-155_8TeV-powheg-pythia6/Summer12_DR53X-PU_S10_START53_V7A-v1/AODSIM/PAT_CMG_V5_16_0/cmgTuple_66_1_VUO.root
p177
(lp178
I01
aI10000
asV/store/cmst3/group/cmgtools/CMG/GluGluToHToTauTau_M-155_8TeV-powheg-pythia6/Summer12_DR53X-PU_S10_START53_V7A-v1/AODSIM/PAT_CMG_V5_16_0/cmgTuple_15_1_Skr.root
p179
(lp180
I01
aI10000
asV/store/cmst3/group/cmgtools/CMG/GluGluToHToTauTau_M-155_8TeV-powheg-pythia6/Summer12_DR53X-PU_S10_START53_V7A-v1/AODSIM/PAT_CMG_V5_16_0/cmgTuple_83_1_nXZ.root
p181
(lp182
I01
aI10000
asV/store/cmst3/group/cmgtools/CMG/GluGluToHToTauTau_M-155_8TeV-powheg-pythia6/Summer12_DR53X-PU_S10_START53_V7A-v1/AODSIM/PAT_CMG_V5_16_0/cmgTuple_39_1_3tZ.root
p183
(lp184
I01
aI10000
asV/store/cmst3/group/cmgtools/CMG/GluGluToHToTauTau_M-155_8TeV-powheg-pythia6/Summer12_DR53X-PU_S10_START53_V7A-v1/AODSIM/PAT_CMG_V5_16_0/cmgTuple_57_1_XuL.root
p185
(lp186
I01
aI10000
asV/store/cmst3/group/cmgtools/CMG/GluGluToHToTauTau_M-155_8TeV-powheg-pythia6/Summer12_DR53X-PU_S10_START53_V7A-v1/AODSIM/PAT_CMG_V5_16_0/cmgTuple_29_1_XhA.root
p187
(lp188
I01
aI10000
asV/store/cmst3/group/cmgtools/CMG/GluGluToHToTauTau_M-155_8TeV-powheg-pythia6/Summer12_DR53X-PU_S10_START53_V7A-v1/AODSIM/PAT_CMG_V5_16_0/cmgTuple_18_1_kSs.root
p189
(lp190
I01
aI10000
asV/store/cmst3/group/cmgtools/CMG/GluGluToHToTauTau_M-155_8TeV-powheg-pythia6/Summer12_DR53X-PU_S10_START53_V7A-v1/AODSIM/PAT_CMG_V5_16_0/cmgTuple_35_1_whc.root
p191
(lp192
I01
aI10000
asV/store/cmst3/group/cmgtools/CMG/GluGluToHToTauTau_M-155_8TeV-powheg-pythia6/Summer12_DR53X-PU_S10_START53_V7A-v1/AODSIM/PAT_CMG_V5_16_0/cmgTuple_13_1_XBD.root
p193
(lp194
I01
aI10000
asV/store/cmst3/group/cmgtools/CMG/GluGluToHToTauTau_M-155_8TeV-powheg-pythia6/Summer12_DR53X-PU_S10_START53_V7A-v1/AODSIM/PAT_CMG_V5_16_0/cmgTuple_10_1_Oi6.root
p195
(lp196
I01
aI10000
asV/store/cmst3/group/cmgtools/CMG/GluGluToHToTauTau_M-155_8TeV-powheg-pythia6/Summer12_DR53X-PU_S10_START53_V7A-v1/AODSIM/PAT_CMG_V5_16_0/cmgTuple_53_1_vyW.root
p197
(lp198
I01
aI10000
asV/store/cmst3/group/cmgtools/CMG/GluGluToHToTauTau_M-155_8TeV-powheg-pythia6/Summer12_DR53X-PU_S10_START53_V7A-v1/AODSIM/PAT_CMG_V5_16_0/cmgTuple_71_1_2Qf.root
p199
(lp200
I01
aI10000
asV/store/cmst3/group/cmgtools/CMG/GluGluToHToTauTau_M-155_8TeV-powheg-pythia6/Summer12_DR53X-PU_S10_START53_V7A-v1/AODSIM/PAT_CMG_V5_16_0/cmgTuple_38_1_gCb.root
p201
(lp202
I01
aI10000
asV/store/cmst3/group/cmgtools/CMG/GluGluToHToTauTau_M-155_8TeV-powheg-pythia6/Summer12_DR53X-PU_S10_START53_V7A-v1/AODSIM/PAT_CMG_V5_16_0/cmgTuple_26_1_syH.root
p203
(lp204
I01
aI10000
asV/store/cmst3/group/cmgtools/CMG/GluGluToHToTauTau_M-155_8TeV-powheg-pythia6/Summer12_DR53X-PU_S10_START53_V7A-v1/AODSIM/PAT_CMG_V5_16_0/cmgTuple_11_1_7XW.root
p205
(lp206
I01
aI10000
asV/store/cmst3/group/cmgtools/CMG/GluGluToHToTauTau_M-155_8TeV-powheg-pythia6/Summer12_DR53X-PU_S10_START53_V7A-v1/AODSIM/PAT_CMG_V5_16_0/cmgTuple_9_1_lXq.root
p207
(lp208
I01
aI10000
asV/store/cmst3/group/cmgtools/CMG/GluGluToHToTauTau_M-155_8TeV-powheg-pythia6/Summer12_DR53X-PU_S10_START53_V7A-v1/AODSIM/PAT_CMG_V5_16_0/cmgTuple_80_1_VUZ.root
p209
(lp210
I01
aI10000
asV/store/cmst3/group/cmgtools/CMG/GluGluToHToTauTau_M-155_8TeV-powheg-pythia6/Summer12_DR53X-PU_S10_START53_V7A-v1/AODSIM/PAT_CMG_V5_16_0/cmgTuple_30_1_D0V.root
p211
(lp212
I01
aI10000
asV/store/cmst3/group/cmgtools/CMG/GluGluToHToTauTau_M-155_8TeV-powheg-pythia6/Summer12_DR53X-PU_S10_START53_V7A-v1/AODSIM/PAT_CMG_V5_16_0/cmgTuple_51_1_KHm.root
p213
(lp214
I01
aI10000
asV/store/cmst3/group/cmgtools/CMG/GluGluToHToTauTau_M-155_8TeV-powheg-pythia6/Summer12_DR53X-PU_S10_START53_V7A-v1/AODSIM/PAT_CMG_V5_16_0/cmgTuple_82_1_1HA.root
p215
(lp216
I01
aI10000
asV/store/cmst3/group/cmgtools/CMG/GluGluToHToTauTau_M-155_8TeV-powheg-pythia6/Summer12_DR53X-PU_S10_START53_V7A-v1/AODSIM/PAT_CMG_V5_16_0/cmgTuple_17_1_VRq.root
p217
(lp218
I01
aI10000
asV/store/cmst3/group/cmgtools/CMG/GluGluToHToTauTau_M-155_8TeV-powheg-pythia6/Summer12_DR53X-PU_S10_START53_V7A-v1/AODSIM/PAT_CMG_V5_16_0/cmgTuple_44_1_GPs.root
p219
(lp220
I01
aI10000
asV/store/cmst3/group/cmgtools/CMG/GluGluToHToTauTau_M-155_8TeV-powheg-pythia6/Summer12_DR53X-PU_S10_START53_V7A-v1/AODSIM/PAT_CMG_V5_16_0/cmgTuple_34_1_BFZ.root
p221
(lp222
I01
aI10000
asV/store/cmst3/group/cmgtools/CMG/GluGluToHToTauTau_M-155_8TeV-powheg-pythia6/Summer12_DR53X-PU_S10_START53_V7A-v1/AODSIM/PAT_CMG_V5_16_0/cmgTuple_72_1_zBC.root
p223
(lp224
I01
aI10000
asV/store/cmst3/group/cmgtools/CMG/GluGluToHToTauTau_M-155_8TeV-powheg-pythia6/Summer12_DR53X-PU_S10_START53_V7A-v1/AODSIM/PAT_CMG_V5_16_0/cmgTuple_1_1_kTk.root
p225
(lp226
I01
aI10000
asV/store/cmst3/group/cmgtools/CMG/GluGluToHToTauTau_M-155_8TeV-powheg-pythia6/Summer12_DR53X-PU_S10_START53_V7A-v1/AODSIM/PAT_CMG_V5_16_0/cmgTuple_16_1_qwZ.root
p227
(lp228
I01
aI10000
asV/store/cmst3/group/cmgtools/CMG/GluGluToHToTauTau_M-155_8TeV-powheg-pythia6/Summer12_DR53X-PU_S10_START53_V7A-v1/AODSIM/PAT_CMG_V5_16_0/cmgTuple_5_1_1Rc.root
p229
(lp230
I01
aI10000
asV/store/cmst3/group/cmgtools/CMG/GluGluToHToTauTau_M-155_8TeV-powheg-pythia6/Summer12_DR53X-PU_S10_START53_V7A-v1/AODSIM/PAT_CMG_V5_16_0/cmgTuple_32_1_UO9.root
p231
(lp232
I01
aI10000
asV/store/cmst3/group/cmgtools/CMG/GluGluToHToTauTau_M-155_8TeV-powheg-pythia6/Summer12_DR53X-PU_S10_START53_V7A-v1/AODSIM/PAT_CMG_V5_16_0/cmgTuple_87_1_Uqm.root
p233
(lp234
I01
aI10000
asV/store/cmst3/group/cmgtools/CMG/GluGluToHToTauTau_M-155_8TeV-powheg-pythia6/Summer12_DR53X-PU_S10_START53_V7A-v1/AODSIM/PAT_CMG_V5_16_0/cmgTuple_24_1_ulT.root
p235
(lp236
I01
aI10000
asV/store/cmst3/group/cmgtools/CMG/GluGluToHToTauTau_M-155_8TeV-powheg-pythia6/Summer12_DR53X-PU_S10_START53_V7A-v1/AODSIM/PAT_CMG_V5_16_0/cmgTuple_86_1_pj9.root
p237
(lp238
I01
aI10000
asV/store/cmst3/group/cmgtools/CMG/GluGluToHToTauTau_M-155_8TeV-powheg-pythia6/Summer12_DR53X-PU_S10_START53_V7A-v1/AODSIM/PAT_CMG_V5_16_0/cmgTuple_2_1_AE3.root
p239
(lp240
I01
aI10000
asV/store/cmst3/group/cmgtools/CMG/GluGluToHToTauTau_M-155_8TeV-powheg-pythia6/Summer12_DR53X-PU_S10_START53_V7A-v1/AODSIM/PAT_CMG_V5_16_0/cmgTuple_67_1_74d.root
p241
(lp242
I01
aI10000
asV/store/cmst3/group/cmgtools/CMG/GluGluToHToTauTau_M-155_8TeV-powheg-pythia6/Summer12_DR53X-PU_S10_START53_V7A-v1/AODSIM/PAT_CMG_V5_16_0/cmgTuple_43_1_Go7.root
p243
(lp244
I01
aI10000
asV/store/cmst3/group/cmgtools/CMG/GluGluToHToTauTau_M-155_8TeV-powheg-pythia6/Summer12_DR53X-PU_S10_START53_V7A-v1/AODSIM/PAT_CMG_V5_16_0/cmgTuple_14_1_Ipb.root
p245
(lp246
I01
aI10000
asV/store/cmst3/group/cmgtools/CMG/GluGluToHToTauTau_M-155_8TeV-powheg-pythia6/Summer12_DR53X-PU_S10_START53_V7A-v1/AODSIM/PAT_CMG_V5_16_0/cmgTuple_21_1_Ek8.root
p247
(lp248
I01
aI10000
asV/store/cmst3/group/cmgtools/CMG/GluGluToHToTauTau_M-155_8TeV-powheg-pythia6/Summer12_DR53X-PU_S10_START53_V7A-v1/AODSIM/PAT_CMG_V5_16_0/cmgTuple_60_1_tc5.root
p249
(lp250
I01
aI10000
asV/store/cmst3/group/cmgtools/CMG/GluGluToHToTauTau_M-155_8TeV-powheg-pythia6/Summer12_DR53X-PU_S10_START53_V7A-v1/AODSIM/PAT_CMG_V5_16_0/cmgTuple_88_1_nic.root
p251
(lp252
I01
aI10000
asV/store/cmst3/group/cmgtools/CMG/GluGluToHToTauTau_M-155_8TeV-powheg-pythia6/Summer12_DR53X-PU_S10_START53_V7A-v1/AODSIM/PAT_CMG_V5_16_0/cmgTuple_7_1_SoN.root
p253
(lp254
I01
aI10000
asV/store/cmst3/group/cmgtools/CMG/GluGluToHToTauTau_M-155_8TeV-powheg-pythia6/Summer12_DR53X-PU_S10_START53_V7A-v1/AODSIM/PAT_CMG_V5_16_0/cmgTuple_37_1_9Gh.root
p255
(lp256
I01
aI10000
asV/store/cmst3/group/cmgtools/CMG/GluGluToHToTauTau_M-155_8TeV-powheg-pythia6/Summer12_DR53X-PU_S10_START53_V7A-v1/AODSIM/PAT_CMG_V5_16_0/cmgTuple_81_1_htL.root
p257
(lp258
I01
aI10000
asV/store/cmst3/group/cmgtools/CMG/GluGluToHToTauTau_M-155_8TeV-powheg-pythia6/Summer12_DR53X-PU_S10_START53_V7A-v1/AODSIM/PAT_CMG_V5_16_0/cmgTuple_31_1_58n.root
p259
(lp260
I01
aI10000
asV/store/cmst3/group/cmgtools/CMG/GluGluToHToTauTau_M-155_8TeV-powheg-pythia6/Summer12_DR53X-PU_S10_START53_V7A-v1/AODSIM/PAT_CMG_V5_16_0/cmgTuple_45_1_c9Y.root
p261
(lp262
I01
aI10000
asV/store/cmst3/group/cmgtools/CMG/GluGluToHToTauTau_M-155_8TeV-powheg-pythia6/Summer12_DR53X-PU_S10_START53_V7A-v1/AODSIM/PAT_CMG_V5_16_0/cmgTuple_28_1_YJi.root
p263
(lp264
I01
aI10000
asV/store/cmst3/group/cmgtools/CMG/GluGluToHToTauTau_M-155_8TeV-powheg-pythia6/Summer12_DR53X-PU_S10_START53_V7A-v1/AODSIM/PAT_CMG_V5_16_0/cmgTuple_52_1_V0y.root
p265
(lp266
I01
aI10000
asV/store/cmst3/group/cmgtools/CMG/GluGluToHToTauTau_M-155_8TeV-powheg-pythia6/Summer12_DR53X-PU_S10_START53_V7A-v1/AODSIM/PAT_CMG_V5_16_0/cmgTuple_50_1_Avq.root
p267
(lp268
I01
aI10000
asV/store/cmst3/group/cmgtools/CMG/GluGluToHToTauTau_M-155_8TeV-powheg-pythia6/Summer12_DR53X-PU_S10_START53_V7A-v1/AODSIM/PAT_CMG_V5_16_0/cmgTuple_65_1_jnD.root
p269
(lp270
I01
aI10000
asV/store/cmst3/group/cmgtools/CMG/GluGluToHToTauTau_M-155_8TeV-powheg-pythia6/Summer12_DR53X-PU_S10_START53_V7A-v1/AODSIM/PAT_CMG_V5_16_0/cmgTuple_49_1_B61.root
p271
(lp272
I01
aI10000
asV/store/cmst3/group/cmgtools/CMG/GluGluToHToTauTau_M-155_8TeV-powheg-pythia6/Summer12_DR53X-PU_S10_START53_V7A-v1/AODSIM/PAT_CMG_V5_16_0/cmgTuple_90_1_rQ4.root
p273
(lp274
I01
aI10000
asV/store/cmst3/group/cmgtools/CMG/GluGluToHToTauTau_M-155_8TeV-powheg-pythia6/Summer12_DR53X-PU_S10_START53_V7A-v1/AODSIM/PAT_CMG_V5_16_0/cmgTuple_47_1_Npw.root
p275
(lp276
I01
aI10000
asV/store/cmst3/group/cmgtools/CMG/GluGluToHToTauTau_M-155_8TeV-powheg-pythia6/Summer12_DR53X-PU_S10_START53_V7A-v1/AODSIM/PAT_CMG_V5_16_0/cmgTuple_22_1_lh8.root
p277
(lp278
I01
aI10000
asV/store/cmst3/group/cmgtools/CMG/GluGluToHToTauTau_M-155_8TeV-powheg-pythia6/Summer12_DR53X-PU_S10_START53_V7A-v1/AODSIM/PAT_CMG_V5_16_0/cmgTuple_27_1_dHk.root
p279
(lp280
I01
aI10000
asV/store/cmst3/group/cmgtools/CMG/GluGluToHToTauTau_M-155_8TeV-powheg-pythia6/Summer12_DR53X-PU_S10_START53_V7A-v1/AODSIM/PAT_CMG_V5_16_0/cmgTuple_54_1_sT7.root
p281
(lp282
I01
aI10000
asV/store/cmst3/group/cmgtools/CMG/GluGluToHToTauTau_M-155_8TeV-powheg-pythia6/Summer12_DR53X-PU_S10_START53_V7A-v1/AODSIM/PAT_CMG_V5_16_0/cmgTuple_58_1_mMy.root
p283
(lp284
I01
aI10000
asV/store/cmst3/group/cmgtools/CMG/GluGluToHToTauTau_M-155_8TeV-powheg-pythia6/Summer12_DR53X-PU_S10_START53_V7A-v1/AODSIM/PAT_CMG_V5_16_0/cmgTuple_20_1_B9J.root
p285
(lp286
I01
aI10000
asV/store/cmst3/group/cmgtools/CMG/GluGluToHToTauTau_M-155_8TeV-powheg-pythia6/Summer12_DR53X-PU_S10_START53_V7A-v1/AODSIM/PAT_CMG_V5_16_0/cmgTuple_84_1_NVI.root
p287
(lp288
I01
aI9719
asV/store/cmst3/group/cmgtools/CMG/GluGluToHToTauTau_M-155_8TeV-powheg-pythia6/Summer12_DR53X-PU_S10_START53_V7A-v1/AODSIM/PAT_CMG_V5_16_0/cmgTuple_12_1_5Kk.root
p289
(lp290
I01
aI10000
asV/store/cmst3/group/cmgtools/CMG/GluGluToHToTauTau_M-155_8TeV-powheg-pythia6/Summer12_DR53X-PU_S10_START53_V7A-v1/AODSIM/PAT_CMG_V5_16_0/cmgTuple_89_1_Rwj.root
p291
(lp292
I01
aI10000
asV/store/cmst3/group/cmgtools/CMG/GluGluToHToTauTau_M-155_8TeV-powheg-pythia6/Summer12_DR53X-PU_S10_START53_V7A-v1/AODSIM/PAT_CMG_V5_16_0/cmgTuple_56_1_bzZ.root
p293
(lp294
I01
aI10000
asV/store/cmst3/group/cmgtools/CMG/GluGluToHToTauTau_M-155_8TeV-powheg-pythia6/Summer12_DR53X-PU_S10_START53_V7A-v1/AODSIM/PAT_CMG_V5_16_0/cmgTuple_91_1_x8D.root
p295
(lp296
I01
aI9094
asV/store/cmst3/group/cmgtools/CMG/GluGluToHToTauTau_M-155_8TeV-powheg-pythia6/Summer12_DR53X-PU_S10_START53_V7A-v1/AODSIM/PAT_CMG_V5_16_0/cmgTuple_63_1_5jY.root
p297
(lp298
I01
aI10000
asV/store/cmst3/group/cmgtools/CMG/GluGluToHToTauTau_M-155_8TeV-powheg-pythia6/Summer12_DR53X-PU_S10_START53_V7A-v1/AODSIM/PAT_CMG_V5_16_0/cmgTuple_36_1_lF3.root
p299
(lp300
I01
aI10000
asV/store/cmst3/group/cmgtools/CMG/GluGluToHToTauTau_M-155_8TeV-powheg-pythia6/Summer12_DR53X-PU_S10_START53_V7A-v1/AODSIM/PAT_CMG_V5_16_0/cmgTuple_77_1_lB5.root
p301
(lp302
I01
aI10000
asV/store/cmst3/group/cmgtools/CMG/GluGluToHToTauTau_M-155_8TeV-powheg-pythia6/Summer12_DR53X-PU_S10_START53_V7A-v1/AODSIM/PAT_CMG_V5_16_0/cmgTuple_78_1_Cs7.root
p303
(lp304
I01
aI10000
asV/store/cmst3/group/cmgtools/CMG/GluGluToHToTauTau_M-155_8TeV-powheg-pythia6/Summer12_DR53X-PU_S10_START53_V7A-v1/AODSIM/PAT_CMG_V5_16_0/cmgTuple_6_1_Yvk.root
p305
(lp306
I01
aI10000
assVPhysicsGroup
p307
VCMG
p308
sVFilesCount
p309
I91
sVFilesEntries
p310
I907810
sVRunList
p311
(lp312
sVValidDuplicates
p313
(dp314
sVPrimaryDataset
p315
V/GluGluToHToTauTau_M-155_8TeV-powheg-pythia6/Summer12_DR53X-PU_S10_START53_V7A-v1/AODSIM
p316
sVStatus
p317
VVALID
p318
sVName
p319
V/GluGluToHToTauTau_M-155_8TeV-powheg-pythia6/Summer12_DR53X-PU_S10_START53_V7A-v1/AODSIM/PAT_CMG_V5_16_0
p320
sVTopdir
p321
V/eos/cms/store/cmst3/group/cmgtools/CMG
p322
sVdata
p323
(dp324
sVFilesBad
p325
I0
sVMinRun
p326
I-1
sVAlgoList
p327
(lp328
sVTierList
p329
(lp330
sVDateCreated
p331
V1370943185
p332
sVCreatedBy
p333
Vcmgtools_group
p334
sVMaxRun
p335
I-1
sVBadJobs
p336
(lp337
ssg85
I01
ssS'MonitorJobs'
p338
(dp339
S'LSFJobStatus'
p340
(dp341
g88
S'GluGluToHToTauTau_M-155_8TeV-powheg-pythia6/Summer12_DR53X-PU_S10_START53_V7A-v1/AODSIM/PAT_CMG_V5_16_0_1377467470/HTT_24Jul_newTES_manzoni_Up_Jobs/Job_4/LSFJOB_440970943/STDOUT.gz'
p342
sg89
S'GluGluToHToTauTau_M-155_8TeV-powheg-pythia6/Summer12_DR53X-PU_S10_START53_V7A-v1/AODSIM/PAT_CMG_V5_16_0_1377467470/HTT_24Jul_newTES_manzoni_Up_Jobs/Job_5/LSFJOB_440971025/STDOUT.gz'
p343
sg90
S'GluGluToHToTauTau_M-155_8TeV-powheg-pythia6/Summer12_DR53X-PU_S10_START53_V7A-v1/AODSIM/PAT_CMG_V5_16_0_1377467470/HTT_24Jul_newTES_manzoni_Up_Jobs/Job_6/LSFJOB_440971110/STDOUT.gz'
p344
sg91
S'GluGluToHToTauTau_M-155_8TeV-powheg-pythia6/Summer12_DR53X-PU_S10_START53_V7A-v1/AODSIM/PAT_CMG_V5_16_0_1377467470/HTT_24Jul_newTES_manzoni_Up_Jobs/Job_7/LSFJOB_440971224/STDOUT.gz'
p345
sg92
S'GluGluToHToTauTau_M-155_8TeV-powheg-pythia6/Summer12_DR53X-PU_S10_START53_V7A-v1/AODSIM/PAT_CMG_V5_16_0_1377467470/HTT_24Jul_newTES_manzoni_Up_Jobs/Job_1/LSFJOB_440970580/STDOUT.gz'
p346
sg93
S'GluGluToHToTauTau_M-155_8TeV-powheg-pythia6/Summer12_DR53X-PU_S10_START53_V7A-v1/AODSIM/PAT_CMG_V5_16_0_1377467470/HTT_24Jul_newTES_manzoni_Up_Jobs/Job_2/LSFJOB_440970730/STDOUT.gz'
p347
sg94
S'GluGluToHToTauTau_M-155_8TeV-powheg-pythia6/Summer12_DR53X-PU_S10_START53_V7A-v1/AODSIM/PAT_CMG_V5_16_0_1377467470/HTT_24Jul_newTES_manzoni_Up_Jobs/Job_3/LSFJOB_440970855/STDOUT.gz'
p348
sg95
S'GluGluToHToTauTau_M-155_8TeV-powheg-pythia6/Summer12_DR53X-PU_S10_START53_V7A-v1/AODSIM/PAT_CMG_V5_16_0_1377467470/HTT_24Jul_newTES_manzoni_Up_Jobs/Job_8/LSFJOB_440971339/STDOUT.gz'
p349
sg96
S'GluGluToHToTauTau_M-155_8TeV-powheg-pythia6/Summer12_DR53X-PU_S10_START53_V7A-v1/AODSIM/PAT_CMG_V5_16_0_1377467470/HTT_24Jul_newTES_manzoni_Up_Jobs/Job_9/LSFJOB_440971408/STDOUT.gz'
p350
sg97
S'GluGluToHToTauTau_M-155_8TeV-powheg-pythia6/Summer12_DR53X-PU_S10_START53_V7A-v1/AODSIM/PAT_CMG_V5_16_0_1377467470/HTT_24Jul_newTES_manzoni_Up_Jobs/Job_18/LSFJOB_440972315/STDOUT.gz'
p351
sg98
S'GluGluToHToTauTau_M-155_8TeV-powheg-pythia6/Summer12_DR53X-PU_S10_START53_V7A-v1/AODSIM/PAT_CMG_V5_16_0_1377467470/HTT_24Jul_newTES_manzoni_Up_Jobs/Job_19/LSFJOB_440972402/STDOUT.gz'
p352
sg99
S'GluGluToHToTauTau_M-155_8TeV-powheg-pythia6/Summer12_DR53X-PU_S10_START53_V7A-v1/AODSIM/PAT_CMG_V5_16_0_1377467470/HTT_24Jul_newTES_manzoni_Up_Jobs/Job_16/LSFJOB_440972131/STDOUT.gz'
p353
sg100
S'GluGluToHToTauTau_M-155_8TeV-powheg-pythia6/Summer12_DR53X-PU_S10_START53_V7A-v1/AODSIM/PAT_CMG_V5_16_0_1377467470/HTT_24Jul_newTES_manzoni_Up_Jobs/Job_17/LSFJOB_440972222/STDOUT.gz'
p354
sg101
S'GluGluToHToTauTau_M-155_8TeV-powheg-pythia6/Summer12_DR53X-PU_S10_START53_V7A-v1/AODSIM/PAT_CMG_V5_16_0_1377467470/HTT_24Jul_newTES_manzoni_Up_Jobs/Job_14/LSFJOB_440971897/STDOUT.gz'
p355
sg102
S'GluGluToHToTauTau_M-155_8TeV-powheg-pythia6/Summer12_DR53X-PU_S10_START53_V7A-v1/AODSIM/PAT_CMG_V5_16_0_1377467470/HTT_24Jul_newTES_manzoni_Up_Jobs/Job_15/LSFJOB_440972038/STDOUT.gz'
p356
sg103
S'GluGluToHToTauTau_M-155_8TeV-powheg-pythia6/Summer12_DR53X-PU_S10_START53_V7A-v1/AODSIM/PAT_CMG_V5_16_0_1377467470/HTT_24Jul_newTES_manzoni_Up_Jobs/Job_12/LSFJOB_440971665/STDOUT.gz'
p357
sg104
S'GluGluToHToTauTau_M-155_8TeV-powheg-pythia6/Summer12_DR53X-PU_S10_START53_V7A-v1/AODSIM/PAT_CMG_V5_16_0_1377467470/HTT_24Jul_newTES_manzoni_Up_Jobs/Job_13/LSFJOB_440971794/STDOUT.gz'
p358
sg105
S'GluGluToHToTauTau_M-155_8TeV-powheg-pythia6/Summer12_DR53X-PU_S10_START53_V7A-v1/AODSIM/PAT_CMG_V5_16_0_1377467470/HTT_24Jul_newTES_manzoni_Up_Jobs/Job_10/LSFJOB_440971474/STDOUT.gz'
p359
sg106
S'GluGluToHToTauTau_M-155_8TeV-powheg-pythia6/Summer12_DR53X-PU_S10_START53_V7A-v1/AODSIM/PAT_CMG_V5_16_0_1377467470/HTT_24Jul_newTES_manzoni_Up_Jobs/Job_11/LSFJOB_440971580/STDOUT.gz'
p360
ssS'LSFJobIDs'
p361
(dp362
g88
S'440970943'
p363
sg89
S'440971025'
p364
sg90
S'440971110'
p365
sg91
S'440971224'
p366
sg92
S'440970580'
p367
sg93
S'440970730'
p368
sg94
S'440970855'
p369
sg95
S'440971339'
p370
sg96
S'440971408'
p371
sg97
S'440972315'
p372
sg98
S'440972402'
p373
sg99
S'440972131'
p374
sg100
S'440972222'
p375
sg101
S'440971897'
p376
sg102
S'440972038'
p377
sg103
S'440971665'
p378
sg104
S'440971794'
p379
sg105
S'440971474'
p380
sg106
S'440971580'
p381
sssS'FindOnCastor'
p382
(dp383
g47
S'/eos/cms/store/cmst3/group/cmgtools/CMG'
p384
sS'Directory'
p385
S'/eos/cms/store/cmst3/group/cmgtools/CMG/GluGluToHToTauTau_M-155_8TeV-powheg-pythia6/Summer12_DR53X-PU_S10_START53_V7A-v1/AODSIM/PAT_CMG_V5_16_0'
p386
ssS'CheckConfig'
p387
(dp388
g63
g64
ssS'FullCFG'
p389
(dp390
S'FullCFG'
p391
S'GluGluToHToTauTau_M-155_8TeV-powheg-pythia6/Summer12_DR53X-PU_S10_START53_V7A-v1/AODSIM/PAT_CMG_V5_16_0_1377467470/full_cfg.py'
p392
ssS'WriteJobReport'
p393
(dp394
S'SummaryFile'
p395
S'GluGluToHToTauTau_M-155_8TeV-powheg-pythia6/Summer12_DR53X-PU_S10_START53_V7A-v1/AODSIM/PAT_CMG_V5_16_0_1377467470/resubmit.sh'
p396
ssS'ExpandConfig'
p397
(dp398
S'ExpandedFullCFG'
p399
S'GluGluToHToTauTau_M-155_8TeV-powheg-pythia6/Summer12_DR53X-PU_S10_START53_V7A-v1/AODSIM/PAT_CMG_V5_16_0_1377467470/Expandedfull_cfg.py'
p400
ssS'RunTestEvents'
p401
(dp402
g63
g64
sS'TestCFG'
p403
S'GluGluToHToTauTau_M-155_8TeV-powheg-pythia6/Summer12_DR53X-PU_S10_START53_V7A-v1/AODSIM/PAT_CMG_V5_16_0_1377467470/test_cfg.py'
p404
ssS'SourceCFG'
p405
(dp406
S'SourceCFG'
p407
S'GluGluToHToTauTau_M-155_8TeV-powheg-pythia6/Summer12_DR53X-PU_S10_START53_V7A-v1/AODSIM/PAT_CMG_V5_16_0_1377467470/source_cfg.py'
p408
ssS'CheckForWrite'
p409
(dp410
g385
g386
sS'WriteAccess'
p411
I01
ssS'WriteToDatasets'
p412
(dp413
S'Added'
p414
I00
sg45
S'/GluGluToHToTauTau_M-155_8TeV-powheg-pythia6/Summer12_DR53X-PU_S10_START53_V7A-v1/AODSIM/PAT_CMG_V5_16_0/HTT_24Jul_newTES_manzoni_Up'
p415
sS'User'
p416
g78
ssS'RunCMSBatch'
p417
(dp418
S'BatchUser'
p419
g78
sS'SampleOutputDir'
p420
S'/store/cmst3/user/manzoni/CMG/GluGluToHToTauTau_M-155_8TeV-powheg-pythia6/Summer12_DR53X-PU_S10_START53_V7A-v1/AODSIM/PAT_CMG_V5_16_0/HTT_24Jul_newTES_manzoni_Up'
p421
sS'SampleDataset'
p422
g46
sS'LSFJobsTopDir'
p423
S'GluGluToHToTauTau_M-155_8TeV-powheg-pythia6/Summer12_DR53X-PU_S10_START53_V7A-v1/AODSIM/PAT_CMG_V5_16_0_1377467470/HTT_24Jul_newTES_manzoni_Up_Jobs'
p424
ssS'CreateJobDirectory'
p425
(dp426
S'JobDir'
p427
S'GluGluToHToTauTau_M-155_8TeV-powheg-pythia6/Summer12_DR53X-PU_S10_START53_V7A-v1/AODSIM/PAT_CMG_V5_16_0_1377467470'
p428
sS'PWD'
p429
S'/afs/cern.ch/user/m/manzoni/summer13/CMGTools/CMSSW_5_3_9/src/CMGTools/H2TauTau/prod/25aug_corrMC/up/mc'
p430
ssS'CleanJobFiles'
p431
(dp432
S'Compressed'
p433
(dp434
S'CompressedFiles'
p435
(lp436
ssS'Cleaned'
p437
(dp438
S'CleanedFiles'
p439
(lp440
g400
ag404
aS'GluGluToHToTauTau_M-155_8TeV-powheg-pythia6/Summer12_DR53X-PU_S10_START53_V7A-v1/AODSIM/PAT_CMG_V5_16_0_1377467470/diTau_fullsel_tree_CMG.root'
p441
aS'GluGluToHToTauTau_M-155_8TeV-powheg-pythia6/Summer12_DR53X-PU_S10_START53_V7A-v1/AODSIM/PAT_CMG_V5_16_0_1377467470/source_cfg.pyc'
p442
aS'GluGluToHToTauTau_M-155_8TeV-powheg-pythia6/Summer12_DR53X-PU_S10_START53_V7A-v1/AODSIM/PAT_CMG_V5_16_0_1377467470/Expandedfull_cfg.pyc'
p443
asssS'CheckForMask'
p444
(dp445
g3
g113
sg85
I01
ss.