(dp0
S'CheckJobStatus'
p1
(dp2
S'Report'
p3
(dp4
S'Files'
p5
(dp6
S'/store/cmst3/user/manzoni/CMG/DY4JetsToLL_M-50_TuneZ2Star_8TeV-madgraph/Summer12_DR53X-PU_S10_START53_V7A-v1/AODSIM/V5_B/PAT_CMG_V5_16_0/HTT_24Jul_newTES_manzoni_Up/diTau_fullsel_tree_CMG_126.root'
p7
(I01
I2529
tp8
sS'/store/cmst3/user/manzoni/CMG/DY4JetsToLL_M-50_TuneZ2Star_8TeV-madgraph/Summer12_DR53X-PU_S10_START53_V7A-v1/AODSIM/V5_B/PAT_CMG_V5_16_0/HTT_24Jul_newTES_manzoni_Up/diTau_fullsel_tree_CMG_100.root'
p9
(I01
I3671
tp10
sS'/store/cmst3/user/manzoni/CMG/DY4JetsToLL_M-50_TuneZ2Star_8TeV-madgraph/Summer12_DR53X-PU_S10_START53_V7A-v1/AODSIM/V5_B/PAT_CMG_V5_16_0/HTT_24Jul_newTES_manzoni_Up/diTau_fullsel_tree_CMG_47.root'
p11
(I01
I3822
tp12
sS'/store/cmst3/user/manzoni/CMG/DY4JetsToLL_M-50_TuneZ2Star_8TeV-madgraph/Summer12_DR53X-PU_S10_START53_V7A-v1/AODSIM/V5_B/PAT_CMG_V5_16_0/HTT_24Jul_newTES_manzoni_Up/diTau_fullsel_tree_CMG_27.root'
p13
(I01
I4422
tp14
sS'/store/cmst3/user/manzoni/CMG/DY4JetsToLL_M-50_TuneZ2Star_8TeV-madgraph/Summer12_DR53X-PU_S10_START53_V7A-v1/AODSIM/V5_B/PAT_CMG_V5_16_0/HTT_24Jul_newTES_manzoni_Up/diTau_fullsel_tree_CMG_121.root'
p15
(I01
I4267
tp16
sS'/store/cmst3/user/manzoni/CMG/DY4JetsToLL_M-50_TuneZ2Star_8TeV-madgraph/Summer12_DR53X-PU_S10_START53_V7A-v1/AODSIM/V5_B/PAT_CMG_V5_16_0/HTT_24Jul_newTES_manzoni_Up/diTau_fullsel_tree_CMG_77.root'
p17
(I01
I4118
tp18
sS'/store/cmst3/user/manzoni/CMG/DY4JetsToLL_M-50_TuneZ2Star_8TeV-madgraph/Summer12_DR53X-PU_S10_START53_V7A-v1/AODSIM/V5_B/PAT_CMG_V5_16_0/HTT_24Jul_newTES_manzoni_Up/diTau_fullsel_tree_CMG_116.root'
p19
(I01
I4265
tp20
sS'/store/cmst3/user/manzoni/CMG/DY4JetsToLL_M-50_TuneZ2Star_8TeV-madgraph/Summer12_DR53X-PU_S10_START53_V7A-v1/AODSIM/V5_B/PAT_CMG_V5_16_0/HTT_24Jul_newTES_manzoni_Up/diTau_fullsel_tree_CMG_13.root'
p21
(I01
I4121
tp22
sS'/store/cmst3/user/manzoni/CMG/DY4JetsToLL_M-50_TuneZ2Star_8TeV-madgraph/Summer12_DR53X-PU_S10_START53_V7A-v1/AODSIM/V5_B/PAT_CMG_V5_16_0/HTT_24Jul_newTES_manzoni_Up/diTau_fullsel_tree_CMG_58.root'
p23
(I01
I3716
tp24
sS'/store/cmst3/user/manzoni/CMG/DY4JetsToLL_M-50_TuneZ2Star_8TeV-madgraph/Summer12_DR53X-PU_S10_START53_V7A-v1/AODSIM/V5_B/PAT_CMG_V5_16_0/HTT_24Jul_newTES_manzoni_Up/diTau_fullsel_tree_CMG_102.root'
p25
(I01
I3939
tp26
sS'/store/cmst3/user/manzoni/CMG/DY4JetsToLL_M-50_TuneZ2Star_8TeV-madgraph/Summer12_DR53X-PU_S10_START53_V7A-v1/AODSIM/V5_B/PAT_CMG_V5_16_0/HTT_24Jul_newTES_manzoni_Up/diTau_fullsel_tree_CMG_123.root'
p27
(I01
I3736
tp28
sS'/store/cmst3/user/manzoni/CMG/DY4JetsToLL_M-50_TuneZ2Star_8TeV-madgraph/Summer12_DR53X-PU_S10_START53_V7A-v1/AODSIM/V5_B/PAT_CMG_V5_16_0/HTT_24Jul_newTES_manzoni_Up/diTau_fullsel_tree_CMG_33.root'
p29
(I01
I3997
tp30
sS'/store/cmst3/user/manzoni/CMG/DY4JetsToLL_M-50_TuneZ2Star_8TeV-madgraph/Summer12_DR53X-PU_S10_START53_V7A-v1/AODSIM/V5_B/PAT_CMG_V5_16_0/HTT_24Jul_newTES_manzoni_Up/diTau_fullsel_tree_CMG_80.root'
p31
(I01
I4167
tp32
sS'/store/cmst3/user/manzoni/CMG/DY4JetsToLL_M-50_TuneZ2Star_8TeV-madgraph/Summer12_DR53X-PU_S10_START53_V7A-v1/AODSIM/V5_B/PAT_CMG_V5_16_0/HTT_24Jul_newTES_manzoni_Up/diTau_fullsel_tree_CMG_122.root'
p33
(I01
I4150
tp34
sS'/store/cmst3/user/manzoni/CMG/DY4JetsToLL_M-50_TuneZ2Star_8TeV-madgraph/Summer12_DR53X-PU_S10_START53_V7A-v1/AODSIM/V5_B/PAT_CMG_V5_16_0/HTT_24Jul_newTES_manzoni_Up/diTau_fullsel_tree_CMG_21.root'
p35
(I01
I4005
tp36
sS'/store/cmst3/user/manzoni/CMG/DY4JetsToLL_M-50_TuneZ2Star_8TeV-madgraph/Summer12_DR53X-PU_S10_START53_V7A-v1/AODSIM/V5_B/PAT_CMG_V5_16_0/HTT_24Jul_newTES_manzoni_Up/diTau_fullsel_tree_CMG_46.root'
p37
(I01
I3564
tp38
sS'/store/cmst3/user/manzoni/CMG/DY4JetsToLL_M-50_TuneZ2Star_8TeV-madgraph/Summer12_DR53X-PU_S10_START53_V7A-v1/AODSIM/V5_B/PAT_CMG_V5_16_0/HTT_24Jul_newTES_manzoni_Up/diTau_fullsel_tree_CMG_73.root'
p39
(I01
I4187
tp40
sS'/store/cmst3/user/manzoni/CMG/DY4JetsToLL_M-50_TuneZ2Star_8TeV-madgraph/Summer12_DR53X-PU_S10_START53_V7A-v1/AODSIM/V5_B/PAT_CMG_V5_16_0/HTT_24Jul_newTES_manzoni_Up/diTau_fullsel_tree_CMG_52.root'
p41
(I01
I3901
tp42
sS'/store/cmst3/user/manzoni/CMG/DY4JetsToLL_M-50_TuneZ2Star_8TeV-madgraph/Summer12_DR53X-PU_S10_START53_V7A-v1/AODSIM/V5_B/PAT_CMG_V5_16_0/HTT_24Jul_newTES_manzoni_Up/diTau_fullsel_tree_CMG_87.root'
p43
(I01
I4018
tp44
sS'/store/cmst3/user/manzoni/CMG/DY4JetsToLL_M-50_TuneZ2Star_8TeV-madgraph/Summer12_DR53X-PU_S10_START53_V7A-v1/AODSIM/V5_B/PAT_CMG_V5_16_0/HTT_24Jul_newTES_manzoni_Up/diTau_fullsel_tree_CMG_68.root'
p45
(I01
I3304
tp46
sS'/store/cmst3/user/manzoni/CMG/DY4JetsToLL_M-50_TuneZ2Star_8TeV-madgraph/Summer12_DR53X-PU_S10_START53_V7A-v1/AODSIM/V5_B/PAT_CMG_V5_16_0/HTT_24Jul_newTES_manzoni_Up/diTau_fullsel_tree_CMG_97.root'
p47
(I01
I4177
tp48
sS'/store/cmst3/user/manzoni/CMG/DY4JetsToLL_M-50_TuneZ2Star_8TeV-madgraph/Summer12_DR53X-PU_S10_START53_V7A-v1/AODSIM/V5_B/PAT_CMG_V5_16_0/HTT_24Jul_newTES_manzoni_Up/diTau_fullsel_tree_CMG_18.root'
p49
(I01
I4307
tp50
sS'/store/cmst3/user/manzoni/CMG/DY4JetsToLL_M-50_TuneZ2Star_8TeV-madgraph/Summer12_DR53X-PU_S10_START53_V7A-v1/AODSIM/V5_B/PAT_CMG_V5_16_0/HTT_24Jul_newTES_manzoni_Up/diTau_fullsel_tree_CMG_3.root'
p51
(I01
I3875
tp52
sS'/store/cmst3/user/manzoni/CMG/DY4JetsToLL_M-50_TuneZ2Star_8TeV-madgraph/Summer12_DR53X-PU_S10_START53_V7A-v1/AODSIM/V5_B/PAT_CMG_V5_16_0/HTT_24Jul_newTES_manzoni_Up/diTau_fullsel_tree_CMG_63.root'
p53
(I01
I4067
tp54
sS'/store/cmst3/user/manzoni/CMG/DY4JetsToLL_M-50_TuneZ2Star_8TeV-madgraph/Summer12_DR53X-PU_S10_START53_V7A-v1/AODSIM/V5_B/PAT_CMG_V5_16_0/HTT_24Jul_newTES_manzoni_Up/diTau_fullsel_tree_CMG_39.root'
p55
(I01
I4203
tp56
sS'/store/cmst3/user/manzoni/CMG/DY4JetsToLL_M-50_TuneZ2Star_8TeV-madgraph/Summer12_DR53X-PU_S10_START53_V7A-v1/AODSIM/V5_B/PAT_CMG_V5_16_0/HTT_24Jul_newTES_manzoni_Up/diTau_fullsel_tree_CMG_82.root'
p57
(I01
I3787
tp58
sS'/store/cmst3/user/manzoni/CMG/DY4JetsToLL_M-50_TuneZ2Star_8TeV-madgraph/Summer12_DR53X-PU_S10_START53_V7A-v1/AODSIM/V5_B/PAT_CMG_V5_16_0/HTT_24Jul_newTES_manzoni_Up/diTau_fullsel_tree_CMG_41.root'
p59
(I01
I4281
tp60
sS'/store/cmst3/user/manzoni/CMG/DY4JetsToLL_M-50_TuneZ2Star_8TeV-madgraph/Summer12_DR53X-PU_S10_START53_V7A-v1/AODSIM/V5_B/PAT_CMG_V5_16_0/HTT_24Jul_newTES_manzoni_Up/diTau_fullsel_tree_CMG_62.root'
p61
(I01
I3886
tp62
sS'/store/cmst3/user/manzoni/CMG/DY4JetsToLL_M-50_TuneZ2Star_8TeV-madgraph/Summer12_DR53X-PU_S10_START53_V7A-v1/AODSIM/V5_B/PAT_CMG_V5_16_0/HTT_24Jul_newTES_manzoni_Up/diTau_fullsel_tree_CMG_86.root'
p63
(I01
I3833
tp64
sS'/store/cmst3/user/manzoni/CMG/DY4JetsToLL_M-50_TuneZ2Star_8TeV-madgraph/Summer12_DR53X-PU_S10_START53_V7A-v1/AODSIM/V5_B/PAT_CMG_V5_16_0/HTT_24Jul_newTES_manzoni_Up/diTau_fullsel_tree_CMG_38.root'
p65
(I01
I4086
tp66
sS'/store/cmst3/user/manzoni/CMG/DY4JetsToLL_M-50_TuneZ2Star_8TeV-madgraph/Summer12_DR53X-PU_S10_START53_V7A-v1/AODSIM/V5_B/PAT_CMG_V5_16_0/HTT_24Jul_newTES_manzoni_Up/diTau_fullsel_tree_CMG_57.root'
p67
(I01
I4133
tp68
sS'/store/cmst3/user/manzoni/CMG/DY4JetsToLL_M-50_TuneZ2Star_8TeV-madgraph/Summer12_DR53X-PU_S10_START53_V7A-v1/AODSIM/V5_B/PAT_CMG_V5_16_0/HTT_24Jul_newTES_manzoni_Up/diTau_fullsel_tree_CMG_19.root'
p69
(I01
I4191
tp70
sS'/store/cmst3/user/manzoni/CMG/DY4JetsToLL_M-50_TuneZ2Star_8TeV-madgraph/Summer12_DR53X-PU_S10_START53_V7A-v1/AODSIM/V5_B/PAT_CMG_V5_16_0/HTT_24Jul_newTES_manzoni_Up/diTau_fullsel_tree_CMG_9.root'
p71
(I01
I3731
tp72
sS'/store/cmst3/user/manzoni/CMG/DY4JetsToLL_M-50_TuneZ2Star_8TeV-madgraph/Summer12_DR53X-PU_S10_START53_V7A-v1/AODSIM/V5_B/PAT_CMG_V5_16_0/HTT_24Jul_newTES_manzoni_Up/diTau_fullsel_tree_CMG_109.root'
p73
(I01
I4351
tp74
sS'/store/cmst3/user/manzoni/CMG/DY4JetsToLL_M-50_TuneZ2Star_8TeV-madgraph/Summer12_DR53X-PU_S10_START53_V7A-v1/AODSIM/V5_B/PAT_CMG_V5_16_0/HTT_24Jul_newTES_manzoni_Up/diTau_fullsel_tree_CMG_24.root'
p75
(I01
I4315
tp76
sS'/store/cmst3/user/manzoni/CMG/DY4JetsToLL_M-50_TuneZ2Star_8TeV-madgraph/Summer12_DR53X-PU_S10_START53_V7A-v1/AODSIM/V5_B/PAT_CMG_V5_16_0/HTT_24Jul_newTES_manzoni_Up/diTau_fullsel_tree_CMG_106.root'
p77
(I01
I4288
tp78
sS'/store/cmst3/user/manzoni/CMG/DY4JetsToLL_M-50_TuneZ2Star_8TeV-madgraph/Summer12_DR53X-PU_S10_START53_V7A-v1/AODSIM/V5_B/PAT_CMG_V5_16_0/HTT_24Jul_newTES_manzoni_Up/diTau_fullsel_tree_CMG_60.root'
p79
(I01
I4016
tp80
sS'/store/cmst3/user/manzoni/CMG/DY4JetsToLL_M-50_TuneZ2Star_8TeV-madgraph/Summer12_DR53X-PU_S10_START53_V7A-v1/AODSIM/V5_B/PAT_CMG_V5_16_0/HTT_24Jul_newTES_manzoni_Up/diTau_fullsel_tree_CMG_31.root'
p81
(I01
I3717
tp82
sS'/store/cmst3/user/manzoni/CMG/DY4JetsToLL_M-50_TuneZ2Star_8TeV-madgraph/Summer12_DR53X-PU_S10_START53_V7A-v1/AODSIM/V5_B/PAT_CMG_V5_16_0/HTT_24Jul_newTES_manzoni_Up/diTau_fullsel_tree_CMG_108.root'
p83
(I01
I3896
tp84
sS'/store/cmst3/user/manzoni/CMG/DY4JetsToLL_M-50_TuneZ2Star_8TeV-madgraph/Summer12_DR53X-PU_S10_START53_V7A-v1/AODSIM/V5_B/PAT_CMG_V5_16_0/HTT_24Jul_newTES_manzoni_Up/diTau_fullsel_tree_CMG_55.root'
p85
(I01
I4168
tp86
sS'/store/cmst3/user/manzoni/CMG/DY4JetsToLL_M-50_TuneZ2Star_8TeV-madgraph/Summer12_DR53X-PU_S10_START53_V7A-v1/AODSIM/V5_B/PAT_CMG_V5_16_0/HTT_24Jul_newTES_manzoni_Up/diTau_fullsel_tree_CMG_125.root'
p87
(I01
I3821
tp88
sS'/store/cmst3/user/manzoni/CMG/DY4JetsToLL_M-50_TuneZ2Star_8TeV-madgraph/Summer12_DR53X-PU_S10_START53_V7A-v1/AODSIM/V5_B/PAT_CMG_V5_16_0/HTT_24Jul_newTES_manzoni_Up/diTau_fullsel_tree_CMG_59.root'
p89
(I01
I4104
tp90
sS'/store/cmst3/user/manzoni/CMG/DY4JetsToLL_M-50_TuneZ2Star_8TeV-madgraph/Summer12_DR53X-PU_S10_START53_V7A-v1/AODSIM/V5_B/PAT_CMG_V5_16_0/HTT_24Jul_newTES_manzoni_Up/diTau_fullsel_tree_CMG_96.root'
p91
(I01
I4311
tp92
sS'/store/cmst3/user/manzoni/CMG/DY4JetsToLL_M-50_TuneZ2Star_8TeV-madgraph/Summer12_DR53X-PU_S10_START53_V7A-v1/AODSIM/V5_B/PAT_CMG_V5_16_0/HTT_24Jul_newTES_manzoni_Up/diTau_fullsel_tree_CMG_1.root'
p93
(I01
I3941
tp94
sS'/store/cmst3/user/manzoni/CMG/DY4JetsToLL_M-50_TuneZ2Star_8TeV-madgraph/Summer12_DR53X-PU_S10_START53_V7A-v1/AODSIM/V5_B/PAT_CMG_V5_16_0/HTT_24Jul_newTES_manzoni_Up/diTau_fullsel_tree_CMG_78.root'
p95
(I01
I4002
tp96
sS'/store/cmst3/user/manzoni/CMG/DY4JetsToLL_M-50_TuneZ2Star_8TeV-madgraph/Summer12_DR53X-PU_S10_START53_V7A-v1/AODSIM/V5_B/PAT_CMG_V5_16_0/HTT_24Jul_newTES_manzoni_Up/diTau_fullsel_tree_CMG_81.root'
p97
(I01
I4128
tp98
sS'/store/cmst3/user/manzoni/CMG/DY4JetsToLL_M-50_TuneZ2Star_8TeV-madgraph/Summer12_DR53X-PU_S10_START53_V7A-v1/AODSIM/V5_B/PAT_CMG_V5_16_0/HTT_24Jul_newTES_manzoni_Up/diTau_fullsel_tree_CMG_69.root'
p99
(I01
I4186
tp100
sS'/store/cmst3/user/manzoni/CMG/DY4JetsToLL_M-50_TuneZ2Star_8TeV-madgraph/Summer12_DR53X-PU_S10_START53_V7A-v1/AODSIM/V5_B/PAT_CMG_V5_16_0/HTT_24Jul_newTES_manzoni_Up/diTau_fullsel_tree_CMG_15.root'
p101
(I01
I3961
tp102
sS'/store/cmst3/user/manzoni/CMG/DY4JetsToLL_M-50_TuneZ2Star_8TeV-madgraph/Summer12_DR53X-PU_S10_START53_V7A-v1/AODSIM/V5_B/PAT_CMG_V5_16_0/HTT_24Jul_newTES_manzoni_Up/diTau_fullsel_tree_CMG_30.root'
p103
(I01
I4006
tp104
sS'/store/cmst3/user/manzoni/CMG/DY4JetsToLL_M-50_TuneZ2Star_8TeV-madgraph/Summer12_DR53X-PU_S10_START53_V7A-v1/AODSIM/V5_B/PAT_CMG_V5_16_0/HTT_24Jul_newTES_manzoni_Up/diTau_fullsel_tree_CMG_119.root'
p105
(I01
I4184
tp106
sS'/store/cmst3/user/manzoni/CMG/DY4JetsToLL_M-50_TuneZ2Star_8TeV-madgraph/Summer12_DR53X-PU_S10_START53_V7A-v1/AODSIM/V5_B/PAT_CMG_V5_16_0/HTT_24Jul_newTES_manzoni_Up/diTau_fullsel_tree_CMG_92.root'
p107
(I01
I3962
tp108
sS'/store/cmst3/user/manzoni/CMG/DY4JetsToLL_M-50_TuneZ2Star_8TeV-madgraph/Summer12_DR53X-PU_S10_START53_V7A-v1/AODSIM/V5_B/PAT_CMG_V5_16_0/HTT_24Jul_newTES_manzoni_Up/diTau_fullsel_tree_CMG_67.root'
p109
(I01
I3953
tp110
sS'/store/cmst3/user/manzoni/CMG/DY4JetsToLL_M-50_TuneZ2Star_8TeV-madgraph/Summer12_DR53X-PU_S10_START53_V7A-v1/AODSIM/V5_B/PAT_CMG_V5_16_0/HTT_24Jul_newTES_manzoni_Up/diTau_fullsel_tree_CMG_22.root'
p111
(I01
I3866
tp112
sS'/store/cmst3/user/manzoni/CMG/DY4JetsToLL_M-50_TuneZ2Star_8TeV-madgraph/Summer12_DR53X-PU_S10_START53_V7A-v1/AODSIM/V5_B/PAT_CMG_V5_16_0/HTT_24Jul_newTES_manzoni_Up/diTau_fullsel_tree_CMG_42.root'
p113
(I01
I3713
tp114
sS'/store/cmst3/user/manzoni/CMG/DY4JetsToLL_M-50_TuneZ2Star_8TeV-madgraph/Summer12_DR53X-PU_S10_START53_V7A-v1/AODSIM/V5_B/PAT_CMG_V5_16_0/HTT_24Jul_newTES_manzoni_Up/diTau_fullsel_tree_CMG_50.root'
p115
(I01
I3932
tp116
sS'/store/cmst3/user/manzoni/CMG/DY4JetsToLL_M-50_TuneZ2Star_8TeV-madgraph/Summer12_DR53X-PU_S10_START53_V7A-v1/AODSIM/V5_B/PAT_CMG_V5_16_0/HTT_24Jul_newTES_manzoni_Up/diTau_fullsel_tree_CMG_34.root'
p117
(I01
I4408
tp118
sS'/store/cmst3/user/manzoni/CMG/DY4JetsToLL_M-50_TuneZ2Star_8TeV-madgraph/Summer12_DR53X-PU_S10_START53_V7A-v1/AODSIM/V5_B/PAT_CMG_V5_16_0/HTT_24Jul_newTES_manzoni_Up/diTau_fullsel_tree_CMG_49.root'
p119
(I01
I3858
tp120
sS'/store/cmst3/user/manzoni/CMG/DY4JetsToLL_M-50_TuneZ2Star_8TeV-madgraph/Summer12_DR53X-PU_S10_START53_V7A-v1/AODSIM/V5_B/PAT_CMG_V5_16_0/HTT_24Jul_newTES_manzoni_Up/diTau_fullsel_tree_CMG_4.root'
p121
(I01
I4071
tp122
sS'/store/cmst3/user/manzoni/CMG/DY4JetsToLL_M-50_TuneZ2Star_8TeV-madgraph/Summer12_DR53X-PU_S10_START53_V7A-v1/AODSIM/V5_B/PAT_CMG_V5_16_0/HTT_24Jul_newTES_manzoni_Up/diTau_fullsel_tree_CMG_124.root'
p123
(I01
I3741
tp124
sS'/store/cmst3/user/manzoni/CMG/DY4JetsToLL_M-50_TuneZ2Star_8TeV-madgraph/Summer12_DR53X-PU_S10_START53_V7A-v1/AODSIM/V5_B/PAT_CMG_V5_16_0/HTT_24Jul_newTES_manzoni_Up/diTau_fullsel_tree_CMG_91.root'
p125
(I01
I3975
tp126
sS'/store/cmst3/user/manzoni/CMG/DY4JetsToLL_M-50_TuneZ2Star_8TeV-madgraph/Summer12_DR53X-PU_S10_START53_V7A-v1/AODSIM/V5_B/PAT_CMG_V5_16_0/HTT_24Jul_newTES_manzoni_Up/diTau_fullsel_tree_CMG_65.root'
p127
(I01
I4260
tp128
sS'/store/cmst3/user/manzoni/CMG/DY4JetsToLL_M-50_TuneZ2Star_8TeV-madgraph/Summer12_DR53X-PU_S10_START53_V7A-v1/AODSIM/V5_B/PAT_CMG_V5_16_0/HTT_24Jul_newTES_manzoni_Up/diTau_fullsel_tree_CMG_71.root'
p129
(I01
I4221
tp130
sS'/store/cmst3/user/manzoni/CMG/DY4JetsToLL_M-50_TuneZ2Star_8TeV-madgraph/Summer12_DR53X-PU_S10_START53_V7A-v1/AODSIM/V5_B/PAT_CMG_V5_16_0/HTT_24Jul_newTES_manzoni_Up/diTau_fullsel_tree_CMG_48.root'
p131
(I01
I4415
tp132
sS'/store/cmst3/user/manzoni/CMG/DY4JetsToLL_M-50_TuneZ2Star_8TeV-madgraph/Summer12_DR53X-PU_S10_START53_V7A-v1/AODSIM/V5_B/PAT_CMG_V5_16_0/HTT_24Jul_newTES_manzoni_Up/diTau_fullsel_tree_CMG_54.root'
p133
(I01
I3966
tp134
sS'/store/cmst3/user/manzoni/CMG/DY4JetsToLL_M-50_TuneZ2Star_8TeV-madgraph/Summer12_DR53X-PU_S10_START53_V7A-v1/AODSIM/V5_B/PAT_CMG_V5_16_0/HTT_24Jul_newTES_manzoni_Up/diTau_fullsel_tree_CMG_117.root'
p135
(I01
I4029
tp136
sS'/store/cmst3/user/manzoni/CMG/DY4JetsToLL_M-50_TuneZ2Star_8TeV-madgraph/Summer12_DR53X-PU_S10_START53_V7A-v1/AODSIM/V5_B/PAT_CMG_V5_16_0/HTT_24Jul_newTES_manzoni_Up/diTau_fullsel_tree_CMG_23.root'
p137
(I01
I3964
tp138
sS'/store/cmst3/user/manzoni/CMG/DY4JetsToLL_M-50_TuneZ2Star_8TeV-madgraph/Summer12_DR53X-PU_S10_START53_V7A-v1/AODSIM/V5_B/PAT_CMG_V5_16_0/HTT_24Jul_newTES_manzoni_Up/diTau_fullsel_tree_CMG_32.root'
p139
(I01
I3744
tp140
sS'/store/cmst3/user/manzoni/CMG/DY4JetsToLL_M-50_TuneZ2Star_8TeV-madgraph/Summer12_DR53X-PU_S10_START53_V7A-v1/AODSIM/V5_B/PAT_CMG_V5_16_0/HTT_24Jul_newTES_manzoni_Up/diTau_fullsel_tree_CMG_85.root'
p141
(I01
I3634
tp142
sS'/store/cmst3/user/manzoni/CMG/DY4JetsToLL_M-50_TuneZ2Star_8TeV-madgraph/Summer12_DR53X-PU_S10_START53_V7A-v1/AODSIM/V5_B/PAT_CMG_V5_16_0/HTT_24Jul_newTES_manzoni_Up/diTau_fullsel_tree_CMG_90.root'
p143
(I01
I3890
tp144
sS'/store/cmst3/user/manzoni/CMG/DY4JetsToLL_M-50_TuneZ2Star_8TeV-madgraph/Summer12_DR53X-PU_S10_START53_V7A-v1/AODSIM/V5_B/PAT_CMG_V5_16_0/HTT_24Jul_newTES_manzoni_Up/diTau_fullsel_tree_CMG_113.root'
p145
(I01
I4305
tp146
sS'/store/cmst3/user/manzoni/CMG/DY4JetsToLL_M-50_TuneZ2Star_8TeV-madgraph/Summer12_DR53X-PU_S10_START53_V7A-v1/AODSIM/V5_B/PAT_CMG_V5_16_0/HTT_24Jul_newTES_manzoni_Up/diTau_fullsel_tree_CMG_17.root'
p147
(I01
I4102
tp148
sS'/store/cmst3/user/manzoni/CMG/DY4JetsToLL_M-50_TuneZ2Star_8TeV-madgraph/Summer12_DR53X-PU_S10_START53_V7A-v1/AODSIM/V5_B/PAT_CMG_V5_16_0/HTT_24Jul_newTES_manzoni_Up/diTau_fullsel_tree_CMG_98.root'
p149
(I01
I4057
tp150
sS'/store/cmst3/user/manzoni/CMG/DY4JetsToLL_M-50_TuneZ2Star_8TeV-madgraph/Summer12_DR53X-PU_S10_START53_V7A-v1/AODSIM/V5_B/PAT_CMG_V5_16_0/HTT_24Jul_newTES_manzoni_Up/diTau_fullsel_tree_CMG_44.root'
p151
(I01
I3943
tp152
sS'/store/cmst3/user/manzoni/CMG/DY4JetsToLL_M-50_TuneZ2Star_8TeV-madgraph/Summer12_DR53X-PU_S10_START53_V7A-v1/AODSIM/V5_B/PAT_CMG_V5_16_0/HTT_24Jul_newTES_manzoni_Up/diTau_fullsel_tree_CMG_29.root'
p153
(I01
I4208
tp154
sS'/store/cmst3/user/manzoni/CMG/DY4JetsToLL_M-50_TuneZ2Star_8TeV-madgraph/Summer12_DR53X-PU_S10_START53_V7A-v1/AODSIM/V5_B/PAT_CMG_V5_16_0/HTT_24Jul_newTES_manzoni_Up/diTau_fullsel_tree_CMG_70.root'
p155
(I01
I4177
tp156
sS'/store/cmst3/user/manzoni/CMG/DY4JetsToLL_M-50_TuneZ2Star_8TeV-madgraph/Summer12_DR53X-PU_S10_START53_V7A-v1/AODSIM/V5_B/PAT_CMG_V5_16_0/HTT_24Jul_newTES_manzoni_Up/diTau_fullsel_tree_CMG_36.root'
p157
(I01
I4074
tp158
sS'/store/cmst3/user/manzoni/CMG/DY4JetsToLL_M-50_TuneZ2Star_8TeV-madgraph/Summer12_DR53X-PU_S10_START53_V7A-v1/AODSIM/V5_B/PAT_CMG_V5_16_0/HTT_24Jul_newTES_manzoni_Up/diTau_fullsel_tree_CMG_56.root'
p159
(I01
I3621
tp160
sS'/store/cmst3/user/manzoni/CMG/DY4JetsToLL_M-50_TuneZ2Star_8TeV-madgraph/Summer12_DR53X-PU_S10_START53_V7A-v1/AODSIM/V5_B/PAT_CMG_V5_16_0/HTT_24Jul_newTES_manzoni_Up/diTau_fullsel_tree_CMG_43.root'
p161
(I01
I3471
tp162
sS'/store/cmst3/user/manzoni/CMG/DY4JetsToLL_M-50_TuneZ2Star_8TeV-madgraph/Summer12_DR53X-PU_S10_START53_V7A-v1/AODSIM/V5_B/PAT_CMG_V5_16_0/HTT_24Jul_newTES_manzoni_Up/diTau_fullsel_tree_CMG_99.root'
p163
(I01
I4265
tp164
sS'/store/cmst3/user/manzoni/CMG/DY4JetsToLL_M-50_TuneZ2Star_8TeV-madgraph/Summer12_DR53X-PU_S10_START53_V7A-v1/AODSIM/V5_B/PAT_CMG_V5_16_0/HTT_24Jul_newTES_manzoni_Up/diTau_fullsel_tree_CMG_75.root'
p165
(I01
I3718
tp166
sS'/store/cmst3/user/manzoni/CMG/DY4JetsToLL_M-50_TuneZ2Star_8TeV-madgraph/Summer12_DR53X-PU_S10_START53_V7A-v1/AODSIM/V5_B/PAT_CMG_V5_16_0/HTT_24Jul_newTES_manzoni_Up/diTau_fullsel_tree_CMG_83.root'
p167
(I01
I3811
tp168
sS'/store/cmst3/user/manzoni/CMG/DY4JetsToLL_M-50_TuneZ2Star_8TeV-madgraph/Summer12_DR53X-PU_S10_START53_V7A-v1/AODSIM/V5_B/PAT_CMG_V5_16_0/HTT_24Jul_newTES_manzoni_Up/diTau_fullsel_tree_CMG_112.root'
p169
(I01
I3993
tp170
sS'/store/cmst3/user/manzoni/CMG/DY4JetsToLL_M-50_TuneZ2Star_8TeV-madgraph/Summer12_DR53X-PU_S10_START53_V7A-v1/AODSIM/V5_B/PAT_CMG_V5_16_0/HTT_24Jul_newTES_manzoni_Up/diTau_fullsel_tree_CMG_16.root'
p171
(I01
I4292
tp172
sS'/store/cmst3/user/manzoni/CMG/DY4JetsToLL_M-50_TuneZ2Star_8TeV-madgraph/Summer12_DR53X-PU_S10_START53_V7A-v1/AODSIM/V5_B/PAT_CMG_V5_16_0/HTT_24Jul_newTES_manzoni_Up/diTau_fullsel_tree_CMG_5.root'
p173
(I01
I4086
tp174
sS'/store/cmst3/user/manzoni/CMG/DY4JetsToLL_M-50_TuneZ2Star_8TeV-madgraph/Summer12_DR53X-PU_S10_START53_V7A-v1/AODSIM/V5_B/PAT_CMG_V5_16_0/HTT_24Jul_newTES_manzoni_Up/diTau_fullsel_tree_CMG_37.root'
p175
(I01
I4097
tp176
sS'/store/cmst3/user/manzoni/CMG/DY4JetsToLL_M-50_TuneZ2Star_8TeV-madgraph/Summer12_DR53X-PU_S10_START53_V7A-v1/AODSIM/V5_B/PAT_CMG_V5_16_0/HTT_24Jul_newTES_manzoni_Up/diTau_fullsel_tree_CMG_118.root'
p177
(I01
I4272
tp178
sS'/store/cmst3/user/manzoni/CMG/DY4JetsToLL_M-50_TuneZ2Star_8TeV-madgraph/Summer12_DR53X-PU_S10_START53_V7A-v1/AODSIM/V5_B/PAT_CMG_V5_16_0/HTT_24Jul_newTES_manzoni_Up/diTau_fullsel_tree_CMG_28.root'
p179
(I01
I3822
tp180
sS'/store/cmst3/user/manzoni/CMG/DY4JetsToLL_M-50_TuneZ2Star_8TeV-madgraph/Summer12_DR53X-PU_S10_START53_V7A-v1/AODSIM/V5_B/PAT_CMG_V5_16_0/HTT_24Jul_newTES_manzoni_Up/diTau_fullsel_tree_CMG_93.root'
p181
(I01
I4177
tp182
sS'/store/cmst3/user/manzoni/CMG/DY4JetsToLL_M-50_TuneZ2Star_8TeV-madgraph/Summer12_DR53X-PU_S10_START53_V7A-v1/AODSIM/V5_B/PAT_CMG_V5_16_0/HTT_24Jul_newTES_manzoni_Up/diTau_fullsel_tree_CMG_107.root'
p183
(I01
I4042
tp184
sS'/store/cmst3/user/manzoni/CMG/DY4JetsToLL_M-50_TuneZ2Star_8TeV-madgraph/Summer12_DR53X-PU_S10_START53_V7A-v1/AODSIM/V5_B/PAT_CMG_V5_16_0/HTT_24Jul_newTES_manzoni_Up/diTau_fullsel_tree_CMG_12.root'
p185
(I01
I4378
tp186
sS'/store/cmst3/user/manzoni/CMG/DY4JetsToLL_M-50_TuneZ2Star_8TeV-madgraph/Summer12_DR53X-PU_S10_START53_V7A-v1/AODSIM/V5_B/PAT_CMG_V5_16_0/HTT_24Jul_newTES_manzoni_Up/diTau_fullsel_tree_CMG_64.root'
p187
(I01
I4149
tp188
sS'/store/cmst3/user/manzoni/CMG/DY4JetsToLL_M-50_TuneZ2Star_8TeV-madgraph/Summer12_DR53X-PU_S10_START53_V7A-v1/AODSIM/V5_B/PAT_CMG_V5_16_0/HTT_24Jul_newTES_manzoni_Up/diTau_fullsel_tree_CMG_25.root'
p189
(I01
I3698
tp190
sS'/store/cmst3/user/manzoni/CMG/DY4JetsToLL_M-50_TuneZ2Star_8TeV-madgraph/Summer12_DR53X-PU_S10_START53_V7A-v1/AODSIM/V5_B/PAT_CMG_V5_16_0/HTT_24Jul_newTES_manzoni_Up/diTau_fullsel_tree_CMG_72.root'
p191
(I01
I4277
tp192
sS'/store/cmst3/user/manzoni/CMG/DY4JetsToLL_M-50_TuneZ2Star_8TeV-madgraph/Summer12_DR53X-PU_S10_START53_V7A-v1/AODSIM/V5_B/PAT_CMG_V5_16_0/HTT_24Jul_newTES_manzoni_Up/diTau_fullsel_tree_CMG_115.root'
p193
(I01
I4029
tp194
sS'/store/cmst3/user/manzoni/CMG/DY4JetsToLL_M-50_TuneZ2Star_8TeV-madgraph/Summer12_DR53X-PU_S10_START53_V7A-v1/AODSIM/V5_B/PAT_CMG_V5_16_0/HTT_24Jul_newTES_manzoni_Up/diTau_fullsel_tree_CMG_66.root'
p195
(I01
I3916
tp196
sS'/store/cmst3/user/manzoni/CMG/DY4JetsToLL_M-50_TuneZ2Star_8TeV-madgraph/Summer12_DR53X-PU_S10_START53_V7A-v1/AODSIM/V5_B/PAT_CMG_V5_16_0/HTT_24Jul_newTES_manzoni_Up/diTau_fullsel_tree_CMG_20.root'
p197
(I01
I3649
tp198
sS'/store/cmst3/user/manzoni/CMG/DY4JetsToLL_M-50_TuneZ2Star_8TeV-madgraph/Summer12_DR53X-PU_S10_START53_V7A-v1/AODSIM/V5_B/PAT_CMG_V5_16_0/HTT_24Jul_newTES_manzoni_Up/diTau_fullsel_tree_CMG_74.root'
p199
(I01
I3990
tp200
sS'/store/cmst3/user/manzoni/CMG/DY4JetsToLL_M-50_TuneZ2Star_8TeV-madgraph/Summer12_DR53X-PU_S10_START53_V7A-v1/AODSIM/V5_B/PAT_CMG_V5_16_0/HTT_24Jul_newTES_manzoni_Up/diTau_fullsel_tree_CMG_14.root'
p201
(I01
I3814
tp202
sS'/store/cmst3/user/manzoni/CMG/DY4JetsToLL_M-50_TuneZ2Star_8TeV-madgraph/Summer12_DR53X-PU_S10_START53_V7A-v1/AODSIM/V5_B/PAT_CMG_V5_16_0/HTT_24Jul_newTES_manzoni_Up/diTau_fullsel_tree_CMG_45.root'
p203
(I01
I4293
tp204
sS'/store/cmst3/user/manzoni/CMG/DY4JetsToLL_M-50_TuneZ2Star_8TeV-madgraph/Summer12_DR53X-PU_S10_START53_V7A-v1/AODSIM/V5_B/PAT_CMG_V5_16_0/HTT_24Jul_newTES_manzoni_Up/diTau_fullsel_tree_CMG_110.root'
p205
(I01
I4028
tp206
sS'/store/cmst3/user/manzoni/CMG/DY4JetsToLL_M-50_TuneZ2Star_8TeV-madgraph/Summer12_DR53X-PU_S10_START53_V7A-v1/AODSIM/V5_B/PAT_CMG_V5_16_0/HTT_24Jul_newTES_manzoni_Up/diTau_fullsel_tree_CMG_88.root'
p207
(I01
I4181
tp208
sS'/store/cmst3/user/manzoni/CMG/DY4JetsToLL_M-50_TuneZ2Star_8TeV-madgraph/Summer12_DR53X-PU_S10_START53_V7A-v1/AODSIM/V5_B/PAT_CMG_V5_16_0/HTT_24Jul_newTES_manzoni_Up/diTau_fullsel_tree_CMG_10.root'
p209
(I01
I4256
tp210
sS'/store/cmst3/user/manzoni/CMG/DY4JetsToLL_M-50_TuneZ2Star_8TeV-madgraph/Summer12_DR53X-PU_S10_START53_V7A-v1/AODSIM/V5_B/PAT_CMG_V5_16_0/HTT_24Jul_newTES_manzoni_Up/diTau_fullsel_tree_CMG_35.root'
p211
(I01
I4248
tp212
sS'/store/cmst3/user/manzoni/CMG/DY4JetsToLL_M-50_TuneZ2Star_8TeV-madgraph/Summer12_DR53X-PU_S10_START53_V7A-v1/AODSIM/V5_B/PAT_CMG_V5_16_0/HTT_24Jul_newTES_manzoni_Up/diTau_fullsel_tree_CMG_61.root'
p213
(I01
I3966
tp214
sS'/store/cmst3/user/manzoni/CMG/DY4JetsToLL_M-50_TuneZ2Star_8TeV-madgraph/Summer12_DR53X-PU_S10_START53_V7A-v1/AODSIM/V5_B/PAT_CMG_V5_16_0/HTT_24Jul_newTES_manzoni_Up/diTau_fullsel_tree_CMG_76.root'
p215
(I01
I3914
tp216
sS'/store/cmst3/user/manzoni/CMG/DY4JetsToLL_M-50_TuneZ2Star_8TeV-madgraph/Summer12_DR53X-PU_S10_START53_V7A-v1/AODSIM/V5_B/PAT_CMG_V5_16_0/HTT_24Jul_newTES_manzoni_Up/diTau_fullsel_tree_CMG_8.root'
p217
(I01
I4059
tp218
sS'/store/cmst3/user/manzoni/CMG/DY4JetsToLL_M-50_TuneZ2Star_8TeV-madgraph/Summer12_DR53X-PU_S10_START53_V7A-v1/AODSIM/V5_B/PAT_CMG_V5_16_0/HTT_24Jul_newTES_manzoni_Up/diTau_fullsel_tree_CMG_40.root'
p219
(I01
I3800
tp220
sS'/store/cmst3/user/manzoni/CMG/DY4JetsToLL_M-50_TuneZ2Star_8TeV-madgraph/Summer12_DR53X-PU_S10_START53_V7A-v1/AODSIM/V5_B/PAT_CMG_V5_16_0/HTT_24Jul_newTES_manzoni_Up/diTau_fullsel_tree_CMG_95.root'
p221
(I01
I3897
tp222
sS'/store/cmst3/user/manzoni/CMG/DY4JetsToLL_M-50_TuneZ2Star_8TeV-madgraph/Summer12_DR53X-PU_S10_START53_V7A-v1/AODSIM/V5_B/PAT_CMG_V5_16_0/HTT_24Jul_newTES_manzoni_Up/diTau_fullsel_tree_CMG_103.root'
p223
(I01
I3984
tp224
sS'/store/cmst3/user/manzoni/CMG/DY4JetsToLL_M-50_TuneZ2Star_8TeV-madgraph/Summer12_DR53X-PU_S10_START53_V7A-v1/AODSIM/V5_B/PAT_CMG_V5_16_0/HTT_24Jul_newTES_manzoni_Up/diTau_fullsel_tree_CMG_11.root'
p225
(I01
I3924
tp226
sS'/store/cmst3/user/manzoni/CMG/DY4JetsToLL_M-50_TuneZ2Star_8TeV-madgraph/Summer12_DR53X-PU_S10_START53_V7A-v1/AODSIM/V5_B/PAT_CMG_V5_16_0/HTT_24Jul_newTES_manzoni_Up/diTau_fullsel_tree_CMG_111.root'
p227
(I01
I4034
tp228
sS'/store/cmst3/user/manzoni/CMG/DY4JetsToLL_M-50_TuneZ2Star_8TeV-madgraph/Summer12_DR53X-PU_S10_START53_V7A-v1/AODSIM/V5_B/PAT_CMG_V5_16_0/HTT_24Jul_newTES_manzoni_Up/diTau_fullsel_tree_CMG_6.root'
p229
(I01
I4322
tp230
sS'/store/cmst3/user/manzoni/CMG/DY4JetsToLL_M-50_TuneZ2Star_8TeV-madgraph/Summer12_DR53X-PU_S10_START53_V7A-v1/AODSIM/V5_B/PAT_CMG_V5_16_0/HTT_24Jul_newTES_manzoni_Up/diTau_fullsel_tree_CMG_104.root'
p231
(I01
I3720
tp232
sS'/store/cmst3/user/manzoni/CMG/DY4JetsToLL_M-50_TuneZ2Star_8TeV-madgraph/Summer12_DR53X-PU_S10_START53_V7A-v1/AODSIM/V5_B/PAT_CMG_V5_16_0/HTT_24Jul_newTES_manzoni_Up/diTau_fullsel_tree_CMG_94.root'
p233
(I01
I4248
tp234
sS'/store/cmst3/user/manzoni/CMG/DY4JetsToLL_M-50_TuneZ2Star_8TeV-madgraph/Summer12_DR53X-PU_S10_START53_V7A-v1/AODSIM/V5_B/PAT_CMG_V5_16_0/HTT_24Jul_newTES_manzoni_Up/diTau_fullsel_tree_CMG_84.root'
p235
(I01
I4110
tp236
sS'/store/cmst3/user/manzoni/CMG/DY4JetsToLL_M-50_TuneZ2Star_8TeV-madgraph/Summer12_DR53X-PU_S10_START53_V7A-v1/AODSIM/V5_B/PAT_CMG_V5_16_0/HTT_24Jul_newTES_manzoni_Up/diTau_fullsel_tree_CMG_53.root'
p237
(I01
I3597
tp238
sS'/store/cmst3/user/manzoni/CMG/DY4JetsToLL_M-50_TuneZ2Star_8TeV-madgraph/Summer12_DR53X-PU_S10_START53_V7A-v1/AODSIM/V5_B/PAT_CMG_V5_16_0/HTT_24Jul_newTES_manzoni_Up/diTau_fullsel_tree_CMG_2.root'
p239
(I01
I4150
tp240
sS'/store/cmst3/user/manzoni/CMG/DY4JetsToLL_M-50_TuneZ2Star_8TeV-madgraph/Summer12_DR53X-PU_S10_START53_V7A-v1/AODSIM/V5_B/PAT_CMG_V5_16_0/HTT_24Jul_newTES_manzoni_Up/diTau_fullsel_tree_CMG_89.root'
p241
(I01
I3438
tp242
sS'/store/cmst3/user/manzoni/CMG/DY4JetsToLL_M-50_TuneZ2Star_8TeV-madgraph/Summer12_DR53X-PU_S10_START53_V7A-v1/AODSIM/V5_B/PAT_CMG_V5_16_0/HTT_24Jul_newTES_manzoni_Up/diTau_fullsel_tree_CMG_101.root'
p243
(I01
I4205
tp244
sS'/store/cmst3/user/manzoni/CMG/DY4JetsToLL_M-50_TuneZ2Star_8TeV-madgraph/Summer12_DR53X-PU_S10_START53_V7A-v1/AODSIM/V5_B/PAT_CMG_V5_16_0/HTT_24Jul_newTES_manzoni_Up/diTau_fullsel_tree_CMG_26.root'
p245
(I01
I4233
tp246
sS'/store/cmst3/user/manzoni/CMG/DY4JetsToLL_M-50_TuneZ2Star_8TeV-madgraph/Summer12_DR53X-PU_S10_START53_V7A-v1/AODSIM/V5_B/PAT_CMG_V5_16_0/HTT_24Jul_newTES_manzoni_Up/diTau_fullsel_tree_CMG_7.root'
p247
(I01
I3490
tp248
sS'/store/cmst3/user/manzoni/CMG/DY4JetsToLL_M-50_TuneZ2Star_8TeV-madgraph/Summer12_DR53X-PU_S10_START53_V7A-v1/AODSIM/V5_B/PAT_CMG_V5_16_0/HTT_24Jul_newTES_manzoni_Up/diTau_fullsel_tree_CMG_79.root'
p249
(I01
I3825
tp250
sS'/store/cmst3/user/manzoni/CMG/DY4JetsToLL_M-50_TuneZ2Star_8TeV-madgraph/Summer12_DR53X-PU_S10_START53_V7A-v1/AODSIM/V5_B/PAT_CMG_V5_16_0/HTT_24Jul_newTES_manzoni_Up/diTau_fullsel_tree_CMG_105.root'
p251
(I01
I3825
tp252
sS'/store/cmst3/user/manzoni/CMG/DY4JetsToLL_M-50_TuneZ2Star_8TeV-madgraph/Summer12_DR53X-PU_S10_START53_V7A-v1/AODSIM/V5_B/PAT_CMG_V5_16_0/HTT_24Jul_newTES_manzoni_Up/diTau_fullsel_tree_CMG_120.root'
p253
(I01
I4274
tp254
sS'/store/cmst3/user/manzoni/CMG/DY4JetsToLL_M-50_TuneZ2Star_8TeV-madgraph/Summer12_DR53X-PU_S10_START53_V7A-v1/AODSIM/V5_B/PAT_CMG_V5_16_0/HTT_24Jul_newTES_manzoni_Up/diTau_fullsel_tree_CMG_114.root'
p255
(I01
I4148
tp256
sS'/store/cmst3/user/manzoni/CMG/DY4JetsToLL_M-50_TuneZ2Star_8TeV-madgraph/Summer12_DR53X-PU_S10_START53_V7A-v1/AODSIM/V5_B/PAT_CMG_V5_16_0/HTT_24Jul_newTES_manzoni_Up/diTau_fullsel_tree_CMG_51.root'
p257
(I01
I4241
tp258
ssS'Name'
p259
S'/DY4JetsToLL_M-50_TuneZ2Star_8TeV-madgraph/Summer12_DR53X-PU_S10_START53_V7A-v1/AODSIM/V5_B/PAT_CMG_V5_16_0/HTT_24Jul_newTES_manzoni_Up'
p260
sS'Topdir'
p261
S'/eos/cms/store/cmst3/user/manzoni/CMG'
p262
sS'RunList'
p263
(lp264
sS'PathList'
p265
(lp266
S'/store/cmst3/user/manzoni/CMG/DY4JetsToLL_M-50_TuneZ2Star_8TeV-madgraph/Summer12_DR53X-PU_S10_START53_V7A-v1/AODSIM/V5_B/PAT_CMG_V5_16_0/HTT_24Jul_newTES_manzoni_Up'
p267
asS'AlgoList'
p268
(lp269
sS'PrimaryDatasetFraction'
p270
F0.078761459586523266
sS'FilesGood'
p271
I126
sS'PrimaryDatasetEntries'
p272
I6402827
sS'data'
p273
(dp274
sS'FilesBad'
p275
I0
sS'ReportVersion'
p276
I3
sS'Status'
p277
S'VALID'
p278
sS'MaxRun'
p279
I-1
sS'PhysicsGroup'
p280
S'CMG'
p281
sS'MinRun'
p282
I-1
sS'StageHost'
p283
S'castorcms'
p284
sS'FilesCount'
p285
I126
sS'FilesEntries'
p286
I504296
sS'TierList'
p287
(lp288
sS'DateCreated'
p289
S'1377549928'
p290
sS'CreatedBy'
p291
S'manzoni'
p292
sS'ValidDuplicates'
p293
(dp294
sS'PrimaryDataset'
p295
S'/DY4JetsToLL_M-50_TuneZ2Star_8TeV-madgraph/Summer12_DR53X-PU_S10_START53_V7A-v1/AODSIM'
p296
sS'BadJobs'
p297
(lp298
ssS'MaskPresent'
p299
I01
sS'LSFJobStatusCheck'
p300
(dp301
S'DY4JetsToLL_M-50_TuneZ2Star_8TeV-madgraph/Summer12_DR53X-PU_S10_START53_V7A-v1/AODSIM/V5_B/PAT_CMG_V5_16_0_1377544840/HTT_24Jul_newTES_manzoni_Up_Jobs/Job_78'
p302
g278
sS'DY4JetsToLL_M-50_TuneZ2Star_8TeV-madgraph/Summer12_DR53X-PU_S10_START53_V7A-v1/AODSIM/V5_B/PAT_CMG_V5_16_0_1377544840/HTT_24Jul_newTES_manzoni_Up_Jobs/Job_79'
p303
g278
sS'DY4JetsToLL_M-50_TuneZ2Star_8TeV-madgraph/Summer12_DR53X-PU_S10_START53_V7A-v1/AODSIM/V5_B/PAT_CMG_V5_16_0_1377544840/HTT_24Jul_newTES_manzoni_Up_Jobs/Job_76'
p304
g278
sS'DY4JetsToLL_M-50_TuneZ2Star_8TeV-madgraph/Summer12_DR53X-PU_S10_START53_V7A-v1/AODSIM/V5_B/PAT_CMG_V5_16_0_1377544840/HTT_24Jul_newTES_manzoni_Up_Jobs/Job_77'
p305
g278
sS'DY4JetsToLL_M-50_TuneZ2Star_8TeV-madgraph/Summer12_DR53X-PU_S10_START53_V7A-v1/AODSIM/V5_B/PAT_CMG_V5_16_0_1377544840/HTT_24Jul_newTES_manzoni_Up_Jobs/Job_74'
p306
g278
sS'DY4JetsToLL_M-50_TuneZ2Star_8TeV-madgraph/Summer12_DR53X-PU_S10_START53_V7A-v1/AODSIM/V5_B/PAT_CMG_V5_16_0_1377544840/HTT_24Jul_newTES_manzoni_Up_Jobs/Job_75'
p307
g278
sS'DY4JetsToLL_M-50_TuneZ2Star_8TeV-madgraph/Summer12_DR53X-PU_S10_START53_V7A-v1/AODSIM/V5_B/PAT_CMG_V5_16_0_1377544840/HTT_24Jul_newTES_manzoni_Up_Jobs/Job_72'
p308
g278
sS'DY4JetsToLL_M-50_TuneZ2Star_8TeV-madgraph/Summer12_DR53X-PU_S10_START53_V7A-v1/AODSIM/V5_B/PAT_CMG_V5_16_0_1377544840/HTT_24Jul_newTES_manzoni_Up_Jobs/Job_73'
p309
g278
sS'DY4JetsToLL_M-50_TuneZ2Star_8TeV-madgraph/Summer12_DR53X-PU_S10_START53_V7A-v1/AODSIM/V5_B/PAT_CMG_V5_16_0_1377544840/HTT_24Jul_newTES_manzoni_Up_Jobs/Job_70'
p310
g278
sS'DY4JetsToLL_M-50_TuneZ2Star_8TeV-madgraph/Summer12_DR53X-PU_S10_START53_V7A-v1/AODSIM/V5_B/PAT_CMG_V5_16_0_1377544840/HTT_24Jul_newTES_manzoni_Up_Jobs/Job_71'
p311
g278
sS'DY4JetsToLL_M-50_TuneZ2Star_8TeV-madgraph/Summer12_DR53X-PU_S10_START53_V7A-v1/AODSIM/V5_B/PAT_CMG_V5_16_0_1377544840/HTT_24Jul_newTES_manzoni_Up_Jobs/Job_8'
p312
g278
sS'DY4JetsToLL_M-50_TuneZ2Star_8TeV-madgraph/Summer12_DR53X-PU_S10_START53_V7A-v1/AODSIM/V5_B/PAT_CMG_V5_16_0_1377544840/HTT_24Jul_newTES_manzoni_Up_Jobs/Job_9'
p313
g278
sS'DY4JetsToLL_M-50_TuneZ2Star_8TeV-madgraph/Summer12_DR53X-PU_S10_START53_V7A-v1/AODSIM/V5_B/PAT_CMG_V5_16_0_1377544840/HTT_24Jul_newTES_manzoni_Up_Jobs/Job_2'
p314
g278
sS'DY4JetsToLL_M-50_TuneZ2Star_8TeV-madgraph/Summer12_DR53X-PU_S10_START53_V7A-v1/AODSIM/V5_B/PAT_CMG_V5_16_0_1377544840/HTT_24Jul_newTES_manzoni_Up_Jobs/Job_3'
p315
g278
sS'DY4JetsToLL_M-50_TuneZ2Star_8TeV-madgraph/Summer12_DR53X-PU_S10_START53_V7A-v1/AODSIM/V5_B/PAT_CMG_V5_16_0_1377544840/HTT_24Jul_newTES_manzoni_Up_Jobs/Job_1'
p316
g278
sS'DY4JetsToLL_M-50_TuneZ2Star_8TeV-madgraph/Summer12_DR53X-PU_S10_START53_V7A-v1/AODSIM/V5_B/PAT_CMG_V5_16_0_1377544840/HTT_24Jul_newTES_manzoni_Up_Jobs/Job_6'
p317
g278
sS'DY4JetsToLL_M-50_TuneZ2Star_8TeV-madgraph/Summer12_DR53X-PU_S10_START53_V7A-v1/AODSIM/V5_B/PAT_CMG_V5_16_0_1377544840/HTT_24Jul_newTES_manzoni_Up_Jobs/Job_7'
p318
g278
sS'DY4JetsToLL_M-50_TuneZ2Star_8TeV-madgraph/Summer12_DR53X-PU_S10_START53_V7A-v1/AODSIM/V5_B/PAT_CMG_V5_16_0_1377544840/HTT_24Jul_newTES_manzoni_Up_Jobs/Job_4'
p319
g278
sS'DY4JetsToLL_M-50_TuneZ2Star_8TeV-madgraph/Summer12_DR53X-PU_S10_START53_V7A-v1/AODSIM/V5_B/PAT_CMG_V5_16_0_1377544840/HTT_24Jul_newTES_manzoni_Up_Jobs/Job_5'
p320
g278
sS'DY4JetsToLL_M-50_TuneZ2Star_8TeV-madgraph/Summer12_DR53X-PU_S10_START53_V7A-v1/AODSIM/V5_B/PAT_CMG_V5_16_0_1377544840/HTT_24Jul_newTES_manzoni_Up_Jobs/Job_49'
p321
g278
sS'DY4JetsToLL_M-50_TuneZ2Star_8TeV-madgraph/Summer12_DR53X-PU_S10_START53_V7A-v1/AODSIM/V5_B/PAT_CMG_V5_16_0_1377544840/HTT_24Jul_newTES_manzoni_Up_Jobs/Job_48'
p322
g278
sS'DY4JetsToLL_M-50_TuneZ2Star_8TeV-madgraph/Summer12_DR53X-PU_S10_START53_V7A-v1/AODSIM/V5_B/PAT_CMG_V5_16_0_1377544840/HTT_24Jul_newTES_manzoni_Up_Jobs/Job_43'
p323
g278
sS'DY4JetsToLL_M-50_TuneZ2Star_8TeV-madgraph/Summer12_DR53X-PU_S10_START53_V7A-v1/AODSIM/V5_B/PAT_CMG_V5_16_0_1377544840/HTT_24Jul_newTES_manzoni_Up_Jobs/Job_42'
p324
g278
sS'DY4JetsToLL_M-50_TuneZ2Star_8TeV-madgraph/Summer12_DR53X-PU_S10_START53_V7A-v1/AODSIM/V5_B/PAT_CMG_V5_16_0_1377544840/HTT_24Jul_newTES_manzoni_Up_Jobs/Job_41'
p325
g278
sS'DY4JetsToLL_M-50_TuneZ2Star_8TeV-madgraph/Summer12_DR53X-PU_S10_START53_V7A-v1/AODSIM/V5_B/PAT_CMG_V5_16_0_1377544840/HTT_24Jul_newTES_manzoni_Up_Jobs/Job_40'
p326
g278
sS'DY4JetsToLL_M-50_TuneZ2Star_8TeV-madgraph/Summer12_DR53X-PU_S10_START53_V7A-v1/AODSIM/V5_B/PAT_CMG_V5_16_0_1377544840/HTT_24Jul_newTES_manzoni_Up_Jobs/Job_47'
p327
g278
sS'DY4JetsToLL_M-50_TuneZ2Star_8TeV-madgraph/Summer12_DR53X-PU_S10_START53_V7A-v1/AODSIM/V5_B/PAT_CMG_V5_16_0_1377544840/HTT_24Jul_newTES_manzoni_Up_Jobs/Job_46'
p328
g278
sS'DY4JetsToLL_M-50_TuneZ2Star_8TeV-madgraph/Summer12_DR53X-PU_S10_START53_V7A-v1/AODSIM/V5_B/PAT_CMG_V5_16_0_1377544840/HTT_24Jul_newTES_manzoni_Up_Jobs/Job_45'
p329
g278
sS'DY4JetsToLL_M-50_TuneZ2Star_8TeV-madgraph/Summer12_DR53X-PU_S10_START53_V7A-v1/AODSIM/V5_B/PAT_CMG_V5_16_0_1377544840/HTT_24Jul_newTES_manzoni_Up_Jobs/Job_44'
p330
g278
sS'DY4JetsToLL_M-50_TuneZ2Star_8TeV-madgraph/Summer12_DR53X-PU_S10_START53_V7A-v1/AODSIM/V5_B/PAT_CMG_V5_16_0_1377544840/HTT_24Jul_newTES_manzoni_Up_Jobs/Job_90'
p331
g278
sS'DY4JetsToLL_M-50_TuneZ2Star_8TeV-madgraph/Summer12_DR53X-PU_S10_START53_V7A-v1/AODSIM/V5_B/PAT_CMG_V5_16_0_1377544840/HTT_24Jul_newTES_manzoni_Up_Jobs/Job_91'
p332
g278
sS'DY4JetsToLL_M-50_TuneZ2Star_8TeV-madgraph/Summer12_DR53X-PU_S10_START53_V7A-v1/AODSIM/V5_B/PAT_CMG_V5_16_0_1377544840/HTT_24Jul_newTES_manzoni_Up_Jobs/Job_92'
p333
g278
sS'DY4JetsToLL_M-50_TuneZ2Star_8TeV-madgraph/Summer12_DR53X-PU_S10_START53_V7A-v1/AODSIM/V5_B/PAT_CMG_V5_16_0_1377544840/HTT_24Jul_newTES_manzoni_Up_Jobs/Job_93'
p334
g278
sS'DY4JetsToLL_M-50_TuneZ2Star_8TeV-madgraph/Summer12_DR53X-PU_S10_START53_V7A-v1/AODSIM/V5_B/PAT_CMG_V5_16_0_1377544840/HTT_24Jul_newTES_manzoni_Up_Jobs/Job_94'
p335
g278
sS'DY4JetsToLL_M-50_TuneZ2Star_8TeV-madgraph/Summer12_DR53X-PU_S10_START53_V7A-v1/AODSIM/V5_B/PAT_CMG_V5_16_0_1377544840/HTT_24Jul_newTES_manzoni_Up_Jobs/Job_95'
p336
g278
sS'DY4JetsToLL_M-50_TuneZ2Star_8TeV-madgraph/Summer12_DR53X-PU_S10_START53_V7A-v1/AODSIM/V5_B/PAT_CMG_V5_16_0_1377544840/HTT_24Jul_newTES_manzoni_Up_Jobs/Job_96'
p337
g278
sS'DY4JetsToLL_M-50_TuneZ2Star_8TeV-madgraph/Summer12_DR53X-PU_S10_START53_V7A-v1/AODSIM/V5_B/PAT_CMG_V5_16_0_1377544840/HTT_24Jul_newTES_manzoni_Up_Jobs/Job_97'
p338
g278
sS'DY4JetsToLL_M-50_TuneZ2Star_8TeV-madgraph/Summer12_DR53X-PU_S10_START53_V7A-v1/AODSIM/V5_B/PAT_CMG_V5_16_0_1377544840/HTT_24Jul_newTES_manzoni_Up_Jobs/Job_98'
p339
g278
sS'DY4JetsToLL_M-50_TuneZ2Star_8TeV-madgraph/Summer12_DR53X-PU_S10_START53_V7A-v1/AODSIM/V5_B/PAT_CMG_V5_16_0_1377544840/HTT_24Jul_newTES_manzoni_Up_Jobs/Job_99'
p340
g278
sS'DY4JetsToLL_M-50_TuneZ2Star_8TeV-madgraph/Summer12_DR53X-PU_S10_START53_V7A-v1/AODSIM/V5_B/PAT_CMG_V5_16_0_1377544840/HTT_24Jul_newTES_manzoni_Up_Jobs/Job_123'
p341
g278
sS'DY4JetsToLL_M-50_TuneZ2Star_8TeV-madgraph/Summer12_DR53X-PU_S10_START53_V7A-v1/AODSIM/V5_B/PAT_CMG_V5_16_0_1377544840/HTT_24Jul_newTES_manzoni_Up_Jobs/Job_122'
p342
g278
sS'DY4JetsToLL_M-50_TuneZ2Star_8TeV-madgraph/Summer12_DR53X-PU_S10_START53_V7A-v1/AODSIM/V5_B/PAT_CMG_V5_16_0_1377544840/HTT_24Jul_newTES_manzoni_Up_Jobs/Job_121'
p343
g278
sS'DY4JetsToLL_M-50_TuneZ2Star_8TeV-madgraph/Summer12_DR53X-PU_S10_START53_V7A-v1/AODSIM/V5_B/PAT_CMG_V5_16_0_1377544840/HTT_24Jul_newTES_manzoni_Up_Jobs/Job_120'
p344
g278
sS'DY4JetsToLL_M-50_TuneZ2Star_8TeV-madgraph/Summer12_DR53X-PU_S10_START53_V7A-v1/AODSIM/V5_B/PAT_CMG_V5_16_0_1377544840/HTT_24Jul_newTES_manzoni_Up_Jobs/Job_126'
p345
g278
sS'DY4JetsToLL_M-50_TuneZ2Star_8TeV-madgraph/Summer12_DR53X-PU_S10_START53_V7A-v1/AODSIM/V5_B/PAT_CMG_V5_16_0_1377544840/HTT_24Jul_newTES_manzoni_Up_Jobs/Job_125'
p346
g278
sS'DY4JetsToLL_M-50_TuneZ2Star_8TeV-madgraph/Summer12_DR53X-PU_S10_START53_V7A-v1/AODSIM/V5_B/PAT_CMG_V5_16_0_1377544840/HTT_24Jul_newTES_manzoni_Up_Jobs/Job_124'
p347
g278
sS'DY4JetsToLL_M-50_TuneZ2Star_8TeV-madgraph/Summer12_DR53X-PU_S10_START53_V7A-v1/AODSIM/V5_B/PAT_CMG_V5_16_0_1377544840/HTT_24Jul_newTES_manzoni_Up_Jobs/Job_18'
p348
g278
sS'DY4JetsToLL_M-50_TuneZ2Star_8TeV-madgraph/Summer12_DR53X-PU_S10_START53_V7A-v1/AODSIM/V5_B/PAT_CMG_V5_16_0_1377544840/HTT_24Jul_newTES_manzoni_Up_Jobs/Job_19'
p349
g278
sS'DY4JetsToLL_M-50_TuneZ2Star_8TeV-madgraph/Summer12_DR53X-PU_S10_START53_V7A-v1/AODSIM/V5_B/PAT_CMG_V5_16_0_1377544840/HTT_24Jul_newTES_manzoni_Up_Jobs/Job_10'
p350
g278
sS'DY4JetsToLL_M-50_TuneZ2Star_8TeV-madgraph/Summer12_DR53X-PU_S10_START53_V7A-v1/AODSIM/V5_B/PAT_CMG_V5_16_0_1377544840/HTT_24Jul_newTES_manzoni_Up_Jobs/Job_11'
p351
g278
sS'DY4JetsToLL_M-50_TuneZ2Star_8TeV-madgraph/Summer12_DR53X-PU_S10_START53_V7A-v1/AODSIM/V5_B/PAT_CMG_V5_16_0_1377544840/HTT_24Jul_newTES_manzoni_Up_Jobs/Job_12'
p352
g278
sS'DY4JetsToLL_M-50_TuneZ2Star_8TeV-madgraph/Summer12_DR53X-PU_S10_START53_V7A-v1/AODSIM/V5_B/PAT_CMG_V5_16_0_1377544840/HTT_24Jul_newTES_manzoni_Up_Jobs/Job_13'
p353
g278
sS'DY4JetsToLL_M-50_TuneZ2Star_8TeV-madgraph/Summer12_DR53X-PU_S10_START53_V7A-v1/AODSIM/V5_B/PAT_CMG_V5_16_0_1377544840/HTT_24Jul_newTES_manzoni_Up_Jobs/Job_14'
p354
g278
sS'DY4JetsToLL_M-50_TuneZ2Star_8TeV-madgraph/Summer12_DR53X-PU_S10_START53_V7A-v1/AODSIM/V5_B/PAT_CMG_V5_16_0_1377544840/HTT_24Jul_newTES_manzoni_Up_Jobs/Job_15'
p355
g278
sS'DY4JetsToLL_M-50_TuneZ2Star_8TeV-madgraph/Summer12_DR53X-PU_S10_START53_V7A-v1/AODSIM/V5_B/PAT_CMG_V5_16_0_1377544840/HTT_24Jul_newTES_manzoni_Up_Jobs/Job_16'
p356
g278
sS'DY4JetsToLL_M-50_TuneZ2Star_8TeV-madgraph/Summer12_DR53X-PU_S10_START53_V7A-v1/AODSIM/V5_B/PAT_CMG_V5_16_0_1377544840/HTT_24Jul_newTES_manzoni_Up_Jobs/Job_17'
p357
g278
sS'DY4JetsToLL_M-50_TuneZ2Star_8TeV-madgraph/Summer12_DR53X-PU_S10_START53_V7A-v1/AODSIM/V5_B/PAT_CMG_V5_16_0_1377544840/HTT_24Jul_newTES_manzoni_Up_Jobs/Job_69'
p358
g278
sS'DY4JetsToLL_M-50_TuneZ2Star_8TeV-madgraph/Summer12_DR53X-PU_S10_START53_V7A-v1/AODSIM/V5_B/PAT_CMG_V5_16_0_1377544840/HTT_24Jul_newTES_manzoni_Up_Jobs/Job_68'
p359
g278
sS'DY4JetsToLL_M-50_TuneZ2Star_8TeV-madgraph/Summer12_DR53X-PU_S10_START53_V7A-v1/AODSIM/V5_B/PAT_CMG_V5_16_0_1377544840/HTT_24Jul_newTES_manzoni_Up_Jobs/Job_65'
p360
g278
sS'DY4JetsToLL_M-50_TuneZ2Star_8TeV-madgraph/Summer12_DR53X-PU_S10_START53_V7A-v1/AODSIM/V5_B/PAT_CMG_V5_16_0_1377544840/HTT_24Jul_newTES_manzoni_Up_Jobs/Job_64'
p361
g278
sS'DY4JetsToLL_M-50_TuneZ2Star_8TeV-madgraph/Summer12_DR53X-PU_S10_START53_V7A-v1/AODSIM/V5_B/PAT_CMG_V5_16_0_1377544840/HTT_24Jul_newTES_manzoni_Up_Jobs/Job_67'
p362
g278
sS'DY4JetsToLL_M-50_TuneZ2Star_8TeV-madgraph/Summer12_DR53X-PU_S10_START53_V7A-v1/AODSIM/V5_B/PAT_CMG_V5_16_0_1377544840/HTT_24Jul_newTES_manzoni_Up_Jobs/Job_66'
p363
g278
sS'DY4JetsToLL_M-50_TuneZ2Star_8TeV-madgraph/Summer12_DR53X-PU_S10_START53_V7A-v1/AODSIM/V5_B/PAT_CMG_V5_16_0_1377544840/HTT_24Jul_newTES_manzoni_Up_Jobs/Job_61'
p364
g278
sS'DY4JetsToLL_M-50_TuneZ2Star_8TeV-madgraph/Summer12_DR53X-PU_S10_START53_V7A-v1/AODSIM/V5_B/PAT_CMG_V5_16_0_1377544840/HTT_24Jul_newTES_manzoni_Up_Jobs/Job_60'
p365
g278
sS'DY4JetsToLL_M-50_TuneZ2Star_8TeV-madgraph/Summer12_DR53X-PU_S10_START53_V7A-v1/AODSIM/V5_B/PAT_CMG_V5_16_0_1377544840/HTT_24Jul_newTES_manzoni_Up_Jobs/Job_63'
p366
g278
sS'DY4JetsToLL_M-50_TuneZ2Star_8TeV-madgraph/Summer12_DR53X-PU_S10_START53_V7A-v1/AODSIM/V5_B/PAT_CMG_V5_16_0_1377544840/HTT_24Jul_newTES_manzoni_Up_Jobs/Job_62'
p367
g278
sS'DY4JetsToLL_M-50_TuneZ2Star_8TeV-madgraph/Summer12_DR53X-PU_S10_START53_V7A-v1/AODSIM/V5_B/PAT_CMG_V5_16_0_1377544840/HTT_24Jul_newTES_manzoni_Up_Jobs/Job_101'
p368
g278
sS'DY4JetsToLL_M-50_TuneZ2Star_8TeV-madgraph/Summer12_DR53X-PU_S10_START53_V7A-v1/AODSIM/V5_B/PAT_CMG_V5_16_0_1377544840/HTT_24Jul_newTES_manzoni_Up_Jobs/Job_100'
p369
g278
sS'DY4JetsToLL_M-50_TuneZ2Star_8TeV-madgraph/Summer12_DR53X-PU_S10_START53_V7A-v1/AODSIM/V5_B/PAT_CMG_V5_16_0_1377544840/HTT_24Jul_newTES_manzoni_Up_Jobs/Job_103'
p370
g278
sS'DY4JetsToLL_M-50_TuneZ2Star_8TeV-madgraph/Summer12_DR53X-PU_S10_START53_V7A-v1/AODSIM/V5_B/PAT_CMG_V5_16_0_1377544840/HTT_24Jul_newTES_manzoni_Up_Jobs/Job_102'
p371
g278
sS'DY4JetsToLL_M-50_TuneZ2Star_8TeV-madgraph/Summer12_DR53X-PU_S10_START53_V7A-v1/AODSIM/V5_B/PAT_CMG_V5_16_0_1377544840/HTT_24Jul_newTES_manzoni_Up_Jobs/Job_105'
p372
g278
sS'DY4JetsToLL_M-50_TuneZ2Star_8TeV-madgraph/Summer12_DR53X-PU_S10_START53_V7A-v1/AODSIM/V5_B/PAT_CMG_V5_16_0_1377544840/HTT_24Jul_newTES_manzoni_Up_Jobs/Job_104'
p373
g278
sS'DY4JetsToLL_M-50_TuneZ2Star_8TeV-madgraph/Summer12_DR53X-PU_S10_START53_V7A-v1/AODSIM/V5_B/PAT_CMG_V5_16_0_1377544840/HTT_24Jul_newTES_manzoni_Up_Jobs/Job_107'
p374
g278
sS'DY4JetsToLL_M-50_TuneZ2Star_8TeV-madgraph/Summer12_DR53X-PU_S10_START53_V7A-v1/AODSIM/V5_B/PAT_CMG_V5_16_0_1377544840/HTT_24Jul_newTES_manzoni_Up_Jobs/Job_106'
p375
g278
sS'DY4JetsToLL_M-50_TuneZ2Star_8TeV-madgraph/Summer12_DR53X-PU_S10_START53_V7A-v1/AODSIM/V5_B/PAT_CMG_V5_16_0_1377544840/HTT_24Jul_newTES_manzoni_Up_Jobs/Job_109'
p376
g278
sS'DY4JetsToLL_M-50_TuneZ2Star_8TeV-madgraph/Summer12_DR53X-PU_S10_START53_V7A-v1/AODSIM/V5_B/PAT_CMG_V5_16_0_1377544840/HTT_24Jul_newTES_manzoni_Up_Jobs/Job_108'
p377
g278
sS'DY4JetsToLL_M-50_TuneZ2Star_8TeV-madgraph/Summer12_DR53X-PU_S10_START53_V7A-v1/AODSIM/V5_B/PAT_CMG_V5_16_0_1377544840/HTT_24Jul_newTES_manzoni_Up_Jobs/Job_32'
p378
g278
sS'DY4JetsToLL_M-50_TuneZ2Star_8TeV-madgraph/Summer12_DR53X-PU_S10_START53_V7A-v1/AODSIM/V5_B/PAT_CMG_V5_16_0_1377544840/HTT_24Jul_newTES_manzoni_Up_Jobs/Job_33'
p379
g278
sS'DY4JetsToLL_M-50_TuneZ2Star_8TeV-madgraph/Summer12_DR53X-PU_S10_START53_V7A-v1/AODSIM/V5_B/PAT_CMG_V5_16_0_1377544840/HTT_24Jul_newTES_manzoni_Up_Jobs/Job_30'
p380
g278
sS'DY4JetsToLL_M-50_TuneZ2Star_8TeV-madgraph/Summer12_DR53X-PU_S10_START53_V7A-v1/AODSIM/V5_B/PAT_CMG_V5_16_0_1377544840/HTT_24Jul_newTES_manzoni_Up_Jobs/Job_31'
p381
g278
sS'DY4JetsToLL_M-50_TuneZ2Star_8TeV-madgraph/Summer12_DR53X-PU_S10_START53_V7A-v1/AODSIM/V5_B/PAT_CMG_V5_16_0_1377544840/HTT_24Jul_newTES_manzoni_Up_Jobs/Job_36'
p382
g278
sS'DY4JetsToLL_M-50_TuneZ2Star_8TeV-madgraph/Summer12_DR53X-PU_S10_START53_V7A-v1/AODSIM/V5_B/PAT_CMG_V5_16_0_1377544840/HTT_24Jul_newTES_manzoni_Up_Jobs/Job_37'
p383
g278
sS'DY4JetsToLL_M-50_TuneZ2Star_8TeV-madgraph/Summer12_DR53X-PU_S10_START53_V7A-v1/AODSIM/V5_B/PAT_CMG_V5_16_0_1377544840/HTT_24Jul_newTES_manzoni_Up_Jobs/Job_34'
p384
g278
sS'DY4JetsToLL_M-50_TuneZ2Star_8TeV-madgraph/Summer12_DR53X-PU_S10_START53_V7A-v1/AODSIM/V5_B/PAT_CMG_V5_16_0_1377544840/HTT_24Jul_newTES_manzoni_Up_Jobs/Job_35'
p385
g278
sS'DY4JetsToLL_M-50_TuneZ2Star_8TeV-madgraph/Summer12_DR53X-PU_S10_START53_V7A-v1/AODSIM/V5_B/PAT_CMG_V5_16_0_1377544840/HTT_24Jul_newTES_manzoni_Up_Jobs/Job_38'
p386
g278
sS'DY4JetsToLL_M-50_TuneZ2Star_8TeV-madgraph/Summer12_DR53X-PU_S10_START53_V7A-v1/AODSIM/V5_B/PAT_CMG_V5_16_0_1377544840/HTT_24Jul_newTES_manzoni_Up_Jobs/Job_39'
p387
g278
sS'DY4JetsToLL_M-50_TuneZ2Star_8TeV-madgraph/Summer12_DR53X-PU_S10_START53_V7A-v1/AODSIM/V5_B/PAT_CMG_V5_16_0_1377544840/HTT_24Jul_newTES_manzoni_Up_Jobs/Job_87'
p388
g278
sS'DY4JetsToLL_M-50_TuneZ2Star_8TeV-madgraph/Summer12_DR53X-PU_S10_START53_V7A-v1/AODSIM/V5_B/PAT_CMG_V5_16_0_1377544840/HTT_24Jul_newTES_manzoni_Up_Jobs/Job_86'
p389
g278
sS'DY4JetsToLL_M-50_TuneZ2Star_8TeV-madgraph/Summer12_DR53X-PU_S10_START53_V7A-v1/AODSIM/V5_B/PAT_CMG_V5_16_0_1377544840/HTT_24Jul_newTES_manzoni_Up_Jobs/Job_85'
p390
g278
sS'DY4JetsToLL_M-50_TuneZ2Star_8TeV-madgraph/Summer12_DR53X-PU_S10_START53_V7A-v1/AODSIM/V5_B/PAT_CMG_V5_16_0_1377544840/HTT_24Jul_newTES_manzoni_Up_Jobs/Job_84'
p391
g278
sS'DY4JetsToLL_M-50_TuneZ2Star_8TeV-madgraph/Summer12_DR53X-PU_S10_START53_V7A-v1/AODSIM/V5_B/PAT_CMG_V5_16_0_1377544840/HTT_24Jul_newTES_manzoni_Up_Jobs/Job_83'
p392
g278
sS'DY4JetsToLL_M-50_TuneZ2Star_8TeV-madgraph/Summer12_DR53X-PU_S10_START53_V7A-v1/AODSIM/V5_B/PAT_CMG_V5_16_0_1377544840/HTT_24Jul_newTES_manzoni_Up_Jobs/Job_82'
p393
g278
sS'DY4JetsToLL_M-50_TuneZ2Star_8TeV-madgraph/Summer12_DR53X-PU_S10_START53_V7A-v1/AODSIM/V5_B/PAT_CMG_V5_16_0_1377544840/HTT_24Jul_newTES_manzoni_Up_Jobs/Job_81'
p394
g278
sS'DY4JetsToLL_M-50_TuneZ2Star_8TeV-madgraph/Summer12_DR53X-PU_S10_START53_V7A-v1/AODSIM/V5_B/PAT_CMG_V5_16_0_1377544840/HTT_24Jul_newTES_manzoni_Up_Jobs/Job_80'
p395
g278
sS'DY4JetsToLL_M-50_TuneZ2Star_8TeV-madgraph/Summer12_DR53X-PU_S10_START53_V7A-v1/AODSIM/V5_B/PAT_CMG_V5_16_0_1377544840/HTT_24Jul_newTES_manzoni_Up_Jobs/Job_89'
p396
g278
sS'DY4JetsToLL_M-50_TuneZ2Star_8TeV-madgraph/Summer12_DR53X-PU_S10_START53_V7A-v1/AODSIM/V5_B/PAT_CMG_V5_16_0_1377544840/HTT_24Jul_newTES_manzoni_Up_Jobs/Job_88'
p397
g278
sS'DY4JetsToLL_M-50_TuneZ2Star_8TeV-madgraph/Summer12_DR53X-PU_S10_START53_V7A-v1/AODSIM/V5_B/PAT_CMG_V5_16_0_1377544840/HTT_24Jul_newTES_manzoni_Up_Jobs/Job_54'
p398
g278
sS'DY4JetsToLL_M-50_TuneZ2Star_8TeV-madgraph/Summer12_DR53X-PU_S10_START53_V7A-v1/AODSIM/V5_B/PAT_CMG_V5_16_0_1377544840/HTT_24Jul_newTES_manzoni_Up_Jobs/Job_55'
p399
g278
sS'DY4JetsToLL_M-50_TuneZ2Star_8TeV-madgraph/Summer12_DR53X-PU_S10_START53_V7A-v1/AODSIM/V5_B/PAT_CMG_V5_16_0_1377544840/HTT_24Jul_newTES_manzoni_Up_Jobs/Job_56'
p400
g278
sS'DY4JetsToLL_M-50_TuneZ2Star_8TeV-madgraph/Summer12_DR53X-PU_S10_START53_V7A-v1/AODSIM/V5_B/PAT_CMG_V5_16_0_1377544840/HTT_24Jul_newTES_manzoni_Up_Jobs/Job_57'
p401
g278
sS'DY4JetsToLL_M-50_TuneZ2Star_8TeV-madgraph/Summer12_DR53X-PU_S10_START53_V7A-v1/AODSIM/V5_B/PAT_CMG_V5_16_0_1377544840/HTT_24Jul_newTES_manzoni_Up_Jobs/Job_50'
p402
g278
sS'DY4JetsToLL_M-50_TuneZ2Star_8TeV-madgraph/Summer12_DR53X-PU_S10_START53_V7A-v1/AODSIM/V5_B/PAT_CMG_V5_16_0_1377544840/HTT_24Jul_newTES_manzoni_Up_Jobs/Job_51'
p403
g278
sS'DY4JetsToLL_M-50_TuneZ2Star_8TeV-madgraph/Summer12_DR53X-PU_S10_START53_V7A-v1/AODSIM/V5_B/PAT_CMG_V5_16_0_1377544840/HTT_24Jul_newTES_manzoni_Up_Jobs/Job_52'
p404
g278
sS'DY4JetsToLL_M-50_TuneZ2Star_8TeV-madgraph/Summer12_DR53X-PU_S10_START53_V7A-v1/AODSIM/V5_B/PAT_CMG_V5_16_0_1377544840/HTT_24Jul_newTES_manzoni_Up_Jobs/Job_53'
p405
g278
sS'DY4JetsToLL_M-50_TuneZ2Star_8TeV-madgraph/Summer12_DR53X-PU_S10_START53_V7A-v1/AODSIM/V5_B/PAT_CMG_V5_16_0_1377544840/HTT_24Jul_newTES_manzoni_Up_Jobs/Job_58'
p406
g278
sS'DY4JetsToLL_M-50_TuneZ2Star_8TeV-madgraph/Summer12_DR53X-PU_S10_START53_V7A-v1/AODSIM/V5_B/PAT_CMG_V5_16_0_1377544840/HTT_24Jul_newTES_manzoni_Up_Jobs/Job_59'
p407
g278
sS'DY4JetsToLL_M-50_TuneZ2Star_8TeV-madgraph/Summer12_DR53X-PU_S10_START53_V7A-v1/AODSIM/V5_B/PAT_CMG_V5_16_0_1377544840/HTT_24Jul_newTES_manzoni_Up_Jobs/Job_112'
p408
g278
sS'DY4JetsToLL_M-50_TuneZ2Star_8TeV-madgraph/Summer12_DR53X-PU_S10_START53_V7A-v1/AODSIM/V5_B/PAT_CMG_V5_16_0_1377544840/HTT_24Jul_newTES_manzoni_Up_Jobs/Job_113'
p409
g278
sS'DY4JetsToLL_M-50_TuneZ2Star_8TeV-madgraph/Summer12_DR53X-PU_S10_START53_V7A-v1/AODSIM/V5_B/PAT_CMG_V5_16_0_1377544840/HTT_24Jul_newTES_manzoni_Up_Jobs/Job_110'
p410
g278
sS'DY4JetsToLL_M-50_TuneZ2Star_8TeV-madgraph/Summer12_DR53X-PU_S10_START53_V7A-v1/AODSIM/V5_B/PAT_CMG_V5_16_0_1377544840/HTT_24Jul_newTES_manzoni_Up_Jobs/Job_111'
p411
g278
sS'DY4JetsToLL_M-50_TuneZ2Star_8TeV-madgraph/Summer12_DR53X-PU_S10_START53_V7A-v1/AODSIM/V5_B/PAT_CMG_V5_16_0_1377544840/HTT_24Jul_newTES_manzoni_Up_Jobs/Job_116'
p412
g278
sS'DY4JetsToLL_M-50_TuneZ2Star_8TeV-madgraph/Summer12_DR53X-PU_S10_START53_V7A-v1/AODSIM/V5_B/PAT_CMG_V5_16_0_1377544840/HTT_24Jul_newTES_manzoni_Up_Jobs/Job_117'
p413
g278
sS'DY4JetsToLL_M-50_TuneZ2Star_8TeV-madgraph/Summer12_DR53X-PU_S10_START53_V7A-v1/AODSIM/V5_B/PAT_CMG_V5_16_0_1377544840/HTT_24Jul_newTES_manzoni_Up_Jobs/Job_114'
p414
g278
sS'DY4JetsToLL_M-50_TuneZ2Star_8TeV-madgraph/Summer12_DR53X-PU_S10_START53_V7A-v1/AODSIM/V5_B/PAT_CMG_V5_16_0_1377544840/HTT_24Jul_newTES_manzoni_Up_Jobs/Job_115'
p415
g278
sS'DY4JetsToLL_M-50_TuneZ2Star_8TeV-madgraph/Summer12_DR53X-PU_S10_START53_V7A-v1/AODSIM/V5_B/PAT_CMG_V5_16_0_1377544840/HTT_24Jul_newTES_manzoni_Up_Jobs/Job_118'
p416
g278
sS'DY4JetsToLL_M-50_TuneZ2Star_8TeV-madgraph/Summer12_DR53X-PU_S10_START53_V7A-v1/AODSIM/V5_B/PAT_CMG_V5_16_0_1377544840/HTT_24Jul_newTES_manzoni_Up_Jobs/Job_119'
p417
g278
sS'DY4JetsToLL_M-50_TuneZ2Star_8TeV-madgraph/Summer12_DR53X-PU_S10_START53_V7A-v1/AODSIM/V5_B/PAT_CMG_V5_16_0_1377544840/HTT_24Jul_newTES_manzoni_Up_Jobs/Job_21'
p418
g278
sS'DY4JetsToLL_M-50_TuneZ2Star_8TeV-madgraph/Summer12_DR53X-PU_S10_START53_V7A-v1/AODSIM/V5_B/PAT_CMG_V5_16_0_1377544840/HTT_24Jul_newTES_manzoni_Up_Jobs/Job_20'
p419
g278
sS'DY4JetsToLL_M-50_TuneZ2Star_8TeV-madgraph/Summer12_DR53X-PU_S10_START53_V7A-v1/AODSIM/V5_B/PAT_CMG_V5_16_0_1377544840/HTT_24Jul_newTES_manzoni_Up_Jobs/Job_23'
p420
g278
sS'DY4JetsToLL_M-50_TuneZ2Star_8TeV-madgraph/Summer12_DR53X-PU_S10_START53_V7A-v1/AODSIM/V5_B/PAT_CMG_V5_16_0_1377544840/HTT_24Jul_newTES_manzoni_Up_Jobs/Job_22'
p421
g278
sS'DY4JetsToLL_M-50_TuneZ2Star_8TeV-madgraph/Summer12_DR53X-PU_S10_START53_V7A-v1/AODSIM/V5_B/PAT_CMG_V5_16_0_1377544840/HTT_24Jul_newTES_manzoni_Up_Jobs/Job_25'
p422
g278
sS'DY4JetsToLL_M-50_TuneZ2Star_8TeV-madgraph/Summer12_DR53X-PU_S10_START53_V7A-v1/AODSIM/V5_B/PAT_CMG_V5_16_0_1377544840/HTT_24Jul_newTES_manzoni_Up_Jobs/Job_24'
p423
g278
sS'DY4JetsToLL_M-50_TuneZ2Star_8TeV-madgraph/Summer12_DR53X-PU_S10_START53_V7A-v1/AODSIM/V5_B/PAT_CMG_V5_16_0_1377544840/HTT_24Jul_newTES_manzoni_Up_Jobs/Job_27'
p424
g278
sS'DY4JetsToLL_M-50_TuneZ2Star_8TeV-madgraph/Summer12_DR53X-PU_S10_START53_V7A-v1/AODSIM/V5_B/PAT_CMG_V5_16_0_1377544840/HTT_24Jul_newTES_manzoni_Up_Jobs/Job_26'
p425
g278
sS'DY4JetsToLL_M-50_TuneZ2Star_8TeV-madgraph/Summer12_DR53X-PU_S10_START53_V7A-v1/AODSIM/V5_B/PAT_CMG_V5_16_0_1377544840/HTT_24Jul_newTES_manzoni_Up_Jobs/Job_29'
p426
g278
sS'DY4JetsToLL_M-50_TuneZ2Star_8TeV-madgraph/Summer12_DR53X-PU_S10_START53_V7A-v1/AODSIM/V5_B/PAT_CMG_V5_16_0_1377544840/HTT_24Jul_newTES_manzoni_Up_Jobs/Job_28'
p427
g278
sssS'CheckDatasetExists'
p428
(dp429
S'Dataset'
p430
S'/DY4JetsToLL_M-50_TuneZ2Star_8TeV-madgraph/Summer12_DR53X-PU_S10_START53_V7A-v1/AODSIM/V5_B/PAT_CMG_V5_16_0'
p431
ssS'GenerateMask'
p432
(dp433
g3
(dp434
VPathList
p435
(lp436
V/store/cmst3/user/cmgtools/CMG/DY4JetsToLL_M-50_TuneZ2Star_8TeV-madgraph/Summer12_DR53X-PU_S10_START53_V7A-v1/AODSIM/V5_B/PAT_CMG_V5_16_0
p437
asVStageHost
p438
Vcastorcms
p439
sVPrimaryDatasetFraction
p440
F1.0
sVFilesGood
p441
I628
sVPrimaryDatasetEntries
p442
I6402827
sVReportVersion
p443
I3
sVFiles
p444
(dp445
V/store/cmst3/user/cmgtools/CMG/DY4JetsToLL_M-50_TuneZ2Star_8TeV-madgraph/Summer12_DR53X-PU_S10_START53_V7A-v1/AODSIM/V5_B/PAT_CMG_V5_16_0/cmgTuple_198.root
p446
(lp447
I01
aI10972
asV/store/cmst3/user/cmgtools/CMG/DY4JetsToLL_M-50_TuneZ2Star_8TeV-madgraph/Summer12_DR53X-PU_S10_START53_V7A-v1/AODSIM/V5_B/PAT_CMG_V5_16_0/cmgTuple_57.root
p448
(lp449
I01
aI5984
asV/store/cmst3/user/cmgtools/CMG/DY4JetsToLL_M-50_TuneZ2Star_8TeV-madgraph/Summer12_DR53X-PU_S10_START53_V7A-v1/AODSIM/V5_B/PAT_CMG_V5_16_0/cmgTuple_372.root
p450
(lp451
I01
aI10887
asV/store/cmst3/user/cmgtools/CMG/DY4JetsToLL_M-50_TuneZ2Star_8TeV-madgraph/Summer12_DR53X-PU_S10_START53_V7A-v1/AODSIM/V5_B/PAT_CMG_V5_16_0/cmgTuple_511.root
p452
(lp453
I01
aI6845
asV/store/cmst3/user/cmgtools/CMG/DY4JetsToLL_M-50_TuneZ2Star_8TeV-madgraph/Summer12_DR53X-PU_S10_START53_V7A-v1/AODSIM/V5_B/PAT_CMG_V5_16_0/cmgTuple_479.root
p454
(lp455
I01
aI8376
asV/store/cmst3/user/cmgtools/CMG/DY4JetsToLL_M-50_TuneZ2Star_8TeV-madgraph/Summer12_DR53X-PU_S10_START53_V7A-v1/AODSIM/V5_B/PAT_CMG_V5_16_0/cmgTuple_486.root
p456
(lp457
I01
aI10081
asV/store/cmst3/user/cmgtools/CMG/DY4JetsToLL_M-50_TuneZ2Star_8TeV-madgraph/Summer12_DR53X-PU_S10_START53_V7A-v1/AODSIM/V5_B/PAT_CMG_V5_16_0/cmgTuple_385.root
p458
(lp459
I01
aI10776
asV/store/cmst3/user/cmgtools/CMG/DY4JetsToLL_M-50_TuneZ2Star_8TeV-madgraph/Summer12_DR53X-PU_S10_START53_V7A-v1/AODSIM/V5_B/PAT_CMG_V5_16_0/cmgTuple_621.root
p460
(lp461
I01
aI10908
asV/store/cmst3/user/cmgtools/CMG/DY4JetsToLL_M-50_TuneZ2Star_8TeV-madgraph/Summer12_DR53X-PU_S10_START53_V7A-v1/AODSIM/V5_B/PAT_CMG_V5_16_0/cmgTuple_144.root
p462
(lp463
I01
aI6863
asV/store/cmst3/user/cmgtools/CMG/DY4JetsToLL_M-50_TuneZ2Star_8TeV-madgraph/Summer12_DR53X-PU_S10_START53_V7A-v1/AODSIM/V5_B/PAT_CMG_V5_16_0/cmgTuple_213.root
p464
(lp465
I01
aI10356
asV/store/cmst3/user/cmgtools/CMG/DY4JetsToLL_M-50_TuneZ2Star_8TeV-madgraph/Summer12_DR53X-PU_S10_START53_V7A-v1/AODSIM/V5_B/PAT_CMG_V5_16_0/cmgTuple_26.root
p466
(lp467
I01
aI10820
asV/store/cmst3/user/cmgtools/CMG/DY4JetsToLL_M-50_TuneZ2Star_8TeV-madgraph/Summer12_DR53X-PU_S10_START53_V7A-v1/AODSIM/V5_B/PAT_CMG_V5_16_0/cmgTuple_185.root
p468
(lp469
I01
aI7387
asV/store/cmst3/user/cmgtools/CMG/DY4JetsToLL_M-50_TuneZ2Star_8TeV-madgraph/Summer12_DR53X-PU_S10_START53_V7A-v1/AODSIM/V5_B/PAT_CMG_V5_16_0/cmgTuple_487.root
p470
(lp471
I01
aI10677
asV/store/cmst3/user/cmgtools/CMG/DY4JetsToLL_M-50_TuneZ2Star_8TeV-madgraph/Summer12_DR53X-PU_S10_START53_V7A-v1/AODSIM/V5_B/PAT_CMG_V5_16_0/cmgTuple_405.root
p472
(lp473
I01
aI10139
asV/store/cmst3/user/cmgtools/CMG/DY4JetsToLL_M-50_TuneZ2Star_8TeV-madgraph/Summer12_DR53X-PU_S10_START53_V7A-v1/AODSIM/V5_B/PAT_CMG_V5_16_0/cmgTuple_136.root
p474
(lp475
I01
aI10314
asV/store/cmst3/user/cmgtools/CMG/DY4JetsToLL_M-50_TuneZ2Star_8TeV-madgraph/Summer12_DR53X-PU_S10_START53_V7A-v1/AODSIM/V5_B/PAT_CMG_V5_16_0/cmgTuple_12.root
p476
(lp477
I01
aI10681
asV/store/cmst3/user/cmgtools/CMG/DY4JetsToLL_M-50_TuneZ2Star_8TeV-madgraph/Summer12_DR53X-PU_S10_START53_V7A-v1/AODSIM/V5_B/PAT_CMG_V5_16_0/cmgTuple_94.root
p478
(lp479
I01
aI10417
asV/store/cmst3/user/cmgtools/CMG/DY4JetsToLL_M-50_TuneZ2Star_8TeV-madgraph/Summer12_DR53X-PU_S10_START53_V7A-v1/AODSIM/V5_B/PAT_CMG_V5_16_0/cmgTuple_355.root
p480
(lp481
I01
aI10636
asV/store/cmst3/user/cmgtools/CMG/DY4JetsToLL_M-50_TuneZ2Star_8TeV-madgraph/Summer12_DR53X-PU_S10_START53_V7A-v1/AODSIM/V5_B/PAT_CMG_V5_16_0/cmgTuple_532.root
p482
(lp483
I01
aI10321
asV/store/cmst3/user/cmgtools/CMG/DY4JetsToLL_M-50_TuneZ2Star_8TeV-madgraph/Summer12_DR53X-PU_S10_START53_V7A-v1/AODSIM/V5_B/PAT_CMG_V5_16_0/cmgTuple_87.root
p484
(lp485
I01
aI11216
asV/store/cmst3/user/cmgtools/CMG/DY4JetsToLL_M-50_TuneZ2Star_8TeV-madgraph/Summer12_DR53X-PU_S10_START53_V7A-v1/AODSIM/V5_B/PAT_CMG_V5_16_0/cmgTuple_364.root
p486
(lp487
I01
aI10784
asV/store/cmst3/user/cmgtools/CMG/DY4JetsToLL_M-50_TuneZ2Star_8TeV-madgraph/Summer12_DR53X-PU_S10_START53_V7A-v1/AODSIM/V5_B/PAT_CMG_V5_16_0/cmgTuple_194.root
p488
(lp489
I01
aI10657
asV/store/cmst3/user/cmgtools/CMG/DY4JetsToLL_M-50_TuneZ2Star_8TeV-madgraph/Summer12_DR53X-PU_S10_START53_V7A-v1/AODSIM/V5_B/PAT_CMG_V5_16_0/cmgTuple_528.root
p490
(lp491
I01
aI10970
asV/store/cmst3/user/cmgtools/CMG/DY4JetsToLL_M-50_TuneZ2Star_8TeV-madgraph/Summer12_DR53X-PU_S10_START53_V7A-v1/AODSIM/V5_B/PAT_CMG_V5_16_0/cmgTuple_555.root
p492
(lp493
I01
aI9169
asV/store/cmst3/user/cmgtools/CMG/DY4JetsToLL_M-50_TuneZ2Star_8TeV-madgraph/Summer12_DR53X-PU_S10_START53_V7A-v1/AODSIM/V5_B/PAT_CMG_V5_16_0/cmgTuple_365.root
p494
(lp495
I01
aI10307
asV/store/cmst3/user/cmgtools/CMG/DY4JetsToLL_M-50_TuneZ2Star_8TeV-madgraph/Summer12_DR53X-PU_S10_START53_V7A-v1/AODSIM/V5_B/PAT_CMG_V5_16_0/cmgTuple_461.root
p496
(lp497
I01
aI10491
asV/store/cmst3/user/cmgtools/CMG/DY4JetsToLL_M-50_TuneZ2Star_8TeV-madgraph/Summer12_DR53X-PU_S10_START53_V7A-v1/AODSIM/V5_B/PAT_CMG_V5_16_0/cmgTuple_431.root
p498
(lp499
I01
aI10236
asV/store/cmst3/user/cmgtools/CMG/DY4JetsToLL_M-50_TuneZ2Star_8TeV-madgraph/Summer12_DR53X-PU_S10_START53_V7A-v1/AODSIM/V5_B/PAT_CMG_V5_16_0/cmgTuple_284.root
p500
(lp501
I01
aI10842
asV/store/cmst3/user/cmgtools/CMG/DY4JetsToLL_M-50_TuneZ2Star_8TeV-madgraph/Summer12_DR53X-PU_S10_START53_V7A-v1/AODSIM/V5_B/PAT_CMG_V5_16_0/cmgTuple_48.root
p502
(lp503
I01
aI10952
asV/store/cmst3/user/cmgtools/CMG/DY4JetsToLL_M-50_TuneZ2Star_8TeV-madgraph/Summer12_DR53X-PU_S10_START53_V7A-v1/AODSIM/V5_B/PAT_CMG_V5_16_0/cmgTuple_395.root
p504
(lp505
I01
aI11149
asV/store/cmst3/user/cmgtools/CMG/DY4JetsToLL_M-50_TuneZ2Star_8TeV-madgraph/Summer12_DR53X-PU_S10_START53_V7A-v1/AODSIM/V5_B/PAT_CMG_V5_16_0/cmgTuple_628.root
p506
(lp507
I01
aI11101
asV/store/cmst3/user/cmgtools/CMG/DY4JetsToLL_M-50_TuneZ2Star_8TeV-madgraph/Summer12_DR53X-PU_S10_START53_V7A-v1/AODSIM/V5_B/PAT_CMG_V5_16_0/cmgTuple_325.root
p508
(lp509
I01
aI11130
asV/store/cmst3/user/cmgtools/CMG/DY4JetsToLL_M-50_TuneZ2Star_8TeV-madgraph/Summer12_DR53X-PU_S10_START53_V7A-v1/AODSIM/V5_B/PAT_CMG_V5_16_0/cmgTuple_424.root
p510
(lp511
I01
aI10662
asV/store/cmst3/user/cmgtools/CMG/DY4JetsToLL_M-50_TuneZ2Star_8TeV-madgraph/Summer12_DR53X-PU_S10_START53_V7A-v1/AODSIM/V5_B/PAT_CMG_V5_16_0/cmgTuple_204.root
p512
(lp513
I01
aI10734
asV/store/cmst3/user/cmgtools/CMG/DY4JetsToLL_M-50_TuneZ2Star_8TeV-madgraph/Summer12_DR53X-PU_S10_START53_V7A-v1/AODSIM/V5_B/PAT_CMG_V5_16_0/cmgTuple_113.root
p514
(lp515
I01
aI10093
asV/store/cmst3/user/cmgtools/CMG/DY4JetsToLL_M-50_TuneZ2Star_8TeV-madgraph/Summer12_DR53X-PU_S10_START53_V7A-v1/AODSIM/V5_B/PAT_CMG_V5_16_0/cmgTuple_393.root
p516
(lp517
I01
aI10352
asV/store/cmst3/user/cmgtools/CMG/DY4JetsToLL_M-50_TuneZ2Star_8TeV-madgraph/Summer12_DR53X-PU_S10_START53_V7A-v1/AODSIM/V5_B/PAT_CMG_V5_16_0/cmgTuple_430.root
p518
(lp519
I01
aI9202
asV/store/cmst3/user/cmgtools/CMG/DY4JetsToLL_M-50_TuneZ2Star_8TeV-madgraph/Summer12_DR53X-PU_S10_START53_V7A-v1/AODSIM/V5_B/PAT_CMG_V5_16_0/cmgTuple_502.root
p520
(lp521
I01
aI11047
asV/store/cmst3/user/cmgtools/CMG/DY4JetsToLL_M-50_TuneZ2Star_8TeV-madgraph/Summer12_DR53X-PU_S10_START53_V7A-v1/AODSIM/V5_B/PAT_CMG_V5_16_0/cmgTuple_425.root
p522
(lp523
I01
aI11010
asV/store/cmst3/user/cmgtools/CMG/DY4JetsToLL_M-50_TuneZ2Star_8TeV-madgraph/Summer12_DR53X-PU_S10_START53_V7A-v1/AODSIM/V5_B/PAT_CMG_V5_16_0/cmgTuple_155.root
p524
(lp525
I01
aI10405
asV/store/cmst3/user/cmgtools/CMG/DY4JetsToLL_M-50_TuneZ2Star_8TeV-madgraph/Summer12_DR53X-PU_S10_START53_V7A-v1/AODSIM/V5_B/PAT_CMG_V5_16_0/cmgTuple_288.root
p526
(lp527
I01
aI10815
asV/store/cmst3/user/cmgtools/CMG/DY4JetsToLL_M-50_TuneZ2Star_8TeV-madgraph/Summer12_DR53X-PU_S10_START53_V7A-v1/AODSIM/V5_B/PAT_CMG_V5_16_0/cmgTuple_260.root
p528
(lp529
I01
aI10764
asV/store/cmst3/user/cmgtools/CMG/DY4JetsToLL_M-50_TuneZ2Star_8TeV-madgraph/Summer12_DR53X-PU_S10_START53_V7A-v1/AODSIM/V5_B/PAT_CMG_V5_16_0/cmgTuple_245.root
p530
(lp531
I01
aI9407
asV/store/cmst3/user/cmgtools/CMG/DY4JetsToLL_M-50_TuneZ2Star_8TeV-madgraph/Summer12_DR53X-PU_S10_START53_V7A-v1/AODSIM/V5_B/PAT_CMG_V5_16_0/cmgTuple_231.root
p532
(lp533
I01
aI8296
asV/store/cmst3/user/cmgtools/CMG/DY4JetsToLL_M-50_TuneZ2Star_8TeV-madgraph/Summer12_DR53X-PU_S10_START53_V7A-v1/AODSIM/V5_B/PAT_CMG_V5_16_0/cmgTuple_382.root
p534
(lp535
I01
aI10569
asV/store/cmst3/user/cmgtools/CMG/DY4JetsToLL_M-50_TuneZ2Star_8TeV-madgraph/Summer12_DR53X-PU_S10_START53_V7A-v1/AODSIM/V5_B/PAT_CMG_V5_16_0/cmgTuple_324.root
p536
(lp537
I01
aI10389
asV/store/cmst3/user/cmgtools/CMG/DY4JetsToLL_M-50_TuneZ2Star_8TeV-madgraph/Summer12_DR53X-PU_S10_START53_V7A-v1/AODSIM/V5_B/PAT_CMG_V5_16_0/cmgTuple_230.root
p538
(lp539
I01
aI9035
asV/store/cmst3/user/cmgtools/CMG/DY4JetsToLL_M-50_TuneZ2Star_8TeV-madgraph/Summer12_DR53X-PU_S10_START53_V7A-v1/AODSIM/V5_B/PAT_CMG_V5_16_0/cmgTuple_508.root
p540
(lp541
I01
aI10199
asV/store/cmst3/user/cmgtools/CMG/DY4JetsToLL_M-50_TuneZ2Star_8TeV-madgraph/Summer12_DR53X-PU_S10_START53_V7A-v1/AODSIM/V5_B/PAT_CMG_V5_16_0/cmgTuple_356.root
p542
(lp543
I01
aI11083
asV/store/cmst3/user/cmgtools/CMG/DY4JetsToLL_M-50_TuneZ2Star_8TeV-madgraph/Summer12_DR53X-PU_S10_START53_V7A-v1/AODSIM/V5_B/PAT_CMG_V5_16_0/cmgTuple_97.root
p544
(lp545
I01
aI10164
asV/store/cmst3/user/cmgtools/CMG/DY4JetsToLL_M-50_TuneZ2Star_8TeV-madgraph/Summer12_DR53X-PU_S10_START53_V7A-v1/AODSIM/V5_B/PAT_CMG_V5_16_0/cmgTuple_484.root
p546
(lp547
I01
aI10612
asV/store/cmst3/user/cmgtools/CMG/DY4JetsToLL_M-50_TuneZ2Star_8TeV-madgraph/Summer12_DR53X-PU_S10_START53_V7A-v1/AODSIM/V5_B/PAT_CMG_V5_16_0/cmgTuple_240.root
p548
(lp549
I01
aI10592
asV/store/cmst3/user/cmgtools/CMG/DY4JetsToLL_M-50_TuneZ2Star_8TeV-madgraph/Summer12_DR53X-PU_S10_START53_V7A-v1/AODSIM/V5_B/PAT_CMG_V5_16_0/cmgTuple_9.root
p550
(lp551
I01
aI8470
asV/store/cmst3/user/cmgtools/CMG/DY4JetsToLL_M-50_TuneZ2Star_8TeV-madgraph/Summer12_DR53X-PU_S10_START53_V7A-v1/AODSIM/V5_B/PAT_CMG_V5_16_0/cmgTuple_71.root
p552
(lp553
I01
aI10822
asV/store/cmst3/user/cmgtools/CMG/DY4JetsToLL_M-50_TuneZ2Star_8TeV-madgraph/Summer12_DR53X-PU_S10_START53_V7A-v1/AODSIM/V5_B/PAT_CMG_V5_16_0/cmgTuple_154.root
p554
(lp555
I01
aI10774
asV/store/cmst3/user/cmgtools/CMG/DY4JetsToLL_M-50_TuneZ2Star_8TeV-madgraph/Summer12_DR53X-PU_S10_START53_V7A-v1/AODSIM/V5_B/PAT_CMG_V5_16_0/cmgTuple_552.root
p556
(lp557
I01
aI10488
asV/store/cmst3/user/cmgtools/CMG/DY4JetsToLL_M-50_TuneZ2Star_8TeV-madgraph/Summer12_DR53X-PU_S10_START53_V7A-v1/AODSIM/V5_B/PAT_CMG_V5_16_0/cmgTuple_589.root
p558
(lp559
I01
aI10707
asV/store/cmst3/user/cmgtools/CMG/DY4JetsToLL_M-50_TuneZ2Star_8TeV-madgraph/Summer12_DR53X-PU_S10_START53_V7A-v1/AODSIM/V5_B/PAT_CMG_V5_16_0/cmgTuple_282.root
p560
(lp561
I01
aI10326
asV/store/cmst3/user/cmgtools/CMG/DY4JetsToLL_M-50_TuneZ2Star_8TeV-madgraph/Summer12_DR53X-PU_S10_START53_V7A-v1/AODSIM/V5_B/PAT_CMG_V5_16_0/cmgTuple_472.root
p562
(lp563
I01
aI7823
asV/store/cmst3/user/cmgtools/CMG/DY4JetsToLL_M-50_TuneZ2Star_8TeV-madgraph/Summer12_DR53X-PU_S10_START53_V7A-v1/AODSIM/V5_B/PAT_CMG_V5_16_0/cmgTuple_616.root
p564
(lp565
I01
aI10274
asV/store/cmst3/user/cmgtools/CMG/DY4JetsToLL_M-50_TuneZ2Star_8TeV-madgraph/Summer12_DR53X-PU_S10_START53_V7A-v1/AODSIM/V5_B/PAT_CMG_V5_16_0/cmgTuple_496.root
p566
(lp567
I01
aI10216
asV/store/cmst3/user/cmgtools/CMG/DY4JetsToLL_M-50_TuneZ2Star_8TeV-madgraph/Summer12_DR53X-PU_S10_START53_V7A-v1/AODSIM/V5_B/PAT_CMG_V5_16_0/cmgTuple_212.root
p568
(lp569
I01
aI10872
asV/store/cmst3/user/cmgtools/CMG/DY4JetsToLL_M-50_TuneZ2Star_8TeV-madgraph/Summer12_DR53X-PU_S10_START53_V7A-v1/AODSIM/V5_B/PAT_CMG_V5_16_0/cmgTuple_489.root
p570
(lp571
I01
aI6565
asV/store/cmst3/user/cmgtools/CMG/DY4JetsToLL_M-50_TuneZ2Star_8TeV-madgraph/Summer12_DR53X-PU_S10_START53_V7A-v1/AODSIM/V5_B/PAT_CMG_V5_16_0/cmgTuple_273.root
p572
(lp573
I01
aI11130
asV/store/cmst3/user/cmgtools/CMG/DY4JetsToLL_M-50_TuneZ2Star_8TeV-madgraph/Summer12_DR53X-PU_S10_START53_V7A-v1/AODSIM/V5_B/PAT_CMG_V5_16_0/cmgTuple_115.root
p574
(lp575
I01
aI10676
asV/store/cmst3/user/cmgtools/CMG/DY4JetsToLL_M-50_TuneZ2Star_8TeV-madgraph/Summer12_DR53X-PU_S10_START53_V7A-v1/AODSIM/V5_B/PAT_CMG_V5_16_0/cmgTuple_492.root
p576
(lp577
I01
aI10068
asV/store/cmst3/user/cmgtools/CMG/DY4JetsToLL_M-50_TuneZ2Star_8TeV-madgraph/Summer12_DR53X-PU_S10_START53_V7A-v1/AODSIM/V5_B/PAT_CMG_V5_16_0/cmgTuple_543.root
p578
(lp579
I01
aI11206
asV/store/cmst3/user/cmgtools/CMG/DY4JetsToLL_M-50_TuneZ2Star_8TeV-madgraph/Summer12_DR53X-PU_S10_START53_V7A-v1/AODSIM/V5_B/PAT_CMG_V5_16_0/cmgTuple_214.root
p580
(lp581
I01
aI10659
asV/store/cmst3/user/cmgtools/CMG/DY4JetsToLL_M-50_TuneZ2Star_8TeV-madgraph/Summer12_DR53X-PU_S10_START53_V7A-v1/AODSIM/V5_B/PAT_CMG_V5_16_0/cmgTuple_575.root
p582
(lp583
I01
aI10949
asV/store/cmst3/user/cmgtools/CMG/DY4JetsToLL_M-50_TuneZ2Star_8TeV-madgraph/Summer12_DR53X-PU_S10_START53_V7A-v1/AODSIM/V5_B/PAT_CMG_V5_16_0/cmgTuple_383.root
p584
(lp585
I01
aI8484
asV/store/cmst3/user/cmgtools/CMG/DY4JetsToLL_M-50_TuneZ2Star_8TeV-madgraph/Summer12_DR53X-PU_S10_START53_V7A-v1/AODSIM/V5_B/PAT_CMG_V5_16_0/cmgTuple_66.root
p586
(lp587
I01
aI10871
asV/store/cmst3/user/cmgtools/CMG/DY4JetsToLL_M-50_TuneZ2Star_8TeV-madgraph/Summer12_DR53X-PU_S10_START53_V7A-v1/AODSIM/V5_B/PAT_CMG_V5_16_0/cmgTuple_110.root
p588
(lp589
I01
aI10182
asV/store/cmst3/user/cmgtools/CMG/DY4JetsToLL_M-50_TuneZ2Star_8TeV-madgraph/Summer12_DR53X-PU_S10_START53_V7A-v1/AODSIM/V5_B/PAT_CMG_V5_16_0/cmgTuple_17.root
p590
(lp591
I01
aI11017
asV/store/cmst3/user/cmgtools/CMG/DY4JetsToLL_M-50_TuneZ2Star_8TeV-madgraph/Summer12_DR53X-PU_S10_START53_V7A-v1/AODSIM/V5_B/PAT_CMG_V5_16_0/cmgTuple_521.root
p592
(lp593
I01
aI10454
asV/store/cmst3/user/cmgtools/CMG/DY4JetsToLL_M-50_TuneZ2Star_8TeV-madgraph/Summer12_DR53X-PU_S10_START53_V7A-v1/AODSIM/V5_B/PAT_CMG_V5_16_0/cmgTuple_373.root
p594
(lp595
I01
aI10281
asV/store/cmst3/user/cmgtools/CMG/DY4JetsToLL_M-50_TuneZ2Star_8TeV-madgraph/Summer12_DR53X-PU_S10_START53_V7A-v1/AODSIM/V5_B/PAT_CMG_V5_16_0/cmgTuple_37.root
p596
(lp597
I01
aI7375
asV/store/cmst3/user/cmgtools/CMG/DY4JetsToLL_M-50_TuneZ2Star_8TeV-madgraph/Summer12_DR53X-PU_S10_START53_V7A-v1/AODSIM/V5_B/PAT_CMG_V5_16_0/cmgTuple_6.root
p598
(lp599
I01
aI10225
asV/store/cmst3/user/cmgtools/CMG/DY4JetsToLL_M-50_TuneZ2Star_8TeV-madgraph/Summer12_DR53X-PU_S10_START53_V7A-v1/AODSIM/V5_B/PAT_CMG_V5_16_0/cmgTuple_478.root
p600
(lp601
I01
aI10136
asV/store/cmst3/user/cmgtools/CMG/DY4JetsToLL_M-50_TuneZ2Star_8TeV-madgraph/Summer12_DR53X-PU_S10_START53_V7A-v1/AODSIM/V5_B/PAT_CMG_V5_16_0/cmgTuple_413.root
p602
(lp603
I01
aI10917
asV/store/cmst3/user/cmgtools/CMG/DY4JetsToLL_M-50_TuneZ2Star_8TeV-madgraph/Summer12_DR53X-PU_S10_START53_V7A-v1/AODSIM/V5_B/PAT_CMG_V5_16_0/cmgTuple_363.root
p604
(lp605
I01
aI11370
asV/store/cmst3/user/cmgtools/CMG/DY4JetsToLL_M-50_TuneZ2Star_8TeV-madgraph/Summer12_DR53X-PU_S10_START53_V7A-v1/AODSIM/V5_B/PAT_CMG_V5_16_0/cmgTuple_80.root
p606
(lp607
I01
aI10026
asV/store/cmst3/user/cmgtools/CMG/DY4JetsToLL_M-50_TuneZ2Star_8TeV-madgraph/Summer12_DR53X-PU_S10_START53_V7A-v1/AODSIM/V5_B/PAT_CMG_V5_16_0/cmgTuple_277.root
p608
(lp609
I01
aI11249
asV/store/cmst3/user/cmgtools/CMG/DY4JetsToLL_M-50_TuneZ2Star_8TeV-madgraph/Summer12_DR53X-PU_S10_START53_V7A-v1/AODSIM/V5_B/PAT_CMG_V5_16_0/cmgTuple_247.root
p610
(lp611
I01
aI11201
asV/store/cmst3/user/cmgtools/CMG/DY4JetsToLL_M-50_TuneZ2Star_8TeV-madgraph/Summer12_DR53X-PU_S10_START53_V7A-v1/AODSIM/V5_B/PAT_CMG_V5_16_0/cmgTuple_40.root
p612
(lp613
I01
aI10313
asV/store/cmst3/user/cmgtools/CMG/DY4JetsToLL_M-50_TuneZ2Star_8TeV-madgraph/Summer12_DR53X-PU_S10_START53_V7A-v1/AODSIM/V5_B/PAT_CMG_V5_16_0/cmgTuple_58.root
p614
(lp615
I01
aI11249
asV/store/cmst3/user/cmgtools/CMG/DY4JetsToLL_M-50_TuneZ2Star_8TeV-madgraph/Summer12_DR53X-PU_S10_START53_V7A-v1/AODSIM/V5_B/PAT_CMG_V5_16_0/cmgTuple_278.root
p616
(lp617
I01
aI10093
asV/store/cmst3/user/cmgtools/CMG/DY4JetsToLL_M-50_TuneZ2Star_8TeV-madgraph/Summer12_DR53X-PU_S10_START53_V7A-v1/AODSIM/V5_B/PAT_CMG_V5_16_0/cmgTuple_89.root
p618
(lp619
I01
aI9735
asV/store/cmst3/user/cmgtools/CMG/DY4JetsToLL_M-50_TuneZ2Star_8TeV-madgraph/Summer12_DR53X-PU_S10_START53_V7A-v1/AODSIM/V5_B/PAT_CMG_V5_16_0/cmgTuple_201.root
p620
(lp621
I01
aI10508
asV/store/cmst3/user/cmgtools/CMG/DY4JetsToLL_M-50_TuneZ2Star_8TeV-madgraph/Summer12_DR53X-PU_S10_START53_V7A-v1/AODSIM/V5_B/PAT_CMG_V5_16_0/cmgTuple_475.root
p622
(lp623
I01
aI11195
asV/store/cmst3/user/cmgtools/CMG/DY4JetsToLL_M-50_TuneZ2Star_8TeV-madgraph/Summer12_DR53X-PU_S10_START53_V7A-v1/AODSIM/V5_B/PAT_CMG_V5_16_0/cmgTuple_445.root
p624
(lp625
I01
aI10323
asV/store/cmst3/user/cmgtools/CMG/DY4JetsToLL_M-50_TuneZ2Star_8TeV-madgraph/Summer12_DR53X-PU_S10_START53_V7A-v1/AODSIM/V5_B/PAT_CMG_V5_16_0/cmgTuple_579.root
p626
(lp627
I01
aI11094
asV/store/cmst3/user/cmgtools/CMG/DY4JetsToLL_M-50_TuneZ2Star_8TeV-madgraph/Summer12_DR53X-PU_S10_START53_V7A-v1/AODSIM/V5_B/PAT_CMG_V5_16_0/cmgTuple_168.root
p628
(lp629
I01
aI11105
asV/store/cmst3/user/cmgtools/CMG/DY4JetsToLL_M-50_TuneZ2Star_8TeV-madgraph/Summer12_DR53X-PU_S10_START53_V7A-v1/AODSIM/V5_B/PAT_CMG_V5_16_0/cmgTuple_54.root
p630
(lp631
I01
aI10475
asV/store/cmst3/user/cmgtools/CMG/DY4JetsToLL_M-50_TuneZ2Star_8TeV-madgraph/Summer12_DR53X-PU_S10_START53_V7A-v1/AODSIM/V5_B/PAT_CMG_V5_16_0/cmgTuple_542.root
p632
(lp633
I01
aI10650
asV/store/cmst3/user/cmgtools/CMG/DY4JetsToLL_M-50_TuneZ2Star_8TeV-madgraph/Summer12_DR53X-PU_S10_START53_V7A-v1/AODSIM/V5_B/PAT_CMG_V5_16_0/cmgTuple_493.root
p634
(lp635
I01
aI10750
asV/store/cmst3/user/cmgtools/CMG/DY4JetsToLL_M-50_TuneZ2Star_8TeV-madgraph/Summer12_DR53X-PU_S10_START53_V7A-v1/AODSIM/V5_B/PAT_CMG_V5_16_0/cmgTuple_143.root
p636
(lp637
I01
aI11204
asV/store/cmst3/user/cmgtools/CMG/DY4JetsToLL_M-50_TuneZ2Star_8TeV-madgraph/Summer12_DR53X-PU_S10_START53_V7A-v1/AODSIM/V5_B/PAT_CMG_V5_16_0/cmgTuple_351.root
p638
(lp639
I01
aI10906
asV/store/cmst3/user/cmgtools/CMG/DY4JetsToLL_M-50_TuneZ2Star_8TeV-madgraph/Summer12_DR53X-PU_S10_START53_V7A-v1/AODSIM/V5_B/PAT_CMG_V5_16_0/cmgTuple_158.root
p640
(lp641
I01
aI11021
asV/store/cmst3/user/cmgtools/CMG/DY4JetsToLL_M-50_TuneZ2Star_8TeV-madgraph/Summer12_DR53X-PU_S10_START53_V7A-v1/AODSIM/V5_B/PAT_CMG_V5_16_0/cmgTuple_127.root
p642
(lp643
I01
aI6103
asV/store/cmst3/user/cmgtools/CMG/DY4JetsToLL_M-50_TuneZ2Star_8TeV-madgraph/Summer12_DR53X-PU_S10_START53_V7A-v1/AODSIM/V5_B/PAT_CMG_V5_16_0/cmgTuple_320.root
p644
(lp645
I01
aI11200
asV/store/cmst3/user/cmgtools/CMG/DY4JetsToLL_M-50_TuneZ2Star_8TeV-madgraph/Summer12_DR53X-PU_S10_START53_V7A-v1/AODSIM/V5_B/PAT_CMG_V5_16_0/cmgTuple_388.root
p646
(lp647
I01
aI10548
asV/store/cmst3/user/cmgtools/CMG/DY4JetsToLL_M-50_TuneZ2Star_8TeV-madgraph/Summer12_DR53X-PU_S10_START53_V7A-v1/AODSIM/V5_B/PAT_CMG_V5_16_0/cmgTuple_78.root
p648
(lp649
I01
aI11265
asV/store/cmst3/user/cmgtools/CMG/DY4JetsToLL_M-50_TuneZ2Star_8TeV-madgraph/Summer12_DR53X-PU_S10_START53_V7A-v1/AODSIM/V5_B/PAT_CMG_V5_16_0/cmgTuple_321.root
p650
(lp651
I01
aI11277
asV/store/cmst3/user/cmgtools/CMG/DY4JetsToLL_M-50_TuneZ2Star_8TeV-madgraph/Summer12_DR53X-PU_S10_START53_V7A-v1/AODSIM/V5_B/PAT_CMG_V5_16_0/cmgTuple_151.root
p652
(lp653
I01
aI11050
asV/store/cmst3/user/cmgtools/CMG/DY4JetsToLL_M-50_TuneZ2Star_8TeV-madgraph/Summer12_DR53X-PU_S10_START53_V7A-v1/AODSIM/V5_B/PAT_CMG_V5_16_0/cmgTuple_607.root
p654
(lp655
I01
aI10739
asV/store/cmst3/user/cmgtools/CMG/DY4JetsToLL_M-50_TuneZ2Star_8TeV-madgraph/Summer12_DR53X-PU_S10_START53_V7A-v1/AODSIM/V5_B/PAT_CMG_V5_16_0/cmgTuple_547.root
p656
(lp657
I01
aI10320
asV/store/cmst3/user/cmgtools/CMG/DY4JetsToLL_M-50_TuneZ2Star_8TeV-madgraph/Summer12_DR53X-PU_S10_START53_V7A-v1/AODSIM/V5_B/PAT_CMG_V5_16_0/cmgTuple_581.root
p658
(lp659
I01
aI10081
asV/store/cmst3/user/cmgtools/CMG/DY4JetsToLL_M-50_TuneZ2Star_8TeV-madgraph/Summer12_DR53X-PU_S10_START53_V7A-v1/AODSIM/V5_B/PAT_CMG_V5_16_0/cmgTuple_59.root
p660
(lp661
I01
aI11118
asV/store/cmst3/user/cmgtools/CMG/DY4JetsToLL_M-50_TuneZ2Star_8TeV-madgraph/Summer12_DR53X-PU_S10_START53_V7A-v1/AODSIM/V5_B/PAT_CMG_V5_16_0/cmgTuple_572.root
p662
(lp663
I01
aI11278
asV/store/cmst3/user/cmgtools/CMG/DY4JetsToLL_M-50_TuneZ2Star_8TeV-madgraph/Summer12_DR53X-PU_S10_START53_V7A-v1/AODSIM/V5_B/PAT_CMG_V5_16_0/cmgTuple_571.root
p664
(lp665
I01
aI10489
asV/store/cmst3/user/cmgtools/CMG/DY4JetsToLL_M-50_TuneZ2Star_8TeV-madgraph/Summer12_DR53X-PU_S10_START53_V7A-v1/AODSIM/V5_B/PAT_CMG_V5_16_0/cmgTuple_291.root
p666
(lp667
I01
aI5982
asV/store/cmst3/user/cmgtools/CMG/DY4JetsToLL_M-50_TuneZ2Star_8TeV-madgraph/Summer12_DR53X-PU_S10_START53_V7A-v1/AODSIM/V5_B/PAT_CMG_V5_16_0/cmgTuple_346.root
p668
(lp669
I01
aI9812
asV/store/cmst3/user/cmgtools/CMG/DY4JetsToLL_M-50_TuneZ2Star_8TeV-madgraph/Summer12_DR53X-PU_S10_START53_V7A-v1/AODSIM/V5_B/PAT_CMG_V5_16_0/cmgTuple_46.root
p670
(lp671
I01
aI10205
asV/store/cmst3/user/cmgtools/CMG/DY4JetsToLL_M-50_TuneZ2Star_8TeV-madgraph/Summer12_DR53X-PU_S10_START53_V7A-v1/AODSIM/V5_B/PAT_CMG_V5_16_0/cmgTuple_261.root
p672
(lp673
I01
aI10910
asV/store/cmst3/user/cmgtools/CMG/DY4JetsToLL_M-50_TuneZ2Star_8TeV-madgraph/Summer12_DR53X-PU_S10_START53_V7A-v1/AODSIM/V5_B/PAT_CMG_V5_16_0/cmgTuple_210.root
p674
(lp675
I01
aI10689
asV/store/cmst3/user/cmgtools/CMG/DY4JetsToLL_M-50_TuneZ2Star_8TeV-madgraph/Summer12_DR53X-PU_S10_START53_V7A-v1/AODSIM/V5_B/PAT_CMG_V5_16_0/cmgTuple_112.root
p676
(lp677
I01
aI11241
asV/store/cmst3/user/cmgtools/CMG/DY4JetsToLL_M-50_TuneZ2Star_8TeV-madgraph/Summer12_DR53X-PU_S10_START53_V7A-v1/AODSIM/V5_B/PAT_CMG_V5_16_0/cmgTuple_615.root
p678
(lp679
I01
aI10574
asV/store/cmst3/user/cmgtools/CMG/DY4JetsToLL_M-50_TuneZ2Star_8TeV-madgraph/Summer12_DR53X-PU_S10_START53_V7A-v1/AODSIM/V5_B/PAT_CMG_V5_16_0/cmgTuple_618.root
p680
(lp681
I01
aI10871
asV/store/cmst3/user/cmgtools/CMG/DY4JetsToLL_M-50_TuneZ2Star_8TeV-madgraph/Summer12_DR53X-PU_S10_START53_V7A-v1/AODSIM/V5_B/PAT_CMG_V5_16_0/cmgTuple_328.root
p682
(lp683
I01
aI11135
asV/store/cmst3/user/cmgtools/CMG/DY4JetsToLL_M-50_TuneZ2Star_8TeV-madgraph/Summer12_DR53X-PU_S10_START53_V7A-v1/AODSIM/V5_B/PAT_CMG_V5_16_0/cmgTuple_196.root
p684
(lp685
I01
aI10524
asV/store/cmst3/user/cmgtools/CMG/DY4JetsToLL_M-50_TuneZ2Star_8TeV-madgraph/Summer12_DR53X-PU_S10_START53_V7A-v1/AODSIM/V5_B/PAT_CMG_V5_16_0/cmgTuple_498.root
p686
(lp687
I01
aI6655
asV/store/cmst3/user/cmgtools/CMG/DY4JetsToLL_M-50_TuneZ2Star_8TeV-madgraph/Summer12_DR53X-PU_S10_START53_V7A-v1/AODSIM/V5_B/PAT_CMG_V5_16_0/cmgTuple_348.root
p688
(lp689
I01
aI10227
asV/store/cmst3/user/cmgtools/CMG/DY4JetsToLL_M-50_TuneZ2Star_8TeV-madgraph/Summer12_DR53X-PU_S10_START53_V7A-v1/AODSIM/V5_B/PAT_CMG_V5_16_0/cmgTuple_588.root
p690
(lp691
I01
aI10850
asV/store/cmst3/user/cmgtools/CMG/DY4JetsToLL_M-50_TuneZ2Star_8TeV-madgraph/Summer12_DR53X-PU_S10_START53_V7A-v1/AODSIM/V5_B/PAT_CMG_V5_16_0/cmgTuple_610.root
p692
(lp693
I01
aI10656
asV/store/cmst3/user/cmgtools/CMG/DY4JetsToLL_M-50_TuneZ2Star_8TeV-madgraph/Summer12_DR53X-PU_S10_START53_V7A-v1/AODSIM/V5_B/PAT_CMG_V5_16_0/cmgTuple_437.root
p694
(lp695
I01
aI10844
asV/store/cmst3/user/cmgtools/CMG/DY4JetsToLL_M-50_TuneZ2Star_8TeV-madgraph/Summer12_DR53X-PU_S10_START53_V7A-v1/AODSIM/V5_B/PAT_CMG_V5_16_0/cmgTuple_613.root
p696
(lp697
I01
aI10777
asV/store/cmst3/user/cmgtools/CMG/DY4JetsToLL_M-50_TuneZ2Star_8TeV-madgraph/Summer12_DR53X-PU_S10_START53_V7A-v1/AODSIM/V5_B/PAT_CMG_V5_16_0/cmgTuple_308.root
p698
(lp699
I01
aI10724
asV/store/cmst3/user/cmgtools/CMG/DY4JetsToLL_M-50_TuneZ2Star_8TeV-madgraph/Summer12_DR53X-PU_S10_START53_V7A-v1/AODSIM/V5_B/PAT_CMG_V5_16_0/cmgTuple_281.root
p700
(lp701
I01
aI11125
asV/store/cmst3/user/cmgtools/CMG/DY4JetsToLL_M-50_TuneZ2Star_8TeV-madgraph/Summer12_DR53X-PU_S10_START53_V7A-v1/AODSIM/V5_B/PAT_CMG_V5_16_0/cmgTuple_135.root
p702
(lp703
I01
aI10157
asV/store/cmst3/user/cmgtools/CMG/DY4JetsToLL_M-50_TuneZ2Star_8TeV-madgraph/Summer12_DR53X-PU_S10_START53_V7A-v1/AODSIM/V5_B/PAT_CMG_V5_16_0/cmgTuple_574.root
p704
(lp705
I01
aI11103
asV/store/cmst3/user/cmgtools/CMG/DY4JetsToLL_M-50_TuneZ2Star_8TeV-madgraph/Summer12_DR53X-PU_S10_START53_V7A-v1/AODSIM/V5_B/PAT_CMG_V5_16_0/cmgTuple_403.root
p706
(lp707
I01
aI6454
asV/store/cmst3/user/cmgtools/CMG/DY4JetsToLL_M-50_TuneZ2Star_8TeV-madgraph/Summer12_DR53X-PU_S10_START53_V7A-v1/AODSIM/V5_B/PAT_CMG_V5_16_0/cmgTuple_104.root
p708
(lp709
I01
aI11229
asV/store/cmst3/user/cmgtools/CMG/DY4JetsToLL_M-50_TuneZ2Star_8TeV-madgraph/Summer12_DR53X-PU_S10_START53_V7A-v1/AODSIM/V5_B/PAT_CMG_V5_16_0/cmgTuple_74.root
p710
(lp711
I01
aI10357
asV/store/cmst3/user/cmgtools/CMG/DY4JetsToLL_M-50_TuneZ2Star_8TeV-madgraph/Summer12_DR53X-PU_S10_START53_V7A-v1/AODSIM/V5_B/PAT_CMG_V5_16_0/cmgTuple_51.root
p712
(lp713
I01
aI11204
asV/store/cmst3/user/cmgtools/CMG/DY4JetsToLL_M-50_TuneZ2Star_8TeV-madgraph/Summer12_DR53X-PU_S10_START53_V7A-v1/AODSIM/V5_B/PAT_CMG_V5_16_0/cmgTuple_323.root
p714
(lp715
I01
aI6603
asV/store/cmst3/user/cmgtools/CMG/DY4JetsToLL_M-50_TuneZ2Star_8TeV-madgraph/Summer12_DR53X-PU_S10_START53_V7A-v1/AODSIM/V5_B/PAT_CMG_V5_16_0/cmgTuple_563.root
p716
(lp717
I01
aI10749
asV/store/cmst3/user/cmgtools/CMG/DY4JetsToLL_M-50_TuneZ2Star_8TeV-madgraph/Summer12_DR53X-PU_S10_START53_V7A-v1/AODSIM/V5_B/PAT_CMG_V5_16_0/cmgTuple_19.root
p718
(lp719
I01
aI11022
asV/store/cmst3/user/cmgtools/CMG/DY4JetsToLL_M-50_TuneZ2Star_8TeV-madgraph/Summer12_DR53X-PU_S10_START53_V7A-v1/AODSIM/V5_B/PAT_CMG_V5_16_0/cmgTuple_338.root
p720
(lp721
I01
aI11208
asV/store/cmst3/user/cmgtools/CMG/DY4JetsToLL_M-50_TuneZ2Star_8TeV-madgraph/Summer12_DR53X-PU_S10_START53_V7A-v1/AODSIM/V5_B/PAT_CMG_V5_16_0/cmgTuple_197.root
p722
(lp723
I01
aI11148
asV/store/cmst3/user/cmgtools/CMG/DY4JetsToLL_M-50_TuneZ2Star_8TeV-madgraph/Summer12_DR53X-PU_S10_START53_V7A-v1/AODSIM/V5_B/PAT_CMG_V5_16_0/cmgTuple_347.root
p724
(lp725
I01
aI8461
asV/store/cmst3/user/cmgtools/CMG/DY4JetsToLL_M-50_TuneZ2Star_8TeV-madgraph/Summer12_DR53X-PU_S10_START53_V7A-v1/AODSIM/V5_B/PAT_CMG_V5_16_0/cmgTuple_105.root
p726
(lp727
I01
aI10034
asV/store/cmst3/user/cmgtools/CMG/DY4JetsToLL_M-50_TuneZ2Star_8TeV-madgraph/Summer12_DR53X-PU_S10_START53_V7A-v1/AODSIM/V5_B/PAT_CMG_V5_16_0/cmgTuple_598.root
p728
(lp729
I01
aI9094
asV/store/cmst3/user/cmgtools/CMG/DY4JetsToLL_M-50_TuneZ2Star_8TeV-madgraph/Summer12_DR53X-PU_S10_START53_V7A-v1/AODSIM/V5_B/PAT_CMG_V5_16_0/cmgTuple_7.root
p730
(lp731
I01
aI11095
asV/store/cmst3/user/cmgtools/CMG/DY4JetsToLL_M-50_TuneZ2Star_8TeV-madgraph/Summer12_DR53X-PU_S10_START53_V7A-v1/AODSIM/V5_B/PAT_CMG_V5_16_0/cmgTuple_287.root
p732
(lp733
I01
aI7843
asV/store/cmst3/user/cmgtools/CMG/DY4JetsToLL_M-50_TuneZ2Star_8TeV-madgraph/Summer12_DR53X-PU_S10_START53_V7A-v1/AODSIM/V5_B/PAT_CMG_V5_16_0/cmgTuple_209.root
p734
(lp735
I01
aI6774
asV/store/cmst3/user/cmgtools/CMG/DY4JetsToLL_M-50_TuneZ2Star_8TeV-madgraph/Summer12_DR53X-PU_S10_START53_V7A-v1/AODSIM/V5_B/PAT_CMG_V5_16_0/cmgTuple_331.root
p736
(lp737
I01
aI10609
asV/store/cmst3/user/cmgtools/CMG/DY4JetsToLL_M-50_TuneZ2Star_8TeV-madgraph/Summer12_DR53X-PU_S10_START53_V7A-v1/AODSIM/V5_B/PAT_CMG_V5_16_0/cmgTuple_539.root
p738
(lp739
I01
aI9842
asV/store/cmst3/user/cmgtools/CMG/DY4JetsToLL_M-50_TuneZ2Star_8TeV-madgraph/Summer12_DR53X-PU_S10_START53_V7A-v1/AODSIM/V5_B/PAT_CMG_V5_16_0/cmgTuple_72.root
p740
(lp741
I01
aI10952
asV/store/cmst3/user/cmgtools/CMG/DY4JetsToLL_M-50_TuneZ2Star_8TeV-madgraph/Summer12_DR53X-PU_S10_START53_V7A-v1/AODSIM/V5_B/PAT_CMG_V5_16_0/cmgTuple_86.root
p742
(lp743
I01
aI10164
asV/store/cmst3/user/cmgtools/CMG/DY4JetsToLL_M-50_TuneZ2Star_8TeV-madgraph/Summer12_DR53X-PU_S10_START53_V7A-v1/AODSIM/V5_B/PAT_CMG_V5_16_0/cmgTuple_384.root
p744
(lp745
I01
aI11167
asV/store/cmst3/user/cmgtools/CMG/DY4JetsToLL_M-50_TuneZ2Star_8TeV-madgraph/Summer12_DR53X-PU_S10_START53_V7A-v1/AODSIM/V5_B/PAT_CMG_V5_16_0/cmgTuple_238.root
p746
(lp747
I01
aI11012
asV/store/cmst3/user/cmgtools/CMG/DY4JetsToLL_M-50_TuneZ2Star_8TeV-madgraph/Summer12_DR53X-PU_S10_START53_V7A-v1/AODSIM/V5_B/PAT_CMG_V5_16_0/cmgTuple_266.root
p748
(lp749
I01
aI10702
asV/store/cmst3/user/cmgtools/CMG/DY4JetsToLL_M-50_TuneZ2Star_8TeV-madgraph/Summer12_DR53X-PU_S10_START53_V7A-v1/AODSIM/V5_B/PAT_CMG_V5_16_0/cmgTuple_522.root
p750
(lp751
I01
aI10959
asV/store/cmst3/user/cmgtools/CMG/DY4JetsToLL_M-50_TuneZ2Star_8TeV-madgraph/Summer12_DR53X-PU_S10_START53_V7A-v1/AODSIM/V5_B/PAT_CMG_V5_16_0/cmgTuple_145.root
p752
(lp753
I01
aI10537
asV/store/cmst3/user/cmgtools/CMG/DY4JetsToLL_M-50_TuneZ2Star_8TeV-madgraph/Summer12_DR53X-PU_S10_START53_V7A-v1/AODSIM/V5_B/PAT_CMG_V5_16_0/cmgTuple_404.root
p754
(lp755
I01
aI10260
asV/store/cmst3/user/cmgtools/CMG/DY4JetsToLL_M-50_TuneZ2Star_8TeV-madgraph/Summer12_DR53X-PU_S10_START53_V7A-v1/AODSIM/V5_B/PAT_CMG_V5_16_0/cmgTuple_515.root
p756
(lp757
I01
aI10775
asV/store/cmst3/user/cmgtools/CMG/DY4JetsToLL_M-50_TuneZ2Star_8TeV-madgraph/Summer12_DR53X-PU_S10_START53_V7A-v1/AODSIM/V5_B/PAT_CMG_V5_16_0/cmgTuple_557.root
p758
(lp759
I01
aI7210
asV/store/cmst3/user/cmgtools/CMG/DY4JetsToLL_M-50_TuneZ2Star_8TeV-madgraph/Summer12_DR53X-PU_S10_START53_V7A-v1/AODSIM/V5_B/PAT_CMG_V5_16_0/cmgTuple_256.root
p760
(lp761
I01
aI11025
asV/store/cmst3/user/cmgtools/CMG/DY4JetsToLL_M-50_TuneZ2Star_8TeV-madgraph/Summer12_DR53X-PU_S10_START53_V7A-v1/AODSIM/V5_B/PAT_CMG_V5_16_0/cmgTuple_169.root
p762
(lp763
I01
aI10930
asV/store/cmst3/user/cmgtools/CMG/DY4JetsToLL_M-50_TuneZ2Star_8TeV-madgraph/Summer12_DR53X-PU_S10_START53_V7A-v1/AODSIM/V5_B/PAT_CMG_V5_16_0/cmgTuple_426.root
p764
(lp765
I01
aI10984
asV/store/cmst3/user/cmgtools/CMG/DY4JetsToLL_M-50_TuneZ2Star_8TeV-madgraph/Summer12_DR53X-PU_S10_START53_V7A-v1/AODSIM/V5_B/PAT_CMG_V5_16_0/cmgTuple_142.root
p766
(lp767
I01
aI10473
asV/store/cmst3/user/cmgtools/CMG/DY4JetsToLL_M-50_TuneZ2Star_8TeV-madgraph/Summer12_DR53X-PU_S10_START53_V7A-v1/AODSIM/V5_B/PAT_CMG_V5_16_0/cmgTuple_206.root
p768
(lp769
I01
aI11250
asV/store/cmst3/user/cmgtools/CMG/DY4JetsToLL_M-50_TuneZ2Star_8TeV-madgraph/Summer12_DR53X-PU_S10_START53_V7A-v1/AODSIM/V5_B/PAT_CMG_V5_16_0/cmgTuple_312.root
p770
(lp771
I01
aI11035
asV/store/cmst3/user/cmgtools/CMG/DY4JetsToLL_M-50_TuneZ2Star_8TeV-madgraph/Summer12_DR53X-PU_S10_START53_V7A-v1/AODSIM/V5_B/PAT_CMG_V5_16_0/cmgTuple_302.root
p772
(lp773
I01
aI6808
asV/store/cmst3/user/cmgtools/CMG/DY4JetsToLL_M-50_TuneZ2Star_8TeV-madgraph/Summer12_DR53X-PU_S10_START53_V7A-v1/AODSIM/V5_B/PAT_CMG_V5_16_0/cmgTuple_41.root
p774
(lp775
I01
aI10197
asV/store/cmst3/user/cmgtools/CMG/DY4JetsToLL_M-50_TuneZ2Star_8TeV-madgraph/Summer12_DR53X-PU_S10_START53_V7A-v1/AODSIM/V5_B/PAT_CMG_V5_16_0/cmgTuple_620.root
p776
(lp777
I01
aI10261
asV/store/cmst3/user/cmgtools/CMG/DY4JetsToLL_M-50_TuneZ2Star_8TeV-madgraph/Summer12_DR53X-PU_S10_START53_V7A-v1/AODSIM/V5_B/PAT_CMG_V5_16_0/cmgTuple_313.root
p778
(lp779
I01
aI11045
asV/store/cmst3/user/cmgtools/CMG/DY4JetsToLL_M-50_TuneZ2Star_8TeV-madgraph/Summer12_DR53X-PU_S10_START53_V7A-v1/AODSIM/V5_B/PAT_CMG_V5_16_0/cmgTuple_330.root
p780
(lp781
I01
aI10624
asV/store/cmst3/user/cmgtools/CMG/DY4JetsToLL_M-50_TuneZ2Star_8TeV-madgraph/Summer12_DR53X-PU_S10_START53_V7A-v1/AODSIM/V5_B/PAT_CMG_V5_16_0/cmgTuple_170.root
p782
(lp783
I01
aI10200
asV/store/cmst3/user/cmgtools/CMG/DY4JetsToLL_M-50_TuneZ2Star_8TeV-madgraph/Summer12_DR53X-PU_S10_START53_V7A-v1/AODSIM/V5_B/PAT_CMG_V5_16_0/cmgTuple_421.root
p784
(lp785
I01
aI11188
asV/store/cmst3/user/cmgtools/CMG/DY4JetsToLL_M-50_TuneZ2Star_8TeV-madgraph/Summer12_DR53X-PU_S10_START53_V7A-v1/AODSIM/V5_B/PAT_CMG_V5_16_0/cmgTuple_518.root
p786
(lp787
I01
aI10852
asV/store/cmst3/user/cmgtools/CMG/DY4JetsToLL_M-50_TuneZ2Star_8TeV-madgraph/Summer12_DR53X-PU_S10_START53_V7A-v1/AODSIM/V5_B/PAT_CMG_V5_16_0/cmgTuple_22.root
p788
(lp789
I01
aI11044
asV/store/cmst3/user/cmgtools/CMG/DY4JetsToLL_M-50_TuneZ2Star_8TeV-madgraph/Summer12_DR53X-PU_S10_START53_V7A-v1/AODSIM/V5_B/PAT_CMG_V5_16_0/cmgTuple_271.root
p790
(lp791
I01
aI10551
asV/store/cmst3/user/cmgtools/CMG/DY4JetsToLL_M-50_TuneZ2Star_8TeV-madgraph/Summer12_DR53X-PU_S10_START53_V7A-v1/AODSIM/V5_B/PAT_CMG_V5_16_0/cmgTuple_578.root
p792
(lp793
I01
aI9753
asV/store/cmst3/user/cmgtools/CMG/DY4JetsToLL_M-50_TuneZ2Star_8TeV-madgraph/Summer12_DR53X-PU_S10_START53_V7A-v1/AODSIM/V5_B/PAT_CMG_V5_16_0/cmgTuple_540.root
p794
(lp795
I01
aI10817
asV/store/cmst3/user/cmgtools/CMG/DY4JetsToLL_M-50_TuneZ2Star_8TeV-madgraph/Summer12_DR53X-PU_S10_START53_V7A-v1/AODSIM/V5_B/PAT_CMG_V5_16_0/cmgTuple_106.root
p796
(lp797
I01
aI10167
asV/store/cmst3/user/cmgtools/CMG/DY4JetsToLL_M-50_TuneZ2Star_8TeV-madgraph/Summer12_DR53X-PU_S10_START53_V7A-v1/AODSIM/V5_B/PAT_CMG_V5_16_0/cmgTuple_120.root
p798
(lp799
I01
aI11053
asV/store/cmst3/user/cmgtools/CMG/DY4JetsToLL_M-50_TuneZ2Star_8TeV-madgraph/Summer12_DR53X-PU_S10_START53_V7A-v1/AODSIM/V5_B/PAT_CMG_V5_16_0/cmgTuple_234.root
p800
(lp801
I01
aI10372
asV/store/cmst3/user/cmgtools/CMG/DY4JetsToLL_M-50_TuneZ2Star_8TeV-madgraph/Summer12_DR53X-PU_S10_START53_V7A-v1/AODSIM/V5_B/PAT_CMG_V5_16_0/cmgTuple_350.root
p802
(lp803
I01
aI10686
asV/store/cmst3/user/cmgtools/CMG/DY4JetsToLL_M-50_TuneZ2Star_8TeV-madgraph/Summer12_DR53X-PU_S10_START53_V7A-v1/AODSIM/V5_B/PAT_CMG_V5_16_0/cmgTuple_506.root
p804
(lp805
I01
aI8498
asV/store/cmst3/user/cmgtools/CMG/DY4JetsToLL_M-50_TuneZ2Star_8TeV-madgraph/Summer12_DR53X-PU_S10_START53_V7A-v1/AODSIM/V5_B/PAT_CMG_V5_16_0/cmgTuple_147.root
p806
(lp807
I01
aI10850
asV/store/cmst3/user/cmgtools/CMG/DY4JetsToLL_M-50_TuneZ2Star_8TeV-madgraph/Summer12_DR53X-PU_S10_START53_V7A-v1/AODSIM/V5_B/PAT_CMG_V5_16_0/cmgTuple_391.root
p808
(lp809
I01
aI10361
asV/store/cmst3/user/cmgtools/CMG/DY4JetsToLL_M-50_TuneZ2Star_8TeV-madgraph/Summer12_DR53X-PU_S10_START53_V7A-v1/AODSIM/V5_B/PAT_CMG_V5_16_0/cmgTuple_501.root
p810
(lp811
I01
aI11307
asV/store/cmst3/user/cmgtools/CMG/DY4JetsToLL_M-50_TuneZ2Star_8TeV-madgraph/Summer12_DR53X-PU_S10_START53_V7A-v1/AODSIM/V5_B/PAT_CMG_V5_16_0/cmgTuple_232.root
p812
(lp813
I01
aI11176
asV/store/cmst3/user/cmgtools/CMG/DY4JetsToLL_M-50_TuneZ2Star_8TeV-madgraph/Summer12_DR53X-PU_S10_START53_V7A-v1/AODSIM/V5_B/PAT_CMG_V5_16_0/cmgTuple_61.root
p814
(lp815
I01
aI10361
asV/store/cmst3/user/cmgtools/CMG/DY4JetsToLL_M-50_TuneZ2Star_8TeV-madgraph/Summer12_DR53X-PU_S10_START53_V7A-v1/AODSIM/V5_B/PAT_CMG_V5_16_0/cmgTuple_146.root
p816
(lp817
I01
aI11173
asV/store/cmst3/user/cmgtools/CMG/DY4JetsToLL_M-50_TuneZ2Star_8TeV-madgraph/Summer12_DR53X-PU_S10_START53_V7A-v1/AODSIM/V5_B/PAT_CMG_V5_16_0/cmgTuple_29.root
p818
(lp819
I01
aI10512
asV/store/cmst3/user/cmgtools/CMG/DY4JetsToLL_M-50_TuneZ2Star_8TeV-madgraph/Summer12_DR53X-PU_S10_START53_V7A-v1/AODSIM/V5_B/PAT_CMG_V5_16_0/cmgTuple_513.root
p820
(lp821
I01
aI11088
asV/store/cmst3/user/cmgtools/CMG/DY4JetsToLL_M-50_TuneZ2Star_8TeV-madgraph/Summer12_DR53X-PU_S10_START53_V7A-v1/AODSIM/V5_B/PAT_CMG_V5_16_0/cmgTuple_399.root
p822
(lp823
I01
aI8257
asV/store/cmst3/user/cmgtools/CMG/DY4JetsToLL_M-50_TuneZ2Star_8TeV-madgraph/Summer12_DR53X-PU_S10_START53_V7A-v1/AODSIM/V5_B/PAT_CMG_V5_16_0/cmgTuple_600.root
p824
(lp825
I01
aI10884
asV/store/cmst3/user/cmgtools/CMG/DY4JetsToLL_M-50_TuneZ2Star_8TeV-madgraph/Summer12_DR53X-PU_S10_START53_V7A-v1/AODSIM/V5_B/PAT_CMG_V5_16_0/cmgTuple_503.root
p826
(lp827
I01
aI8223
asV/store/cmst3/user/cmgtools/CMG/DY4JetsToLL_M-50_TuneZ2Star_8TeV-madgraph/Summer12_DR53X-PU_S10_START53_V7A-v1/AODSIM/V5_B/PAT_CMG_V5_16_0/cmgTuple_45.root
p828
(lp829
I01
aI11191
asV/store/cmst3/user/cmgtools/CMG/DY4JetsToLL_M-50_TuneZ2Star_8TeV-madgraph/Summer12_DR53X-PU_S10_START53_V7A-v1/AODSIM/V5_B/PAT_CMG_V5_16_0/cmgTuple_60.root
p830
(lp831
I01
aI8283
asV/store/cmst3/user/cmgtools/CMG/DY4JetsToLL_M-50_TuneZ2Star_8TeV-madgraph/Summer12_DR53X-PU_S10_START53_V7A-v1/AODSIM/V5_B/PAT_CMG_V5_16_0/cmgTuple_31.root
p832
(lp833
I01
aI11174
asV/store/cmst3/user/cmgtools/CMG/DY4JetsToLL_M-50_TuneZ2Star_8TeV-madgraph/Summer12_DR53X-PU_S10_START53_V7A-v1/AODSIM/V5_B/PAT_CMG_V5_16_0/cmgTuple_98.root
p834
(lp835
I01
aI11039
asV/store/cmst3/user/cmgtools/CMG/DY4JetsToLL_M-50_TuneZ2Star_8TeV-madgraph/Summer12_DR53X-PU_S10_START53_V7A-v1/AODSIM/V5_B/PAT_CMG_V5_16_0/cmgTuple_359.root
p836
(lp837
I01
aI11141
asV/store/cmst3/user/cmgtools/CMG/DY4JetsToLL_M-50_TuneZ2Star_8TeV-madgraph/Summer12_DR53X-PU_S10_START53_V7A-v1/AODSIM/V5_B/PAT_CMG_V5_16_0/cmgTuple_408.root
p838
(lp839
I01
aI10422
asV/store/cmst3/user/cmgtools/CMG/DY4JetsToLL_M-50_TuneZ2Star_8TeV-madgraph/Summer12_DR53X-PU_S10_START53_V7A-v1/AODSIM/V5_B/PAT_CMG_V5_16_0/cmgTuple_183.root
p840
(lp841
I01
aI11177
asV/store/cmst3/user/cmgtools/CMG/DY4JetsToLL_M-50_TuneZ2Star_8TeV-madgraph/Summer12_DR53X-PU_S10_START53_V7A-v1/AODSIM/V5_B/PAT_CMG_V5_16_0/cmgTuple_24.root
p842
(lp843
I01
aI6515
asV/store/cmst3/user/cmgtools/CMG/DY4JetsToLL_M-50_TuneZ2Star_8TeV-madgraph/Summer12_DR53X-PU_S10_START53_V7A-v1/AODSIM/V5_B/PAT_CMG_V5_16_0/cmgTuple_30.root
p844
(lp845
I01
aI10800
asV/store/cmst3/user/cmgtools/CMG/DY4JetsToLL_M-50_TuneZ2Star_8TeV-madgraph/Summer12_DR53X-PU_S10_START53_V7A-v1/AODSIM/V5_B/PAT_CMG_V5_16_0/cmgTuple_103.root
p846
(lp847
I01
aI10920
asV/store/cmst3/user/cmgtools/CMG/DY4JetsToLL_M-50_TuneZ2Star_8TeV-madgraph/Summer12_DR53X-PU_S10_START53_V7A-v1/AODSIM/V5_B/PAT_CMG_V5_16_0/cmgTuple_448.root
p848
(lp849
I01
aI10550
asV/store/cmst3/user/cmgtools/CMG/DY4JetsToLL_M-50_TuneZ2Star_8TeV-madgraph/Summer12_DR53X-PU_S10_START53_V7A-v1/AODSIM/V5_B/PAT_CMG_V5_16_0/cmgTuple_5.root
p850
(lp851
I01
aI10812
asV/store/cmst3/user/cmgtools/CMG/DY4JetsToLL_M-50_TuneZ2Star_8TeV-madgraph/Summer12_DR53X-PU_S10_START53_V7A-v1/AODSIM/V5_B/PAT_CMG_V5_16_0/cmgTuple_499.root
p852
(lp853
I01
aI6219
asV/store/cmst3/user/cmgtools/CMG/DY4JetsToLL_M-50_TuneZ2Star_8TeV-madgraph/Summer12_DR53X-PU_S10_START53_V7A-v1/AODSIM/V5_B/PAT_CMG_V5_16_0/cmgTuple_322.root
p854
(lp855
I01
aI10288
asV/store/cmst3/user/cmgtools/CMG/DY4JetsToLL_M-50_TuneZ2Star_8TeV-madgraph/Summer12_DR53X-PU_S10_START53_V7A-v1/AODSIM/V5_B/PAT_CMG_V5_16_0/cmgTuple_551.root
p856
(lp857
I01
aI11020
asV/store/cmst3/user/cmgtools/CMG/DY4JetsToLL_M-50_TuneZ2Star_8TeV-madgraph/Summer12_DR53X-PU_S10_START53_V7A-v1/AODSIM/V5_B/PAT_CMG_V5_16_0/cmgTuple_8.root
p858
(lp859
I01
aI8877
asV/store/cmst3/user/cmgtools/CMG/DY4JetsToLL_M-50_TuneZ2Star_8TeV-madgraph/Summer12_DR53X-PU_S10_START53_V7A-v1/AODSIM/V5_B/PAT_CMG_V5_16_0/cmgTuple_128.root
p860
(lp861
I01
aI7296
asV/store/cmst3/user/cmgtools/CMG/DY4JetsToLL_M-50_TuneZ2Star_8TeV-madgraph/Summer12_DR53X-PU_S10_START53_V7A-v1/AODSIM/V5_B/PAT_CMG_V5_16_0/cmgTuple_211.root
p862
(lp863
I01
aI10530
asV/store/cmst3/user/cmgtools/CMG/DY4JetsToLL_M-50_TuneZ2Star_8TeV-madgraph/Summer12_DR53X-PU_S10_START53_V7A-v1/AODSIM/V5_B/PAT_CMG_V5_16_0/cmgTuple_458.root
p864
(lp865
I01
aI11276
asV/store/cmst3/user/cmgtools/CMG/DY4JetsToLL_M-50_TuneZ2Star_8TeV-madgraph/Summer12_DR53X-PU_S10_START53_V7A-v1/AODSIM/V5_B/PAT_CMG_V5_16_0/cmgTuple_565.root
p866
(lp867
I01
aI10392
asV/store/cmst3/user/cmgtools/CMG/DY4JetsToLL_M-50_TuneZ2Star_8TeV-madgraph/Summer12_DR53X-PU_S10_START53_V7A-v1/AODSIM/V5_B/PAT_CMG_V5_16_0/cmgTuple_402.root
p868
(lp869
I01
aI5622
asV/store/cmst3/user/cmgtools/CMG/DY4JetsToLL_M-50_TuneZ2Star_8TeV-madgraph/Summer12_DR53X-PU_S10_START53_V7A-v1/AODSIM/V5_B/PAT_CMG_V5_16_0/cmgTuple_310.root
p870
(lp871
I01
aI11188
asV/store/cmst3/user/cmgtools/CMG/DY4JetsToLL_M-50_TuneZ2Star_8TeV-madgraph/Summer12_DR53X-PU_S10_START53_V7A-v1/AODSIM/V5_B/PAT_CMG_V5_16_0/cmgTuple_568.root
p872
(lp873
I01
aI10105
asV/store/cmst3/user/cmgtools/CMG/DY4JetsToLL_M-50_TuneZ2Star_8TeV-madgraph/Summer12_DR53X-PU_S10_START53_V7A-v1/AODSIM/V5_B/PAT_CMG_V5_16_0/cmgTuple_401.root
p874
(lp875
I01
aI10655
asV/store/cmst3/user/cmgtools/CMG/DY4JetsToLL_M-50_TuneZ2Star_8TeV-madgraph/Summer12_DR53X-PU_S10_START53_V7A-v1/AODSIM/V5_B/PAT_CMG_V5_16_0/cmgTuple_52.root
p876
(lp877
I01
aI10690
asV/store/cmst3/user/cmgtools/CMG/DY4JetsToLL_M-50_TuneZ2Star_8TeV-madgraph/Summer12_DR53X-PU_S10_START53_V7A-v1/AODSIM/V5_B/PAT_CMG_V5_16_0/cmgTuple_85.root
p878
(lp879
I01
aI5706
asV/store/cmst3/user/cmgtools/CMG/DY4JetsToLL_M-50_TuneZ2Star_8TeV-madgraph/Summer12_DR53X-PU_S10_START53_V7A-v1/AODSIM/V5_B/PAT_CMG_V5_16_0/cmgTuple_366.root
p880
(lp881
I01
aI10380
asV/store/cmst3/user/cmgtools/CMG/DY4JetsToLL_M-50_TuneZ2Star_8TeV-madgraph/Summer12_DR53X-PU_S10_START53_V7A-v1/AODSIM/V5_B/PAT_CMG_V5_16_0/cmgTuple_91.root
p882
(lp883
I01
aI10946
asV/store/cmst3/user/cmgtools/CMG/DY4JetsToLL_M-50_TuneZ2Star_8TeV-madgraph/Summer12_DR53X-PU_S10_START53_V7A-v1/AODSIM/V5_B/PAT_CMG_V5_16_0/cmgTuple_131.root
p884
(lp885
I01
aI9477
asV/store/cmst3/user/cmgtools/CMG/DY4JetsToLL_M-50_TuneZ2Star_8TeV-madgraph/Summer12_DR53X-PU_S10_START53_V7A-v1/AODSIM/V5_B/PAT_CMG_V5_16_0/cmgTuple_611.root
p886
(lp887
I01
aI11108
asV/store/cmst3/user/cmgtools/CMG/DY4JetsToLL_M-50_TuneZ2Star_8TeV-madgraph/Summer12_DR53X-PU_S10_START53_V7A-v1/AODSIM/V5_B/PAT_CMG_V5_16_0/cmgTuple_340.root
p888
(lp889
I01
aI10829
asV/store/cmst3/user/cmgtools/CMG/DY4JetsToLL_M-50_TuneZ2Star_8TeV-madgraph/Summer12_DR53X-PU_S10_START53_V7A-v1/AODSIM/V5_B/PAT_CMG_V5_16_0/cmgTuple_140.root
p890
(lp891
I01
aI10250
asV/store/cmst3/user/cmgtools/CMG/DY4JetsToLL_M-50_TuneZ2Star_8TeV-madgraph/Summer12_DR53X-PU_S10_START53_V7A-v1/AODSIM/V5_B/PAT_CMG_V5_16_0/cmgTuple_392.root
p892
(lp893
I01
aI7780
asV/store/cmst3/user/cmgtools/CMG/DY4JetsToLL_M-50_TuneZ2Star_8TeV-madgraph/Summer12_DR53X-PU_S10_START53_V7A-v1/AODSIM/V5_B/PAT_CMG_V5_16_0/cmgTuple_504.root
p894
(lp895
I01
aI10543
asV/store/cmst3/user/cmgtools/CMG/DY4JetsToLL_M-50_TuneZ2Star_8TeV-madgraph/Summer12_DR53X-PU_S10_START53_V7A-v1/AODSIM/V5_B/PAT_CMG_V5_16_0/cmgTuple_442.root
p896
(lp897
I01
aI10752
asV/store/cmst3/user/cmgtools/CMG/DY4JetsToLL_M-50_TuneZ2Star_8TeV-madgraph/Summer12_DR53X-PU_S10_START53_V7A-v1/AODSIM/V5_B/PAT_CMG_V5_16_0/cmgTuple_592.root
p898
(lp899
I01
aI10343
asV/store/cmst3/user/cmgtools/CMG/DY4JetsToLL_M-50_TuneZ2Star_8TeV-madgraph/Summer12_DR53X-PU_S10_START53_V7A-v1/AODSIM/V5_B/PAT_CMG_V5_16_0/cmgTuple_327.root
p900
(lp901
I01
aI10957
asV/store/cmst3/user/cmgtools/CMG/DY4JetsToLL_M-50_TuneZ2Star_8TeV-madgraph/Summer12_DR53X-PU_S10_START53_V7A-v1/AODSIM/V5_B/PAT_CMG_V5_16_0/cmgTuple_293.root
p902
(lp903
I01
aI10464
asV/store/cmst3/user/cmgtools/CMG/DY4JetsToLL_M-50_TuneZ2Star_8TeV-madgraph/Summer12_DR53X-PU_S10_START53_V7A-v1/AODSIM/V5_B/PAT_CMG_V5_16_0/cmgTuple_141.root
p904
(lp905
I01
aI10320
asV/store/cmst3/user/cmgtools/CMG/DY4JetsToLL_M-50_TuneZ2Star_8TeV-madgraph/Summer12_DR53X-PU_S10_START53_V7A-v1/AODSIM/V5_B/PAT_CMG_V5_16_0/cmgTuple_457.root
p906
(lp907
I01
aI10025
asV/store/cmst3/user/cmgtools/CMG/DY4JetsToLL_M-50_TuneZ2Star_8TeV-madgraph/Summer12_DR53X-PU_S10_START53_V7A-v1/AODSIM/V5_B/PAT_CMG_V5_16_0/cmgTuple_510.root
p908
(lp909
I01
aI10100
asV/store/cmst3/user/cmgtools/CMG/DY4JetsToLL_M-50_TuneZ2Star_8TeV-madgraph/Summer12_DR53X-PU_S10_START53_V7A-v1/AODSIM/V5_B/PAT_CMG_V5_16_0/cmgTuple_505.root
p910
(lp911
I01
aI10746
asV/store/cmst3/user/cmgtools/CMG/DY4JetsToLL_M-50_TuneZ2Star_8TeV-madgraph/Summer12_DR53X-PU_S10_START53_V7A-v1/AODSIM/V5_B/PAT_CMG_V5_16_0/cmgTuple_550.root
p912
(lp913
I01
aI10120
asV/store/cmst3/user/cmgtools/CMG/DY4JetsToLL_M-50_TuneZ2Star_8TeV-madgraph/Summer12_DR53X-PU_S10_START53_V7A-v1/AODSIM/V5_B/PAT_CMG_V5_16_0/cmgTuple_488.root
p914
(lp915
I01
aI10780
asV/store/cmst3/user/cmgtools/CMG/DY4JetsToLL_M-50_TuneZ2Star_8TeV-madgraph/Summer12_DR53X-PU_S10_START53_V7A-v1/AODSIM/V5_B/PAT_CMG_V5_16_0/cmgTuple_326.root
p916
(lp917
I01
aI10629
asV/store/cmst3/user/cmgtools/CMG/DY4JetsToLL_M-50_TuneZ2Star_8TeV-madgraph/Summer12_DR53X-PU_S10_START53_V7A-v1/AODSIM/V5_B/PAT_CMG_V5_16_0/cmgTuple_544.root
p918
(lp919
I01
aI10654
asV/store/cmst3/user/cmgtools/CMG/DY4JetsToLL_M-50_TuneZ2Star_8TeV-madgraph/Summer12_DR53X-PU_S10_START53_V7A-v1/AODSIM/V5_B/PAT_CMG_V5_16_0/cmgTuple_608.root
p920
(lp921
I01
aI9797
asV/store/cmst3/user/cmgtools/CMG/DY4JetsToLL_M-50_TuneZ2Star_8TeV-madgraph/Summer12_DR53X-PU_S10_START53_V7A-v1/AODSIM/V5_B/PAT_CMG_V5_16_0/cmgTuple_126.root
p922
(lp923
I01
aI10193
asV/store/cmst3/user/cmgtools/CMG/DY4JetsToLL_M-50_TuneZ2Star_8TeV-madgraph/Summer12_DR53X-PU_S10_START53_V7A-v1/AODSIM/V5_B/PAT_CMG_V5_16_0/cmgTuple_482.root
p924
(lp925
I01
aI10959
asV/store/cmst3/user/cmgtools/CMG/DY4JetsToLL_M-50_TuneZ2Star_8TeV-madgraph/Summer12_DR53X-PU_S10_START53_V7A-v1/AODSIM/V5_B/PAT_CMG_V5_16_0/cmgTuple_207.root
p926
(lp927
I01
aI9497
asV/store/cmst3/user/cmgtools/CMG/DY4JetsToLL_M-50_TuneZ2Star_8TeV-madgraph/Summer12_DR53X-PU_S10_START53_V7A-v1/AODSIM/V5_B/PAT_CMG_V5_16_0/cmgTuple_193.root
p928
(lp929
I01
aI10930
asV/store/cmst3/user/cmgtools/CMG/DY4JetsToLL_M-50_TuneZ2Star_8TeV-madgraph/Summer12_DR53X-PU_S10_START53_V7A-v1/AODSIM/V5_B/PAT_CMG_V5_16_0/cmgTuple_236.root
p930
(lp931
I01
aI7295
asV/store/cmst3/user/cmgtools/CMG/DY4JetsToLL_M-50_TuneZ2Star_8TeV-madgraph/Summer12_DR53X-PU_S10_START53_V7A-v1/AODSIM/V5_B/PAT_CMG_V5_16_0/cmgTuple_138.root
p932
(lp933
I01
aI10742
asV/store/cmst3/user/cmgtools/CMG/DY4JetsToLL_M-50_TuneZ2Star_8TeV-madgraph/Summer12_DR53X-PU_S10_START53_V7A-v1/AODSIM/V5_B/PAT_CMG_V5_16_0/cmgTuple_414.root
p934
(lp935
I01
aI10048
asV/store/cmst3/user/cmgtools/CMG/DY4JetsToLL_M-50_TuneZ2Star_8TeV-madgraph/Summer12_DR53X-PU_S10_START53_V7A-v1/AODSIM/V5_B/PAT_CMG_V5_16_0/cmgTuple_75.root
p936
(lp937
I01
aI11017
asV/store/cmst3/user/cmgtools/CMG/DY4JetsToLL_M-50_TuneZ2Star_8TeV-madgraph/Summer12_DR53X-PU_S10_START53_V7A-v1/AODSIM/V5_B/PAT_CMG_V5_16_0/cmgTuple_159.root
p938
(lp939
I01
aI10880
asV/store/cmst3/user/cmgtools/CMG/DY4JetsToLL_M-50_TuneZ2Star_8TeV-madgraph/Summer12_DR53X-PU_S10_START53_V7A-v1/AODSIM/V5_B/PAT_CMG_V5_16_0/cmgTuple_585.root
p940
(lp941
I01
aI11072
asV/store/cmst3/user/cmgtools/CMG/DY4JetsToLL_M-50_TuneZ2Star_8TeV-madgraph/Summer12_DR53X-PU_S10_START53_V7A-v1/AODSIM/V5_B/PAT_CMG_V5_16_0/cmgTuple_361.root
p942
(lp943
I01
aI10656
asV/store/cmst3/user/cmgtools/CMG/DY4JetsToLL_M-50_TuneZ2Star_8TeV-madgraph/Summer12_DR53X-PU_S10_START53_V7A-v1/AODSIM/V5_B/PAT_CMG_V5_16_0/cmgTuple_82.root
p944
(lp945
I01
aI10508
asV/store/cmst3/user/cmgtools/CMG/DY4JetsToLL_M-50_TuneZ2Star_8TeV-madgraph/Summer12_DR53X-PU_S10_START53_V7A-v1/AODSIM/V5_B/PAT_CMG_V5_16_0/cmgTuple_419.root
p946
(lp947
I01
aI10760
asV/store/cmst3/user/cmgtools/CMG/DY4JetsToLL_M-50_TuneZ2Star_8TeV-madgraph/Summer12_DR53X-PU_S10_START53_V7A-v1/AODSIM/V5_B/PAT_CMG_V5_16_0/cmgTuple_149.root
p948
(lp949
I01
aI10272
asV/store/cmst3/user/cmgtools/CMG/DY4JetsToLL_M-50_TuneZ2Star_8TeV-madgraph/Summer12_DR53X-PU_S10_START53_V7A-v1/AODSIM/V5_B/PAT_CMG_V5_16_0/cmgTuple_444.root
p950
(lp951
I01
aI10691
asV/store/cmst3/user/cmgtools/CMG/DY4JetsToLL_M-50_TuneZ2Star_8TeV-madgraph/Summer12_DR53X-PU_S10_START53_V7A-v1/AODSIM/V5_B/PAT_CMG_V5_16_0/cmgTuple_283.root
p952
(lp953
I01
aI10459
asV/store/cmst3/user/cmgtools/CMG/DY4JetsToLL_M-50_TuneZ2Star_8TeV-madgraph/Summer12_DR53X-PU_S10_START53_V7A-v1/AODSIM/V5_B/PAT_CMG_V5_16_0/cmgTuple_595.root
p954
(lp955
I01
aI10654
asV/store/cmst3/user/cmgtools/CMG/DY4JetsToLL_M-50_TuneZ2Star_8TeV-madgraph/Summer12_DR53X-PU_S10_START53_V7A-v1/AODSIM/V5_B/PAT_CMG_V5_16_0/cmgTuple_624.root
p956
(lp957
I01
aI10714
asV/store/cmst3/user/cmgtools/CMG/DY4JetsToLL_M-50_TuneZ2Star_8TeV-madgraph/Summer12_DR53X-PU_S10_START53_V7A-v1/AODSIM/V5_B/PAT_CMG_V5_16_0/cmgTuple_258.root
p958
(lp959
I01
aI10749
asV/store/cmst3/user/cmgtools/CMG/DY4JetsToLL_M-50_TuneZ2Star_8TeV-madgraph/Summer12_DR53X-PU_S10_START53_V7A-v1/AODSIM/V5_B/PAT_CMG_V5_16_0/cmgTuple_512.root
p960
(lp961
I01
aI10347
asV/store/cmst3/user/cmgtools/CMG/DY4JetsToLL_M-50_TuneZ2Star_8TeV-madgraph/Summer12_DR53X-PU_S10_START53_V7A-v1/AODSIM/V5_B/PAT_CMG_V5_16_0/cmgTuple_28.root
p962
(lp963
I01
aI10146
asV/store/cmst3/user/cmgtools/CMG/DY4JetsToLL_M-50_TuneZ2Star_8TeV-madgraph/Summer12_DR53X-PU_S10_START53_V7A-v1/AODSIM/V5_B/PAT_CMG_V5_16_0/cmgTuple_243.root
p964
(lp965
I01
aI10809
asV/store/cmst3/user/cmgtools/CMG/DY4JetsToLL_M-50_TuneZ2Star_8TeV-madgraph/Summer12_DR53X-PU_S10_START53_V7A-v1/AODSIM/V5_B/PAT_CMG_V5_16_0/cmgTuple_447.root
p966
(lp967
I01
aI10344
asV/store/cmst3/user/cmgtools/CMG/DY4JetsToLL_M-50_TuneZ2Star_8TeV-madgraph/Summer12_DR53X-PU_S10_START53_V7A-v1/AODSIM/V5_B/PAT_CMG_V5_16_0/cmgTuple_305.root
p968
(lp969
I01
aI8741
asV/store/cmst3/user/cmgtools/CMG/DY4JetsToLL_M-50_TuneZ2Star_8TeV-madgraph/Summer12_DR53X-PU_S10_START53_V7A-v1/AODSIM/V5_B/PAT_CMG_V5_16_0/cmgTuple_1.root
p970
(lp971
I01
aI11021
asV/store/cmst3/user/cmgtools/CMG/DY4JetsToLL_M-50_TuneZ2Star_8TeV-madgraph/Summer12_DR53X-PU_S10_START53_V7A-v1/AODSIM/V5_B/PAT_CMG_V5_16_0/cmgTuple_606.root
p972
(lp973
I01
aI10801
asV/store/cmst3/user/cmgtools/CMG/DY4JetsToLL_M-50_TuneZ2Star_8TeV-madgraph/Summer12_DR53X-PU_S10_START53_V7A-v1/AODSIM/V5_B/PAT_CMG_V5_16_0/cmgTuple_584.root
p974
(lp975
I01
aI5868
asV/store/cmst3/user/cmgtools/CMG/DY4JetsToLL_M-50_TuneZ2Star_8TeV-madgraph/Summer12_DR53X-PU_S10_START53_V7A-v1/AODSIM/V5_B/PAT_CMG_V5_16_0/cmgTuple_242.root
p976
(lp977
I01
aI9640
asV/store/cmst3/user/cmgtools/CMG/DY4JetsToLL_M-50_TuneZ2Star_8TeV-madgraph/Summer12_DR53X-PU_S10_START53_V7A-v1/AODSIM/V5_B/PAT_CMG_V5_16_0/cmgTuple_559.root
p978
(lp979
I01
aI7972
asV/store/cmst3/user/cmgtools/CMG/DY4JetsToLL_M-50_TuneZ2Star_8TeV-madgraph/Summer12_DR53X-PU_S10_START53_V7A-v1/AODSIM/V5_B/PAT_CMG_V5_16_0/cmgTuple_153.root
p980
(lp981
I01
aI10301
asV/store/cmst3/user/cmgtools/CMG/DY4JetsToLL_M-50_TuneZ2Star_8TeV-madgraph/Summer12_DR53X-PU_S10_START53_V7A-v1/AODSIM/V5_B/PAT_CMG_V5_16_0/cmgTuple_290.root
p982
(lp983
I01
aI5636
asV/store/cmst3/user/cmgtools/CMG/DY4JetsToLL_M-50_TuneZ2Star_8TeV-madgraph/Summer12_DR53X-PU_S10_START53_V7A-v1/AODSIM/V5_B/PAT_CMG_V5_16_0/cmgTuple_558.root
p984
(lp985
I01
aI10990
asV/store/cmst3/user/cmgtools/CMG/DY4JetsToLL_M-50_TuneZ2Star_8TeV-madgraph/Summer12_DR53X-PU_S10_START53_V7A-v1/AODSIM/V5_B/PAT_CMG_V5_16_0/cmgTuple_465.root
p986
(lp987
I01
aI9859
asV/store/cmst3/user/cmgtools/CMG/DY4JetsToLL_M-50_TuneZ2Star_8TeV-madgraph/Summer12_DR53X-PU_S10_START53_V7A-v1/AODSIM/V5_B/PAT_CMG_V5_16_0/cmgTuple_200.root
p988
(lp989
I01
aI10412
asV/store/cmst3/user/cmgtools/CMG/DY4JetsToLL_M-50_TuneZ2Star_8TeV-madgraph/Summer12_DR53X-PU_S10_START53_V7A-v1/AODSIM/V5_B/PAT_CMG_V5_16_0/cmgTuple_88.root
p990
(lp991
I01
aI10167
asV/store/cmst3/user/cmgtools/CMG/DY4JetsToLL_M-50_TuneZ2Star_8TeV-madgraph/Summer12_DR53X-PU_S10_START53_V7A-v1/AODSIM/V5_B/PAT_CMG_V5_16_0/cmgTuple_163.root
p992
(lp993
I01
aI10770
asV/store/cmst3/user/cmgtools/CMG/DY4JetsToLL_M-50_TuneZ2Star_8TeV-madgraph/Summer12_DR53X-PU_S10_START53_V7A-v1/AODSIM/V5_B/PAT_CMG_V5_16_0/cmgTuple_436.root
p994
(lp995
I01
aI5983
asV/store/cmst3/user/cmgtools/CMG/DY4JetsToLL_M-50_TuneZ2Star_8TeV-madgraph/Summer12_DR53X-PU_S10_START53_V7A-v1/AODSIM/V5_B/PAT_CMG_V5_16_0/cmgTuple_535.root
p996
(lp997
I01
aI10886
asV/store/cmst3/user/cmgtools/CMG/DY4JetsToLL_M-50_TuneZ2Star_8TeV-madgraph/Summer12_DR53X-PU_S10_START53_V7A-v1/AODSIM/V5_B/PAT_CMG_V5_16_0/cmgTuple_462.root
p998
(lp999
I01
aI10272
asV/store/cmst3/user/cmgtools/CMG/DY4JetsToLL_M-50_TuneZ2Star_8TeV-madgraph/Summer12_DR53X-PU_S10_START53_V7A-v1/AODSIM/V5_B/PAT_CMG_V5_16_0/cmgTuple_248.root
p1000
(lp1001
I01
aI11188
asV/store/cmst3/user/cmgtools/CMG/DY4JetsToLL_M-50_TuneZ2Star_8TeV-madgraph/Summer12_DR53X-PU_S10_START53_V7A-v1/AODSIM/V5_B/PAT_CMG_V5_16_0/cmgTuple_296.root
p1002
(lp1003
I01
aI10832
asV/store/cmst3/user/cmgtools/CMG/DY4JetsToLL_M-50_TuneZ2Star_8TeV-madgraph/Summer12_DR53X-PU_S10_START53_V7A-v1/AODSIM/V5_B/PAT_CMG_V5_16_0/cmgTuple_235.root
p1004
(lp1005
I01
aI7797
asV/store/cmst3/user/cmgtools/CMG/DY4JetsToLL_M-50_TuneZ2Star_8TeV-madgraph/Summer12_DR53X-PU_S10_START53_V7A-v1/AODSIM/V5_B/PAT_CMG_V5_16_0/cmgTuple_119.root
p1006
(lp1007
I01
aI10759
asV/store/cmst3/user/cmgtools/CMG/DY4JetsToLL_M-50_TuneZ2Star_8TeV-madgraph/Summer12_DR53X-PU_S10_START53_V7A-v1/AODSIM/V5_B/PAT_CMG_V5_16_0/cmgTuple_358.root
p1008
(lp1009
I01
aI2797
asV/store/cmst3/user/cmgtools/CMG/DY4JetsToLL_M-50_TuneZ2Star_8TeV-madgraph/Summer12_DR53X-PU_S10_START53_V7A-v1/AODSIM/V5_B/PAT_CMG_V5_16_0/cmgTuple_99.root
p1010
(lp1011
I01
aI10369
asV/store/cmst3/user/cmgtools/CMG/DY4JetsToLL_M-50_TuneZ2Star_8TeV-madgraph/Summer12_DR53X-PU_S10_START53_V7A-v1/AODSIM/V5_B/PAT_CMG_V5_16_0/cmgTuple_533.root
p1012
(lp1013
I01
aI10529
asV/store/cmst3/user/cmgtools/CMG/DY4JetsToLL_M-50_TuneZ2Star_8TeV-madgraph/Summer12_DR53X-PU_S10_START53_V7A-v1/AODSIM/V5_B/PAT_CMG_V5_16_0/cmgTuple_476.root
p1014
(lp1015
I01
aI9061
asV/store/cmst3/user/cmgtools/CMG/DY4JetsToLL_M-50_TuneZ2Star_8TeV-madgraph/Summer12_DR53X-PU_S10_START53_V7A-v1/AODSIM/V5_B/PAT_CMG_V5_16_0/cmgTuple_172.root
p1016
(lp1017
I01
aI10473
asV/store/cmst3/user/cmgtools/CMG/DY4JetsToLL_M-50_TuneZ2Star_8TeV-madgraph/Summer12_DR53X-PU_S10_START53_V7A-v1/AODSIM/V5_B/PAT_CMG_V5_16_0/cmgTuple_379.root
p1018
(lp1019
I01
aI10856
asV/store/cmst3/user/cmgtools/CMG/DY4JetsToLL_M-50_TuneZ2Star_8TeV-madgraph/Summer12_DR53X-PU_S10_START53_V7A-v1/AODSIM/V5_B/PAT_CMG_V5_16_0/cmgTuple_626.root
p1020
(lp1021
I01
aI10575
asV/store/cmst3/user/cmgtools/CMG/DY4JetsToLL_M-50_TuneZ2Star_8TeV-madgraph/Summer12_DR53X-PU_S10_START53_V7A-v1/AODSIM/V5_B/PAT_CMG_V5_16_0/cmgTuple_446.root
p1022
(lp1023
I01
aI10016
asV/store/cmst3/user/cmgtools/CMG/DY4JetsToLL_M-50_TuneZ2Star_8TeV-madgraph/Summer12_DR53X-PU_S10_START53_V7A-v1/AODSIM/V5_B/PAT_CMG_V5_16_0/cmgTuple_4.root
p1024
(lp1025
I01
aI10619
asV/store/cmst3/user/cmgtools/CMG/DY4JetsToLL_M-50_TuneZ2Star_8TeV-madgraph/Summer12_DR53X-PU_S10_START53_V7A-v1/AODSIM/V5_B/PAT_CMG_V5_16_0/cmgTuple_162.root
p1026
(lp1027
I01
aI10219
asV/store/cmst3/user/cmgtools/CMG/DY4JetsToLL_M-50_TuneZ2Star_8TeV-madgraph/Summer12_DR53X-PU_S10_START53_V7A-v1/AODSIM/V5_B/PAT_CMG_V5_16_0/cmgTuple_586.root
p1028
(lp1029
I01
aI10982
asV/store/cmst3/user/cmgtools/CMG/DY4JetsToLL_M-50_TuneZ2Star_8TeV-madgraph/Summer12_DR53X-PU_S10_START53_V7A-v1/AODSIM/V5_B/PAT_CMG_V5_16_0/cmgTuple_329.root
p1030
(lp1031
I01
aI11061
asV/store/cmst3/user/cmgtools/CMG/DY4JetsToLL_M-50_TuneZ2Star_8TeV-madgraph/Summer12_DR53X-PU_S10_START53_V7A-v1/AODSIM/V5_B/PAT_CMG_V5_16_0/cmgTuple_173.root
p1032
(lp1033
I01
aI10372
asV/store/cmst3/user/cmgtools/CMG/DY4JetsToLL_M-50_TuneZ2Star_8TeV-madgraph/Summer12_DR53X-PU_S10_START53_V7A-v1/AODSIM/V5_B/PAT_CMG_V5_16_0/cmgTuple_463.root
p1034
(lp1035
I01
aI10207
asV/store/cmst3/user/cmgtools/CMG/DY4JetsToLL_M-50_TuneZ2Star_8TeV-madgraph/Summer12_DR53X-PU_S10_START53_V7A-v1/AODSIM/V5_B/PAT_CMG_V5_16_0/cmgTuple_390.root
p1036
(lp1037
I01
aI11005
asV/store/cmst3/user/cmgtools/CMG/DY4JetsToLL_M-50_TuneZ2Star_8TeV-madgraph/Summer12_DR53X-PU_S10_START53_V7A-v1/AODSIM/V5_B/PAT_CMG_V5_16_0/cmgTuple_397.root
p1038
(lp1039
I01
aI10170
asV/store/cmst3/user/cmgtools/CMG/DY4JetsToLL_M-50_TuneZ2Star_8TeV-madgraph/Summer12_DR53X-PU_S10_START53_V7A-v1/AODSIM/V5_B/PAT_CMG_V5_16_0/cmgTuple_150.root
p1040
(lp1041
I01
aI10964
asV/store/cmst3/user/cmgtools/CMG/DY4JetsToLL_M-50_TuneZ2Star_8TeV-madgraph/Summer12_DR53X-PU_S10_START53_V7A-v1/AODSIM/V5_B/PAT_CMG_V5_16_0/cmgTuple_473.root
p1042
(lp1043
I01
aI11144
asV/store/cmst3/user/cmgtools/CMG/DY4JetsToLL_M-50_TuneZ2Star_8TeV-madgraph/Summer12_DR53X-PU_S10_START53_V7A-v1/AODSIM/V5_B/PAT_CMG_V5_16_0/cmgTuple_497.root
p1044
(lp1045
I01
aI9927
asV/store/cmst3/user/cmgtools/CMG/DY4JetsToLL_M-50_TuneZ2Star_8TeV-madgraph/Summer12_DR53X-PU_S10_START53_V7A-v1/AODSIM/V5_B/PAT_CMG_V5_16_0/cmgTuple_433.root
p1046
(lp1047
I01
aI7871
asV/store/cmst3/user/cmgtools/CMG/DY4JetsToLL_M-50_TuneZ2Star_8TeV-madgraph/Summer12_DR53X-PU_S10_START53_V7A-v1/AODSIM/V5_B/PAT_CMG_V5_16_0/cmgTuple_333.root
p1048
(lp1049
I01
aI10948
asV/store/cmst3/user/cmgtools/CMG/DY4JetsToLL_M-50_TuneZ2Star_8TeV-madgraph/Summer12_DR53X-PU_S10_START53_V7A-v1/AODSIM/V5_B/PAT_CMG_V5_16_0/cmgTuple_118.root
p1050
(lp1051
I01
aI9038
asV/store/cmst3/user/cmgtools/CMG/DY4JetsToLL_M-50_TuneZ2Star_8TeV-madgraph/Summer12_DR53X-PU_S10_START53_V7A-v1/AODSIM/V5_B/PAT_CMG_V5_16_0/cmgTuple_239.root
p1052
(lp1053
I01
aI10052
asV/store/cmst3/user/cmgtools/CMG/DY4JetsToLL_M-50_TuneZ2Star_8TeV-madgraph/Summer12_DR53X-PU_S10_START53_V7A-v1/AODSIM/V5_B/PAT_CMG_V5_16_0/cmgTuple_525.root
p1054
(lp1055
I01
aI10637
asV/store/cmst3/user/cmgtools/CMG/DY4JetsToLL_M-50_TuneZ2Star_8TeV-madgraph/Summer12_DR53X-PU_S10_START53_V7A-v1/AODSIM/V5_B/PAT_CMG_V5_16_0/cmgTuple_612.root
p1056
(lp1057
I01
aI9880
asV/store/cmst3/user/cmgtools/CMG/DY4JetsToLL_M-50_TuneZ2Star_8TeV-madgraph/Summer12_DR53X-PU_S10_START53_V7A-v1/AODSIM/V5_B/PAT_CMG_V5_16_0/cmgTuple_564.root
p1058
(lp1059
I01
aI11198
asV/store/cmst3/user/cmgtools/CMG/DY4JetsToLL_M-50_TuneZ2Star_8TeV-madgraph/Summer12_DR53X-PU_S10_START53_V7A-v1/AODSIM/V5_B/PAT_CMG_V5_16_0/cmgTuple_556.root
p1060
(lp1061
I01
aI10660
asV/store/cmst3/user/cmgtools/CMG/DY4JetsToLL_M-50_TuneZ2Star_8TeV-madgraph/Summer12_DR53X-PU_S10_START53_V7A-v1/AODSIM/V5_B/PAT_CMG_V5_16_0/cmgTuple_483.root
p1062
(lp1063
I01
aI8601
asV/store/cmst3/user/cmgtools/CMG/DY4JetsToLL_M-50_TuneZ2Star_8TeV-madgraph/Summer12_DR53X-PU_S10_START53_V7A-v1/AODSIM/V5_B/PAT_CMG_V5_16_0/cmgTuple_130.root
p1064
(lp1065
I01
aI10313
asV/store/cmst3/user/cmgtools/CMG/DY4JetsToLL_M-50_TuneZ2Star_8TeV-madgraph/Summer12_DR53X-PU_S10_START53_V7A-v1/AODSIM/V5_B/PAT_CMG_V5_16_0/cmgTuple_453.root
p1066
(lp1067
I01
aI10577
asV/store/cmst3/user/cmgtools/CMG/DY4JetsToLL_M-50_TuneZ2Star_8TeV-madgraph/Summer12_DR53X-PU_S10_START53_V7A-v1/AODSIM/V5_B/PAT_CMG_V5_16_0/cmgTuple_62.root
p1068
(lp1069
I01
aI11099
asV/store/cmst3/user/cmgtools/CMG/DY4JetsToLL_M-50_TuneZ2Star_8TeV-madgraph/Summer12_DR53X-PU_S10_START53_V7A-v1/AODSIM/V5_B/PAT_CMG_V5_16_0/cmgTuple_534.root
p1070
(lp1071
I01
aI10542
asV/store/cmst3/user/cmgtools/CMG/DY4JetsToLL_M-50_TuneZ2Star_8TeV-madgraph/Summer12_DR53X-PU_S10_START53_V7A-v1/AODSIM/V5_B/PAT_CMG_V5_16_0/cmgTuple_485.root
p1072
(lp1073
I01
aI7593
asV/store/cmst3/user/cmgtools/CMG/DY4JetsToLL_M-50_TuneZ2Star_8TeV-madgraph/Summer12_DR53X-PU_S10_START53_V7A-v1/AODSIM/V5_B/PAT_CMG_V5_16_0/cmgTuple_438.root
p1074
(lp1075
I01
aI9982
asV/store/cmst3/user/cmgtools/CMG/DY4JetsToLL_M-50_TuneZ2Star_8TeV-madgraph/Summer12_DR53X-PU_S10_START53_V7A-v1/AODSIM/V5_B/PAT_CMG_V5_16_0/cmgTuple_441.root
p1076
(lp1077
I01
aI10865
asV/store/cmst3/user/cmgtools/CMG/DY4JetsToLL_M-50_TuneZ2Star_8TeV-madgraph/Summer12_DR53X-PU_S10_START53_V7A-v1/AODSIM/V5_B/PAT_CMG_V5_16_0/cmgTuple_27.root
p1078
(lp1079
I01
aI10555
asV/store/cmst3/user/cmgtools/CMG/DY4JetsToLL_M-50_TuneZ2Star_8TeV-madgraph/Summer12_DR53X-PU_S10_START53_V7A-v1/AODSIM/V5_B/PAT_CMG_V5_16_0/cmgTuple_627.root
p1080
(lp1081
I01
aI10206
asV/store/cmst3/user/cmgtools/CMG/DY4JetsToLL_M-50_TuneZ2Star_8TeV-madgraph/Summer12_DR53X-PU_S10_START53_V7A-v1/AODSIM/V5_B/PAT_CMG_V5_16_0/cmgTuple_341.root
p1082
(lp1083
I01
aI11079
asV/store/cmst3/user/cmgtools/CMG/DY4JetsToLL_M-50_TuneZ2Star_8TeV-madgraph/Summer12_DR53X-PU_S10_START53_V7A-v1/AODSIM/V5_B/PAT_CMG_V5_16_0/cmgTuple_139.root
p1084
(lp1085
I01
aI10909
asV/store/cmst3/user/cmgtools/CMG/DY4JetsToLL_M-50_TuneZ2Star_8TeV-madgraph/Summer12_DR53X-PU_S10_START53_V7A-v1/AODSIM/V5_B/PAT_CMG_V5_16_0/cmgTuple_545.root
p1086
(lp1087
I01
aI9248
asV/store/cmst3/user/cmgtools/CMG/DY4JetsToLL_M-50_TuneZ2Star_8TeV-madgraph/Summer12_DR53X-PU_S10_START53_V7A-v1/AODSIM/V5_B/PAT_CMG_V5_16_0/cmgTuple_562.root
p1088
(lp1089
I01
aI10648
asV/store/cmst3/user/cmgtools/CMG/DY4JetsToLL_M-50_TuneZ2Star_8TeV-madgraph/Summer12_DR53X-PU_S10_START53_V7A-v1/AODSIM/V5_B/PAT_CMG_V5_16_0/cmgTuple_244.root
p1090
(lp1091
I01
aI10112
asV/store/cmst3/user/cmgtools/CMG/DY4JetsToLL_M-50_TuneZ2Star_8TeV-madgraph/Summer12_DR53X-PU_S10_START53_V7A-v1/AODSIM/V5_B/PAT_CMG_V5_16_0/cmgTuple_134.root
p1092
(lp1093
I01
aI10055
asV/store/cmst3/user/cmgtools/CMG/DY4JetsToLL_M-50_TuneZ2Star_8TeV-madgraph/Summer12_DR53X-PU_S10_START53_V7A-v1/AODSIM/V5_B/PAT_CMG_V5_16_0/cmgTuple_474.root
p1094
(lp1095
I01
aI10730
asV/store/cmst3/user/cmgtools/CMG/DY4JetsToLL_M-50_TuneZ2Star_8TeV-madgraph/Summer12_DR53X-PU_S10_START53_V7A-v1/AODSIM/V5_B/PAT_CMG_V5_16_0/cmgTuple_33.root
p1096
(lp1097
I01
aI5854
asV/store/cmst3/user/cmgtools/CMG/DY4JetsToLL_M-50_TuneZ2Star_8TeV-madgraph/Summer12_DR53X-PU_S10_START53_V7A-v1/AODSIM/V5_B/PAT_CMG_V5_16_0/cmgTuple_590.root
p1098
(lp1099
I01
aI10481
asV/store/cmst3/user/cmgtools/CMG/DY4JetsToLL_M-50_TuneZ2Star_8TeV-madgraph/Summer12_DR53X-PU_S10_START53_V7A-v1/AODSIM/V5_B/PAT_CMG_V5_16_0/cmgTuple_524.root
p1100
(lp1101
I01
aI11171
asV/store/cmst3/user/cmgtools/CMG/DY4JetsToLL_M-50_TuneZ2Star_8TeV-madgraph/Summer12_DR53X-PU_S10_START53_V7A-v1/AODSIM/V5_B/PAT_CMG_V5_16_0/cmgTuple_237.root
p1102
(lp1103
I01
aI9822
asV/store/cmst3/user/cmgtools/CMG/DY4JetsToLL_M-50_TuneZ2Star_8TeV-madgraph/Summer12_DR53X-PU_S10_START53_V7A-v1/AODSIM/V5_B/PAT_CMG_V5_16_0/cmgTuple_124.root
p1104
(lp1105
I01
aI10457
asV/store/cmst3/user/cmgtools/CMG/DY4JetsToLL_M-50_TuneZ2Star_8TeV-madgraph/Summer12_DR53X-PU_S10_START53_V7A-v1/AODSIM/V5_B/PAT_CMG_V5_16_0/cmgTuple_39.root
p1106
(lp1107
I01
aI10796
asV/store/cmst3/user/cmgtools/CMG/DY4JetsToLL_M-50_TuneZ2Star_8TeV-madgraph/Summer12_DR53X-PU_S10_START53_V7A-v1/AODSIM/V5_B/PAT_CMG_V5_16_0/cmgTuple_599.root
p1108
(lp1109
I01
aI11125
asV/store/cmst3/user/cmgtools/CMG/DY4JetsToLL_M-50_TuneZ2Star_8TeV-madgraph/Summer12_DR53X-PU_S10_START53_V7A-v1/AODSIM/V5_B/PAT_CMG_V5_16_0/cmgTuple_49.root
p1110
(lp1111
I01
aI11045
asV/store/cmst3/user/cmgtools/CMG/DY4JetsToLL_M-50_TuneZ2Star_8TeV-madgraph/Summer12_DR53X-PU_S10_START53_V7A-v1/AODSIM/V5_B/PAT_CMG_V5_16_0/cmgTuple_604.root
p1112
(lp1113
I01
aI10612
asV/store/cmst3/user/cmgtools/CMG/DY4JetsToLL_M-50_TuneZ2Star_8TeV-madgraph/Summer12_DR53X-PU_S10_START53_V7A-v1/AODSIM/V5_B/PAT_CMG_V5_16_0/cmgTuple_464.root
p1114
(lp1115
I01
aI10504
asV/store/cmst3/user/cmgtools/CMG/DY4JetsToLL_M-50_TuneZ2Star_8TeV-madgraph/Summer12_DR53X-PU_S10_START53_V7A-v1/AODSIM/V5_B/PAT_CMG_V5_16_0/cmgTuple_434.root
p1116
(lp1117
I01
aI10971
asV/store/cmst3/user/cmgtools/CMG/DY4JetsToLL_M-50_TuneZ2Star_8TeV-madgraph/Summer12_DR53X-PU_S10_START53_V7A-v1/AODSIM/V5_B/PAT_CMG_V5_16_0/cmgTuple_50.root
p1118
(lp1119
I01
aI7411
asV/store/cmst3/user/cmgtools/CMG/DY4JetsToLL_M-50_TuneZ2Star_8TeV-madgraph/Summer12_DR53X-PU_S10_START53_V7A-v1/AODSIM/V5_B/PAT_CMG_V5_16_0/cmgTuple_526.root
p1120
(lp1121
I01
aI10675
asV/store/cmst3/user/cmgtools/CMG/DY4JetsToLL_M-50_TuneZ2Star_8TeV-madgraph/Summer12_DR53X-PU_S10_START53_V7A-v1/AODSIM/V5_B/PAT_CMG_V5_16_0/cmgTuple_34.root
p1122
(lp1123
I01
aI10675
asV/store/cmst3/user/cmgtools/CMG/DY4JetsToLL_M-50_TuneZ2Star_8TeV-madgraph/Summer12_DR53X-PU_S10_START53_V7A-v1/AODSIM/V5_B/PAT_CMG_V5_16_0/cmgTuple_467.root
p1124
(lp1125
I01
aI11071
asV/store/cmst3/user/cmgtools/CMG/DY4JetsToLL_M-50_TuneZ2Star_8TeV-madgraph/Summer12_DR53X-PU_S10_START53_V7A-v1/AODSIM/V5_B/PAT_CMG_V5_16_0/cmgTuple_129.root
p1126
(lp1127
I01
aI11139
asV/store/cmst3/user/cmgtools/CMG/DY4JetsToLL_M-50_TuneZ2Star_8TeV-madgraph/Summer12_DR53X-PU_S10_START53_V7A-v1/AODSIM/V5_B/PAT_CMG_V5_16_0/cmgTuple_157.root
p1128
(lp1129
I01
aI10151
asV/store/cmst3/user/cmgtools/CMG/DY4JetsToLL_M-50_TuneZ2Star_8TeV-madgraph/Summer12_DR53X-PU_S10_START53_V7A-v1/AODSIM/V5_B/PAT_CMG_V5_16_0/cmgTuple_114.root
p1130
(lp1131
I01
aI10399
asV/store/cmst3/user/cmgtools/CMG/DY4JetsToLL_M-50_TuneZ2Star_8TeV-madgraph/Summer12_DR53X-PU_S10_START53_V7A-v1/AODSIM/V5_B/PAT_CMG_V5_16_0/cmgTuple_190.root
p1132
(lp1133
I01
aI11179
asV/store/cmst3/user/cmgtools/CMG/DY4JetsToLL_M-50_TuneZ2Star_8TeV-madgraph/Summer12_DR53X-PU_S10_START53_V7A-v1/AODSIM/V5_B/PAT_CMG_V5_16_0/cmgTuple_166.root
p1134
(lp1135
I01
aI10922
asV/store/cmst3/user/cmgtools/CMG/DY4JetsToLL_M-50_TuneZ2Star_8TeV-madgraph/Summer12_DR53X-PU_S10_START53_V7A-v1/AODSIM/V5_B/PAT_CMG_V5_16_0/cmgTuple_250.root
p1136
(lp1137
I01
aI10716
asV/store/cmst3/user/cmgtools/CMG/DY4JetsToLL_M-50_TuneZ2Star_8TeV-madgraph/Summer12_DR53X-PU_S10_START53_V7A-v1/AODSIM/V5_B/PAT_CMG_V5_16_0/cmgTuple_339.root
p1138
(lp1139
I01
aI8429
asV/store/cmst3/user/cmgtools/CMG/DY4JetsToLL_M-50_TuneZ2Star_8TeV-madgraph/Summer12_DR53X-PU_S10_START53_V7A-v1/AODSIM/V5_B/PAT_CMG_V5_16_0/cmgTuple_301.root
p1140
(lp1141
I01
aI10410
asV/store/cmst3/user/cmgtools/CMG/DY4JetsToLL_M-50_TuneZ2Star_8TeV-madgraph/Summer12_DR53X-PU_S10_START53_V7A-v1/AODSIM/V5_B/PAT_CMG_V5_16_0/cmgTuple_191.root
p1142
(lp1143
I01
aI7599
asV/store/cmst3/user/cmgtools/CMG/DY4JetsToLL_M-50_TuneZ2Star_8TeV-madgraph/Summer12_DR53X-PU_S10_START53_V7A-v1/AODSIM/V5_B/PAT_CMG_V5_16_0/cmgTuple_167.root
p1144
(lp1145
I01
aI11207
asV/store/cmst3/user/cmgtools/CMG/DY4JetsToLL_M-50_TuneZ2Star_8TeV-madgraph/Summer12_DR53X-PU_S10_START53_V7A-v1/AODSIM/V5_B/PAT_CMG_V5_16_0/cmgTuple_251.root
p1146
(lp1147
I01
aI10988
asV/store/cmst3/user/cmgtools/CMG/DY4JetsToLL_M-50_TuneZ2Star_8TeV-madgraph/Summer12_DR53X-PU_S10_START53_V7A-v1/AODSIM/V5_B/PAT_CMG_V5_16_0/cmgTuple_420.root
p1148
(lp1149
I01
aI11091
asV/store/cmst3/user/cmgtools/CMG/DY4JetsToLL_M-50_TuneZ2Star_8TeV-madgraph/Summer12_DR53X-PU_S10_START53_V7A-v1/AODSIM/V5_B/PAT_CMG_V5_16_0/cmgTuple_300.root
p1150
(lp1151
I01
aI11295
asV/store/cmst3/user/cmgtools/CMG/DY4JetsToLL_M-50_TuneZ2Star_8TeV-madgraph/Summer12_DR53X-PU_S10_START53_V7A-v1/AODSIM/V5_B/PAT_CMG_V5_16_0/cmgTuple_10.root
p1152
(lp1153
I01
aI8795
asV/store/cmst3/user/cmgtools/CMG/DY4JetsToLL_M-50_TuneZ2Star_8TeV-madgraph/Summer12_DR53X-PU_S10_START53_V7A-v1/AODSIM/V5_B/PAT_CMG_V5_16_0/cmgTuple_591.root
p1154
(lp1155
I01
aI11270
asV/store/cmst3/user/cmgtools/CMG/DY4JetsToLL_M-50_TuneZ2Star_8TeV-madgraph/Summer12_DR53X-PU_S10_START53_V7A-v1/AODSIM/V5_B/PAT_CMG_V5_16_0/cmgTuple_265.root
p1156
(lp1157
I01
aI10254
asV/store/cmst3/user/cmgtools/CMG/DY4JetsToLL_M-50_TuneZ2Star_8TeV-madgraph/Summer12_DR53X-PU_S10_START53_V7A-v1/AODSIM/V5_B/PAT_CMG_V5_16_0/cmgTuple_490.root
p1158
(lp1159
I01
aI11244
asV/store/cmst3/user/cmgtools/CMG/DY4JetsToLL_M-50_TuneZ2Star_8TeV-madgraph/Summer12_DR53X-PU_S10_START53_V7A-v1/AODSIM/V5_B/PAT_CMG_V5_16_0/cmgTuple_67.root
p1160
(lp1161
I01
aI10229
asV/store/cmst3/user/cmgtools/CMG/DY4JetsToLL_M-50_TuneZ2Star_8TeV-madgraph/Summer12_DR53X-PU_S10_START53_V7A-v1/AODSIM/V5_B/PAT_CMG_V5_16_0/cmgTuple_570.root
p1162
(lp1163
I01
aI10369
asV/store/cmst3/user/cmgtools/CMG/DY4JetsToLL_M-50_TuneZ2Star_8TeV-madgraph/Summer12_DR53X-PU_S10_START53_V7A-v1/AODSIM/V5_B/PAT_CMG_V5_16_0/cmgTuple_354.root
p1164
(lp1165
I01
aI10972
asV/store/cmst3/user/cmgtools/CMG/DY4JetsToLL_M-50_TuneZ2Star_8TeV-madgraph/Summer12_DR53X-PU_S10_START53_V7A-v1/AODSIM/V5_B/PAT_CMG_V5_16_0/cmgTuple_95.root
p1166
(lp1167
I01
aI11071
asV/store/cmst3/user/cmgtools/CMG/DY4JetsToLL_M-50_TuneZ2Star_8TeV-madgraph/Summer12_DR53X-PU_S10_START53_V7A-v1/AODSIM/V5_B/PAT_CMG_V5_16_0/cmgTuple_481.root
p1168
(lp1169
I01
aI6246
asV/store/cmst3/user/cmgtools/CMG/DY4JetsToLL_M-50_TuneZ2Star_8TeV-madgraph/Summer12_DR53X-PU_S10_START53_V7A-v1/AODSIM/V5_B/PAT_CMG_V5_16_0/cmgTuple_76.root
p1170
(lp1171
I01
aI10159
asV/store/cmst3/user/cmgtools/CMG/DY4JetsToLL_M-50_TuneZ2Star_8TeV-madgraph/Summer12_DR53X-PU_S10_START53_V7A-v1/AODSIM/V5_B/PAT_CMG_V5_16_0/cmgTuple_344.root
p1172
(lp1173
I01
aI10416
asV/store/cmst3/user/cmgtools/CMG/DY4JetsToLL_M-50_TuneZ2Star_8TeV-madgraph/Summer12_DR53X-PU_S10_START53_V7A-v1/AODSIM/V5_B/PAT_CMG_V5_16_0/cmgTuple_101.root
p1174
(lp1175
I01
aI10397
asV/store/cmst3/user/cmgtools/CMG/DY4JetsToLL_M-50_TuneZ2Star_8TeV-madgraph/Summer12_DR53X-PU_S10_START53_V7A-v1/AODSIM/V5_B/PAT_CMG_V5_16_0/cmgTuple_25.root
p1176
(lp1177
I01
aI11038
asV/store/cmst3/user/cmgtools/CMG/DY4JetsToLL_M-50_TuneZ2Star_8TeV-madgraph/Summer12_DR53X-PU_S10_START53_V7A-v1/AODSIM/V5_B/PAT_CMG_V5_16_0/cmgTuple_182.root
p1178
(lp1179
I01
aI10308
asV/store/cmst3/user/cmgtools/CMG/DY4JetsToLL_M-50_TuneZ2Star_8TeV-madgraph/Summer12_DR53X-PU_S10_START53_V7A-v1/AODSIM/V5_B/PAT_CMG_V5_16_0/cmgTuple_439.root
p1180
(lp1181
I01
aI8560
asV/store/cmst3/user/cmgtools/CMG/DY4JetsToLL_M-50_TuneZ2Star_8TeV-madgraph/Summer12_DR53X-PU_S10_START53_V7A-v1/AODSIM/V5_B/PAT_CMG_V5_16_0/cmgTuple_90.root
p1182
(lp1183
I01
aI7942
asV/store/cmst3/user/cmgtools/CMG/DY4JetsToLL_M-50_TuneZ2Star_8TeV-madgraph/Summer12_DR53X-PU_S10_START53_V7A-v1/AODSIM/V5_B/PAT_CMG_V5_16_0/cmgTuple_279.root
p1184
(lp1185
I01
aI10265
asV/store/cmst3/user/cmgtools/CMG/DY4JetsToLL_M-50_TuneZ2Star_8TeV-madgraph/Summer12_DR53X-PU_S10_START53_V7A-v1/AODSIM/V5_B/PAT_CMG_V5_16_0/cmgTuple_165.root
p1186
(lp1187
I01
aI6766
asV/store/cmst3/user/cmgtools/CMG/DY4JetsToLL_M-50_TuneZ2Star_8TeV-madgraph/Summer12_DR53X-PU_S10_START53_V7A-v1/AODSIM/V5_B/PAT_CMG_V5_16_0/cmgTuple_337.root
p1188
(lp1189
I01
aI6776
asV/store/cmst3/user/cmgtools/CMG/DY4JetsToLL_M-50_TuneZ2Star_8TeV-madgraph/Summer12_DR53X-PU_S10_START53_V7A-v1/AODSIM/V5_B/PAT_CMG_V5_16_0/cmgTuple_400.root
p1190
(lp1191
I01
aI10204
asV/store/cmst3/user/cmgtools/CMG/DY4JetsToLL_M-50_TuneZ2Star_8TeV-madgraph/Summer12_DR53X-PU_S10_START53_V7A-v1/AODSIM/V5_B/PAT_CMG_V5_16_0/cmgTuple_374.root
p1192
(lp1193
I01
aI10907
asV/store/cmst3/user/cmgtools/CMG/DY4JetsToLL_M-50_TuneZ2Star_8TeV-madgraph/Summer12_DR53X-PU_S10_START53_V7A-v1/AODSIM/V5_B/PAT_CMG_V5_16_0/cmgTuple_264.root
p1194
(lp1195
I01
aI11200
asV/store/cmst3/user/cmgtools/CMG/DY4JetsToLL_M-50_TuneZ2Star_8TeV-madgraph/Summer12_DR53X-PU_S10_START53_V7A-v1/AODSIM/V5_B/PAT_CMG_V5_16_0/cmgTuple_306.root
p1196
(lp1197
I01
aI7906
asV/store/cmst3/user/cmgtools/CMG/DY4JetsToLL_M-50_TuneZ2Star_8TeV-madgraph/Summer12_DR53X-PU_S10_START53_V7A-v1/AODSIM/V5_B/PAT_CMG_V5_16_0/cmgTuple_79.root
p1198
(lp1199
I01
aI10976
asV/store/cmst3/user/cmgtools/CMG/DY4JetsToLL_M-50_TuneZ2Star_8TeV-madgraph/Summer12_DR53X-PU_S10_START53_V7A-v1/AODSIM/V5_B/PAT_CMG_V5_16_0/cmgTuple_530.root
p1200
(lp1201
I01
aI10196
asV/store/cmst3/user/cmgtools/CMG/DY4JetsToLL_M-50_TuneZ2Star_8TeV-madgraph/Summer12_DR53X-PU_S10_START53_V7A-v1/AODSIM/V5_B/PAT_CMG_V5_16_0/cmgTuple_307.root
p1202
(lp1203
I01
aI8757
asV/store/cmst3/user/cmgtools/CMG/DY4JetsToLL_M-50_TuneZ2Star_8TeV-madgraph/Summer12_DR53X-PU_S10_START53_V7A-v1/AODSIM/V5_B/PAT_CMG_V5_16_0/cmgTuple_274.root
p1204
(lp1205
I01
aI10758
asV/store/cmst3/user/cmgtools/CMG/DY4JetsToLL_M-50_TuneZ2Star_8TeV-madgraph/Summer12_DR53X-PU_S10_START53_V7A-v1/AODSIM/V5_B/PAT_CMG_V5_16_0/cmgTuple_569.root
p1206
(lp1207
I01
aI11148
asV/store/cmst3/user/cmgtools/CMG/DY4JetsToLL_M-50_TuneZ2Star_8TeV-madgraph/Summer12_DR53X-PU_S10_START53_V7A-v1/AODSIM/V5_B/PAT_CMG_V5_16_0/cmgTuple_13.root
p1208
(lp1209
I01
aI10580
asV/store/cmst3/user/cmgtools/CMG/DY4JetsToLL_M-50_TuneZ2Star_8TeV-madgraph/Summer12_DR53X-PU_S10_START53_V7A-v1/AODSIM/V5_B/PAT_CMG_V5_16_0/cmgTuple_549.root
p1210
(lp1211
I01
aI10699
asV/store/cmst3/user/cmgtools/CMG/DY4JetsToLL_M-50_TuneZ2Star_8TeV-madgraph/Summer12_DR53X-PU_S10_START53_V7A-v1/AODSIM/V5_B/PAT_CMG_V5_16_0/cmgTuple_77.root
p1212
(lp1213
I01
aI10360
asV/store/cmst3/user/cmgtools/CMG/DY4JetsToLL_M-50_TuneZ2Star_8TeV-madgraph/Summer12_DR53X-PU_S10_START53_V7A-v1/AODSIM/V5_B/PAT_CMG_V5_16_0/cmgTuple_514.root
p1214
(lp1215
I01
aI9956
asV/store/cmst3/user/cmgtools/CMG/DY4JetsToLL_M-50_TuneZ2Star_8TeV-madgraph/Summer12_DR53X-PU_S10_START53_V7A-v1/AODSIM/V5_B/PAT_CMG_V5_16_0/cmgTuple_459.root
p1216
(lp1217
I01
aI10416
asV/store/cmst3/user/cmgtools/CMG/DY4JetsToLL_M-50_TuneZ2Star_8TeV-madgraph/Summer12_DR53X-PU_S10_START53_V7A-v1/AODSIM/V5_B/PAT_CMG_V5_16_0/cmgTuple_121.root
p1218
(lp1219
I01
aI11184
asV/store/cmst3/user/cmgtools/CMG/DY4JetsToLL_M-50_TuneZ2Star_8TeV-madgraph/Summer12_DR53X-PU_S10_START53_V7A-v1/AODSIM/V5_B/PAT_CMG_V5_16_0/cmgTuple_517.root
p1220
(lp1221
I01
aI10609
asV/store/cmst3/user/cmgtools/CMG/DY4JetsToLL_M-50_TuneZ2Star_8TeV-madgraph/Summer12_DR53X-PU_S10_START53_V7A-v1/AODSIM/V5_B/PAT_CMG_V5_16_0/cmgTuple_410.root
p1222
(lp1223
I01
aI10335
asV/store/cmst3/user/cmgtools/CMG/DY4JetsToLL_M-50_TuneZ2Star_8TeV-madgraph/Summer12_DR53X-PU_S10_START53_V7A-v1/AODSIM/V5_B/PAT_CMG_V5_16_0/cmgTuple_199.root
p1224
(lp1225
I01
aI11316
asV/store/cmst3/user/cmgtools/CMG/DY4JetsToLL_M-50_TuneZ2Star_8TeV-madgraph/Summer12_DR53X-PU_S10_START53_V7A-v1/AODSIM/V5_B/PAT_CMG_V5_16_0/cmgTuple_111.root
p1226
(lp1227
I01
aI11025
asV/store/cmst3/user/cmgtools/CMG/DY4JetsToLL_M-50_TuneZ2Star_8TeV-madgraph/Summer12_DR53X-PU_S10_START53_V7A-v1/AODSIM/V5_B/PAT_CMG_V5_16_0/cmgTuple_316.root
p1228
(lp1229
I01
aI10540
asV/store/cmst3/user/cmgtools/CMG/DY4JetsToLL_M-50_TuneZ2Star_8TeV-madgraph/Summer12_DR53X-PU_S10_START53_V7A-v1/AODSIM/V5_B/PAT_CMG_V5_16_0/cmgTuple_537.root
p1230
(lp1231
I01
aI10867
asV/store/cmst3/user/cmgtools/CMG/DY4JetsToLL_M-50_TuneZ2Star_8TeV-madgraph/Summer12_DR53X-PU_S10_START53_V7A-v1/AODSIM/V5_B/PAT_CMG_V5_16_0/cmgTuple_229.root
p1232
(lp1233
I01
aI10750
asV/store/cmst3/user/cmgtools/CMG/DY4JetsToLL_M-50_TuneZ2Star_8TeV-madgraph/Summer12_DR53X-PU_S10_START53_V7A-v1/AODSIM/V5_B/PAT_CMG_V5_16_0/cmgTuple_133.root
p1234
(lp1235
I01
aI10259
asV/store/cmst3/user/cmgtools/CMG/DY4JetsToLL_M-50_TuneZ2Star_8TeV-madgraph/Summer12_DR53X-PU_S10_START53_V7A-v1/AODSIM/V5_B/PAT_CMG_V5_16_0/cmgTuple_443.root
p1236
(lp1237
I01
aI10732
asV/store/cmst3/user/cmgtools/CMG/DY4JetsToLL_M-50_TuneZ2Star_8TeV-madgraph/Summer12_DR53X-PU_S10_START53_V7A-v1/AODSIM/V5_B/PAT_CMG_V5_16_0/cmgTuple_123.root
p1238
(lp1239
I01
aI11025
asV/store/cmst3/user/cmgtools/CMG/DY4JetsToLL_M-50_TuneZ2Star_8TeV-madgraph/Summer12_DR53X-PU_S10_START53_V7A-v1/AODSIM/V5_B/PAT_CMG_V5_16_0/cmgTuple_102.root
p1240
(lp1241
I01
aI8422
asV/store/cmst3/user/cmgtools/CMG/DY4JetsToLL_M-50_TuneZ2Star_8TeV-madgraph/Summer12_DR53X-PU_S10_START53_V7A-v1/AODSIM/V5_B/PAT_CMG_V5_16_0/cmgTuple_217.root
p1242
(lp1243
I01
aI11336
asV/store/cmst3/user/cmgtools/CMG/DY4JetsToLL_M-50_TuneZ2Star_8TeV-madgraph/Summer12_DR53X-PU_S10_START53_V7A-v1/AODSIM/V5_B/PAT_CMG_V5_16_0/cmgTuple_270.root
p1244
(lp1245
I01
aI10912
asV/store/cmst3/user/cmgtools/CMG/DY4JetsToLL_M-50_TuneZ2Star_8TeV-madgraph/Summer12_DR53X-PU_S10_START53_V7A-v1/AODSIM/V5_B/PAT_CMG_V5_16_0/cmgTuple_523.root
p1246
(lp1247
I01
aI5825
asV/store/cmst3/user/cmgtools/CMG/DY4JetsToLL_M-50_TuneZ2Star_8TeV-madgraph/Summer12_DR53X-PU_S10_START53_V7A-v1/AODSIM/V5_B/PAT_CMG_V5_16_0/cmgTuple_221.root
p1248
(lp1249
I01
aI11311
asV/store/cmst3/user/cmgtools/CMG/DY4JetsToLL_M-50_TuneZ2Star_8TeV-madgraph/Summer12_DR53X-PU_S10_START53_V7A-v1/AODSIM/V5_B/PAT_CMG_V5_16_0/cmgTuple_622.root
p1250
(lp1251
I01
aI10059
asV/store/cmst3/user/cmgtools/CMG/DY4JetsToLL_M-50_TuneZ2Star_8TeV-madgraph/Summer12_DR53X-PU_S10_START53_V7A-v1/AODSIM/V5_B/PAT_CMG_V5_16_0/cmgTuple_216.root
p1252
(lp1253
I01
aI10832
asV/store/cmst3/user/cmgtools/CMG/DY4JetsToLL_M-50_TuneZ2Star_8TeV-madgraph/Summer12_DR53X-PU_S10_START53_V7A-v1/AODSIM/V5_B/PAT_CMG_V5_16_0/cmgTuple_566.root
p1254
(lp1255
I01
aI6752
asV/store/cmst3/user/cmgtools/CMG/DY4JetsToLL_M-50_TuneZ2Star_8TeV-madgraph/Summer12_DR53X-PU_S10_START53_V7A-v1/AODSIM/V5_B/PAT_CMG_V5_16_0/cmgTuple_275.root
p1256
(lp1257
I01
aI6484
asV/store/cmst3/user/cmgtools/CMG/DY4JetsToLL_M-50_TuneZ2Star_8TeV-madgraph/Summer12_DR53X-PU_S10_START53_V7A-v1/AODSIM/V5_B/PAT_CMG_V5_16_0/cmgTuple_107.root
p1258
(lp1259
I01
aI11108
asV/store/cmst3/user/cmgtools/CMG/DY4JetsToLL_M-50_TuneZ2Star_8TeV-madgraph/Summer12_DR53X-PU_S10_START53_V7A-v1/AODSIM/V5_B/PAT_CMG_V5_16_0/cmgTuple_554.root
p1260
(lp1261
I01
aI11250
asV/store/cmst3/user/cmgtools/CMG/DY4JetsToLL_M-50_TuneZ2Star_8TeV-madgraph/Summer12_DR53X-PU_S10_START53_V7A-v1/AODSIM/V5_B/PAT_CMG_V5_16_0/cmgTuple_132.root
p1262
(lp1263
I01
aI10940
asV/store/cmst3/user/cmgtools/CMG/DY4JetsToLL_M-50_TuneZ2Star_8TeV-madgraph/Summer12_DR53X-PU_S10_START53_V7A-v1/AODSIM/V5_B/PAT_CMG_V5_16_0/cmgTuple_435.root
p1264
(lp1265
I01
aI11132
asV/store/cmst3/user/cmgtools/CMG/DY4JetsToLL_M-50_TuneZ2Star_8TeV-madgraph/Summer12_DR53X-PU_S10_START53_V7A-v1/AODSIM/V5_B/PAT_CMG_V5_16_0/cmgTuple_289.root
p1266
(lp1267
I01
aI11025
asV/store/cmst3/user/cmgtools/CMG/DY4JetsToLL_M-50_TuneZ2Star_8TeV-madgraph/Summer12_DR53X-PU_S10_START53_V7A-v1/AODSIM/V5_B/PAT_CMG_V5_16_0/cmgTuple_20.root
p1268
(lp1269
I01
aI10773
asV/store/cmst3/user/cmgtools/CMG/DY4JetsToLL_M-50_TuneZ2Star_8TeV-madgraph/Summer12_DR53X-PU_S10_START53_V7A-v1/AODSIM/V5_B/PAT_CMG_V5_16_0/cmgTuple_427.root
p1270
(lp1271
I01
aI10728
asV/store/cmst3/user/cmgtools/CMG/DY4JetsToLL_M-50_TuneZ2Star_8TeV-madgraph/Summer12_DR53X-PU_S10_START53_V7A-v1/AODSIM/V5_B/PAT_CMG_V5_16_0/cmgTuple_23.root
p1272
(lp1273
I01
aI10448
asV/store/cmst3/user/cmgtools/CMG/DY4JetsToLL_M-50_TuneZ2Star_8TeV-madgraph/Summer12_DR53X-PU_S10_START53_V7A-v1/AODSIM/V5_B/PAT_CMG_V5_16_0/cmgTuple_152.root
p1274
(lp1275
I01
aI11150
asV/store/cmst3/user/cmgtools/CMG/DY4JetsToLL_M-50_TuneZ2Star_8TeV-madgraph/Summer12_DR53X-PU_S10_START53_V7A-v1/AODSIM/V5_B/PAT_CMG_V5_16_0/cmgTuple_38.root
p1276
(lp1277
I01
aI10229
asV/store/cmst3/user/cmgtools/CMG/DY4JetsToLL_M-50_TuneZ2Star_8TeV-madgraph/Summer12_DR53X-PU_S10_START53_V7A-v1/AODSIM/V5_B/PAT_CMG_V5_16_0/cmgTuple_177.root
p1278
(lp1279
I01
aI10808
asV/store/cmst3/user/cmgtools/CMG/DY4JetsToLL_M-50_TuneZ2Star_8TeV-madgraph/Summer12_DR53X-PU_S10_START53_V7A-v1/AODSIM/V5_B/PAT_CMG_V5_16_0/cmgTuple_156.root
p1280
(lp1281
I01
aI10470
asV/store/cmst3/user/cmgtools/CMG/DY4JetsToLL_M-50_TuneZ2Star_8TeV-madgraph/Summer12_DR53X-PU_S10_START53_V7A-v1/AODSIM/V5_B/PAT_CMG_V5_16_0/cmgTuple_294.root
p1282
(lp1283
I01
aI10857
asV/store/cmst3/user/cmgtools/CMG/DY4JetsToLL_M-50_TuneZ2Star_8TeV-madgraph/Summer12_DR53X-PU_S10_START53_V7A-v1/AODSIM/V5_B/PAT_CMG_V5_16_0/cmgTuple_304.root
p1284
(lp1285
I01
aI10808
asV/store/cmst3/user/cmgtools/CMG/DY4JetsToLL_M-50_TuneZ2Star_8TeV-madgraph/Summer12_DR53X-PU_S10_START53_V7A-v1/AODSIM/V5_B/PAT_CMG_V5_16_0/cmgTuple_171.root
p1286
(lp1287
I01
aI10300
asV/store/cmst3/user/cmgtools/CMG/DY4JetsToLL_M-50_TuneZ2Star_8TeV-madgraph/Summer12_DR53X-PU_S10_START53_V7A-v1/AODSIM/V5_B/PAT_CMG_V5_16_0/cmgTuple_416.root
p1288
(lp1289
I01
aI11169
asV/store/cmst3/user/cmgtools/CMG/DY4JetsToLL_M-50_TuneZ2Star_8TeV-madgraph/Summer12_DR53X-PU_S10_START53_V7A-v1/AODSIM/V5_B/PAT_CMG_V5_16_0/cmgTuple_429.root
p1290
(lp1291
I01
aI10715
asV/store/cmst3/user/cmgtools/CMG/DY4JetsToLL_M-50_TuneZ2Star_8TeV-madgraph/Summer12_DR53X-PU_S10_START53_V7A-v1/AODSIM/V5_B/PAT_CMG_V5_16_0/cmgTuple_452.root
p1292
(lp1293
I01
aI10991
asV/store/cmst3/user/cmgtools/CMG/DY4JetsToLL_M-50_TuneZ2Star_8TeV-madgraph/Summer12_DR53X-PU_S10_START53_V7A-v1/AODSIM/V5_B/PAT_CMG_V5_16_0/cmgTuple_378.root
p1294
(lp1295
I01
aI10023
asV/store/cmst3/user/cmgtools/CMG/DY4JetsToLL_M-50_TuneZ2Star_8TeV-madgraph/Summer12_DR53X-PU_S10_START53_V7A-v1/AODSIM/V5_B/PAT_CMG_V5_16_0/cmgTuple_601.root
p1296
(lp1297
I01
aI10367
asV/store/cmst3/user/cmgtools/CMG/DY4JetsToLL_M-50_TuneZ2Star_8TeV-madgraph/Summer12_DR53X-PU_S10_START53_V7A-v1/AODSIM/V5_B/PAT_CMG_V5_16_0/cmgTuple_468.root
p1298
(lp1299
I01
aI6359
asV/store/cmst3/user/cmgtools/CMG/DY4JetsToLL_M-50_TuneZ2Star_8TeV-madgraph/Summer12_DR53X-PU_S10_START53_V7A-v1/AODSIM/V5_B/PAT_CMG_V5_16_0/cmgTuple_254.root
p1300
(lp1301
I01
aI10677
asV/store/cmst3/user/cmgtools/CMG/DY4JetsToLL_M-50_TuneZ2Star_8TeV-madgraph/Summer12_DR53X-PU_S10_START53_V7A-v1/AODSIM/V5_B/PAT_CMG_V5_16_0/cmgTuple_371.root
p1302
(lp1303
I01
aI10992
asV/store/cmst3/user/cmgtools/CMG/DY4JetsToLL_M-50_TuneZ2Star_8TeV-madgraph/Summer12_DR53X-PU_S10_START53_V7A-v1/AODSIM/V5_B/PAT_CMG_V5_16_0/cmgTuple_500.root
p1304
(lp1305
I01
aI11243
asV/store/cmst3/user/cmgtools/CMG/DY4JetsToLL_M-50_TuneZ2Star_8TeV-madgraph/Summer12_DR53X-PU_S10_START53_V7A-v1/AODSIM/V5_B/PAT_CMG_V5_16_0/cmgTuple_469.root
p1306
(lp1307
I01
aI10722
asV/store/cmst3/user/cmgtools/CMG/DY4JetsToLL_M-50_TuneZ2Star_8TeV-madgraph/Summer12_DR53X-PU_S10_START53_V7A-v1/AODSIM/V5_B/PAT_CMG_V5_16_0/cmgTuple_92.root
p1308
(lp1309
I01
aI6383
asV/store/cmst3/user/cmgtools/CMG/DY4JetsToLL_M-50_TuneZ2Star_8TeV-madgraph/Summer12_DR53X-PU_S10_START53_V7A-v1/AODSIM/V5_B/PAT_CMG_V5_16_0/cmgTuple_353.root
p1310
(lp1311
I01
aI10291
asV/store/cmst3/user/cmgtools/CMG/DY4JetsToLL_M-50_TuneZ2Star_8TeV-madgraph/Summer12_DR53X-PU_S10_START53_V7A-v1/AODSIM/V5_B/PAT_CMG_V5_16_0/cmgTuple_164.root
p1312
(lp1313
I01
aI11015
asV/store/cmst3/user/cmgtools/CMG/DY4JetsToLL_M-50_TuneZ2Star_8TeV-madgraph/Summer12_DR53X-PU_S10_START53_V7A-v1/AODSIM/V5_B/PAT_CMG_V5_16_0/cmgTuple_343.root
p1314
(lp1315
I01
aI11142
asV/store/cmst3/user/cmgtools/CMG/DY4JetsToLL_M-50_TuneZ2Star_8TeV-madgraph/Summer12_DR53X-PU_S10_START53_V7A-v1/AODSIM/V5_B/PAT_CMG_V5_16_0/cmgTuple_362.root
p1316
(lp1317
I01
aI11188
asV/store/cmst3/user/cmgtools/CMG/DY4JetsToLL_M-50_TuneZ2Star_8TeV-madgraph/Summer12_DR53X-PU_S10_START53_V7A-v1/AODSIM/V5_B/PAT_CMG_V5_16_0/cmgTuple_43.root
p1318
(lp1319
I01
aI10365
asV/store/cmst3/user/cmgtools/CMG/DY4JetsToLL_M-50_TuneZ2Star_8TeV-madgraph/Summer12_DR53X-PU_S10_START53_V7A-v1/AODSIM/V5_B/PAT_CMG_V5_16_0/cmgTuple_454.root
p1320
(lp1321
I01
aI5806
asV/store/cmst3/user/cmgtools/CMG/DY4JetsToLL_M-50_TuneZ2Star_8TeV-madgraph/Summer12_DR53X-PU_S10_START53_V7A-v1/AODSIM/V5_B/PAT_CMG_V5_16_0/cmgTuple_480.root
p1322
(lp1323
I01
aI10159
asV/store/cmst3/user/cmgtools/CMG/DY4JetsToLL_M-50_TuneZ2Star_8TeV-madgraph/Summer12_DR53X-PU_S10_START53_V7A-v1/AODSIM/V5_B/PAT_CMG_V5_16_0/cmgTuple_406.root
p1324
(lp1325
I01
aI10406
asV/store/cmst3/user/cmgtools/CMG/DY4JetsToLL_M-50_TuneZ2Star_8TeV-madgraph/Summer12_DR53X-PU_S10_START53_V7A-v1/AODSIM/V5_B/PAT_CMG_V5_16_0/cmgTuple_594.root
p1326
(lp1327
I01
aI8157
asV/store/cmst3/user/cmgtools/CMG/DY4JetsToLL_M-50_TuneZ2Star_8TeV-madgraph/Summer12_DR53X-PU_S10_START53_V7A-v1/AODSIM/V5_B/PAT_CMG_V5_16_0/cmgTuple_386.root
p1328
(lp1329
I01
aI10477
asV/store/cmst3/user/cmgtools/CMG/DY4JetsToLL_M-50_TuneZ2Star_8TeV-madgraph/Summer12_DR53X-PU_S10_START53_V7A-v1/AODSIM/V5_B/PAT_CMG_V5_16_0/cmgTuple_47.root
p1330
(lp1331
I01
aI10518
asV/store/cmst3/user/cmgtools/CMG/DY4JetsToLL_M-50_TuneZ2Star_8TeV-madgraph/Summer12_DR53X-PU_S10_START53_V7A-v1/AODSIM/V5_B/PAT_CMG_V5_16_0/cmgTuple_42.root
p1332
(lp1333
I01
aI10346
asV/store/cmst3/user/cmgtools/CMG/DY4JetsToLL_M-50_TuneZ2Star_8TeV-madgraph/Summer12_DR53X-PU_S10_START53_V7A-v1/AODSIM/V5_B/PAT_CMG_V5_16_0/cmgTuple_215.root
p1334
(lp1335
I01
aI11317
asV/store/cmst3/user/cmgtools/CMG/DY4JetsToLL_M-50_TuneZ2Star_8TeV-madgraph/Summer12_DR53X-PU_S10_START53_V7A-v1/AODSIM/V5_B/PAT_CMG_V5_16_0/cmgTuple_367.root
p1336
(lp1337
I01
aI11341
asV/store/cmst3/user/cmgtools/CMG/DY4JetsToLL_M-50_TuneZ2Star_8TeV-madgraph/Summer12_DR53X-PU_S10_START53_V7A-v1/AODSIM/V5_B/PAT_CMG_V5_16_0/cmgTuple_84.root
p1338
(lp1339
I01
aI9739
asV/store/cmst3/user/cmgtools/CMG/DY4JetsToLL_M-50_TuneZ2Star_8TeV-madgraph/Summer12_DR53X-PU_S10_START53_V7A-v1/AODSIM/V5_B/PAT_CMG_V5_16_0/cmgTuple_352.root
p1340
(lp1341
I01
aI10287
asV/store/cmst3/user/cmgtools/CMG/DY4JetsToLL_M-50_TuneZ2Star_8TeV-madgraph/Summer12_DR53X-PU_S10_START53_V7A-v1/AODSIM/V5_B/PAT_CMG_V5_16_0/cmgTuple_93.root
p1342
(lp1343
I01
aI11175
asV/store/cmst3/user/cmgtools/CMG/DY4JetsToLL_M-50_TuneZ2Star_8TeV-madgraph/Summer12_DR53X-PU_S10_START53_V7A-v1/AODSIM/V5_B/PAT_CMG_V5_16_0/cmgTuple_380.root
p1344
(lp1345
I01
aI10018
asV/store/cmst3/user/cmgtools/CMG/DY4JetsToLL_M-50_TuneZ2Star_8TeV-madgraph/Summer12_DR53X-PU_S10_START53_V7A-v1/AODSIM/V5_B/PAT_CMG_V5_16_0/cmgTuple_14.root
p1346
(lp1347
I01
aI11248
asV/store/cmst3/user/cmgtools/CMG/DY4JetsToLL_M-50_TuneZ2Star_8TeV-madgraph/Summer12_DR53X-PU_S10_START53_V7A-v1/AODSIM/V5_B/PAT_CMG_V5_16_0/cmgTuple_241.root
p1348
(lp1349
I01
aI10872
asV/store/cmst3/user/cmgtools/CMG/DY4JetsToLL_M-50_TuneZ2Star_8TeV-madgraph/Summer12_DR53X-PU_S10_START53_V7A-v1/AODSIM/V5_B/PAT_CMG_V5_16_0/cmgTuple_369.root
p1350
(lp1351
I01
aI10319
asV/store/cmst3/user/cmgtools/CMG/DY4JetsToLL_M-50_TuneZ2Star_8TeV-madgraph/Summer12_DR53X-PU_S10_START53_V7A-v1/AODSIM/V5_B/PAT_CMG_V5_16_0/cmgTuple_263.root
p1352
(lp1353
I01
aI10048
asV/store/cmst3/user/cmgtools/CMG/DY4JetsToLL_M-50_TuneZ2Star_8TeV-madgraph/Summer12_DR53X-PU_S10_START53_V7A-v1/AODSIM/V5_B/PAT_CMG_V5_16_0/cmgTuple_249.root
p1354
(lp1355
I01
aI11193
asV/store/cmst3/user/cmgtools/CMG/DY4JetsToLL_M-50_TuneZ2Star_8TeV-madgraph/Summer12_DR53X-PU_S10_START53_V7A-v1/AODSIM/V5_B/PAT_CMG_V5_16_0/cmgTuple_297.root
p1356
(lp1357
I01
aI10440
asV/store/cmst3/user/cmgtools/CMG/DY4JetsToLL_M-50_TuneZ2Star_8TeV-madgraph/Summer12_DR53X-PU_S10_START53_V7A-v1/AODSIM/V5_B/PAT_CMG_V5_16_0/cmgTuple_317.root
p1358
(lp1359
I01
aI10810
asV/store/cmst3/user/cmgtools/CMG/DY4JetsToLL_M-50_TuneZ2Star_8TeV-madgraph/Summer12_DR53X-PU_S10_START53_V7A-v1/AODSIM/V5_B/PAT_CMG_V5_16_0/cmgTuple_218.root
p1360
(lp1361
I01
aI10957
asV/store/cmst3/user/cmgtools/CMG/DY4JetsToLL_M-50_TuneZ2Star_8TeV-madgraph/Summer12_DR53X-PU_S10_START53_V7A-v1/AODSIM/V5_B/PAT_CMG_V5_16_0/cmgTuple_336.root
p1362
(lp1363
I01
aI10819
asV/store/cmst3/user/cmgtools/CMG/DY4JetsToLL_M-50_TuneZ2Star_8TeV-madgraph/Summer12_DR53X-PU_S10_START53_V7A-v1/AODSIM/V5_B/PAT_CMG_V5_16_0/cmgTuple_252.root
p1364
(lp1365
I01
aI11236
asV/store/cmst3/user/cmgtools/CMG/DY4JetsToLL_M-50_TuneZ2Star_8TeV-madgraph/Summer12_DR53X-PU_S10_START53_V7A-v1/AODSIM/V5_B/PAT_CMG_V5_16_0/cmgTuple_161.root
p1366
(lp1367
I01
aI5968
asV/store/cmst3/user/cmgtools/CMG/DY4JetsToLL_M-50_TuneZ2Star_8TeV-madgraph/Summer12_DR53X-PU_S10_START53_V7A-v1/AODSIM/V5_B/PAT_CMG_V5_16_0/cmgTuple_415.root
p1368
(lp1369
I01
aI10862
asV/store/cmst3/user/cmgtools/CMG/DY4JetsToLL_M-50_TuneZ2Star_8TeV-madgraph/Summer12_DR53X-PU_S10_START53_V7A-v1/AODSIM/V5_B/PAT_CMG_V5_16_0/cmgTuple_311.root
p1370
(lp1371
I01
aI11008
asV/store/cmst3/user/cmgtools/CMG/DY4JetsToLL_M-50_TuneZ2Star_8TeV-madgraph/Summer12_DR53X-PU_S10_START53_V7A-v1/AODSIM/V5_B/PAT_CMG_V5_16_0/cmgTuple_160.root
p1372
(lp1373
I01
aI11117
asV/store/cmst3/user/cmgtools/CMG/DY4JetsToLL_M-50_TuneZ2Star_8TeV-madgraph/Summer12_DR53X-PU_S10_START53_V7A-v1/AODSIM/V5_B/PAT_CMG_V5_16_0/cmgTuple_70.root
p1374
(lp1375
I01
aI10050
asV/store/cmst3/user/cmgtools/CMG/DY4JetsToLL_M-50_TuneZ2Star_8TeV-madgraph/Summer12_DR53X-PU_S10_START53_V7A-v1/AODSIM/V5_B/PAT_CMG_V5_16_0/cmgTuple_423.root
p1376
(lp1377
I01
aI10367
asV/store/cmst3/user/cmgtools/CMG/DY4JetsToLL_M-50_TuneZ2Star_8TeV-madgraph/Summer12_DR53X-PU_S10_START53_V7A-v1/AODSIM/V5_B/PAT_CMG_V5_16_0/cmgTuple_286.root
p1378
(lp1379
I01
aI7255
asV/store/cmst3/user/cmgtools/CMG/DY4JetsToLL_M-50_TuneZ2Star_8TeV-madgraph/Summer12_DR53X-PU_S10_START53_V7A-v1/AODSIM/V5_B/PAT_CMG_V5_16_0/cmgTuple_257.root
p1380
(lp1381
I01
aI10832
asV/store/cmst3/user/cmgtools/CMG/DY4JetsToLL_M-50_TuneZ2Star_8TeV-madgraph/Summer12_DR53X-PU_S10_START53_V7A-v1/AODSIM/V5_B/PAT_CMG_V5_16_0/cmgTuple_623.root
p1382
(lp1383
I01
aI10660
asV/store/cmst3/user/cmgtools/CMG/DY4JetsToLL_M-50_TuneZ2Star_8TeV-madgraph/Summer12_DR53X-PU_S10_START53_V7A-v1/AODSIM/V5_B/PAT_CMG_V5_16_0/cmgTuple_81.root
p1384
(lp1385
I01
aI10906
asV/store/cmst3/user/cmgtools/CMG/DY4JetsToLL_M-50_TuneZ2Star_8TeV-madgraph/Summer12_DR53X-PU_S10_START53_V7A-v1/AODSIM/V5_B/PAT_CMG_V5_16_0/cmgTuple_548.root
p1386
(lp1387
I01
aI5740
asV/store/cmst3/user/cmgtools/CMG/DY4JetsToLL_M-50_TuneZ2Star_8TeV-madgraph/Summer12_DR53X-PU_S10_START53_V7A-v1/AODSIM/V5_B/PAT_CMG_V5_16_0/cmgTuple_122.root
p1388
(lp1389
I01
aI10374
asV/store/cmst3/user/cmgtools/CMG/DY4JetsToLL_M-50_TuneZ2Star_8TeV-madgraph/Summer12_DR53X-PU_S10_START53_V7A-v1/AODSIM/V5_B/PAT_CMG_V5_16_0/cmgTuple_516.root
p1390
(lp1391
I01
aI10771
asV/store/cmst3/user/cmgtools/CMG/DY4JetsToLL_M-50_TuneZ2Star_8TeV-madgraph/Summer12_DR53X-PU_S10_START53_V7A-v1/AODSIM/V5_B/PAT_CMG_V5_16_0/cmgTuple_332.root
p1392
(lp1393
I01
aI11149
asV/store/cmst3/user/cmgtools/CMG/DY4JetsToLL_M-50_TuneZ2Star_8TeV-madgraph/Summer12_DR53X-PU_S10_START53_V7A-v1/AODSIM/V5_B/PAT_CMG_V5_16_0/cmgTuple_175.root
p1394
(lp1395
I01
aI10996
asV/store/cmst3/user/cmgtools/CMG/DY4JetsToLL_M-50_TuneZ2Star_8TeV-madgraph/Summer12_DR53X-PU_S10_START53_V7A-v1/AODSIM/V5_B/PAT_CMG_V5_16_0/cmgTuple_602.root
p1396
(lp1397
I01
aI10406
asV/store/cmst3/user/cmgtools/CMG/DY4JetsToLL_M-50_TuneZ2Star_8TeV-madgraph/Summer12_DR53X-PU_S10_START53_V7A-v1/AODSIM/V5_B/PAT_CMG_V5_16_0/cmgTuple_83.root
p1398
(lp1399
I01
aI10379
asV/store/cmst3/user/cmgtools/CMG/DY4JetsToLL_M-50_TuneZ2Star_8TeV-madgraph/Summer12_DR53X-PU_S10_START53_V7A-v1/AODSIM/V5_B/PAT_CMG_V5_16_0/cmgTuple_360.root
p1400
(lp1401
I01
aI10598
asV/store/cmst3/user/cmgtools/CMG/DY4JetsToLL_M-50_TuneZ2Star_8TeV-madgraph/Summer12_DR53X-PU_S10_START53_V7A-v1/AODSIM/V5_B/PAT_CMG_V5_16_0/cmgTuple_184.root
p1402
(lp1403
I01
aI10881
asV/store/cmst3/user/cmgtools/CMG/DY4JetsToLL_M-50_TuneZ2Star_8TeV-madgraph/Summer12_DR53X-PU_S10_START53_V7A-v1/AODSIM/V5_B/PAT_CMG_V5_16_0/cmgTuple_2.root
p1404
(lp1405
I01
aI7822
asV/store/cmst3/user/cmgtools/CMG/DY4JetsToLL_M-50_TuneZ2Star_8TeV-madgraph/Summer12_DR53X-PU_S10_START53_V7A-v1/AODSIM/V5_B/PAT_CMG_V5_16_0/cmgTuple_178.root
p1406
(lp1407
I01
aI11144
asV/store/cmst3/user/cmgtools/CMG/DY4JetsToLL_M-50_TuneZ2Star_8TeV-madgraph/Summer12_DR53X-PU_S10_START53_V7A-v1/AODSIM/V5_B/PAT_CMG_V5_16_0/cmgTuple_495.root
p1408
(lp1409
I01
aI10905
asV/store/cmst3/user/cmgtools/CMG/DY4JetsToLL_M-50_TuneZ2Star_8TeV-madgraph/Summer12_DR53X-PU_S10_START53_V7A-v1/AODSIM/V5_B/PAT_CMG_V5_16_0/cmgTuple_298.root
p1410
(lp1411
I01
aI10166
asV/store/cmst3/user/cmgtools/CMG/DY4JetsToLL_M-50_TuneZ2Star_8TeV-madgraph/Summer12_DR53X-PU_S10_START53_V7A-v1/AODSIM/V5_B/PAT_CMG_V5_16_0/cmgTuple_246.root
p1412
(lp1413
I01
aI10311
asV/store/cmst3/user/cmgtools/CMG/DY4JetsToLL_M-50_TuneZ2Star_8TeV-madgraph/Summer12_DR53X-PU_S10_START53_V7A-v1/AODSIM/V5_B/PAT_CMG_V5_16_0/cmgTuple_280.root
p1414
(lp1415
I01
aI11142
asV/store/cmst3/user/cmgtools/CMG/DY4JetsToLL_M-50_TuneZ2Star_8TeV-madgraph/Summer12_DR53X-PU_S10_START53_V7A-v1/AODSIM/V5_B/PAT_CMG_V5_16_0/cmgTuple_3.root
p1416
(lp1417
I01
aI10862
asV/store/cmst3/user/cmgtools/CMG/DY4JetsToLL_M-50_TuneZ2Star_8TeV-madgraph/Summer12_DR53X-PU_S10_START53_V7A-v1/AODSIM/V5_B/PAT_CMG_V5_16_0/cmgTuple_529.root
p1418
(lp1419
I01
aI11114
asV/store/cmst3/user/cmgtools/CMG/DY4JetsToLL_M-50_TuneZ2Star_8TeV-madgraph/Summer12_DR53X-PU_S10_START53_V7A-v1/AODSIM/V5_B/PAT_CMG_V5_16_0/cmgTuple_299.root
p1420
(lp1421
I01
aI10736
asV/store/cmst3/user/cmgtools/CMG/DY4JetsToLL_M-50_TuneZ2Star_8TeV-madgraph/Summer12_DR53X-PU_S10_START53_V7A-v1/AODSIM/V5_B/PAT_CMG_V5_16_0/cmgTuple_56.root
p1422
(lp1423
I01
aI11302
asV/store/cmst3/user/cmgtools/CMG/DY4JetsToLL_M-50_TuneZ2Star_8TeV-madgraph/Summer12_DR53X-PU_S10_START53_V7A-v1/AODSIM/V5_B/PAT_CMG_V5_16_0/cmgTuple_449.root
p1424
(lp1425
I01
aI10455
asV/store/cmst3/user/cmgtools/CMG/DY4JetsToLL_M-50_TuneZ2Star_8TeV-madgraph/Summer12_DR53X-PU_S10_START53_V7A-v1/AODSIM/V5_B/PAT_CMG_V5_16_0/cmgTuple_417.root
p1426
(lp1427
I01
aI11141
asV/store/cmst3/user/cmgtools/CMG/DY4JetsToLL_M-50_TuneZ2Star_8TeV-madgraph/Summer12_DR53X-PU_S10_START53_V7A-v1/AODSIM/V5_B/PAT_CMG_V5_16_0/cmgTuple_208.root
p1428
(lp1429
I01
aI11265
asV/store/cmst3/user/cmgtools/CMG/DY4JetsToLL_M-50_TuneZ2Star_8TeV-madgraph/Summer12_DR53X-PU_S10_START53_V7A-v1/AODSIM/V5_B/PAT_CMG_V5_16_0/cmgTuple_470.root
p1430
(lp1431
I01
aI10531
asV/store/cmst3/user/cmgtools/CMG/DY4JetsToLL_M-50_TuneZ2Star_8TeV-madgraph/Summer12_DR53X-PU_S10_START53_V7A-v1/AODSIM/V5_B/PAT_CMG_V5_16_0/cmgTuple_180.root
p1432
(lp1433
I01
aI10403
asV/store/cmst3/user/cmgtools/CMG/DY4JetsToLL_M-50_TuneZ2Star_8TeV-madgraph/Summer12_DR53X-PU_S10_START53_V7A-v1/AODSIM/V5_B/PAT_CMG_V5_16_0/cmgTuple_226.root
p1434
(lp1435
I01
aI10966
asV/store/cmst3/user/cmgtools/CMG/DY4JetsToLL_M-50_TuneZ2Star_8TeV-madgraph/Summer12_DR53X-PU_S10_START53_V7A-v1/AODSIM/V5_B/PAT_CMG_V5_16_0/cmgTuple_605.root
p1436
(lp1437
I01
aI10784
asV/store/cmst3/user/cmgtools/CMG/DY4JetsToLL_M-50_TuneZ2Star_8TeV-madgraph/Summer12_DR53X-PU_S10_START53_V7A-v1/AODSIM/V5_B/PAT_CMG_V5_16_0/cmgTuple_466.root
p1438
(lp1439
I01
aI10213
asV/store/cmst3/user/cmgtools/CMG/DY4JetsToLL_M-50_TuneZ2Star_8TeV-madgraph/Summer12_DR53X-PU_S10_START53_V7A-v1/AODSIM/V5_B/PAT_CMG_V5_16_0/cmgTuple_179.root
p1440
(lp1441
I01
aI10439
asV/store/cmst3/user/cmgtools/CMG/DY4JetsToLL_M-50_TuneZ2Star_8TeV-madgraph/Summer12_DR53X-PU_S10_START53_V7A-v1/AODSIM/V5_B/PAT_CMG_V5_16_0/cmgTuple_202.root
p1442
(lp1443
I01
aI10516
asV/store/cmst3/user/cmgtools/CMG/DY4JetsToLL_M-50_TuneZ2Star_8TeV-madgraph/Summer12_DR53X-PU_S10_START53_V7A-v1/AODSIM/V5_B/PAT_CMG_V5_16_0/cmgTuple_471.root
p1444
(lp1445
I01
aI8429
asV/store/cmst3/user/cmgtools/CMG/DY4JetsToLL_M-50_TuneZ2Star_8TeV-madgraph/Summer12_DR53X-PU_S10_START53_V7A-v1/AODSIM/V5_B/PAT_CMG_V5_16_0/cmgTuple_625.root
p1446
(lp1447
I01
aI7870
asV/store/cmst3/user/cmgtools/CMG/DY4JetsToLL_M-50_TuneZ2Star_8TeV-madgraph/Summer12_DR53X-PU_S10_START53_V7A-v1/AODSIM/V5_B/PAT_CMG_V5_16_0/cmgTuple_73.root
p1448
(lp1449
I01
aI10507
asV/store/cmst3/user/cmgtools/CMG/DY4JetsToLL_M-50_TuneZ2Star_8TeV-madgraph/Summer12_DR53X-PU_S10_START53_V7A-v1/AODSIM/V5_B/PAT_CMG_V5_16_0/cmgTuple_65.root
p1450
(lp1451
I01
aI10392
asV/store/cmst3/user/cmgtools/CMG/DY4JetsToLL_M-50_TuneZ2Star_8TeV-madgraph/Summer12_DR53X-PU_S10_START53_V7A-v1/AODSIM/V5_B/PAT_CMG_V5_16_0/cmgTuple_536.root
p1452
(lp1453
I01
aI10533
asV/store/cmst3/user/cmgtools/CMG/DY4JetsToLL_M-50_TuneZ2Star_8TeV-madgraph/Summer12_DR53X-PU_S10_START53_V7A-v1/AODSIM/V5_B/PAT_CMG_V5_16_0/cmgTuple_96.root
p1454
(lp1455
I01
aI10378
asV/store/cmst3/user/cmgtools/CMG/DY4JetsToLL_M-50_TuneZ2Star_8TeV-madgraph/Summer12_DR53X-PU_S10_START53_V7A-v1/AODSIM/V5_B/PAT_CMG_V5_16_0/cmgTuple_357.root
p1456
(lp1457
I01
aI11190
asV/store/cmst3/user/cmgtools/CMG/DY4JetsToLL_M-50_TuneZ2Star_8TeV-madgraph/Summer12_DR53X-PU_S10_START53_V7A-v1/AODSIM/V5_B/PAT_CMG_V5_16_0/cmgTuple_520.root
p1458
(lp1459
I01
aI10204
asV/store/cmst3/user/cmgtools/CMG/DY4JetsToLL_M-50_TuneZ2Star_8TeV-madgraph/Summer12_DR53X-PU_S10_START53_V7A-v1/AODSIM/V5_B/PAT_CMG_V5_16_0/cmgTuple_285.root
p1460
(lp1461
I01
aI10563
asV/store/cmst3/user/cmgtools/CMG/DY4JetsToLL_M-50_TuneZ2Star_8TeV-madgraph/Summer12_DR53X-PU_S10_START53_V7A-v1/AODSIM/V5_B/PAT_CMG_V5_16_0/cmgTuple_35.root
p1462
(lp1463
I01
aI10614
asV/store/cmst3/user/cmgtools/CMG/DY4JetsToLL_M-50_TuneZ2Star_8TeV-madgraph/Summer12_DR53X-PU_S10_START53_V7A-v1/AODSIM/V5_B/PAT_CMG_V5_16_0/cmgTuple_195.root
p1464
(lp1465
I01
aI6074
asV/store/cmst3/user/cmgtools/CMG/DY4JetsToLL_M-50_TuneZ2Star_8TeV-madgraph/Summer12_DR53X-PU_S10_START53_V7A-v1/AODSIM/V5_B/PAT_CMG_V5_16_0/cmgTuple_125.root
p1466
(lp1467
I01
aI10867
asV/store/cmst3/user/cmgtools/CMG/DY4JetsToLL_M-50_TuneZ2Star_8TeV-madgraph/Summer12_DR53X-PU_S10_START53_V7A-v1/AODSIM/V5_B/PAT_CMG_V5_16_0/cmgTuple_531.root
p1468
(lp1469
I01
aI10483
asV/store/cmst3/user/cmgtools/CMG/DY4JetsToLL_M-50_TuneZ2Star_8TeV-madgraph/Summer12_DR53X-PU_S10_START53_V7A-v1/AODSIM/V5_B/PAT_CMG_V5_16_0/cmgTuple_494.root
p1470
(lp1471
I01
aI10568
asV/store/cmst3/user/cmgtools/CMG/DY4JetsToLL_M-50_TuneZ2Star_8TeV-madgraph/Summer12_DR53X-PU_S10_START53_V7A-v1/AODSIM/V5_B/PAT_CMG_V5_16_0/cmgTuple_394.root
p1472
(lp1473
I01
aI10709
asV/store/cmst3/user/cmgtools/CMG/DY4JetsToLL_M-50_TuneZ2Star_8TeV-madgraph/Summer12_DR53X-PU_S10_START53_V7A-v1/AODSIM/V5_B/PAT_CMG_V5_16_0/cmgTuple_573.root
p1474
(lp1475
I01
aI11135
asV/store/cmst3/user/cmgtools/CMG/DY4JetsToLL_M-50_TuneZ2Star_8TeV-madgraph/Summer12_DR53X-PU_S10_START53_V7A-v1/AODSIM/V5_B/PAT_CMG_V5_16_0/cmgTuple_176.root
p1476
(lp1477
I01
aI11170
asV/store/cmst3/user/cmgtools/CMG/DY4JetsToLL_M-50_TuneZ2Star_8TeV-madgraph/Summer12_DR53X-PU_S10_START53_V7A-v1/AODSIM/V5_B/PAT_CMG_V5_16_0/cmgTuple_342.root
p1478
(lp1479
I01
aI10650
asV/store/cmst3/user/cmgtools/CMG/DY4JetsToLL_M-50_TuneZ2Star_8TeV-madgraph/Summer12_DR53X-PU_S10_START53_V7A-v1/AODSIM/V5_B/PAT_CMG_V5_16_0/cmgTuple_148.root
p1480
(lp1481
I01
aI10335
asV/store/cmst3/user/cmgtools/CMG/DY4JetsToLL_M-50_TuneZ2Star_8TeV-madgraph/Summer12_DR53X-PU_S10_START53_V7A-v1/AODSIM/V5_B/PAT_CMG_V5_16_0/cmgTuple_614.root
p1482
(lp1483
I01
aI10187
asV/store/cmst3/user/cmgtools/CMG/DY4JetsToLL_M-50_TuneZ2Star_8TeV-madgraph/Summer12_DR53X-PU_S10_START53_V7A-v1/AODSIM/V5_B/PAT_CMG_V5_16_0/cmgTuple_587.root
p1484
(lp1485
I01
aI10516
asV/store/cmst3/user/cmgtools/CMG/DY4JetsToLL_M-50_TuneZ2Star_8TeV-madgraph/Summer12_DR53X-PU_S10_START53_V7A-v1/AODSIM/V5_B/PAT_CMG_V5_16_0/cmgTuple_315.root
p1486
(lp1487
I01
aI5804
asV/store/cmst3/user/cmgtools/CMG/DY4JetsToLL_M-50_TuneZ2Star_8TeV-madgraph/Summer12_DR53X-PU_S10_START53_V7A-v1/AODSIM/V5_B/PAT_CMG_V5_16_0/cmgTuple_255.root
p1488
(lp1489
I01
aI10733
asV/store/cmst3/user/cmgtools/CMG/DY4JetsToLL_M-50_TuneZ2Star_8TeV-madgraph/Summer12_DR53X-PU_S10_START53_V7A-v1/AODSIM/V5_B/PAT_CMG_V5_16_0/cmgTuple_577.root
p1490
(lp1491
I01
aI6546
asV/store/cmst3/user/cmgtools/CMG/DY4JetsToLL_M-50_TuneZ2Star_8TeV-madgraph/Summer12_DR53X-PU_S10_START53_V7A-v1/AODSIM/V5_B/PAT_CMG_V5_16_0/cmgTuple_450.root
p1492
(lp1493
I01
aI11285
asV/store/cmst3/user/cmgtools/CMG/DY4JetsToLL_M-50_TuneZ2Star_8TeV-madgraph/Summer12_DR53X-PU_S10_START53_V7A-v1/AODSIM/V5_B/PAT_CMG_V5_16_0/cmgTuple_318.root
p1494
(lp1495
I01
aI10427
asV/store/cmst3/user/cmgtools/CMG/DY4JetsToLL_M-50_TuneZ2Star_8TeV-madgraph/Summer12_DR53X-PU_S10_START53_V7A-v1/AODSIM/V5_B/PAT_CMG_V5_16_0/cmgTuple_186.root
p1496
(lp1497
I01
aI10874
asV/store/cmst3/user/cmgtools/CMG/DY4JetsToLL_M-50_TuneZ2Star_8TeV-madgraph/Summer12_DR53X-PU_S10_START53_V7A-v1/AODSIM/V5_B/PAT_CMG_V5_16_0/cmgTuple_619.root
p1498
(lp1499
I01
aI10690
asV/store/cmst3/user/cmgtools/CMG/DY4JetsToLL_M-50_TuneZ2Star_8TeV-madgraph/Summer12_DR53X-PU_S10_START53_V7A-v1/AODSIM/V5_B/PAT_CMG_V5_16_0/cmgTuple_389.root
p1500
(lp1501
I01
aI10986
asV/store/cmst3/user/cmgtools/CMG/DY4JetsToLL_M-50_TuneZ2Star_8TeV-madgraph/Summer12_DR53X-PU_S10_START53_V7A-v1/AODSIM/V5_B/PAT_CMG_V5_16_0/cmgTuple_295.root
p1502
(lp1503
I01
aI6593
asV/store/cmst3/user/cmgtools/CMG/DY4JetsToLL_M-50_TuneZ2Star_8TeV-madgraph/Summer12_DR53X-PU_S10_START53_V7A-v1/AODSIM/V5_B/PAT_CMG_V5_16_0/cmgTuple_292.root
p1504
(lp1505
I01
aI11028
asV/store/cmst3/user/cmgtools/CMG/DY4JetsToLL_M-50_TuneZ2Star_8TeV-madgraph/Summer12_DR53X-PU_S10_START53_V7A-v1/AODSIM/V5_B/PAT_CMG_V5_16_0/cmgTuple_276.root
p1506
(lp1507
I01
aI10737
asV/store/cmst3/user/cmgtools/CMG/DY4JetsToLL_M-50_TuneZ2Star_8TeV-madgraph/Summer12_DR53X-PU_S10_START53_V7A-v1/AODSIM/V5_B/PAT_CMG_V5_16_0/cmgTuple_560.root
p1508
(lp1509
I01
aI10066
asV/store/cmst3/user/cmgtools/CMG/DY4JetsToLL_M-50_TuneZ2Star_8TeV-madgraph/Summer12_DR53X-PU_S10_START53_V7A-v1/AODSIM/V5_B/PAT_CMG_V5_16_0/cmgTuple_269.root
p1510
(lp1511
I01
aI10622
asV/store/cmst3/user/cmgtools/CMG/DY4JetsToLL_M-50_TuneZ2Star_8TeV-madgraph/Summer12_DR53X-PU_S10_START53_V7A-v1/AODSIM/V5_B/PAT_CMG_V5_16_0/cmgTuple_432.root
p1512
(lp1513
I01
aI11130
asV/store/cmst3/user/cmgtools/CMG/DY4JetsToLL_M-50_TuneZ2Star_8TeV-madgraph/Summer12_DR53X-PU_S10_START53_V7A-v1/AODSIM/V5_B/PAT_CMG_V5_16_0/cmgTuple_319.root
p1514
(lp1515
I01
aI10167
asV/store/cmst3/user/cmgtools/CMG/DY4JetsToLL_M-50_TuneZ2Star_8TeV-madgraph/Summer12_DR53X-PU_S10_START53_V7A-v1/AODSIM/V5_B/PAT_CMG_V5_16_0/cmgTuple_268.root
p1516
(lp1517
I01
aI10417
asV/store/cmst3/user/cmgtools/CMG/DY4JetsToLL_M-50_TuneZ2Star_8TeV-madgraph/Summer12_DR53X-PU_S10_START53_V7A-v1/AODSIM/V5_B/PAT_CMG_V5_16_0/cmgTuple_407.root
p1518
(lp1519
I01
aI11020
asV/store/cmst3/user/cmgtools/CMG/DY4JetsToLL_M-50_TuneZ2Star_8TeV-madgraph/Summer12_DR53X-PU_S10_START53_V7A-v1/AODSIM/V5_B/PAT_CMG_V5_16_0/cmgTuple_188.root
p1520
(lp1521
I01
aI11288
asV/store/cmst3/user/cmgtools/CMG/DY4JetsToLL_M-50_TuneZ2Star_8TeV-madgraph/Summer12_DR53X-PU_S10_START53_V7A-v1/AODSIM/V5_B/PAT_CMG_V5_16_0/cmgTuple_220.root
p1522
(lp1523
I01
aI10837
asV/store/cmst3/user/cmgtools/CMG/DY4JetsToLL_M-50_TuneZ2Star_8TeV-madgraph/Summer12_DR53X-PU_S10_START53_V7A-v1/AODSIM/V5_B/PAT_CMG_V5_16_0/cmgTuple_597.root
p1524
(lp1525
I01
aI10845
asV/store/cmst3/user/cmgtools/CMG/DY4JetsToLL_M-50_TuneZ2Star_8TeV-madgraph/Summer12_DR53X-PU_S10_START53_V7A-v1/AODSIM/V5_B/PAT_CMG_V5_16_0/cmgTuple_55.root
p1526
(lp1527
I01
aI10997
asV/store/cmst3/user/cmgtools/CMG/DY4JetsToLL_M-50_TuneZ2Star_8TeV-madgraph/Summer12_DR53X-PU_S10_START53_V7A-v1/AODSIM/V5_B/PAT_CMG_V5_16_0/cmgTuple_345.root
p1528
(lp1529
I01
aI10288
asV/store/cmst3/user/cmgtools/CMG/DY4JetsToLL_M-50_TuneZ2Star_8TeV-madgraph/Summer12_DR53X-PU_S10_START53_V7A-v1/AODSIM/V5_B/PAT_CMG_V5_16_0/cmgTuple_189.root
p1530
(lp1531
I01
aI6443
asV/store/cmst3/user/cmgtools/CMG/DY4JetsToLL_M-50_TuneZ2Star_8TeV-madgraph/Summer12_DR53X-PU_S10_START53_V7A-v1/AODSIM/V5_B/PAT_CMG_V5_16_0/cmgTuple_418.root
p1532
(lp1533
I01
aI10667
asV/store/cmst3/user/cmgtools/CMG/DY4JetsToLL_M-50_TuneZ2Star_8TeV-madgraph/Summer12_DR53X-PU_S10_START53_V7A-v1/AODSIM/V5_B/PAT_CMG_V5_16_0/cmgTuple_440.root
p1534
(lp1535
I01
aI10811
asV/store/cmst3/user/cmgtools/CMG/DY4JetsToLL_M-50_TuneZ2Star_8TeV-madgraph/Summer12_DR53X-PU_S10_START53_V7A-v1/AODSIM/V5_B/PAT_CMG_V5_16_0/cmgTuple_567.root
p1536
(lp1537
I01
aI10264
asV/store/cmst3/user/cmgtools/CMG/DY4JetsToLL_M-50_TuneZ2Star_8TeV-madgraph/Summer12_DR53X-PU_S10_START53_V7A-v1/AODSIM/V5_B/PAT_CMG_V5_16_0/cmgTuple_262.root
p1538
(lp1539
I01
aI10370
asV/store/cmst3/user/cmgtools/CMG/DY4JetsToLL_M-50_TuneZ2Star_8TeV-madgraph/Summer12_DR53X-PU_S10_START53_V7A-v1/AODSIM/V5_B/PAT_CMG_V5_16_0/cmgTuple_422.root
p1540
(lp1541
I01
aI11027
asV/store/cmst3/user/cmgtools/CMG/DY4JetsToLL_M-50_TuneZ2Star_8TeV-madgraph/Summer12_DR53X-PU_S10_START53_V7A-v1/AODSIM/V5_B/PAT_CMG_V5_16_0/cmgTuple_21.root
p1542
(lp1543
I01
aI8336
asV/store/cmst3/user/cmgtools/CMG/DY4JetsToLL_M-50_TuneZ2Star_8TeV-madgraph/Summer12_DR53X-PU_S10_START53_V7A-v1/AODSIM/V5_B/PAT_CMG_V5_16_0/cmgTuple_398.root
p1544
(lp1545
I01
aI11266
asV/store/cmst3/user/cmgtools/CMG/DY4JetsToLL_M-50_TuneZ2Star_8TeV-madgraph/Summer12_DR53X-PU_S10_START53_V7A-v1/AODSIM/V5_B/PAT_CMG_V5_16_0/cmgTuple_609.root
p1546
(lp1547
I01
aI10701
asV/store/cmst3/user/cmgtools/CMG/DY4JetsToLL_M-50_TuneZ2Star_8TeV-madgraph/Summer12_DR53X-PU_S10_START53_V7A-v1/AODSIM/V5_B/PAT_CMG_V5_16_0/cmgTuple_16.root
p1548
(lp1549
I01
aI11248
asV/store/cmst3/user/cmgtools/CMG/DY4JetsToLL_M-50_TuneZ2Star_8TeV-madgraph/Summer12_DR53X-PU_S10_START53_V7A-v1/AODSIM/V5_B/PAT_CMG_V5_16_0/cmgTuple_477.root
p1550
(lp1551
I01
aI10209
asV/store/cmst3/user/cmgtools/CMG/DY4JetsToLL_M-50_TuneZ2Star_8TeV-madgraph/Summer12_DR53X-PU_S10_START53_V7A-v1/AODSIM/V5_B/PAT_CMG_V5_16_0/cmgTuple_335.root
p1552
(lp1553
I01
aI11200
asV/store/cmst3/user/cmgtools/CMG/DY4JetsToLL_M-50_TuneZ2Star_8TeV-madgraph/Summer12_DR53X-PU_S10_START53_V7A-v1/AODSIM/V5_B/PAT_CMG_V5_16_0/cmgTuple_509.root
p1554
(lp1555
I01
aI11057
asV/store/cmst3/user/cmgtools/CMG/DY4JetsToLL_M-50_TuneZ2Star_8TeV-madgraph/Summer12_DR53X-PU_S10_START53_V7A-v1/AODSIM/V5_B/PAT_CMG_V5_16_0/cmgTuple_381.root
p1556
(lp1557
I01
aI10299
asV/store/cmst3/user/cmgtools/CMG/DY4JetsToLL_M-50_TuneZ2Star_8TeV-madgraph/Summer12_DR53X-PU_S10_START53_V7A-v1/AODSIM/V5_B/PAT_CMG_V5_16_0/cmgTuple_541.root
p1558
(lp1559
I01
aI10267
asV/store/cmst3/user/cmgtools/CMG/DY4JetsToLL_M-50_TuneZ2Star_8TeV-madgraph/Summer12_DR53X-PU_S10_START53_V7A-v1/AODSIM/V5_B/PAT_CMG_V5_16_0/cmgTuple_227.root
p1560
(lp1561
I01
aI10199
asV/store/cmst3/user/cmgtools/CMG/DY4JetsToLL_M-50_TuneZ2Star_8TeV-madgraph/Summer12_DR53X-PU_S10_START53_V7A-v1/AODSIM/V5_B/PAT_CMG_V5_16_0/cmgTuple_69.root
p1562
(lp1563
I01
aI10997
asV/store/cmst3/user/cmgtools/CMG/DY4JetsToLL_M-50_TuneZ2Star_8TeV-madgraph/Summer12_DR53X-PU_S10_START53_V7A-v1/AODSIM/V5_B/PAT_CMG_V5_16_0/cmgTuple_174.root
p1564
(lp1565
I01
aI10374
asV/store/cmst3/user/cmgtools/CMG/DY4JetsToLL_M-50_TuneZ2Star_8TeV-madgraph/Summer12_DR53X-PU_S10_START53_V7A-v1/AODSIM/V5_B/PAT_CMG_V5_16_0/cmgTuple_460.root
p1566
(lp1567
I01
aI10211
asV/store/cmst3/user/cmgtools/CMG/DY4JetsToLL_M-50_TuneZ2Star_8TeV-madgraph/Summer12_DR53X-PU_S10_START53_V7A-v1/AODSIM/V5_B/PAT_CMG_V5_16_0/cmgTuple_181.root
p1568
(lp1569
I01
aI10167
asV/store/cmst3/user/cmgtools/CMG/DY4JetsToLL_M-50_TuneZ2Star_8TeV-madgraph/Summer12_DR53X-PU_S10_START53_V7A-v1/AODSIM/V5_B/PAT_CMG_V5_16_0/cmgTuple_53.root
p1570
(lp1571
I01
aI11087
asV/store/cmst3/user/cmgtools/CMG/DY4JetsToLL_M-50_TuneZ2Star_8TeV-madgraph/Summer12_DR53X-PU_S10_START53_V7A-v1/AODSIM/V5_B/PAT_CMG_V5_16_0/cmgTuple_428.root
p1572
(lp1573
I01
aI11111
asV/store/cmst3/user/cmgtools/CMG/DY4JetsToLL_M-50_TuneZ2Star_8TeV-madgraph/Summer12_DR53X-PU_S10_START53_V7A-v1/AODSIM/V5_B/PAT_CMG_V5_16_0/cmgTuple_68.root
p1574
(lp1575
I01
aI11112
asV/store/cmst3/user/cmgtools/CMG/DY4JetsToLL_M-50_TuneZ2Star_8TeV-madgraph/Summer12_DR53X-PU_S10_START53_V7A-v1/AODSIM/V5_B/PAT_CMG_V5_16_0/cmgTuple_233.root
p1576
(lp1577
I01
aI11091
asV/store/cmst3/user/cmgtools/CMG/DY4JetsToLL_M-50_TuneZ2Star_8TeV-madgraph/Summer12_DR53X-PU_S10_START53_V7A-v1/AODSIM/V5_B/PAT_CMG_V5_16_0/cmgTuple_546.root
p1578
(lp1579
I01
aI11083
asV/store/cmst3/user/cmgtools/CMG/DY4JetsToLL_M-50_TuneZ2Star_8TeV-madgraph/Summer12_DR53X-PU_S10_START53_V7A-v1/AODSIM/V5_B/PAT_CMG_V5_16_0/cmgTuple_349.root
p1580
(lp1581
I01
aI7233
asV/store/cmst3/user/cmgtools/CMG/DY4JetsToLL_M-50_TuneZ2Star_8TeV-madgraph/Summer12_DR53X-PU_S10_START53_V7A-v1/AODSIM/V5_B/PAT_CMG_V5_16_0/cmgTuple_451.root
p1582
(lp1583
I01
aI10273
asV/store/cmst3/user/cmgtools/CMG/DY4JetsToLL_M-50_TuneZ2Star_8TeV-madgraph/Summer12_DR53X-PU_S10_START53_V7A-v1/AODSIM/V5_B/PAT_CMG_V5_16_0/cmgTuple_334.root
p1584
(lp1585
I01
aI5718
asV/store/cmst3/user/cmgtools/CMG/DY4JetsToLL_M-50_TuneZ2Star_8TeV-madgraph/Summer12_DR53X-PU_S10_START53_V7A-v1/AODSIM/V5_B/PAT_CMG_V5_16_0/cmgTuple_596.root
p1586
(lp1587
I01
aI10126
asV/store/cmst3/user/cmgtools/CMG/DY4JetsToLL_M-50_TuneZ2Star_8TeV-madgraph/Summer12_DR53X-PU_S10_START53_V7A-v1/AODSIM/V5_B/PAT_CMG_V5_16_0/cmgTuple_32.root
p1588
(lp1589
I01
aI10664
asV/store/cmst3/user/cmgtools/CMG/DY4JetsToLL_M-50_TuneZ2Star_8TeV-madgraph/Summer12_DR53X-PU_S10_START53_V7A-v1/AODSIM/V5_B/PAT_CMG_V5_16_0/cmgTuple_455.root
p1590
(lp1591
I01
aI10025
asV/store/cmst3/user/cmgtools/CMG/DY4JetsToLL_M-50_TuneZ2Star_8TeV-madgraph/Summer12_DR53X-PU_S10_START53_V7A-v1/AODSIM/V5_B/PAT_CMG_V5_16_0/cmgTuple_205.root
p1592
(lp1593
I01
aI11342
asV/store/cmst3/user/cmgtools/CMG/DY4JetsToLL_M-50_TuneZ2Star_8TeV-madgraph/Summer12_DR53X-PU_S10_START53_V7A-v1/AODSIM/V5_B/PAT_CMG_V5_16_0/cmgTuple_117.root
p1594
(lp1595
I01
aI10636
asV/store/cmst3/user/cmgtools/CMG/DY4JetsToLL_M-50_TuneZ2Star_8TeV-madgraph/Summer12_DR53X-PU_S10_START53_V7A-v1/AODSIM/V5_B/PAT_CMG_V5_16_0/cmgTuple_580.root
p1596
(lp1597
I01
aI11135
asV/store/cmst3/user/cmgtools/CMG/DY4JetsToLL_M-50_TuneZ2Star_8TeV-madgraph/Summer12_DR53X-PU_S10_START53_V7A-v1/AODSIM/V5_B/PAT_CMG_V5_16_0/cmgTuple_375.root
p1598
(lp1599
I01
aI11036
asV/store/cmst3/user/cmgtools/CMG/DY4JetsToLL_M-50_TuneZ2Star_8TeV-madgraph/Summer12_DR53X-PU_S10_START53_V7A-v1/AODSIM/V5_B/PAT_CMG_V5_16_0/cmgTuple_222.root
p1600
(lp1601
I01
aI5830
asV/store/cmst3/user/cmgtools/CMG/DY4JetsToLL_M-50_TuneZ2Star_8TeV-madgraph/Summer12_DR53X-PU_S10_START53_V7A-v1/AODSIM/V5_B/PAT_CMG_V5_16_0/cmgTuple_527.root
p1602
(lp1603
I01
aI10791
asV/store/cmst3/user/cmgtools/CMG/DY4JetsToLL_M-50_TuneZ2Star_8TeV-madgraph/Summer12_DR53X-PU_S10_START53_V7A-v1/AODSIM/V5_B/PAT_CMG_V5_16_0/cmgTuple_576.root
p1604
(lp1605
I01
aI10755
asV/store/cmst3/user/cmgtools/CMG/DY4JetsToLL_M-50_TuneZ2Star_8TeV-madgraph/Summer12_DR53X-PU_S10_START53_V7A-v1/AODSIM/V5_B/PAT_CMG_V5_16_0/cmgTuple_116.root
p1606
(lp1607
I01
aI8908
asV/store/cmst3/user/cmgtools/CMG/DY4JetsToLL_M-50_TuneZ2Star_8TeV-madgraph/Summer12_DR53X-PU_S10_START53_V7A-v1/AODSIM/V5_B/PAT_CMG_V5_16_0/cmgTuple_223.root
p1608
(lp1609
I01
aI9589
asV/store/cmst3/user/cmgtools/CMG/DY4JetsToLL_M-50_TuneZ2Star_8TeV-madgraph/Summer12_DR53X-PU_S10_START53_V7A-v1/AODSIM/V5_B/PAT_CMG_V5_16_0/cmgTuple_409.root
p1610
(lp1611
I01
aI10838
asV/store/cmst3/user/cmgtools/CMG/DY4JetsToLL_M-50_TuneZ2Star_8TeV-madgraph/Summer12_DR53X-PU_S10_START53_V7A-v1/AODSIM/V5_B/PAT_CMG_V5_16_0/cmgTuple_192.root
p1612
(lp1613
I01
aI10803
asV/store/cmst3/user/cmgtools/CMG/DY4JetsToLL_M-50_TuneZ2Star_8TeV-madgraph/Summer12_DR53X-PU_S10_START53_V7A-v1/AODSIM/V5_B/PAT_CMG_V5_16_0/cmgTuple_370.root
p1614
(lp1615
I01
aI10650
asV/store/cmst3/user/cmgtools/CMG/DY4JetsToLL_M-50_TuneZ2Star_8TeV-madgraph/Summer12_DR53X-PU_S10_START53_V7A-v1/AODSIM/V5_B/PAT_CMG_V5_16_0/cmgTuple_108.root
p1616
(lp1617
I01
aI7965
asV/store/cmst3/user/cmgtools/CMG/DY4JetsToLL_M-50_TuneZ2Star_8TeV-madgraph/Summer12_DR53X-PU_S10_START53_V7A-v1/AODSIM/V5_B/PAT_CMG_V5_16_0/cmgTuple_15.root
p1618
(lp1619
I01
aI11176
asV/store/cmst3/user/cmgtools/CMG/DY4JetsToLL_M-50_TuneZ2Star_8TeV-madgraph/Summer12_DR53X-PU_S10_START53_V7A-v1/AODSIM/V5_B/PAT_CMG_V5_16_0/cmgTuple_11.root
p1620
(lp1621
I01
aI10649
asV/store/cmst3/user/cmgtools/CMG/DY4JetsToLL_M-50_TuneZ2Star_8TeV-madgraph/Summer12_DR53X-PU_S10_START53_V7A-v1/AODSIM/V5_B/PAT_CMG_V5_16_0/cmgTuple_309.root
p1622
(lp1623
I01
aI10406
asV/store/cmst3/user/cmgtools/CMG/DY4JetsToLL_M-50_TuneZ2Star_8TeV-madgraph/Summer12_DR53X-PU_S10_START53_V7A-v1/AODSIM/V5_B/PAT_CMG_V5_16_0/cmgTuple_593.root
p1624
(lp1625
I01
aI11235
asV/store/cmst3/user/cmgtools/CMG/DY4JetsToLL_M-50_TuneZ2Star_8TeV-madgraph/Summer12_DR53X-PU_S10_START53_V7A-v1/AODSIM/V5_B/PAT_CMG_V5_16_0/cmgTuple_259.root
p1626
(lp1627
I01
aI9171
asV/store/cmst3/user/cmgtools/CMG/DY4JetsToLL_M-50_TuneZ2Star_8TeV-madgraph/Summer12_DR53X-PU_S10_START53_V7A-v1/AODSIM/V5_B/PAT_CMG_V5_16_0/cmgTuple_187.root
p1628
(lp1629
I01
aI10230
asV/store/cmst3/user/cmgtools/CMG/DY4JetsToLL_M-50_TuneZ2Star_8TeV-madgraph/Summer12_DR53X-PU_S10_START53_V7A-v1/AODSIM/V5_B/PAT_CMG_V5_16_0/cmgTuple_100.root
p1630
(lp1631
I01
aI11305
asV/store/cmst3/user/cmgtools/CMG/DY4JetsToLL_M-50_TuneZ2Star_8TeV-madgraph/Summer12_DR53X-PU_S10_START53_V7A-v1/AODSIM/V5_B/PAT_CMG_V5_16_0/cmgTuple_411.root
p1632
(lp1633
I01
aI10730
asV/store/cmst3/user/cmgtools/CMG/DY4JetsToLL_M-50_TuneZ2Star_8TeV-madgraph/Summer12_DR53X-PU_S10_START53_V7A-v1/AODSIM/V5_B/PAT_CMG_V5_16_0/cmgTuple_314.root
p1634
(lp1635
I01
aI10959
asV/store/cmst3/user/cmgtools/CMG/DY4JetsToLL_M-50_TuneZ2Star_8TeV-madgraph/Summer12_DR53X-PU_S10_START53_V7A-v1/AODSIM/V5_B/PAT_CMG_V5_16_0/cmgTuple_267.root
p1636
(lp1637
I01
aI9863
asV/store/cmst3/user/cmgtools/CMG/DY4JetsToLL_M-50_TuneZ2Star_8TeV-madgraph/Summer12_DR53X-PU_S10_START53_V7A-v1/AODSIM/V5_B/PAT_CMG_V5_16_0/cmgTuple_491.root
p1638
(lp1639
I01
aI10514
asV/store/cmst3/user/cmgtools/CMG/DY4JetsToLL_M-50_TuneZ2Star_8TeV-madgraph/Summer12_DR53X-PU_S10_START53_V7A-v1/AODSIM/V5_B/PAT_CMG_V5_16_0/cmgTuple_603.root
p1640
(lp1641
I01
aI10771
asV/store/cmst3/user/cmgtools/CMG/DY4JetsToLL_M-50_TuneZ2Star_8TeV-madgraph/Summer12_DR53X-PU_S10_START53_V7A-v1/AODSIM/V5_B/PAT_CMG_V5_16_0/cmgTuple_63.root
p1642
(lp1643
I01
aI10876
asV/store/cmst3/user/cmgtools/CMG/DY4JetsToLL_M-50_TuneZ2Star_8TeV-madgraph/Summer12_DR53X-PU_S10_START53_V7A-v1/AODSIM/V5_B/PAT_CMG_V5_16_0/cmgTuple_64.root
p1644
(lp1645
I01
aI10452
asV/store/cmst3/user/cmgtools/CMG/DY4JetsToLL_M-50_TuneZ2Star_8TeV-madgraph/Summer12_DR53X-PU_S10_START53_V7A-v1/AODSIM/V5_B/PAT_CMG_V5_16_0/cmgTuple_561.root
p1646
(lp1647
I01
aI10208
asV/store/cmst3/user/cmgtools/CMG/DY4JetsToLL_M-50_TuneZ2Star_8TeV-madgraph/Summer12_DR53X-PU_S10_START53_V7A-v1/AODSIM/V5_B/PAT_CMG_V5_16_0/cmgTuple_553.root
p1648
(lp1649
I01
aI10964
asV/store/cmst3/user/cmgtools/CMG/DY4JetsToLL_M-50_TuneZ2Star_8TeV-madgraph/Summer12_DR53X-PU_S10_START53_V7A-v1/AODSIM/V5_B/PAT_CMG_V5_16_0/cmgTuple_456.root
p1650
(lp1651
I01
aI10857
asV/store/cmst3/user/cmgtools/CMG/DY4JetsToLL_M-50_TuneZ2Star_8TeV-madgraph/Summer12_DR53X-PU_S10_START53_V7A-v1/AODSIM/V5_B/PAT_CMG_V5_16_0/cmgTuple_18.root
p1652
(lp1653
I01
aI10323
asV/store/cmst3/user/cmgtools/CMG/DY4JetsToLL_M-50_TuneZ2Star_8TeV-madgraph/Summer12_DR53X-PU_S10_START53_V7A-v1/AODSIM/V5_B/PAT_CMG_V5_16_0/cmgTuple_519.root
p1654
(lp1655
I01
aI10726
asV/store/cmst3/user/cmgtools/CMG/DY4JetsToLL_M-50_TuneZ2Star_8TeV-madgraph/Summer12_DR53X-PU_S10_START53_V7A-v1/AODSIM/V5_B/PAT_CMG_V5_16_0/cmgTuple_387.root
p1656
(lp1657
I01
aI11013
asV/store/cmst3/user/cmgtools/CMG/DY4JetsToLL_M-50_TuneZ2Star_8TeV-madgraph/Summer12_DR53X-PU_S10_START53_V7A-v1/AODSIM/V5_B/PAT_CMG_V5_16_0/cmgTuple_303.root
p1658
(lp1659
I01
aI10387
asV/store/cmst3/user/cmgtools/CMG/DY4JetsToLL_M-50_TuneZ2Star_8TeV-madgraph/Summer12_DR53X-PU_S10_START53_V7A-v1/AODSIM/V5_B/PAT_CMG_V5_16_0/cmgTuple_253.root
p1660
(lp1661
I01
aI10497
asV/store/cmst3/user/cmgtools/CMG/DY4JetsToLL_M-50_TuneZ2Star_8TeV-madgraph/Summer12_DR53X-PU_S10_START53_V7A-v1/AODSIM/V5_B/PAT_CMG_V5_16_0/cmgTuple_272.root
p1662
(lp1663
I01
aI10825
asV/store/cmst3/user/cmgtools/CMG/DY4JetsToLL_M-50_TuneZ2Star_8TeV-madgraph/Summer12_DR53X-PU_S10_START53_V7A-v1/AODSIM/V5_B/PAT_CMG_V5_16_0/cmgTuple_538.root
p1664
(lp1665
I01
aI10312
asV/store/cmst3/user/cmgtools/CMG/DY4JetsToLL_M-50_TuneZ2Star_8TeV-madgraph/Summer12_DR53X-PU_S10_START53_V7A-v1/AODSIM/V5_B/PAT_CMG_V5_16_0/cmgTuple_507.root
p1666
(lp1667
I01
aI10465
asV/store/cmst3/user/cmgtools/CMG/DY4JetsToLL_M-50_TuneZ2Star_8TeV-madgraph/Summer12_DR53X-PU_S10_START53_V7A-v1/AODSIM/V5_B/PAT_CMG_V5_16_0/cmgTuple_109.root
p1668
(lp1669
I01
aI9859
asV/store/cmst3/user/cmgtools/CMG/DY4JetsToLL_M-50_TuneZ2Star_8TeV-madgraph/Summer12_DR53X-PU_S10_START53_V7A-v1/AODSIM/V5_B/PAT_CMG_V5_16_0/cmgTuple_583.root
p1670
(lp1671
I01
aI11075
asV/store/cmst3/user/cmgtools/CMG/DY4JetsToLL_M-50_TuneZ2Star_8TeV-madgraph/Summer12_DR53X-PU_S10_START53_V7A-v1/AODSIM/V5_B/PAT_CMG_V5_16_0/cmgTuple_225.root
p1672
(lp1673
I01
aI10076
asV/store/cmst3/user/cmgtools/CMG/DY4JetsToLL_M-50_TuneZ2Star_8TeV-madgraph/Summer12_DR53X-PU_S10_START53_V7A-v1/AODSIM/V5_B/PAT_CMG_V5_16_0/cmgTuple_377.root
p1674
(lp1675
I01
aI10245
asV/store/cmst3/user/cmgtools/CMG/DY4JetsToLL_M-50_TuneZ2Star_8TeV-madgraph/Summer12_DR53X-PU_S10_START53_V7A-v1/AODSIM/V5_B/PAT_CMG_V5_16_0/cmgTuple_228.root
p1676
(lp1677
I01
aI10543
asV/store/cmst3/user/cmgtools/CMG/DY4JetsToLL_M-50_TuneZ2Star_8TeV-madgraph/Summer12_DR53X-PU_S10_START53_V7A-v1/AODSIM/V5_B/PAT_CMG_V5_16_0/cmgTuple_582.root
p1678
(lp1679
I01
aI11246
asV/store/cmst3/user/cmgtools/CMG/DY4JetsToLL_M-50_TuneZ2Star_8TeV-madgraph/Summer12_DR53X-PU_S10_START53_V7A-v1/AODSIM/V5_B/PAT_CMG_V5_16_0/cmgTuple_396.root
p1680
(lp1681
I01
aI10735
asV/store/cmst3/user/cmgtools/CMG/DY4JetsToLL_M-50_TuneZ2Star_8TeV-madgraph/Summer12_DR53X-PU_S10_START53_V7A-v1/AODSIM/V5_B/PAT_CMG_V5_16_0/cmgTuple_224.root
p1682
(lp1683
I01
aI10788
asV/store/cmst3/user/cmgtools/CMG/DY4JetsToLL_M-50_TuneZ2Star_8TeV-madgraph/Summer12_DR53X-PU_S10_START53_V7A-v1/AODSIM/V5_B/PAT_CMG_V5_16_0/cmgTuple_137.root
p1684
(lp1685
I01
aI5907
asV/store/cmst3/user/cmgtools/CMG/DY4JetsToLL_M-50_TuneZ2Star_8TeV-madgraph/Summer12_DR53X-PU_S10_START53_V7A-v1/AODSIM/V5_B/PAT_CMG_V5_16_0/cmgTuple_203.root
p1686
(lp1687
I01
aI11097
asV/store/cmst3/user/cmgtools/CMG/DY4JetsToLL_M-50_TuneZ2Star_8TeV-madgraph/Summer12_DR53X-PU_S10_START53_V7A-v1/AODSIM/V5_B/PAT_CMG_V5_16_0/cmgTuple_376.root
p1688
(lp1689
I01
aI6699
asV/store/cmst3/user/cmgtools/CMG/DY4JetsToLL_M-50_TuneZ2Star_8TeV-madgraph/Summer12_DR53X-PU_S10_START53_V7A-v1/AODSIM/V5_B/PAT_CMG_V5_16_0/cmgTuple_219.root
p1690
(lp1691
I01
aI10813
asV/store/cmst3/user/cmgtools/CMG/DY4JetsToLL_M-50_TuneZ2Star_8TeV-madgraph/Summer12_DR53X-PU_S10_START53_V7A-v1/AODSIM/V5_B/PAT_CMG_V5_16_0/cmgTuple_44.root
p1692
(lp1693
I01
aI10074
asV/store/cmst3/user/cmgtools/CMG/DY4JetsToLL_M-50_TuneZ2Star_8TeV-madgraph/Summer12_DR53X-PU_S10_START53_V7A-v1/AODSIM/V5_B/PAT_CMG_V5_16_0/cmgTuple_36.root
p1694
(lp1695
I01
aI11149
asV/store/cmst3/user/cmgtools/CMG/DY4JetsToLL_M-50_TuneZ2Star_8TeV-madgraph/Summer12_DR53X-PU_S10_START53_V7A-v1/AODSIM/V5_B/PAT_CMG_V5_16_0/cmgTuple_617.root
p1696
(lp1697
I01
aI11133
asV/store/cmst3/user/cmgtools/CMG/DY4JetsToLL_M-50_TuneZ2Star_8TeV-madgraph/Summer12_DR53X-PU_S10_START53_V7A-v1/AODSIM/V5_B/PAT_CMG_V5_16_0/cmgTuple_412.root
p1698
(lp1699
I01
aI10510
asV/store/cmst3/user/cmgtools/CMG/DY4JetsToLL_M-50_TuneZ2Star_8TeV-madgraph/Summer12_DR53X-PU_S10_START53_V7A-v1/AODSIM/V5_B/PAT_CMG_V5_16_0/cmgTuple_368.root
p1700
(lp1701
I01
aI9919
assVPhysicsGroup
p1702
VCMG
p1703
sVFilesCount
p1704
I628
sVFilesEntries
p1705
I6402827
sVRunList
p1706
(lp1707
sVValidDuplicates
p1708
(dp1709
sVPrimaryDataset
p1710
V/DY4JetsToLL_M-50_TuneZ2Star_8TeV-madgraph/Summer12_DR53X-PU_S10_START53_V7A-v1/AODSIM
p1711
sVStatus
p1712
VVALID
p1713
sVName
p1714
V/DY4JetsToLL_M-50_TuneZ2Star_8TeV-madgraph/Summer12_DR53X-PU_S10_START53_V7A-v1/AODSIM/V5_B/PAT_CMG_V5_16_0
p1715
sVTopdir
p1716
V/eos/cms/store/cmst3/user/cmgtools/CMG
p1717
sVdata
p1718
(dp1719
sVFilesBad
p1720
I0
sVMinRun
p1721
I-1
sVAlgoList
p1722
(lp1723
sVTierList
p1724
(lp1725
sVDateCreated
p1726
V1371370890
p1727
sVCreatedBy
p1728
Vcmgtools
p1729
sVMaxRun
p1730
I-1
sVBadJobs
p1731
(lp1732
ssg299
I01
ssS'MonitorJobs'
p1733
(dp1734
S'LSFJobStatus'
p1735
(dp1736
g302
S'DY4JetsToLL_M-50_TuneZ2Star_8TeV-madgraph/Summer12_DR53X-PU_S10_START53_V7A-v1/AODSIM/V5_B/PAT_CMG_V5_16_0_1377544840/HTT_24Jul_newTES_manzoni_Up_Jobs/Job_78/LSFJOB_441358625/STDOUT.gz'
p1737
sg303
S'DY4JetsToLL_M-50_TuneZ2Star_8TeV-madgraph/Summer12_DR53X-PU_S10_START53_V7A-v1/AODSIM/V5_B/PAT_CMG_V5_16_0_1377544840/HTT_24Jul_newTES_manzoni_Up_Jobs/Job_79/LSFJOB_441358637/STDOUT.gz'
p1738
sg304
S'DY4JetsToLL_M-50_TuneZ2Star_8TeV-madgraph/Summer12_DR53X-PU_S10_START53_V7A-v1/AODSIM/V5_B/PAT_CMG_V5_16_0_1377544840/HTT_24Jul_newTES_manzoni_Up_Jobs/Job_76/LSFJOB_441358606/STDOUT.gz'
p1739
sg305
S'DY4JetsToLL_M-50_TuneZ2Star_8TeV-madgraph/Summer12_DR53X-PU_S10_START53_V7A-v1/AODSIM/V5_B/PAT_CMG_V5_16_0_1377544840/HTT_24Jul_newTES_manzoni_Up_Jobs/Job_77/LSFJOB_441358616/STDOUT.gz'
p1740
sg306
S'DY4JetsToLL_M-50_TuneZ2Star_8TeV-madgraph/Summer12_DR53X-PU_S10_START53_V7A-v1/AODSIM/V5_B/PAT_CMG_V5_16_0_1377544840/HTT_24Jul_newTES_manzoni_Up_Jobs/Job_74/LSFJOB_441358588/STDOUT.gz'
p1741
sg307
S'DY4JetsToLL_M-50_TuneZ2Star_8TeV-madgraph/Summer12_DR53X-PU_S10_START53_V7A-v1/AODSIM/V5_B/PAT_CMG_V5_16_0_1377544840/HTT_24Jul_newTES_manzoni_Up_Jobs/Job_75/LSFJOB_441358597/STDOUT.gz'
p1742
sg308
S'DY4JetsToLL_M-50_TuneZ2Star_8TeV-madgraph/Summer12_DR53X-PU_S10_START53_V7A-v1/AODSIM/V5_B/PAT_CMG_V5_16_0_1377544840/HTT_24Jul_newTES_manzoni_Up_Jobs/Job_72/LSFJOB_441358568/STDOUT.gz'
p1743
sg309
S'DY4JetsToLL_M-50_TuneZ2Star_8TeV-madgraph/Summer12_DR53X-PU_S10_START53_V7A-v1/AODSIM/V5_B/PAT_CMG_V5_16_0_1377544840/HTT_24Jul_newTES_manzoni_Up_Jobs/Job_73/LSFJOB_441358580/STDOUT.gz'
p1744
sg310
S'DY4JetsToLL_M-50_TuneZ2Star_8TeV-madgraph/Summer12_DR53X-PU_S10_START53_V7A-v1/AODSIM/V5_B/PAT_CMG_V5_16_0_1377544840/HTT_24Jul_newTES_manzoni_Up_Jobs/Job_70/LSFJOB_441358544/STDOUT.gz'
p1745
sg311
S'DY4JetsToLL_M-50_TuneZ2Star_8TeV-madgraph/Summer12_DR53X-PU_S10_START53_V7A-v1/AODSIM/V5_B/PAT_CMG_V5_16_0_1377544840/HTT_24Jul_newTES_manzoni_Up_Jobs/Job_71/LSFJOB_441358554/STDOUT.gz'
p1746
sg312
S'DY4JetsToLL_M-50_TuneZ2Star_8TeV-madgraph/Summer12_DR53X-PU_S10_START53_V7A-v1/AODSIM/V5_B/PAT_CMG_V5_16_0_1377544840/HTT_24Jul_newTES_manzoni_Up_Jobs/Job_8/LSFJOB_441357672/STDOUT.gz'
p1747
sg313
S'DY4JetsToLL_M-50_TuneZ2Star_8TeV-madgraph/Summer12_DR53X-PU_S10_START53_V7A-v1/AODSIM/V5_B/PAT_CMG_V5_16_0_1377544840/HTT_24Jul_newTES_manzoni_Up_Jobs/Job_9/LSFJOB_441357686/STDOUT.gz'
p1748
sg314
S'DY4JetsToLL_M-50_TuneZ2Star_8TeV-madgraph/Summer12_DR53X-PU_S10_START53_V7A-v1/AODSIM/V5_B/PAT_CMG_V5_16_0_1377544840/HTT_24Jul_newTES_manzoni_Up_Jobs/Job_2/LSFJOB_441357577/STDOUT.gz'
p1749
sg315
S'DY4JetsToLL_M-50_TuneZ2Star_8TeV-madgraph/Summer12_DR53X-PU_S10_START53_V7A-v1/AODSIM/V5_B/PAT_CMG_V5_16_0_1377544840/HTT_24Jul_newTES_manzoni_Up_Jobs/Job_3/LSFJOB_441357589/STDOUT.gz'
p1750
sg316
S'DY4JetsToLL_M-50_TuneZ2Star_8TeV-madgraph/Summer12_DR53X-PU_S10_START53_V7A-v1/AODSIM/V5_B/PAT_CMG_V5_16_0_1377544840/HTT_24Jul_newTES_manzoni_Up_Jobs/Job_1/LSFJOB_441357563/STDOUT.gz'
p1751
sg317
S'DY4JetsToLL_M-50_TuneZ2Star_8TeV-madgraph/Summer12_DR53X-PU_S10_START53_V7A-v1/AODSIM/V5_B/PAT_CMG_V5_16_0_1377544840/HTT_24Jul_newTES_manzoni_Up_Jobs/Job_6/LSFJOB_441357640/STDOUT.gz'
p1752
sg318
S'DY4JetsToLL_M-50_TuneZ2Star_8TeV-madgraph/Summer12_DR53X-PU_S10_START53_V7A-v1/AODSIM/V5_B/PAT_CMG_V5_16_0_1377544840/HTT_24Jul_newTES_manzoni_Up_Jobs/Job_7/LSFJOB_441357657/STDOUT.gz'
p1753
sg319
S'DY4JetsToLL_M-50_TuneZ2Star_8TeV-madgraph/Summer12_DR53X-PU_S10_START53_V7A-v1/AODSIM/V5_B/PAT_CMG_V5_16_0_1377544840/HTT_24Jul_newTES_manzoni_Up_Jobs/Job_4/LSFJOB_441357607/STDOUT.gz'
p1754
sg320
S'DY4JetsToLL_M-50_TuneZ2Star_8TeV-madgraph/Summer12_DR53X-PU_S10_START53_V7A-v1/AODSIM/V5_B/PAT_CMG_V5_16_0_1377544840/HTT_24Jul_newTES_manzoni_Up_Jobs/Job_5/LSFJOB_441357622/STDOUT.gz'
p1755
sg321
S'DY4JetsToLL_M-50_TuneZ2Star_8TeV-madgraph/Summer12_DR53X-PU_S10_START53_V7A-v1/AODSIM/V5_B/PAT_CMG_V5_16_0_1377544840/HTT_24Jul_newTES_manzoni_Up_Jobs/Job_49/LSFJOB_441358306/STDOUT.gz'
p1756
sg322
S'DY4JetsToLL_M-50_TuneZ2Star_8TeV-madgraph/Summer12_DR53X-PU_S10_START53_V7A-v1/AODSIM/V5_B/PAT_CMG_V5_16_0_1377544840/HTT_24Jul_newTES_manzoni_Up_Jobs/Job_48/LSFJOB_441358296/STDOUT.gz'
p1757
sg323
S'DY4JetsToLL_M-50_TuneZ2Star_8TeV-madgraph/Summer12_DR53X-PU_S10_START53_V7A-v1/AODSIM/V5_B/PAT_CMG_V5_16_0_1377544840/HTT_24Jul_newTES_manzoni_Up_Jobs/Job_43/LSFJOB_441358239/STDOUT.gz'
p1758
sg324
S'DY4JetsToLL_M-50_TuneZ2Star_8TeV-madgraph/Summer12_DR53X-PU_S10_START53_V7A-v1/AODSIM/V5_B/PAT_CMG_V5_16_0_1377544840/HTT_24Jul_newTES_manzoni_Up_Jobs/Job_42/LSFJOB_441358223/STDOUT.gz'
p1759
sg325
S'DY4JetsToLL_M-50_TuneZ2Star_8TeV-madgraph/Summer12_DR53X-PU_S10_START53_V7A-v1/AODSIM/V5_B/PAT_CMG_V5_16_0_1377544840/HTT_24Jul_newTES_manzoni_Up_Jobs/Job_41/LSFJOB_441358208/STDOUT.gz'
p1760
sg326
S'DY4JetsToLL_M-50_TuneZ2Star_8TeV-madgraph/Summer12_DR53X-PU_S10_START53_V7A-v1/AODSIM/V5_B/PAT_CMG_V5_16_0_1377544840/HTT_24Jul_newTES_manzoni_Up_Jobs/Job_40/LSFJOB_441358192/STDOUT.gz'
p1761
sg327
S'DY4JetsToLL_M-50_TuneZ2Star_8TeV-madgraph/Summer12_DR53X-PU_S10_START53_V7A-v1/AODSIM/V5_B/PAT_CMG_V5_16_0_1377544840/HTT_24Jul_newTES_manzoni_Up_Jobs/Job_47/LSFJOB_441358286/STDOUT.gz'
p1762
sg328
S'DY4JetsToLL_M-50_TuneZ2Star_8TeV-madgraph/Summer12_DR53X-PU_S10_START53_V7A-v1/AODSIM/V5_B/PAT_CMG_V5_16_0_1377544840/HTT_24Jul_newTES_manzoni_Up_Jobs/Job_46/LSFJOB_441358278/STDOUT.gz'
p1763
sg329
S'DY4JetsToLL_M-50_TuneZ2Star_8TeV-madgraph/Summer12_DR53X-PU_S10_START53_V7A-v1/AODSIM/V5_B/PAT_CMG_V5_16_0_1377544840/HTT_24Jul_newTES_manzoni_Up_Jobs/Job_45/LSFJOB_441358265/STDOUT.gz'
p1764
sg330
S'DY4JetsToLL_M-50_TuneZ2Star_8TeV-madgraph/Summer12_DR53X-PU_S10_START53_V7A-v1/AODSIM/V5_B/PAT_CMG_V5_16_0_1377544840/HTT_24Jul_newTES_manzoni_Up_Jobs/Job_44/LSFJOB_441358253/STDOUT.gz'
p1765
sg331
S'DY4JetsToLL_M-50_TuneZ2Star_8TeV-madgraph/Summer12_DR53X-PU_S10_START53_V7A-v1/AODSIM/V5_B/PAT_CMG_V5_16_0_1377544840/HTT_24Jul_newTES_manzoni_Up_Jobs/Job_90/LSFJOB_441358760/STDOUT.gz'
p1766
sg332
S'DY4JetsToLL_M-50_TuneZ2Star_8TeV-madgraph/Summer12_DR53X-PU_S10_START53_V7A-v1/AODSIM/V5_B/PAT_CMG_V5_16_0_1377544840/HTT_24Jul_newTES_manzoni_Up_Jobs/Job_91/LSFJOB_441358768/STDOUT.gz'
p1767
sg333
S'DY4JetsToLL_M-50_TuneZ2Star_8TeV-madgraph/Summer12_DR53X-PU_S10_START53_V7A-v1/AODSIM/V5_B/PAT_CMG_V5_16_0_1377544840/HTT_24Jul_newTES_manzoni_Up_Jobs/Job_92/LSFJOB_441358776/STDOUT.gz'
p1768
sg334
S'DY4JetsToLL_M-50_TuneZ2Star_8TeV-madgraph/Summer12_DR53X-PU_S10_START53_V7A-v1/AODSIM/V5_B/PAT_CMG_V5_16_0_1377544840/HTT_24Jul_newTES_manzoni_Up_Jobs/Job_93/LSFJOB_441358788/STDOUT.gz'
p1769
sg335
S'DY4JetsToLL_M-50_TuneZ2Star_8TeV-madgraph/Summer12_DR53X-PU_S10_START53_V7A-v1/AODSIM/V5_B/PAT_CMG_V5_16_0_1377544840/HTT_24Jul_newTES_manzoni_Up_Jobs/Job_94/LSFJOB_441358797/STDOUT.gz'
p1770
sg336
S'DY4JetsToLL_M-50_TuneZ2Star_8TeV-madgraph/Summer12_DR53X-PU_S10_START53_V7A-v1/AODSIM/V5_B/PAT_CMG_V5_16_0_1377544840/HTT_24Jul_newTES_manzoni_Up_Jobs/Job_95/LSFJOB_441358805/STDOUT.gz'
p1771
sg337
S'DY4JetsToLL_M-50_TuneZ2Star_8TeV-madgraph/Summer12_DR53X-PU_S10_START53_V7A-v1/AODSIM/V5_B/PAT_CMG_V5_16_0_1377544840/HTT_24Jul_newTES_manzoni_Up_Jobs/Job_96/LSFJOB_441358813/STDOUT.gz'
p1772
sg338
S'DY4JetsToLL_M-50_TuneZ2Star_8TeV-madgraph/Summer12_DR53X-PU_S10_START53_V7A-v1/AODSIM/V5_B/PAT_CMG_V5_16_0_1377544840/HTT_24Jul_newTES_manzoni_Up_Jobs/Job_97/LSFJOB_441358825/STDOUT.gz'
p1773
sg339
S'DY4JetsToLL_M-50_TuneZ2Star_8TeV-madgraph/Summer12_DR53X-PU_S10_START53_V7A-v1/AODSIM/V5_B/PAT_CMG_V5_16_0_1377544840/HTT_24Jul_newTES_manzoni_Up_Jobs/Job_98/LSFJOB_441358839/STDOUT.gz'
p1774
sg340
S'DY4JetsToLL_M-50_TuneZ2Star_8TeV-madgraph/Summer12_DR53X-PU_S10_START53_V7A-v1/AODSIM/V5_B/PAT_CMG_V5_16_0_1377544840/HTT_24Jul_newTES_manzoni_Up_Jobs/Job_99/LSFJOB_441358853/STDOUT.gz'
p1775
sg341
S'DY4JetsToLL_M-50_TuneZ2Star_8TeV-madgraph/Summer12_DR53X-PU_S10_START53_V7A-v1/AODSIM/V5_B/PAT_CMG_V5_16_0_1377544840/HTT_24Jul_newTES_manzoni_Up_Jobs/Job_123/LSFJOB_441359172/STDOUT.gz'
p1776
sg342
S'DY4JetsToLL_M-50_TuneZ2Star_8TeV-madgraph/Summer12_DR53X-PU_S10_START53_V7A-v1/AODSIM/V5_B/PAT_CMG_V5_16_0_1377544840/HTT_24Jul_newTES_manzoni_Up_Jobs/Job_122/LSFJOB_441359160/STDOUT.gz'
p1777
sg343
S'DY4JetsToLL_M-50_TuneZ2Star_8TeV-madgraph/Summer12_DR53X-PU_S10_START53_V7A-v1/AODSIM/V5_B/PAT_CMG_V5_16_0_1377544840/HTT_24Jul_newTES_manzoni_Up_Jobs/Job_121/LSFJOB_441359152/STDOUT.gz'
p1778
sg344
S'DY4JetsToLL_M-50_TuneZ2Star_8TeV-madgraph/Summer12_DR53X-PU_S10_START53_V7A-v1/AODSIM/V5_B/PAT_CMG_V5_16_0_1377544840/HTT_24Jul_newTES_manzoni_Up_Jobs/Job_120/LSFJOB_441359145/STDOUT.gz'
p1779
sg345
S'DY4JetsToLL_M-50_TuneZ2Star_8TeV-madgraph/Summer12_DR53X-PU_S10_START53_V7A-v1/AODSIM/V5_B/PAT_CMG_V5_16_0_1377544840/HTT_24Jul_newTES_manzoni_Up_Jobs/Job_126/LSFJOB_441359206/STDOUT.gz'
p1780
sg346
S'DY4JetsToLL_M-50_TuneZ2Star_8TeV-madgraph/Summer12_DR53X-PU_S10_START53_V7A-v1/AODSIM/V5_B/PAT_CMG_V5_16_0_1377544840/HTT_24Jul_newTES_manzoni_Up_Jobs/Job_125/LSFJOB_441359192/STDOUT.gz'
p1781
sg347
S'DY4JetsToLL_M-50_TuneZ2Star_8TeV-madgraph/Summer12_DR53X-PU_S10_START53_V7A-v1/AODSIM/V5_B/PAT_CMG_V5_16_0_1377544840/HTT_24Jul_newTES_manzoni_Up_Jobs/Job_124/LSFJOB_441359179/STDOUT.gz'
p1782
sg348
S'DY4JetsToLL_M-50_TuneZ2Star_8TeV-madgraph/Summer12_DR53X-PU_S10_START53_V7A-v1/AODSIM/V5_B/PAT_CMG_V5_16_0_1377544840/HTT_24Jul_newTES_manzoni_Up_Jobs/Job_18/LSFJOB_441357852/STDOUT.gz'
p1783
sg349
S'DY4JetsToLL_M-50_TuneZ2Star_8TeV-madgraph/Summer12_DR53X-PU_S10_START53_V7A-v1/AODSIM/V5_B/PAT_CMG_V5_16_0_1377544840/HTT_24Jul_newTES_manzoni_Up_Jobs/Job_19/LSFJOB_441357862/STDOUT.gz'
p1784
sg350
S'DY4JetsToLL_M-50_TuneZ2Star_8TeV-madgraph/Summer12_DR53X-PU_S10_START53_V7A-v1/AODSIM/V5_B/PAT_CMG_V5_16_0_1377544840/HTT_24Jul_newTES_manzoni_Up_Jobs/Job_10/LSFJOB_441357707/STDOUT.gz'
p1785
sg351
S'DY4JetsToLL_M-50_TuneZ2Star_8TeV-madgraph/Summer12_DR53X-PU_S10_START53_V7A-v1/AODSIM/V5_B/PAT_CMG_V5_16_0_1377544840/HTT_24Jul_newTES_manzoni_Up_Jobs/Job_11/LSFJOB_441357730/STDOUT.gz'
p1786
sg352
S'DY4JetsToLL_M-50_TuneZ2Star_8TeV-madgraph/Summer12_DR53X-PU_S10_START53_V7A-v1/AODSIM/V5_B/PAT_CMG_V5_16_0_1377544840/HTT_24Jul_newTES_manzoni_Up_Jobs/Job_12/LSFJOB_441357752/STDOUT.gz'
p1787
sg353
S'DY4JetsToLL_M-50_TuneZ2Star_8TeV-madgraph/Summer12_DR53X-PU_S10_START53_V7A-v1/AODSIM/V5_B/PAT_CMG_V5_16_0_1377544840/HTT_24Jul_newTES_manzoni_Up_Jobs/Job_13/LSFJOB_441357772/STDOUT.gz'
p1788
sg354
S'DY4JetsToLL_M-50_TuneZ2Star_8TeV-madgraph/Summer12_DR53X-PU_S10_START53_V7A-v1/AODSIM/V5_B/PAT_CMG_V5_16_0_1377544840/HTT_24Jul_newTES_manzoni_Up_Jobs/Job_14/LSFJOB_441357787/STDOUT.gz'
p1789
sg355
S'DY4JetsToLL_M-50_TuneZ2Star_8TeV-madgraph/Summer12_DR53X-PU_S10_START53_V7A-v1/AODSIM/V5_B/PAT_CMG_V5_16_0_1377544840/HTT_24Jul_newTES_manzoni_Up_Jobs/Job_15/LSFJOB_441357804/STDOUT.gz'
p1790
sg356
S'DY4JetsToLL_M-50_TuneZ2Star_8TeV-madgraph/Summer12_DR53X-PU_S10_START53_V7A-v1/AODSIM/V5_B/PAT_CMG_V5_16_0_1377544840/HTT_24Jul_newTES_manzoni_Up_Jobs/Job_16/LSFJOB_441357821/STDOUT.gz'
p1791
sg357
S'DY4JetsToLL_M-50_TuneZ2Star_8TeV-madgraph/Summer12_DR53X-PU_S10_START53_V7A-v1/AODSIM/V5_B/PAT_CMG_V5_16_0_1377544840/HTT_24Jul_newTES_manzoni_Up_Jobs/Job_17/LSFJOB_441357836/STDOUT.gz'
p1792
sg358
S'DY4JetsToLL_M-50_TuneZ2Star_8TeV-madgraph/Summer12_DR53X-PU_S10_START53_V7A-v1/AODSIM/V5_B/PAT_CMG_V5_16_0_1377544840/HTT_24Jul_newTES_manzoni_Up_Jobs/Job_69/LSFJOB_441358529/STDOUT.gz'
p1793
sg359
S'DY4JetsToLL_M-50_TuneZ2Star_8TeV-madgraph/Summer12_DR53X-PU_S10_START53_V7A-v1/AODSIM/V5_B/PAT_CMG_V5_16_0_1377544840/HTT_24Jul_newTES_manzoni_Up_Jobs/Job_68/LSFJOB_441358516/STDOUT.gz'
p1794
sg360
S'DY4JetsToLL_M-50_TuneZ2Star_8TeV-madgraph/Summer12_DR53X-PU_S10_START53_V7A-v1/AODSIM/V5_B/PAT_CMG_V5_16_0_1377544840/HTT_24Jul_newTES_manzoni_Up_Jobs/Job_65/LSFJOB_441358480/STDOUT.gz'
p1795
sg361
S'DY4JetsToLL_M-50_TuneZ2Star_8TeV-madgraph/Summer12_DR53X-PU_S10_START53_V7A-v1/AODSIM/V5_B/PAT_CMG_V5_16_0_1377544840/HTT_24Jul_newTES_manzoni_Up_Jobs/Job_64/LSFJOB_441358471/STDOUT.gz'
p1796
sg362
S'DY4JetsToLL_M-50_TuneZ2Star_8TeV-madgraph/Summer12_DR53X-PU_S10_START53_V7A-v1/AODSIM/V5_B/PAT_CMG_V5_16_0_1377544840/HTT_24Jul_newTES_manzoni_Up_Jobs/Job_67/LSFJOB_441358500/STDOUT.gz'
p1797
sg363
S'DY4JetsToLL_M-50_TuneZ2Star_8TeV-madgraph/Summer12_DR53X-PU_S10_START53_V7A-v1/AODSIM/V5_B/PAT_CMG_V5_16_0_1377544840/HTT_24Jul_newTES_manzoni_Up_Jobs/Job_66/LSFJOB_441358489/STDOUT.gz'
p1798
sg364
S'DY4JetsToLL_M-50_TuneZ2Star_8TeV-madgraph/Summer12_DR53X-PU_S10_START53_V7A-v1/AODSIM/V5_B/PAT_CMG_V5_16_0_1377544840/HTT_24Jul_newTES_manzoni_Up_Jobs/Job_61/LSFJOB_441358442/STDOUT.gz'
p1799
sg365
S'DY4JetsToLL_M-50_TuneZ2Star_8TeV-madgraph/Summer12_DR53X-PU_S10_START53_V7A-v1/AODSIM/V5_B/PAT_CMG_V5_16_0_1377544840/HTT_24Jul_newTES_manzoni_Up_Jobs/Job_60/LSFJOB_441358430/STDOUT.gz'
p1800
sg366
S'DY4JetsToLL_M-50_TuneZ2Star_8TeV-madgraph/Summer12_DR53X-PU_S10_START53_V7A-v1/AODSIM/V5_B/PAT_CMG_V5_16_0_1377544840/HTT_24Jul_newTES_manzoni_Up_Jobs/Job_63/LSFJOB_441358461/STDOUT.gz'
p1801
sg367
S'DY4JetsToLL_M-50_TuneZ2Star_8TeV-madgraph/Summer12_DR53X-PU_S10_START53_V7A-v1/AODSIM/V5_B/PAT_CMG_V5_16_0_1377544840/HTT_24Jul_newTES_manzoni_Up_Jobs/Job_62/LSFJOB_441358452/STDOUT.gz'
p1802
sg368
S'DY4JetsToLL_M-50_TuneZ2Star_8TeV-madgraph/Summer12_DR53X-PU_S10_START53_V7A-v1/AODSIM/V5_B/PAT_CMG_V5_16_0_1377544840/HTT_24Jul_newTES_manzoni_Up_Jobs/Job_101/LSFJOB_441358880/STDOUT.gz'
p1803
sg369
S'DY4JetsToLL_M-50_TuneZ2Star_8TeV-madgraph/Summer12_DR53X-PU_S10_START53_V7A-v1/AODSIM/V5_B/PAT_CMG_V5_16_0_1377544840/HTT_24Jul_newTES_manzoni_Up_Jobs/Job_100/LSFJOB_441358866/STDOUT.gz'
p1804
sg370
S'DY4JetsToLL_M-50_TuneZ2Star_8TeV-madgraph/Summer12_DR53X-PU_S10_START53_V7A-v1/AODSIM/V5_B/PAT_CMG_V5_16_0_1377544840/HTT_24Jul_newTES_manzoni_Up_Jobs/Job_103/LSFJOB_441358901/STDOUT.gz'
p1805
sg371
S'DY4JetsToLL_M-50_TuneZ2Star_8TeV-madgraph/Summer12_DR53X-PU_S10_START53_V7A-v1/AODSIM/V5_B/PAT_CMG_V5_16_0_1377544840/HTT_24Jul_newTES_manzoni_Up_Jobs/Job_102/LSFJOB_441358891/STDOUT.gz'
p1806
sg372
S'DY4JetsToLL_M-50_TuneZ2Star_8TeV-madgraph/Summer12_DR53X-PU_S10_START53_V7A-v1/AODSIM/V5_B/PAT_CMG_V5_16_0_1377544840/HTT_24Jul_newTES_manzoni_Up_Jobs/Job_105/LSFJOB_441358920/STDOUT.gz'
p1807
sg373
S'DY4JetsToLL_M-50_TuneZ2Star_8TeV-madgraph/Summer12_DR53X-PU_S10_START53_V7A-v1/AODSIM/V5_B/PAT_CMG_V5_16_0_1377544840/HTT_24Jul_newTES_manzoni_Up_Jobs/Job_104/LSFJOB_441358912/STDOUT.gz'
p1808
sg374
S'DY4JetsToLL_M-50_TuneZ2Star_8TeV-madgraph/Summer12_DR53X-PU_S10_START53_V7A-v1/AODSIM/V5_B/PAT_CMG_V5_16_0_1377544840/HTT_24Jul_newTES_manzoni_Up_Jobs/Job_107/LSFJOB_441358957/STDOUT.gz'
p1809
sg375
S'DY4JetsToLL_M-50_TuneZ2Star_8TeV-madgraph/Summer12_DR53X-PU_S10_START53_V7A-v1/AODSIM/V5_B/PAT_CMG_V5_16_0_1377544840/HTT_24Jul_newTES_manzoni_Up_Jobs/Job_106/LSFJOB_441358936/STDOUT.gz'
p1810
sg376
S'DY4JetsToLL_M-50_TuneZ2Star_8TeV-madgraph/Summer12_DR53X-PU_S10_START53_V7A-v1/AODSIM/V5_B/PAT_CMG_V5_16_0_1377544840/HTT_24Jul_newTES_manzoni_Up_Jobs/Job_109/LSFJOB_441358989/STDOUT.gz'
p1811
sg377
S'DY4JetsToLL_M-50_TuneZ2Star_8TeV-madgraph/Summer12_DR53X-PU_S10_START53_V7A-v1/AODSIM/V5_B/PAT_CMG_V5_16_0_1377544840/HTT_24Jul_newTES_manzoni_Up_Jobs/Job_108/LSFJOB_441358972/STDOUT.gz'
p1812
sg378
S'DY4JetsToLL_M-50_TuneZ2Star_8TeV-madgraph/Summer12_DR53X-PU_S10_START53_V7A-v1/AODSIM/V5_B/PAT_CMG_V5_16_0_1377544840/HTT_24Jul_newTES_manzoni_Up_Jobs/Job_32/LSFJOB_441358049/STDOUT.gz'
p1813
sg379
S'DY4JetsToLL_M-50_TuneZ2Star_8TeV-madgraph/Summer12_DR53X-PU_S10_START53_V7A-v1/AODSIM/V5_B/PAT_CMG_V5_16_0_1377544840/HTT_24Jul_newTES_manzoni_Up_Jobs/Job_33/LSFJOB_441358065/STDOUT.gz'
p1814
sg380
S'DY4JetsToLL_M-50_TuneZ2Star_8TeV-madgraph/Summer12_DR53X-PU_S10_START53_V7A-v1/AODSIM/V5_B/PAT_CMG_V5_16_0_1377544840/HTT_24Jul_newTES_manzoni_Up_Jobs/Job_30/LSFJOB_441358024/STDOUT.gz'
p1815
sg381
S'DY4JetsToLL_M-50_TuneZ2Star_8TeV-madgraph/Summer12_DR53X-PU_S10_START53_V7A-v1/AODSIM/V5_B/PAT_CMG_V5_16_0_1377544840/HTT_24Jul_newTES_manzoni_Up_Jobs/Job_31/LSFJOB_441358036/STDOUT.gz'
p1816
sg382
S'DY4JetsToLL_M-50_TuneZ2Star_8TeV-madgraph/Summer12_DR53X-PU_S10_START53_V7A-v1/AODSIM/V5_B/PAT_CMG_V5_16_0_1377544840/HTT_24Jul_newTES_manzoni_Up_Jobs/Job_36/LSFJOB_441358126/STDOUT.gz'
p1817
sg383
S'DY4JetsToLL_M-50_TuneZ2Star_8TeV-madgraph/Summer12_DR53X-PU_S10_START53_V7A-v1/AODSIM/V5_B/PAT_CMG_V5_16_0_1377544840/HTT_24Jul_newTES_manzoni_Up_Jobs/Job_37/LSFJOB_441358146/STDOUT.gz'
p1818
sg384
S'DY4JetsToLL_M-50_TuneZ2Star_8TeV-madgraph/Summer12_DR53X-PU_S10_START53_V7A-v1/AODSIM/V5_B/PAT_CMG_V5_16_0_1377544840/HTT_24Jul_newTES_manzoni_Up_Jobs/Job_34/LSFJOB_441358082/STDOUT.gz'
p1819
sg385
S'DY4JetsToLL_M-50_TuneZ2Star_8TeV-madgraph/Summer12_DR53X-PU_S10_START53_V7A-v1/AODSIM/V5_B/PAT_CMG_V5_16_0_1377544840/HTT_24Jul_newTES_manzoni_Up_Jobs/Job_35/LSFJOB_441358098/STDOUT.gz'
p1820
sg386
S'DY4JetsToLL_M-50_TuneZ2Star_8TeV-madgraph/Summer12_DR53X-PU_S10_START53_V7A-v1/AODSIM/V5_B/PAT_CMG_V5_16_0_1377544840/HTT_24Jul_newTES_manzoni_Up_Jobs/Job_38/LSFJOB_441358162/STDOUT.gz'
p1821
sg387
S'DY4JetsToLL_M-50_TuneZ2Star_8TeV-madgraph/Summer12_DR53X-PU_S10_START53_V7A-v1/AODSIM/V5_B/PAT_CMG_V5_16_0_1377544840/HTT_24Jul_newTES_manzoni_Up_Jobs/Job_39/LSFJOB_441358178/STDOUT.gz'
p1822
sg388
S'DY4JetsToLL_M-50_TuneZ2Star_8TeV-madgraph/Summer12_DR53X-PU_S10_START53_V7A-v1/AODSIM/V5_B/PAT_CMG_V5_16_0_1377544840/HTT_24Jul_newTES_manzoni_Up_Jobs/Job_87/LSFJOB_441358732/STDOUT.gz'
p1823
sg389
S'DY4JetsToLL_M-50_TuneZ2Star_8TeV-madgraph/Summer12_DR53X-PU_S10_START53_V7A-v1/AODSIM/V5_B/PAT_CMG_V5_16_0_1377544840/HTT_24Jul_newTES_manzoni_Up_Jobs/Job_86/LSFJOB_441358722/STDOUT.gz'
p1824
sg390
S'DY4JetsToLL_M-50_TuneZ2Star_8TeV-madgraph/Summer12_DR53X-PU_S10_START53_V7A-v1/AODSIM/V5_B/PAT_CMG_V5_16_0_1377544840/HTT_24Jul_newTES_manzoni_Up_Jobs/Job_85/LSFJOB_441358706/STDOUT.gz'
p1825
sg391
S'DY4JetsToLL_M-50_TuneZ2Star_8TeV-madgraph/Summer12_DR53X-PU_S10_START53_V7A-v1/AODSIM/V5_B/PAT_CMG_V5_16_0_1377544840/HTT_24Jul_newTES_manzoni_Up_Jobs/Job_84/LSFJOB_441358690/STDOUT.gz'
p1826
sg392
S'DY4JetsToLL_M-50_TuneZ2Star_8TeV-madgraph/Summer12_DR53X-PU_S10_START53_V7A-v1/AODSIM/V5_B/PAT_CMG_V5_16_0_1377544840/HTT_24Jul_newTES_manzoni_Up_Jobs/Job_83/LSFJOB_441358680/STDOUT.gz'
p1827
sg393
S'DY4JetsToLL_M-50_TuneZ2Star_8TeV-madgraph/Summer12_DR53X-PU_S10_START53_V7A-v1/AODSIM/V5_B/PAT_CMG_V5_16_0_1377544840/HTT_24Jul_newTES_manzoni_Up_Jobs/Job_82/LSFJOB_441358668/STDOUT.gz'
p1828
sg394
S'DY4JetsToLL_M-50_TuneZ2Star_8TeV-madgraph/Summer12_DR53X-PU_S10_START53_V7A-v1/AODSIM/V5_B/PAT_CMG_V5_16_0_1377544840/HTT_24Jul_newTES_manzoni_Up_Jobs/Job_81/LSFJOB_441358656/STDOUT.gz'
p1829
sg395
S'DY4JetsToLL_M-50_TuneZ2Star_8TeV-madgraph/Summer12_DR53X-PU_S10_START53_V7A-v1/AODSIM/V5_B/PAT_CMG_V5_16_0_1377544840/HTT_24Jul_newTES_manzoni_Up_Jobs/Job_80/LSFJOB_441358646/STDOUT.gz'
p1830
sg396
S'DY4JetsToLL_M-50_TuneZ2Star_8TeV-madgraph/Summer12_DR53X-PU_S10_START53_V7A-v1/AODSIM/V5_B/PAT_CMG_V5_16_0_1377544840/HTT_24Jul_newTES_manzoni_Up_Jobs/Job_89/LSFJOB_441358751/STDOUT.gz'
p1831
sg397
S'DY4JetsToLL_M-50_TuneZ2Star_8TeV-madgraph/Summer12_DR53X-PU_S10_START53_V7A-v1/AODSIM/V5_B/PAT_CMG_V5_16_0_1377544840/HTT_24Jul_newTES_manzoni_Up_Jobs/Job_88/LSFJOB_441358740/STDOUT.gz'
p1832
sg398
S'DY4JetsToLL_M-50_TuneZ2Star_8TeV-madgraph/Summer12_DR53X-PU_S10_START53_V7A-v1/AODSIM/V5_B/PAT_CMG_V5_16_0_1377544840/HTT_24Jul_newTES_manzoni_Up_Jobs/Job_54/LSFJOB_441358353/STDOUT.gz'
p1833
sg399
S'DY4JetsToLL_M-50_TuneZ2Star_8TeV-madgraph/Summer12_DR53X-PU_S10_START53_V7A-v1/AODSIM/V5_B/PAT_CMG_V5_16_0_1377544840/HTT_24Jul_newTES_manzoni_Up_Jobs/Job_55/LSFJOB_441358364/STDOUT.gz'
p1834
sg400
S'DY4JetsToLL_M-50_TuneZ2Star_8TeV-madgraph/Summer12_DR53X-PU_S10_START53_V7A-v1/AODSIM/V5_B/PAT_CMG_V5_16_0_1377544840/HTT_24Jul_newTES_manzoni_Up_Jobs/Job_56/LSFJOB_441358376/STDOUT.gz'
p1835
sg401
S'DY4JetsToLL_M-50_TuneZ2Star_8TeV-madgraph/Summer12_DR53X-PU_S10_START53_V7A-v1/AODSIM/V5_B/PAT_CMG_V5_16_0_1377544840/HTT_24Jul_newTES_manzoni_Up_Jobs/Job_57/LSFJOB_441358391/STDOUT.gz'
p1836
sg402
S'DY4JetsToLL_M-50_TuneZ2Star_8TeV-madgraph/Summer12_DR53X-PU_S10_START53_V7A-v1/AODSIM/V5_B/PAT_CMG_V5_16_0_1377544840/HTT_24Jul_newTES_manzoni_Up_Jobs/Job_50/LSFJOB_441358314/STDOUT.gz'
p1837
sg403
S'DY4JetsToLL_M-50_TuneZ2Star_8TeV-madgraph/Summer12_DR53X-PU_S10_START53_V7A-v1/AODSIM/V5_B/PAT_CMG_V5_16_0_1377544840/HTT_24Jul_newTES_manzoni_Up_Jobs/Job_51/LSFJOB_441358322/STDOUT.gz'
p1838
sg404
S'DY4JetsToLL_M-50_TuneZ2Star_8TeV-madgraph/Summer12_DR53X-PU_S10_START53_V7A-v1/AODSIM/V5_B/PAT_CMG_V5_16_0_1377544840/HTT_24Jul_newTES_manzoni_Up_Jobs/Job_52/LSFJOB_441358337/STDOUT.gz'
p1839
sg405
S'DY4JetsToLL_M-50_TuneZ2Star_8TeV-madgraph/Summer12_DR53X-PU_S10_START53_V7A-v1/AODSIM/V5_B/PAT_CMG_V5_16_0_1377544840/HTT_24Jul_newTES_manzoni_Up_Jobs/Job_53/LSFJOB_441358344/STDOUT.gz'
p1840
sg406
S'DY4JetsToLL_M-50_TuneZ2Star_8TeV-madgraph/Summer12_DR53X-PU_S10_START53_V7A-v1/AODSIM/V5_B/PAT_CMG_V5_16_0_1377544840/HTT_24Jul_newTES_manzoni_Up_Jobs/Job_58/LSFJOB_441358404/STDOUT.gz'
p1841
sg407
S'DY4JetsToLL_M-50_TuneZ2Star_8TeV-madgraph/Summer12_DR53X-PU_S10_START53_V7A-v1/AODSIM/V5_B/PAT_CMG_V5_16_0_1377544840/HTT_24Jul_newTES_manzoni_Up_Jobs/Job_59/LSFJOB_441358417/STDOUT.gz'
p1842
sg408
S'DY4JetsToLL_M-50_TuneZ2Star_8TeV-madgraph/Summer12_DR53X-PU_S10_START53_V7A-v1/AODSIM/V5_B/PAT_CMG_V5_16_0_1377544840/HTT_24Jul_newTES_manzoni_Up_Jobs/Job_112/LSFJOB_441359042/STDOUT.gz'
p1843
sg409
S'DY4JetsToLL_M-50_TuneZ2Star_8TeV-madgraph/Summer12_DR53X-PU_S10_START53_V7A-v1/AODSIM/V5_B/PAT_CMG_V5_16_0_1377544840/HTT_24Jul_newTES_manzoni_Up_Jobs/Job_113/LSFJOB_441359054/STDOUT.gz'
p1844
sg410
S'DY4JetsToLL_M-50_TuneZ2Star_8TeV-madgraph/Summer12_DR53X-PU_S10_START53_V7A-v1/AODSIM/V5_B/PAT_CMG_V5_16_0_1377544840/HTT_24Jul_newTES_manzoni_Up_Jobs/Job_110/LSFJOB_441359012/STDOUT.gz'
p1845
sg411
S'DY4JetsToLL_M-50_TuneZ2Star_8TeV-madgraph/Summer12_DR53X-PU_S10_START53_V7A-v1/AODSIM/V5_B/PAT_CMG_V5_16_0_1377544840/HTT_24Jul_newTES_manzoni_Up_Jobs/Job_111/LSFJOB_441359027/STDOUT.gz'
p1846
sg412
S'DY4JetsToLL_M-50_TuneZ2Star_8TeV-madgraph/Summer12_DR53X-PU_S10_START53_V7A-v1/AODSIM/V5_B/PAT_CMG_V5_16_0_1377544840/HTT_24Jul_newTES_manzoni_Up_Jobs/Job_116/LSFJOB_441359094/STDOUT.gz'
p1847
sg413
S'DY4JetsToLL_M-50_TuneZ2Star_8TeV-madgraph/Summer12_DR53X-PU_S10_START53_V7A-v1/AODSIM/V5_B/PAT_CMG_V5_16_0_1377544840/HTT_24Jul_newTES_manzoni_Up_Jobs/Job_117/LSFJOB_441359112/STDOUT.gz'
p1848
sg414
S'DY4JetsToLL_M-50_TuneZ2Star_8TeV-madgraph/Summer12_DR53X-PU_S10_START53_V7A-v1/AODSIM/V5_B/PAT_CMG_V5_16_0_1377544840/HTT_24Jul_newTES_manzoni_Up_Jobs/Job_114/LSFJOB_441359071/STDOUT.gz'
p1849
sg415
S'DY4JetsToLL_M-50_TuneZ2Star_8TeV-madgraph/Summer12_DR53X-PU_S10_START53_V7A-v1/AODSIM/V5_B/PAT_CMG_V5_16_0_1377544840/HTT_24Jul_newTES_manzoni_Up_Jobs/Job_115/LSFJOB_441359084/STDOUT.gz'
p1850
sg416
S'DY4JetsToLL_M-50_TuneZ2Star_8TeV-madgraph/Summer12_DR53X-PU_S10_START53_V7A-v1/AODSIM/V5_B/PAT_CMG_V5_16_0_1377544840/HTT_24Jul_newTES_manzoni_Up_Jobs/Job_118/LSFJOB_441359126/STDOUT.gz'
p1851
sg417
S'DY4JetsToLL_M-50_TuneZ2Star_8TeV-madgraph/Summer12_DR53X-PU_S10_START53_V7A-v1/AODSIM/V5_B/PAT_CMG_V5_16_0_1377544840/HTT_24Jul_newTES_manzoni_Up_Jobs/Job_119/LSFJOB_441359136/STDOUT.gz'
p1852
sg418
S'DY4JetsToLL_M-50_TuneZ2Star_8TeV-madgraph/Summer12_DR53X-PU_S10_START53_V7A-v1/AODSIM/V5_B/PAT_CMG_V5_16_0_1377544840/HTT_24Jul_newTES_manzoni_Up_Jobs/Job_21/LSFJOB_441357884/STDOUT.gz'
p1853
sg419
S'DY4JetsToLL_M-50_TuneZ2Star_8TeV-madgraph/Summer12_DR53X-PU_S10_START53_V7A-v1/AODSIM/V5_B/PAT_CMG_V5_16_0_1377544840/HTT_24Jul_newTES_manzoni_Up_Jobs/Job_20/LSFJOB_441357876/STDOUT.gz'
p1854
sg420
S'DY4JetsToLL_M-50_TuneZ2Star_8TeV-madgraph/Summer12_DR53X-PU_S10_START53_V7A-v1/AODSIM/V5_B/PAT_CMG_V5_16_0_1377544840/HTT_24Jul_newTES_manzoni_Up_Jobs/Job_23/LSFJOB_441357915/STDOUT.gz'
p1855
sg421
S'DY4JetsToLL_M-50_TuneZ2Star_8TeV-madgraph/Summer12_DR53X-PU_S10_START53_V7A-v1/AODSIM/V5_B/PAT_CMG_V5_16_0_1377544840/HTT_24Jul_newTES_manzoni_Up_Jobs/Job_22/LSFJOB_441357899/STDOUT.gz'
p1856
sg422
S'DY4JetsToLL_M-50_TuneZ2Star_8TeV-madgraph/Summer12_DR53X-PU_S10_START53_V7A-v1/AODSIM/V5_B/PAT_CMG_V5_16_0_1377544840/HTT_24Jul_newTES_manzoni_Up_Jobs/Job_25/LSFJOB_441357948/STDOUT.gz'
p1857
sg423
S'DY4JetsToLL_M-50_TuneZ2Star_8TeV-madgraph/Summer12_DR53X-PU_S10_START53_V7A-v1/AODSIM/V5_B/PAT_CMG_V5_16_0_1377544840/HTT_24Jul_newTES_manzoni_Up_Jobs/Job_24/LSFJOB_441357931/STDOUT.gz'
p1858
sg424
S'DY4JetsToLL_M-50_TuneZ2Star_8TeV-madgraph/Summer12_DR53X-PU_S10_START53_V7A-v1/AODSIM/V5_B/PAT_CMG_V5_16_0_1377544840/HTT_24Jul_newTES_manzoni_Up_Jobs/Job_27/LSFJOB_441357981/STDOUT.gz'
p1859
sg425
S'DY4JetsToLL_M-50_TuneZ2Star_8TeV-madgraph/Summer12_DR53X-PU_S10_START53_V7A-v1/AODSIM/V5_B/PAT_CMG_V5_16_0_1377544840/HTT_24Jul_newTES_manzoni_Up_Jobs/Job_26/LSFJOB_441357964/STDOUT.gz'
p1860
sg426
S'DY4JetsToLL_M-50_TuneZ2Star_8TeV-madgraph/Summer12_DR53X-PU_S10_START53_V7A-v1/AODSIM/V5_B/PAT_CMG_V5_16_0_1377544840/HTT_24Jul_newTES_manzoni_Up_Jobs/Job_29/LSFJOB_441358014/STDOUT.gz'
p1861
sg427
S'DY4JetsToLL_M-50_TuneZ2Star_8TeV-madgraph/Summer12_DR53X-PU_S10_START53_V7A-v1/AODSIM/V5_B/PAT_CMG_V5_16_0_1377544840/HTT_24Jul_newTES_manzoni_Up_Jobs/Job_28/LSFJOB_441357994/STDOUT.gz'
p1862
ssS'LSFJobIDs'
p1863
(dp1864
g302
S'441358625'
p1865
sg303
S'441358637'
p1866
sg304
S'441358606'
p1867
sg305
S'441358616'
p1868
sg306
S'441358588'
p1869
sg307
S'441358597'
p1870
sg308
S'441358568'
p1871
sg309
S'441358580'
p1872
sg310
S'441358544'
p1873
sg311
S'441358554'
p1874
sg312
S'441357672'
p1875
sg313
S'441357686'
p1876
sg314
S'441357577'
p1877
sg315
S'441357589'
p1878
sg316
S'441357563'
p1879
sg317
S'441357640'
p1880
sg318
S'441357657'
p1881
sg319
S'441357607'
p1882
sg320
S'441357622'
p1883
sg321
S'441358306'
p1884
sg322
S'441358296'
p1885
sg323
S'441358239'
p1886
sg324
S'441358223'
p1887
sg325
S'441358208'
p1888
sg326
S'441358192'
p1889
sg327
S'441358286'
p1890
sg328
S'441358278'
p1891
sg329
S'441358265'
p1892
sg330
S'441358253'
p1893
sg331
S'441358760'
p1894
sg332
S'441358768'
p1895
sg333
S'441358776'
p1896
sg334
S'441358788'
p1897
sg335
S'441358797'
p1898
sg336
S'441358805'
p1899
sg337
S'441358813'
p1900
sg338
S'441358825'
p1901
sg339
S'441358839'
p1902
sg340
S'441358853'
p1903
sg341
S'441359172'
p1904
sg342
S'441359160'
p1905
sg343
S'441359152'
p1906
sg344
S'441359145'
p1907
sg345
S'441359206'
p1908
sg346
S'441359192'
p1909
sg347
S'441359179'
p1910
sg348
S'441357852'
p1911
sg349
S'441357862'
p1912
sg350
S'441357707'
p1913
sg351
S'441357730'
p1914
sg352
S'441357752'
p1915
sg353
S'441357772'
p1916
sg354
S'441357787'
p1917
sg355
S'441357804'
p1918
sg356
S'441357821'
p1919
sg357
S'441357836'
p1920
sg358
S'441358529'
p1921
sg359
S'441358516'
p1922
sg360
S'441358480'
p1923
sg361
S'441358471'
p1924
sg362
S'441358500'
p1925
sg363
S'441358489'
p1926
sg364
S'441358442'
p1927
sg365
S'441358430'
p1928
sg366
S'441358461'
p1929
sg367
S'441358452'
p1930
sg368
S'441358880'
p1931
sg369
S'441358866'
p1932
sg370
S'441358901'
p1933
sg371
S'441358891'
p1934
sg372
S'441358920'
p1935
sg373
S'441358912'
p1936
sg374
S'441358957'
p1937
sg375
S'441358936'
p1938
sg376
S'441358989'
p1939
sg377
S'441358972'
p1940
sg378
S'441358049'
p1941
sg379
S'441358065'
p1942
sg380
S'441358024'
p1943
sg381
S'441358036'
p1944
sg382
S'441358126'
p1945
sg383
S'441358146'
p1946
sg384
S'441358082'
p1947
sg385
S'441358098'
p1948
sg386
S'441358162'
p1949
sg387
S'441358178'
p1950
sg388
S'441358732'
p1951
sg389
S'441358722'
p1952
sg390
S'441358706'
p1953
sg391
S'441358690'
p1954
sg392
S'441358680'
p1955
sg393
S'441358668'
p1956
sg394
S'441358656'
p1957
sg395
S'441358646'
p1958
sg396
S'441358751'
p1959
sg397
S'441358740'
p1960
sg398
S'441358353'
p1961
sg399
S'441358364'
p1962
sg400
S'441358376'
p1963
sg401
S'441358391'
p1964
sg402
S'441358314'
p1965
sg403
S'441358322'
p1966
sg404
S'441358337'
p1967
sg405
S'441358344'
p1968
sg406
S'441358404'
p1969
sg407
S'441358417'
p1970
sg408
S'441359042'
p1971
sg409
S'441359054'
p1972
sg410
S'441359012'
p1973
sg411
S'441359027'
p1974
sg412
S'441359094'
p1975
sg413
S'441359112'
p1976
sg414
S'441359071'
p1977
sg415
S'441359084'
p1978
sg416
S'441359126'
p1979
sg417
S'441359136'
p1980
sg418
S'441357884'
p1981
sg419
S'441357876'
p1982
sg420
S'441357915'
p1983
sg421
S'441357899'
p1984
sg422
S'441357948'
p1985
sg423
S'441357931'
p1986
sg424
S'441357981'
p1987
sg425
S'441357964'
p1988
sg426
S'441358014'
p1989
sg427
S'441357994'
p1990
sssS'FindOnCastor'
p1991
(dp1992
g261
S'/eos/cms/store/cmst3/user/cmgtools/CMG'
p1993
sS'Directory'
p1994
S'/eos/cms/store/cmst3/user/cmgtools/CMG/DY4JetsToLL_M-50_TuneZ2Star_8TeV-madgraph/Summer12_DR53X-PU_S10_START53_V7A-v1/AODSIM/V5_B/PAT_CMG_V5_16_0'
p1995
ssS'CheckConfig'
p1996
(dp1997
g277
g278
ssS'FullCFG'
p1998
(dp1999
S'FullCFG'
p2000
S'DY4JetsToLL_M-50_TuneZ2Star_8TeV-madgraph/Summer12_DR53X-PU_S10_START53_V7A-v1/AODSIM/V5_B/PAT_CMG_V5_16_0_1377544840/full_cfg.py'
p2001
ssS'WriteJobReport'
p2002
(dp2003
S'SummaryFile'
p2004
S'DY4JetsToLL_M-50_TuneZ2Star_8TeV-madgraph/Summer12_DR53X-PU_S10_START53_V7A-v1/AODSIM/V5_B/PAT_CMG_V5_16_0_1377544840/resubmit.sh'
p2005
ssS'ExpandConfig'
p2006
(dp2007
S'ExpandedFullCFG'
p2008
S'DY4JetsToLL_M-50_TuneZ2Star_8TeV-madgraph/Summer12_DR53X-PU_S10_START53_V7A-v1/AODSIM/V5_B/PAT_CMG_V5_16_0_1377544840/Expandedfull_cfg.py'
p2009
ssS'RunTestEvents'
p2010
(dp2011
g277
g278
sS'TestCFG'
p2012
S'DY4JetsToLL_M-50_TuneZ2Star_8TeV-madgraph/Summer12_DR53X-PU_S10_START53_V7A-v1/AODSIM/V5_B/PAT_CMG_V5_16_0_1377544840/test_cfg.py'
p2013
ssS'SourceCFG'
p2014
(dp2015
S'SourceCFG'
p2016
S'DY4JetsToLL_M-50_TuneZ2Star_8TeV-madgraph/Summer12_DR53X-PU_S10_START53_V7A-v1/AODSIM/V5_B/PAT_CMG_V5_16_0_1377544840/source_cfg.py'
p2017
ssS'CheckForWrite'
p2018
(dp2019
g1994
g1995
sS'WriteAccess'
p2020
I01
ssS'WriteToDatasets'
p2021
(dp2022
S'Added'
p2023
I00
sg259
S'/DY4JetsToLL_M-50_TuneZ2Star_8TeV-madgraph/Summer12_DR53X-PU_S10_START53_V7A-v1/AODSIM/V5_B/PAT_CMG_V5_16_0/HTT_24Jul_newTES_manzoni_Up'
p2024
sS'User'
p2025
g292
ssS'RunCMSBatch'
p2026
(dp2027
S'BatchUser'
p2028
g292
sS'SampleOutputDir'
p2029
S'/store/cmst3/user/manzoni/CMG/DY4JetsToLL_M-50_TuneZ2Star_8TeV-madgraph/Summer12_DR53X-PU_S10_START53_V7A-v1/AODSIM/V5_B/PAT_CMG_V5_16_0/HTT_24Jul_newTES_manzoni_Up'
p2030
sS'SampleDataset'
p2031
g260
sS'LSFJobsTopDir'
p2032
S'DY4JetsToLL_M-50_TuneZ2Star_8TeV-madgraph/Summer12_DR53X-PU_S10_START53_V7A-v1/AODSIM/V5_B/PAT_CMG_V5_16_0_1377544840/HTT_24Jul_newTES_manzoni_Up_Jobs'
p2033
ssS'CreateJobDirectory'
p2034
(dp2035
S'JobDir'
p2036
S'DY4JetsToLL_M-50_TuneZ2Star_8TeV-madgraph/Summer12_DR53X-PU_S10_START53_V7A-v1/AODSIM/V5_B/PAT_CMG_V5_16_0_1377544840'
p2037
sS'PWD'
p2038
S'/afs/cern.ch/user/m/manzoni/summer13/CMGTools/CMSSW_5_3_9/src/CMGTools/H2TauTau/prod/25aug_corrMC/up/mc'
p2039
ssS'CleanJobFiles'
p2040
(dp2041
S'Compressed'
p2042
(dp2043
S'CompressedFiles'
p2044
(lp2045
ssS'Cleaned'
p2046
(dp2047
S'CleanedFiles'
p2048
(lp2049
g2009
ag2013
aS'DY4JetsToLL_M-50_TuneZ2Star_8TeV-madgraph/Summer12_DR53X-PU_S10_START53_V7A-v1/AODSIM/V5_B/PAT_CMG_V5_16_0_1377544840/diTau_fullsel_tree_CMG.root'
p2050
aS'DY4JetsToLL_M-50_TuneZ2Star_8TeV-madgraph/Summer12_DR53X-PU_S10_START53_V7A-v1/AODSIM/V5_B/PAT_CMG_V5_16_0_1377544840/source_cfg.pyc'
p2051
aS'DY4JetsToLL_M-50_TuneZ2Star_8TeV-madgraph/Summer12_DR53X-PU_S10_START53_V7A-v1/AODSIM/V5_B/PAT_CMG_V5_16_0_1377544840/Expandedfull_cfg.pyc'
p2052
asssS'CheckForMask'
p2053
(dp2054
g3
g434
sg299
I01
ss.