(dp0
S'CheckJobStatus'
p1
(dp2
S'Report'
p3
(dp4
S'Files'
p5
(dp6
S'/store/cmst3/user/manzoni/CMG/GluGluToHToTauTau_M-150_8TeV-powheg-pythia6/Summer12_DR53X-PU_S10_START53_V7A-v1/AODSIM/PAT_CMG_V5_16_0/HTT_24Jul_newTES_manzoni_Up/diTau_fullsel_tree_CMG_17.root'
p7
(I01
I2381
tp8
sS'/store/cmst3/user/manzoni/CMG/GluGluToHToTauTau_M-150_8TeV-powheg-pythia6/Summer12_DR53X-PU_S10_START53_V7A-v1/AODSIM/PAT_CMG_V5_16_0/HTT_24Jul_newTES_manzoni_Up/diTau_fullsel_tree_CMG_12.root'
p9
(I01
I2225
tp10
sS'/store/cmst3/user/manzoni/CMG/GluGluToHToTauTau_M-150_8TeV-powheg-pythia6/Summer12_DR53X-PU_S10_START53_V7A-v1/AODSIM/PAT_CMG_V5_16_0/HTT_24Jul_newTES_manzoni_Up/diTau_fullsel_tree_CMG_6.root'
p11
(I01
I2316
tp12
sS'/store/cmst3/user/manzoni/CMG/GluGluToHToTauTau_M-150_8TeV-powheg-pythia6/Summer12_DR53X-PU_S10_START53_V7A-v1/AODSIM/PAT_CMG_V5_16_0/HTT_24Jul_newTES_manzoni_Up/diTau_fullsel_tree_CMG_7.root'
p13
(I01
I2325
tp14
sS'/store/cmst3/user/manzoni/CMG/GluGluToHToTauTau_M-150_8TeV-powheg-pythia6/Summer12_DR53X-PU_S10_START53_V7A-v1/AODSIM/PAT_CMG_V5_16_0/HTT_24Jul_newTES_manzoni_Up/diTau_fullsel_tree_CMG_5.root'
p15
(I01
I2362
tp16
sS'/store/cmst3/user/manzoni/CMG/GluGluToHToTauTau_M-150_8TeV-powheg-pythia6/Summer12_DR53X-PU_S10_START53_V7A-v1/AODSIM/PAT_CMG_V5_16_0/HTT_24Jul_newTES_manzoni_Up/diTau_fullsel_tree_CMG_13.root'
p17
(I01
I2263
tp18
sS'/store/cmst3/user/manzoni/CMG/GluGluToHToTauTau_M-150_8TeV-powheg-pythia6/Summer12_DR53X-PU_S10_START53_V7A-v1/AODSIM/PAT_CMG_V5_16_0/HTT_24Jul_newTES_manzoni_Up/diTau_fullsel_tree_CMG_2.root'
p19
(I01
I2280
tp20
sS'/store/cmst3/user/manzoni/CMG/GluGluToHToTauTau_M-150_8TeV-powheg-pythia6/Summer12_DR53X-PU_S10_START53_V7A-v1/AODSIM/PAT_CMG_V5_16_0/HTT_24Jul_newTES_manzoni_Up/diTau_fullsel_tree_CMG_20.root'
p21
(I01
I2286
tp22
sS'/store/cmst3/user/manzoni/CMG/GluGluToHToTauTau_M-150_8TeV-powheg-pythia6/Summer12_DR53X-PU_S10_START53_V7A-v1/AODSIM/PAT_CMG_V5_16_0/HTT_24Jul_newTES_manzoni_Up/diTau_fullsel_tree_CMG_18.root'
p23
(I01
I2290
tp24
sS'/store/cmst3/user/manzoni/CMG/GluGluToHToTauTau_M-150_8TeV-powheg-pythia6/Summer12_DR53X-PU_S10_START53_V7A-v1/AODSIM/PAT_CMG_V5_16_0/HTT_24Jul_newTES_manzoni_Up/diTau_fullsel_tree_CMG_15.root'
p25
(I01
I2411
tp26
sS'/store/cmst3/user/manzoni/CMG/GluGluToHToTauTau_M-150_8TeV-powheg-pythia6/Summer12_DR53X-PU_S10_START53_V7A-v1/AODSIM/PAT_CMG_V5_16_0/HTT_24Jul_newTES_manzoni_Up/diTau_fullsel_tree_CMG_9.root'
p27
(I01
I2345
tp28
sS'/store/cmst3/user/manzoni/CMG/GluGluToHToTauTau_M-150_8TeV-powheg-pythia6/Summer12_DR53X-PU_S10_START53_V7A-v1/AODSIM/PAT_CMG_V5_16_0/HTT_24Jul_newTES_manzoni_Up/diTau_fullsel_tree_CMG_11.root'
p29
(I01
I2311
tp30
sS'/store/cmst3/user/manzoni/CMG/GluGluToHToTauTau_M-150_8TeV-powheg-pythia6/Summer12_DR53X-PU_S10_START53_V7A-v1/AODSIM/PAT_CMG_V5_16_0/HTT_24Jul_newTES_manzoni_Up/diTau_fullsel_tree_CMG_16.root'
p31
(I01
I2315
tp32
sS'/store/cmst3/user/manzoni/CMG/GluGluToHToTauTau_M-150_8TeV-powheg-pythia6/Summer12_DR53X-PU_S10_START53_V7A-v1/AODSIM/PAT_CMG_V5_16_0/HTT_24Jul_newTES_manzoni_Up/diTau_fullsel_tree_CMG_10.root'
p33
(I01
I2136
tp34
sS'/store/cmst3/user/manzoni/CMG/GluGluToHToTauTau_M-150_8TeV-powheg-pythia6/Summer12_DR53X-PU_S10_START53_V7A-v1/AODSIM/PAT_CMG_V5_16_0/HTT_24Jul_newTES_manzoni_Up/diTau_fullsel_tree_CMG_14.root'
p35
(I01
I2436
tp36
sS'/store/cmst3/user/manzoni/CMG/GluGluToHToTauTau_M-150_8TeV-powheg-pythia6/Summer12_DR53X-PU_S10_START53_V7A-v1/AODSIM/PAT_CMG_V5_16_0/HTT_24Jul_newTES_manzoni_Up/diTau_fullsel_tree_CMG_3.root'
p37
(I01
I2257
tp38
sS'/store/cmst3/user/manzoni/CMG/GluGluToHToTauTau_M-150_8TeV-powheg-pythia6/Summer12_DR53X-PU_S10_START53_V7A-v1/AODSIM/PAT_CMG_V5_16_0/HTT_24Jul_newTES_manzoni_Up/diTau_fullsel_tree_CMG_8.root'
p39
(I01
I2351
tp40
sS'/store/cmst3/user/manzoni/CMG/GluGluToHToTauTau_M-150_8TeV-powheg-pythia6/Summer12_DR53X-PU_S10_START53_V7A-v1/AODSIM/PAT_CMG_V5_16_0/HTT_24Jul_newTES_manzoni_Up/diTau_fullsel_tree_CMG_1.root'
p41
(I01
I2231
tp42
sS'/store/cmst3/user/manzoni/CMG/GluGluToHToTauTau_M-150_8TeV-powheg-pythia6/Summer12_DR53X-PU_S10_START53_V7A-v1/AODSIM/PAT_CMG_V5_16_0/HTT_24Jul_newTES_manzoni_Up/diTau_fullsel_tree_CMG_21.root'
p43
(I01
I497
tp44
sS'/store/cmst3/user/manzoni/CMG/GluGluToHToTauTau_M-150_8TeV-powheg-pythia6/Summer12_DR53X-PU_S10_START53_V7A-v1/AODSIM/PAT_CMG_V5_16_0/HTT_24Jul_newTES_manzoni_Up/diTau_fullsel_tree_CMG_19.root'
p45
(I01
I2263
tp46
sS'/store/cmst3/user/manzoni/CMG/GluGluToHToTauTau_M-150_8TeV-powheg-pythia6/Summer12_DR53X-PU_S10_START53_V7A-v1/AODSIM/PAT_CMG_V5_16_0/HTT_24Jul_newTES_manzoni_Up/diTau_fullsel_tree_CMG_4.root'
p47
(I01
I2359
tp48
ssS'Name'
p49
S'/GluGluToHToTauTau_M-150_8TeV-powheg-pythia6/Summer12_DR53X-PU_S10_START53_V7A-v1/AODSIM/PAT_CMG_V5_16_0/HTT_24Jul_newTES_manzoni_Up'
p50
sS'Topdir'
p51
S'/eos/cms/store/cmst3/user/manzoni/CMG'
p52
sS'RunList'
p53
(lp54
sS'PathList'
p55
(lp56
S'/store/cmst3/user/manzoni/CMG/GluGluToHToTauTau_M-150_8TeV-powheg-pythia6/Summer12_DR53X-PU_S10_START53_V7A-v1/AODSIM/PAT_CMG_V5_16_0/HTT_24Jul_newTES_manzoni_Up'
p57
asS'AlgoList'
p58
(lp59
sS'PrimaryDatasetFraction'
p60
F0.046672250525112854
sS'FilesGood'
p61
I21
sS'PrimaryDatasetEntries'
p62
I999309
sS'data'
p63
(dp64
sS'FilesBad'
p65
I0
sS'ReportVersion'
p66
I3
sS'Status'
p67
S'VALID'
p68
sS'MaxRun'
p69
I-1
sS'PhysicsGroup'
p70
S'CMG'
p71
sS'MinRun'
p72
I-1
sS'StageHost'
p73
S'castorcms'
p74
sS'FilesCount'
p75
I21
sS'FilesEntries'
p76
I46640
sS'TierList'
p77
(lp78
sS'DateCreated'
p79
S'1377472702'
p80
sS'CreatedBy'
p81
S'manzoni'
p82
sS'ValidDuplicates'
p83
(dp84
sS'PrimaryDataset'
p85
S'/GluGluToHToTauTau_M-150_8TeV-powheg-pythia6/Summer12_DR53X-PU_S10_START53_V7A-v1/AODSIM'
p86
sS'BadJobs'
p87
(lp88
ssS'MaskPresent'
p89
I01
sS'LSFJobStatusCheck'
p90
(dp91
S'GluGluToHToTauTau_M-150_8TeV-powheg-pythia6/Summer12_DR53X-PU_S10_START53_V7A-v1/AODSIM/PAT_CMG_V5_16_0_1377467569/HTT_24Jul_newTES_manzoni_Up_Jobs/Job_13'
p92
g68
sS'GluGluToHToTauTau_M-150_8TeV-powheg-pythia6/Summer12_DR53X-PU_S10_START53_V7A-v1/AODSIM/PAT_CMG_V5_16_0_1377467569/HTT_24Jul_newTES_manzoni_Up_Jobs/Job_8'
p93
g68
sS'GluGluToHToTauTau_M-150_8TeV-powheg-pythia6/Summer12_DR53X-PU_S10_START53_V7A-v1/AODSIM/PAT_CMG_V5_16_0_1377467569/HTT_24Jul_newTES_manzoni_Up_Jobs/Job_9'
p94
g68
sS'GluGluToHToTauTau_M-150_8TeV-powheg-pythia6/Summer12_DR53X-PU_S10_START53_V7A-v1/AODSIM/PAT_CMG_V5_16_0_1377467569/HTT_24Jul_newTES_manzoni_Up_Jobs/Job_4'
p95
g68
sS'GluGluToHToTauTau_M-150_8TeV-powheg-pythia6/Summer12_DR53X-PU_S10_START53_V7A-v1/AODSIM/PAT_CMG_V5_16_0_1377467569/HTT_24Jul_newTES_manzoni_Up_Jobs/Job_5'
p96
g68
sS'GluGluToHToTauTau_M-150_8TeV-powheg-pythia6/Summer12_DR53X-PU_S10_START53_V7A-v1/AODSIM/PAT_CMG_V5_16_0_1377467569/HTT_24Jul_newTES_manzoni_Up_Jobs/Job_6'
p97
g68
sS'GluGluToHToTauTau_M-150_8TeV-powheg-pythia6/Summer12_DR53X-PU_S10_START53_V7A-v1/AODSIM/PAT_CMG_V5_16_0_1377467569/HTT_24Jul_newTES_manzoni_Up_Jobs/Job_7'
p98
g68
sS'GluGluToHToTauTau_M-150_8TeV-powheg-pythia6/Summer12_DR53X-PU_S10_START53_V7A-v1/AODSIM/PAT_CMG_V5_16_0_1377467569/HTT_24Jul_newTES_manzoni_Up_Jobs/Job_1'
p99
g68
sS'GluGluToHToTauTau_M-150_8TeV-powheg-pythia6/Summer12_DR53X-PU_S10_START53_V7A-v1/AODSIM/PAT_CMG_V5_16_0_1377467569/HTT_24Jul_newTES_manzoni_Up_Jobs/Job_21'
p100
g68
sS'GluGluToHToTauTau_M-150_8TeV-powheg-pythia6/Summer12_DR53X-PU_S10_START53_V7A-v1/AODSIM/PAT_CMG_V5_16_0_1377467569/HTT_24Jul_newTES_manzoni_Up_Jobs/Job_3'
p101
g68
sS'GluGluToHToTauTau_M-150_8TeV-powheg-pythia6/Summer12_DR53X-PU_S10_START53_V7A-v1/AODSIM/PAT_CMG_V5_16_0_1377467569/HTT_24Jul_newTES_manzoni_Up_Jobs/Job_16'
p102
g68
sS'GluGluToHToTauTau_M-150_8TeV-powheg-pythia6/Summer12_DR53X-PU_S10_START53_V7A-v1/AODSIM/PAT_CMG_V5_16_0_1377467569/HTT_24Jul_newTES_manzoni_Up_Jobs/Job_17'
p103
g68
sS'GluGluToHToTauTau_M-150_8TeV-powheg-pythia6/Summer12_DR53X-PU_S10_START53_V7A-v1/AODSIM/PAT_CMG_V5_16_0_1377467569/HTT_24Jul_newTES_manzoni_Up_Jobs/Job_14'
p104
g68
sS'GluGluToHToTauTau_M-150_8TeV-powheg-pythia6/Summer12_DR53X-PU_S10_START53_V7A-v1/AODSIM/PAT_CMG_V5_16_0_1377467569/HTT_24Jul_newTES_manzoni_Up_Jobs/Job_15'
p105
g68
sS'GluGluToHToTauTau_M-150_8TeV-powheg-pythia6/Summer12_DR53X-PU_S10_START53_V7A-v1/AODSIM/PAT_CMG_V5_16_0_1377467569/HTT_24Jul_newTES_manzoni_Up_Jobs/Job_12'
p106
g68
sS'GluGluToHToTauTau_M-150_8TeV-powheg-pythia6/Summer12_DR53X-PU_S10_START53_V7A-v1/AODSIM/PAT_CMG_V5_16_0_1377467569/HTT_24Jul_newTES_manzoni_Up_Jobs/Job_2'
p107
g68
sS'GluGluToHToTauTau_M-150_8TeV-powheg-pythia6/Summer12_DR53X-PU_S10_START53_V7A-v1/AODSIM/PAT_CMG_V5_16_0_1377467569/HTT_24Jul_newTES_manzoni_Up_Jobs/Job_10'
p108
g68
sS'GluGluToHToTauTau_M-150_8TeV-powheg-pythia6/Summer12_DR53X-PU_S10_START53_V7A-v1/AODSIM/PAT_CMG_V5_16_0_1377467569/HTT_24Jul_newTES_manzoni_Up_Jobs/Job_11'
p109
g68
sS'GluGluToHToTauTau_M-150_8TeV-powheg-pythia6/Summer12_DR53X-PU_S10_START53_V7A-v1/AODSIM/PAT_CMG_V5_16_0_1377467569/HTT_24Jul_newTES_manzoni_Up_Jobs/Job_20'
p110
g68
sS'GluGluToHToTauTau_M-150_8TeV-powheg-pythia6/Summer12_DR53X-PU_S10_START53_V7A-v1/AODSIM/PAT_CMG_V5_16_0_1377467569/HTT_24Jul_newTES_manzoni_Up_Jobs/Job_18'
p111
g68
sS'GluGluToHToTauTau_M-150_8TeV-powheg-pythia6/Summer12_DR53X-PU_S10_START53_V7A-v1/AODSIM/PAT_CMG_V5_16_0_1377467569/HTT_24Jul_newTES_manzoni_Up_Jobs/Job_19'
p112
g68
sssS'CheckDatasetExists'
p113
(dp114
S'Dataset'
p115
S'/GluGluToHToTauTau_M-150_8TeV-powheg-pythia6/Summer12_DR53X-PU_S10_START53_V7A-v1/AODSIM/PAT_CMG_V5_16_0'
p116
ssS'GenerateMask'
p117
(dp118
g3
(dp119
VPathList
p120
(lp121
V/store/cmst3/group/cmgtools/CMG/GluGluToHToTauTau_M-125_8TeV-powheg-pythia6/Summer12_DR53X-PU_S10_START53_V7A-v1/AODSIM/PAT_CMG_V5_16_0
p122
asVStageHost
p123
Vcastorcms
p124
sVPrimaryDatasetFraction
p125
F1.0
sVFilesGood
p126
I99
sVPrimaryDatasetEntries
p127
I968134
sVReportVersion
p128
I3
sVFiles
p129
(dp130
V/store/cmst3/group/cmgtools/CMG/GluGluToHToTauTau_M-125_8TeV-powheg-pythia6/Summer12_DR53X-PU_S10_START53_V7A-v1/AODSIM/PAT_CMG_V5_16_0/cmgTuple_61_2_qxI.root
p131
(lp132
I01
aI10000
asV/store/cmst3/group/cmgtools/CMG/GluGluToHToTauTau_M-125_8TeV-powheg-pythia6/Summer12_DR53X-PU_S10_START53_V7A-v1/AODSIM/PAT_CMG_V5_16_0/cmgTuple_28_1_zgR.root
p133
(lp134
I01
aI10000
asV/store/cmst3/group/cmgtools/CMG/GluGluToHToTauTau_M-125_8TeV-powheg-pythia6/Summer12_DR53X-PU_S10_START53_V7A-v1/AODSIM/PAT_CMG_V5_16_0/cmgTuple_27_1_hDe.root
p135
(lp136
I01
aI10000
asV/store/cmst3/group/cmgtools/CMG/GluGluToHToTauTau_M-125_8TeV-powheg-pythia6/Summer12_DR53X-PU_S10_START53_V7A-v1/AODSIM/PAT_CMG_V5_16_0/cmgTuple_98_1_Az7.root
p137
(lp138
I01
aI4592
asV/store/cmst3/group/cmgtools/CMG/GluGluToHToTauTau_M-125_8TeV-powheg-pythia6/Summer12_DR53X-PU_S10_START53_V7A-v1/AODSIM/PAT_CMG_V5_16_0/cmgTuple_22_1_Oo5.root
p139
(lp140
I01
aI10000
asV/store/cmst3/group/cmgtools/CMG/GluGluToHToTauTau_M-125_8TeV-powheg-pythia6/Summer12_DR53X-PU_S10_START53_V7A-v1/AODSIM/PAT_CMG_V5_16_0/cmgTuple_41_1_sWr.root
p141
(lp142
I01
aI10000
asV/store/cmst3/group/cmgtools/CMG/GluGluToHToTauTau_M-125_8TeV-powheg-pythia6/Summer12_DR53X-PU_S10_START53_V7A-v1/AODSIM/PAT_CMG_V5_16_0/cmgTuple_54_1_rtj.root
p143
(lp144
I01
aI10000
asV/store/cmst3/group/cmgtools/CMG/GluGluToHToTauTau_M-125_8TeV-powheg-pythia6/Summer12_DR53X-PU_S10_START53_V7A-v1/AODSIM/PAT_CMG_V5_16_0/cmgTuple_20_1_dda.root
p145
(lp146
I01
aI10000
asV/store/cmst3/group/cmgtools/CMG/GluGluToHToTauTau_M-125_8TeV-powheg-pythia6/Summer12_DR53X-PU_S10_START53_V7A-v1/AODSIM/PAT_CMG_V5_16_0/cmgTuple_49_1_Qy2.root
p147
(lp148
I01
aI10000
asV/store/cmst3/group/cmgtools/CMG/GluGluToHToTauTau_M-125_8TeV-powheg-pythia6/Summer12_DR53X-PU_S10_START53_V7A-v1/AODSIM/PAT_CMG_V5_16_0/cmgTuple_69_1_eel.root
p149
(lp150
I01
aI10000
asV/store/cmst3/group/cmgtools/CMG/GluGluToHToTauTau_M-125_8TeV-powheg-pythia6/Summer12_DR53X-PU_S10_START53_V7A-v1/AODSIM/PAT_CMG_V5_16_0/cmgTuple_70_1_7M5.root
p151
(lp152
I01
aI10000
asV/store/cmst3/group/cmgtools/CMG/GluGluToHToTauTau_M-125_8TeV-powheg-pythia6/Summer12_DR53X-PU_S10_START53_V7A-v1/AODSIM/PAT_CMG_V5_16_0/cmgTuple_12_1_xnB.root
p153
(lp154
I01
aI10000
asV/store/cmst3/group/cmgtools/CMG/GluGluToHToTauTau_M-125_8TeV-powheg-pythia6/Summer12_DR53X-PU_S10_START53_V7A-v1/AODSIM/PAT_CMG_V5_16_0/cmgTuple_79_1_xqa.root
p155
(lp156
I01
aI10000
asV/store/cmst3/group/cmgtools/CMG/GluGluToHToTauTau_M-125_8TeV-powheg-pythia6/Summer12_DR53X-PU_S10_START53_V7A-v1/AODSIM/PAT_CMG_V5_16_0/cmgTuple_88_1_PSP.root
p157
(lp158
I01
aI10000
asV/store/cmst3/group/cmgtools/CMG/GluGluToHToTauTau_M-125_8TeV-powheg-pythia6/Summer12_DR53X-PU_S10_START53_V7A-v1/AODSIM/PAT_CMG_V5_16_0/cmgTuple_90_1_6Gf.root
p159
(lp160
I01
aI10000
asV/store/cmst3/group/cmgtools/CMG/GluGluToHToTauTau_M-125_8TeV-powheg-pythia6/Summer12_DR53X-PU_S10_START53_V7A-v1/AODSIM/PAT_CMG_V5_16_0/cmgTuple_51_1_GgA.root
p161
(lp162
I01
aI10000
asV/store/cmst3/group/cmgtools/CMG/GluGluToHToTauTau_M-125_8TeV-powheg-pythia6/Summer12_DR53X-PU_S10_START53_V7A-v1/AODSIM/PAT_CMG_V5_16_0/cmgTuple_19_1_HVl.root
p163
(lp164
I01
aI10000
asV/store/cmst3/group/cmgtools/CMG/GluGluToHToTauTau_M-125_8TeV-powheg-pythia6/Summer12_DR53X-PU_S10_START53_V7A-v1/AODSIM/PAT_CMG_V5_16_0/cmgTuple_80_1_avg.root
p165
(lp166
I01
aI10000
asV/store/cmst3/group/cmgtools/CMG/GluGluToHToTauTau_M-125_8TeV-powheg-pythia6/Summer12_DR53X-PU_S10_START53_V7A-v1/AODSIM/PAT_CMG_V5_16_0/cmgTuple_17_1_jtd.root
p167
(lp168
I01
aI10000
asV/store/cmst3/group/cmgtools/CMG/GluGluToHToTauTau_M-125_8TeV-powheg-pythia6/Summer12_DR53X-PU_S10_START53_V7A-v1/AODSIM/PAT_CMG_V5_16_0/cmgTuple_97_1_W8P.root
p169
(lp170
I01
aI10000
asV/store/cmst3/group/cmgtools/CMG/GluGluToHToTauTau_M-125_8TeV-powheg-pythia6/Summer12_DR53X-PU_S10_START53_V7A-v1/AODSIM/PAT_CMG_V5_16_0/cmgTuple_40_1_mnp.root
p171
(lp172
I01
aI10000
asV/store/cmst3/group/cmgtools/CMG/GluGluToHToTauTau_M-125_8TeV-powheg-pythia6/Summer12_DR53X-PU_S10_START53_V7A-v1/AODSIM/PAT_CMG_V5_16_0/cmgTuple_45_1_Oa3.root
p173
(lp174
I01
aI10000
asV/store/cmst3/group/cmgtools/CMG/GluGluToHToTauTau_M-125_8TeV-powheg-pythia6/Summer12_DR53X-PU_S10_START53_V7A-v1/AODSIM/PAT_CMG_V5_16_0/cmgTuple_74_1_n3w.root
p175
(lp176
I01
aI10000
asV/store/cmst3/group/cmgtools/CMG/GluGluToHToTauTau_M-125_8TeV-powheg-pythia6/Summer12_DR53X-PU_S10_START53_V7A-v1/AODSIM/PAT_CMG_V5_16_0/cmgTuple_65_1_UpW.root
p177
(lp178
I01
aI10000
asV/store/cmst3/group/cmgtools/CMG/GluGluToHToTauTau_M-125_8TeV-powheg-pythia6/Summer12_DR53X-PU_S10_START53_V7A-v1/AODSIM/PAT_CMG_V5_16_0/cmgTuple_81_1_Ses.root
p179
(lp180
I01
aI10000
asV/store/cmst3/group/cmgtools/CMG/GluGluToHToTauTau_M-125_8TeV-powheg-pythia6/Summer12_DR53X-PU_S10_START53_V7A-v1/AODSIM/PAT_CMG_V5_16_0/cmgTuple_26_1_Gi2.root
p181
(lp182
I01
aI10000
asV/store/cmst3/group/cmgtools/CMG/GluGluToHToTauTau_M-125_8TeV-powheg-pythia6/Summer12_DR53X-PU_S10_START53_V7A-v1/AODSIM/PAT_CMG_V5_16_0/cmgTuple_8_1_4EF.root
p183
(lp184
I01
aI10000
asV/store/cmst3/group/cmgtools/CMG/GluGluToHToTauTau_M-125_8TeV-powheg-pythia6/Summer12_DR53X-PU_S10_START53_V7A-v1/AODSIM/PAT_CMG_V5_16_0/cmgTuple_56_1_tlT.root
p185
(lp186
I01
aI10000
asV/store/cmst3/group/cmgtools/CMG/GluGluToHToTauTau_M-125_8TeV-powheg-pythia6/Summer12_DR53X-PU_S10_START53_V7A-v1/AODSIM/PAT_CMG_V5_16_0/cmgTuple_62_1_FA6.root
p187
(lp188
I01
aI10000
asV/store/cmst3/group/cmgtools/CMG/GluGluToHToTauTau_M-125_8TeV-powheg-pythia6/Summer12_DR53X-PU_S10_START53_V7A-v1/AODSIM/PAT_CMG_V5_16_0/cmgTuple_25_1_wEi.root
p189
(lp190
I01
aI10000
asV/store/cmst3/group/cmgtools/CMG/GluGluToHToTauTau_M-125_8TeV-powheg-pythia6/Summer12_DR53X-PU_S10_START53_V7A-v1/AODSIM/PAT_CMG_V5_16_0/cmgTuple_47_1_ntZ.root
p191
(lp192
I01
aI10000
asV/store/cmst3/group/cmgtools/CMG/GluGluToHToTauTau_M-125_8TeV-powheg-pythia6/Summer12_DR53X-PU_S10_START53_V7A-v1/AODSIM/PAT_CMG_V5_16_0/cmgTuple_24_1_pwS.root
p193
(lp194
I01
aI10000
asV/store/cmst3/group/cmgtools/CMG/GluGluToHToTauTau_M-125_8TeV-powheg-pythia6/Summer12_DR53X-PU_S10_START53_V7A-v1/AODSIM/PAT_CMG_V5_16_0/cmgTuple_84_1_MRp.root
p195
(lp196
I01
aI10000
asV/store/cmst3/group/cmgtools/CMG/GluGluToHToTauTau_M-125_8TeV-powheg-pythia6/Summer12_DR53X-PU_S10_START53_V7A-v1/AODSIM/PAT_CMG_V5_16_0/cmgTuple_44_1_16T.root
p197
(lp198
I01
aI10000
asV/store/cmst3/group/cmgtools/CMG/GluGluToHToTauTau_M-125_8TeV-powheg-pythia6/Summer12_DR53X-PU_S10_START53_V7A-v1/AODSIM/PAT_CMG_V5_16_0/cmgTuple_39_1_nT4.root
p199
(lp200
I01
aI10000
asV/store/cmst3/group/cmgtools/CMG/GluGluToHToTauTau_M-125_8TeV-powheg-pythia6/Summer12_DR53X-PU_S10_START53_V7A-v1/AODSIM/PAT_CMG_V5_16_0/cmgTuple_3_1_62K.root
p201
(lp202
I01
aI10000
asV/store/cmst3/group/cmgtools/CMG/GluGluToHToTauTau_M-125_8TeV-powheg-pythia6/Summer12_DR53X-PU_S10_START53_V7A-v1/AODSIM/PAT_CMG_V5_16_0/cmgTuple_35_1_OGL.root
p203
(lp204
I01
aI10000
asV/store/cmst3/group/cmgtools/CMG/GluGluToHToTauTau_M-125_8TeV-powheg-pythia6/Summer12_DR53X-PU_S10_START53_V7A-v1/AODSIM/PAT_CMG_V5_16_0/cmgTuple_42_1_0Uu.root
p205
(lp206
I01
aI10000
asV/store/cmst3/group/cmgtools/CMG/GluGluToHToTauTau_M-125_8TeV-powheg-pythia6/Summer12_DR53X-PU_S10_START53_V7A-v1/AODSIM/PAT_CMG_V5_16_0/cmgTuple_4_1_fCa.root
p207
(lp208
I01
aI10000
asV/store/cmst3/group/cmgtools/CMG/GluGluToHToTauTau_M-125_8TeV-powheg-pythia6/Summer12_DR53X-PU_S10_START53_V7A-v1/AODSIM/PAT_CMG_V5_16_0/cmgTuple_77_1_iV3.root
p209
(lp210
I01
aI10000
asV/store/cmst3/group/cmgtools/CMG/GluGluToHToTauTau_M-125_8TeV-powheg-pythia6/Summer12_DR53X-PU_S10_START53_V7A-v1/AODSIM/PAT_CMG_V5_16_0/cmgTuple_73_1_OCh.root
p211
(lp212
I01
aI10000
asV/store/cmst3/group/cmgtools/CMG/GluGluToHToTauTau_M-125_8TeV-powheg-pythia6/Summer12_DR53X-PU_S10_START53_V7A-v1/AODSIM/PAT_CMG_V5_16_0/cmgTuple_55_1_sx7.root
p213
(lp214
I01
aI10000
asV/store/cmst3/group/cmgtools/CMG/GluGluToHToTauTau_M-125_8TeV-powheg-pythia6/Summer12_DR53X-PU_S10_START53_V7A-v1/AODSIM/PAT_CMG_V5_16_0/cmgTuple_82_1_esk.root
p215
(lp216
I01
aI10000
asV/store/cmst3/group/cmgtools/CMG/GluGluToHToTauTau_M-125_8TeV-powheg-pythia6/Summer12_DR53X-PU_S10_START53_V7A-v1/AODSIM/PAT_CMG_V5_16_0/cmgTuple_57_1_qWp.root
p217
(lp218
I01
aI10000
asV/store/cmst3/group/cmgtools/CMG/GluGluToHToTauTau_M-125_8TeV-powheg-pythia6/Summer12_DR53X-PU_S10_START53_V7A-v1/AODSIM/PAT_CMG_V5_16_0/cmgTuple_48_1_A72.root
p219
(lp220
I01
aI10000
asV/store/cmst3/group/cmgtools/CMG/GluGluToHToTauTau_M-125_8TeV-powheg-pythia6/Summer12_DR53X-PU_S10_START53_V7A-v1/AODSIM/PAT_CMG_V5_16_0/cmgTuple_18_1_zkc.root
p221
(lp222
I01
aI10000
asV/store/cmst3/group/cmgtools/CMG/GluGluToHToTauTau_M-125_8TeV-powheg-pythia6/Summer12_DR53X-PU_S10_START53_V7A-v1/AODSIM/PAT_CMG_V5_16_0/cmgTuple_30_1_boY.root
p223
(lp224
I01
aI10000
asV/store/cmst3/group/cmgtools/CMG/GluGluToHToTauTau_M-125_8TeV-powheg-pythia6/Summer12_DR53X-PU_S10_START53_V7A-v1/AODSIM/PAT_CMG_V5_16_0/cmgTuple_10_1_GJG.root
p225
(lp226
I01
aI10000
asV/store/cmst3/group/cmgtools/CMG/GluGluToHToTauTau_M-125_8TeV-powheg-pythia6/Summer12_DR53X-PU_S10_START53_V7A-v1/AODSIM/PAT_CMG_V5_16_0/cmgTuple_9_1_fiV.root
p227
(lp228
I01
aI10000
asV/store/cmst3/group/cmgtools/CMG/GluGluToHToTauTau_M-125_8TeV-powheg-pythia6/Summer12_DR53X-PU_S10_START53_V7A-v1/AODSIM/PAT_CMG_V5_16_0/cmgTuple_33_1_gUS.root
p229
(lp230
I01
aI10000
asV/store/cmst3/group/cmgtools/CMG/GluGluToHToTauTau_M-125_8TeV-powheg-pythia6/Summer12_DR53X-PU_S10_START53_V7A-v1/AODSIM/PAT_CMG_V5_16_0/cmgTuple_1_1_Cuu.root
p231
(lp232
I01
aI10000
asV/store/cmst3/group/cmgtools/CMG/GluGluToHToTauTau_M-125_8TeV-powheg-pythia6/Summer12_DR53X-PU_S10_START53_V7A-v1/AODSIM/PAT_CMG_V5_16_0/cmgTuple_13_1_Cbr.root
p233
(lp234
I01
aI10000
asV/store/cmst3/group/cmgtools/CMG/GluGluToHToTauTau_M-125_8TeV-powheg-pythia6/Summer12_DR53X-PU_S10_START53_V7A-v1/AODSIM/PAT_CMG_V5_16_0/cmgTuple_37_1_yow.root
p235
(lp236
I01
aI10000
asV/store/cmst3/group/cmgtools/CMG/GluGluToHToTauTau_M-125_8TeV-powheg-pythia6/Summer12_DR53X-PU_S10_START53_V7A-v1/AODSIM/PAT_CMG_V5_16_0/cmgTuple_92_1_CIP.root
p237
(lp238
I01
aI10000
asV/store/cmst3/group/cmgtools/CMG/GluGluToHToTauTau_M-125_8TeV-powheg-pythia6/Summer12_DR53X-PU_S10_START53_V7A-v1/AODSIM/PAT_CMG_V5_16_0/cmgTuple_7_1_wvt.root
p239
(lp240
I01
aI10000
asV/store/cmst3/group/cmgtools/CMG/GluGluToHToTauTau_M-125_8TeV-powheg-pythia6/Summer12_DR53X-PU_S10_START53_V7A-v1/AODSIM/PAT_CMG_V5_16_0/cmgTuple_93_1_juR.root
p241
(lp242
I01
aI10000
asV/store/cmst3/group/cmgtools/CMG/GluGluToHToTauTau_M-125_8TeV-powheg-pythia6/Summer12_DR53X-PU_S10_START53_V7A-v1/AODSIM/PAT_CMG_V5_16_0/cmgTuple_16_2_QWj.root
p243
(lp244
I01
aI10000
asV/store/cmst3/group/cmgtools/CMG/GluGluToHToTauTau_M-125_8TeV-powheg-pythia6/Summer12_DR53X-PU_S10_START53_V7A-v1/AODSIM/PAT_CMG_V5_16_0/cmgTuple_52_1_UMa.root
p245
(lp246
I01
aI10000
asV/store/cmst3/group/cmgtools/CMG/GluGluToHToTauTau_M-125_8TeV-powheg-pythia6/Summer12_DR53X-PU_S10_START53_V7A-v1/AODSIM/PAT_CMG_V5_16_0/cmgTuple_83_1_SO3.root
p247
(lp248
I01
aI10000
asV/store/cmst3/group/cmgtools/CMG/GluGluToHToTauTau_M-125_8TeV-powheg-pythia6/Summer12_DR53X-PU_S10_START53_V7A-v1/AODSIM/PAT_CMG_V5_16_0/cmgTuple_15_1_Ht8.root
p249
(lp250
I01
aI10000
asV/store/cmst3/group/cmgtools/CMG/GluGluToHToTauTau_M-125_8TeV-powheg-pythia6/Summer12_DR53X-PU_S10_START53_V7A-v1/AODSIM/PAT_CMG_V5_16_0/cmgTuple_85_1_ueS.root
p251
(lp252
I01
aI10000
asV/store/cmst3/group/cmgtools/CMG/GluGluToHToTauTau_M-125_8TeV-powheg-pythia6/Summer12_DR53X-PU_S10_START53_V7A-v1/AODSIM/PAT_CMG_V5_16_0/cmgTuple_72_1_b3z.root
p253
(lp254
I01
aI10000
asV/store/cmst3/group/cmgtools/CMG/GluGluToHToTauTau_M-125_8TeV-powheg-pythia6/Summer12_DR53X-PU_S10_START53_V7A-v1/AODSIM/PAT_CMG_V5_16_0/cmgTuple_58_1_4G1.root
p255
(lp256
I01
aI10000
asV/store/cmst3/group/cmgtools/CMG/GluGluToHToTauTau_M-125_8TeV-powheg-pythia6/Summer12_DR53X-PU_S10_START53_V7A-v1/AODSIM/PAT_CMG_V5_16_0/cmgTuple_6_1_f4x.root
p257
(lp258
I01
aI10000
asV/store/cmst3/group/cmgtools/CMG/GluGluToHToTauTau_M-125_8TeV-powheg-pythia6/Summer12_DR53X-PU_S10_START53_V7A-v1/AODSIM/PAT_CMG_V5_16_0/cmgTuple_64_1_TXV.root
p259
(lp260
I01
aI10000
asV/store/cmst3/group/cmgtools/CMG/GluGluToHToTauTau_M-125_8TeV-powheg-pythia6/Summer12_DR53X-PU_S10_START53_V7A-v1/AODSIM/PAT_CMG_V5_16_0/cmgTuple_78_1_LH4.root
p261
(lp262
I01
aI10000
asV/store/cmst3/group/cmgtools/CMG/GluGluToHToTauTau_M-125_8TeV-powheg-pythia6/Summer12_DR53X-PU_S10_START53_V7A-v1/AODSIM/PAT_CMG_V5_16_0/cmgTuple_95_1_dV1.root
p263
(lp264
I01
aI10000
asV/store/cmst3/group/cmgtools/CMG/GluGluToHToTauTau_M-125_8TeV-powheg-pythia6/Summer12_DR53X-PU_S10_START53_V7A-v1/AODSIM/PAT_CMG_V5_16_0/cmgTuple_66_1_J3r.root
p265
(lp266
I01
aI10000
asV/store/cmst3/group/cmgtools/CMG/GluGluToHToTauTau_M-125_8TeV-powheg-pythia6/Summer12_DR53X-PU_S10_START53_V7A-v1/AODSIM/PAT_CMG_V5_16_0/cmgTuple_46_1_pZf.root
p267
(lp268
I01
aI10000
asV/store/cmst3/group/cmgtools/CMG/GluGluToHToTauTau_M-125_8TeV-powheg-pythia6/Summer12_DR53X-PU_S10_START53_V7A-v1/AODSIM/PAT_CMG_V5_16_0/cmgTuple_2_1_BhN.root
p269
(lp270
I01
aI10000
asV/store/cmst3/group/cmgtools/CMG/GluGluToHToTauTau_M-125_8TeV-powheg-pythia6/Summer12_DR53X-PU_S10_START53_V7A-v1/AODSIM/PAT_CMG_V5_16_0/cmgTuple_96_1_C85.root
p271
(lp272
I01
aI10000
asV/store/cmst3/group/cmgtools/CMG/GluGluToHToTauTau_M-125_8TeV-powheg-pythia6/Summer12_DR53X-PU_S10_START53_V7A-v1/AODSIM/PAT_CMG_V5_16_0/cmgTuple_91_1_TYB.root
p273
(lp274
I01
aI10000
asV/store/cmst3/group/cmgtools/CMG/GluGluToHToTauTau_M-125_8TeV-powheg-pythia6/Summer12_DR53X-PU_S10_START53_V7A-v1/AODSIM/PAT_CMG_V5_16_0/cmgTuple_61_1_ZdL.root
p275
(lp276
I01
aI10000
asV/store/cmst3/group/cmgtools/CMG/GluGluToHToTauTau_M-125_8TeV-powheg-pythia6/Summer12_DR53X-PU_S10_START53_V7A-v1/AODSIM/PAT_CMG_V5_16_0/cmgTuple_53_1_tef.root
p277
(lp278
I01
aI10000
asV/store/cmst3/group/cmgtools/CMG/GluGluToHToTauTau_M-125_8TeV-powheg-pythia6/Summer12_DR53X-PU_S10_START53_V7A-v1/AODSIM/PAT_CMG_V5_16_0/cmgTuple_87_1_ikT.root
p279
(lp280
I01
aI3542
asV/store/cmst3/group/cmgtools/CMG/GluGluToHToTauTau_M-125_8TeV-powheg-pythia6/Summer12_DR53X-PU_S10_START53_V7A-v1/AODSIM/PAT_CMG_V5_16_0/cmgTuple_71_1_TOM.root
p281
(lp282
I01
aI10000
asV/store/cmst3/group/cmgtools/CMG/GluGluToHToTauTau_M-125_8TeV-powheg-pythia6/Summer12_DR53X-PU_S10_START53_V7A-v1/AODSIM/PAT_CMG_V5_16_0/cmgTuple_76_1_pF6.root
p283
(lp284
I01
aI10000
asV/store/cmst3/group/cmgtools/CMG/GluGluToHToTauTau_M-125_8TeV-powheg-pythia6/Summer12_DR53X-PU_S10_START53_V7A-v1/AODSIM/PAT_CMG_V5_16_0/cmgTuple_59_1_JVb.root
p285
(lp286
I01
aI10000
asV/store/cmst3/group/cmgtools/CMG/GluGluToHToTauTau_M-125_8TeV-powheg-pythia6/Summer12_DR53X-PU_S10_START53_V7A-v1/AODSIM/PAT_CMG_V5_16_0/cmgTuple_5_1_ufF.root
p287
(lp288
I01
aI10000
asV/store/cmst3/group/cmgtools/CMG/GluGluToHToTauTau_M-125_8TeV-powheg-pythia6/Summer12_DR53X-PU_S10_START53_V7A-v1/AODSIM/PAT_CMG_V5_16_0/cmgTuple_75_1_NFa.root
p289
(lp290
I01
aI10000
asV/store/cmst3/group/cmgtools/CMG/GluGluToHToTauTau_M-125_8TeV-powheg-pythia6/Summer12_DR53X-PU_S10_START53_V7A-v1/AODSIM/PAT_CMG_V5_16_0/cmgTuple_38_1_DkE.root
p291
(lp292
I01
aI10000
asV/store/cmst3/group/cmgtools/CMG/GluGluToHToTauTau_M-125_8TeV-powheg-pythia6/Summer12_DR53X-PU_S10_START53_V7A-v1/AODSIM/PAT_CMG_V5_16_0/cmgTuple_31_1_VHZ.root
p293
(lp294
I01
aI10000
asV/store/cmst3/group/cmgtools/CMG/GluGluToHToTauTau_M-125_8TeV-powheg-pythia6/Summer12_DR53X-PU_S10_START53_V7A-v1/AODSIM/PAT_CMG_V5_16_0/cmgTuple_36_1_J1F.root
p295
(lp296
I01
aI10000
asV/store/cmst3/group/cmgtools/CMG/GluGluToHToTauTau_M-125_8TeV-powheg-pythia6/Summer12_DR53X-PU_S10_START53_V7A-v1/AODSIM/PAT_CMG_V5_16_0/cmgTuple_34_1_Ixl.root
p297
(lp298
I01
aI10000
asV/store/cmst3/group/cmgtools/CMG/GluGluToHToTauTau_M-125_8TeV-powheg-pythia6/Summer12_DR53X-PU_S10_START53_V7A-v1/AODSIM/PAT_CMG_V5_16_0/cmgTuple_23_1_7PJ.root
p299
(lp300
I01
aI10000
asV/store/cmst3/group/cmgtools/CMG/GluGluToHToTauTau_M-125_8TeV-powheg-pythia6/Summer12_DR53X-PU_S10_START53_V7A-v1/AODSIM/PAT_CMG_V5_16_0/cmgTuple_68_1_1Cd.root
p301
(lp302
I01
aI10000
asV/store/cmst3/group/cmgtools/CMG/GluGluToHToTauTau_M-125_8TeV-powheg-pythia6/Summer12_DR53X-PU_S10_START53_V7A-v1/AODSIM/PAT_CMG_V5_16_0/cmgTuple_63_1_1YZ.root
p303
(lp304
I01
aI10000
asV/store/cmst3/group/cmgtools/CMG/GluGluToHToTauTau_M-125_8TeV-powheg-pythia6/Summer12_DR53X-PU_S10_START53_V7A-v1/AODSIM/PAT_CMG_V5_16_0/cmgTuple_86_1_3Xl.root
p305
(lp306
I01
aI10000
asV/store/cmst3/group/cmgtools/CMG/GluGluToHToTauTau_M-125_8TeV-powheg-pythia6/Summer12_DR53X-PU_S10_START53_V7A-v1/AODSIM/PAT_CMG_V5_16_0/cmgTuple_89_1_7Cx.root
p307
(lp308
I01
aI10000
asV/store/cmst3/group/cmgtools/CMG/GluGluToHToTauTau_M-125_8TeV-powheg-pythia6/Summer12_DR53X-PU_S10_START53_V7A-v1/AODSIM/PAT_CMG_V5_16_0/cmgTuple_21_1_uWj.root
p309
(lp310
I01
aI10000
asV/store/cmst3/group/cmgtools/CMG/GluGluToHToTauTau_M-125_8TeV-powheg-pythia6/Summer12_DR53X-PU_S10_START53_V7A-v1/AODSIM/PAT_CMG_V5_16_0/cmgTuple_67_1_NXW.root
p311
(lp312
I01
aI10000
asV/store/cmst3/group/cmgtools/CMG/GluGluToHToTauTau_M-125_8TeV-powheg-pythia6/Summer12_DR53X-PU_S10_START53_V7A-v1/AODSIM/PAT_CMG_V5_16_0/cmgTuple_11_1_e4v.root
p313
(lp314
I01
aI10000
asV/store/cmst3/group/cmgtools/CMG/GluGluToHToTauTau_M-125_8TeV-powheg-pythia6/Summer12_DR53X-PU_S10_START53_V7A-v1/AODSIM/PAT_CMG_V5_16_0/cmgTuple_94_1_s1M.root
p315
(lp316
I01
aI10000
asV/store/cmst3/group/cmgtools/CMG/GluGluToHToTauTau_M-125_8TeV-powheg-pythia6/Summer12_DR53X-PU_S10_START53_V7A-v1/AODSIM/PAT_CMG_V5_16_0/cmgTuple_29_1_zmM.root
p317
(lp318
I01
aI10000
asV/store/cmst3/group/cmgtools/CMG/GluGluToHToTauTau_M-125_8TeV-powheg-pythia6/Summer12_DR53X-PU_S10_START53_V7A-v1/AODSIM/PAT_CMG_V5_16_0/cmgTuple_50_1_iz8.root
p319
(lp320
I01
aI10000
asV/store/cmst3/group/cmgtools/CMG/GluGluToHToTauTau_M-125_8TeV-powheg-pythia6/Summer12_DR53X-PU_S10_START53_V7A-v1/AODSIM/PAT_CMG_V5_16_0/cmgTuple_32_1_8lF.root
p321
(lp322
I01
aI10000
asV/store/cmst3/group/cmgtools/CMG/GluGluToHToTauTau_M-125_8TeV-powheg-pythia6/Summer12_DR53X-PU_S10_START53_V7A-v1/AODSIM/PAT_CMG_V5_16_0/cmgTuple_14_1_K6H.root
p323
(lp324
I01
aI10000
asV/store/cmst3/group/cmgtools/CMG/GluGluToHToTauTau_M-125_8TeV-powheg-pythia6/Summer12_DR53X-PU_S10_START53_V7A-v1/AODSIM/PAT_CMG_V5_16_0/cmgTuple_43_1_PEz.root
p325
(lp326
I01
aI10000
asV/store/cmst3/group/cmgtools/CMG/GluGluToHToTauTau_M-125_8TeV-powheg-pythia6/Summer12_DR53X-PU_S10_START53_V7A-v1/AODSIM/PAT_CMG_V5_16_0/cmgTuple_60_1_5ZO.root
p327
(lp328
I01
aI10000
assVPhysicsGroup
p329
VCMG
p330
sVFilesCount
p331
I99
sVFilesEntries
p332
I968134
sVRunList
p333
(lp334
sVValidDuplicates
p335
(dp336
V/store/cmst3/group/cmgtools/CMG/GluGluToHToTauTau_M-125_8TeV-powheg-pythia6/Summer12_DR53X-PU_S10_START53_V7A-v1/AODSIM/PAT_CMG_V5_16_0/cmgTuple_61_1_ZdL.root
p337
I10000
ssVPrimaryDataset
p338
V/GluGluToHToTauTau_M-125_8TeV-powheg-pythia6/Summer12_DR53X-PU_S10_START53_V7A-v1/AODSIM
p339
sVStatus
p340
VVALID
p341
sVName
p342
V/GluGluToHToTauTau_M-125_8TeV-powheg-pythia6/Summer12_DR53X-PU_S10_START53_V7A-v1/AODSIM/PAT_CMG_V5_16_0
p343
sVTopdir
p344
V/eos/cms/store/cmst3/group/cmgtools/CMG
p345
sVdata
p346
(dp347
sVFilesBad
p348
I0
sVMinRun
p349
I-1
sVAlgoList
p350
(lp351
sVTierList
p352
(lp353
sVDateCreated
p354
V1370943236
p355
sVCreatedBy
p356
Vcmgtools_group
p357
sVMaxRun
p358
I-1
sVBadJobs
p359
(lp360
ssg89
I01
ssS'MonitorJobs'
p361
(dp362
S'LSFJobStatus'
p363
(dp364
g93
S'GluGluToHToTauTau_M-150_8TeV-powheg-pythia6/Summer12_DR53X-PU_S10_START53_V7A-v1/AODSIM/PAT_CMG_V5_16_0_1377467569/HTT_24Jul_newTES_manzoni_Up_Jobs/Job_8/LSFJOB_440973352/STDOUT.gz'
p365
sg94
S'GluGluToHToTauTau_M-150_8TeV-powheg-pythia6/Summer12_DR53X-PU_S10_START53_V7A-v1/AODSIM/PAT_CMG_V5_16_0_1377467569/HTT_24Jul_newTES_manzoni_Up_Jobs/Job_9/LSFJOB_440973406/STDOUT.gz'
p366
sg95
S'GluGluToHToTauTau_M-150_8TeV-powheg-pythia6/Summer12_DR53X-PU_S10_START53_V7A-v1/AODSIM/PAT_CMG_V5_16_0_1377467569/HTT_24Jul_newTES_manzoni_Up_Jobs/Job_4/LSFJOB_440973149/STDOUT.gz'
p367
sg96
S'GluGluToHToTauTau_M-150_8TeV-powheg-pythia6/Summer12_DR53X-PU_S10_START53_V7A-v1/AODSIM/PAT_CMG_V5_16_0_1377467569/HTT_24Jul_newTES_manzoni_Up_Jobs/Job_5/LSFJOB_440973216/STDOUT.gz'
p368
sg97
S'GluGluToHToTauTau_M-150_8TeV-powheg-pythia6/Summer12_DR53X-PU_S10_START53_V7A-v1/AODSIM/PAT_CMG_V5_16_0_1377467569/HTT_24Jul_newTES_manzoni_Up_Jobs/Job_6/LSFJOB_440973260/STDOUT.gz'
p369
sg98
S'GluGluToHToTauTau_M-150_8TeV-powheg-pythia6/Summer12_DR53X-PU_S10_START53_V7A-v1/AODSIM/PAT_CMG_V5_16_0_1377467569/HTT_24Jul_newTES_manzoni_Up_Jobs/Job_7/LSFJOB_440973315/STDOUT.gz'
p370
sg112
S'GluGluToHToTauTau_M-150_8TeV-powheg-pythia6/Summer12_DR53X-PU_S10_START53_V7A-v1/AODSIM/PAT_CMG_V5_16_0_1377467569/HTT_24Jul_newTES_manzoni_Up_Jobs/Job_19/LSFJOB_440973899/STDOUT.gz'
p371
sg99
S'GluGluToHToTauTau_M-150_8TeV-powheg-pythia6/Summer12_DR53X-PU_S10_START53_V7A-v1/AODSIM/PAT_CMG_V5_16_0_1377467569/HTT_24Jul_newTES_manzoni_Up_Jobs/Job_1/LSFJOB_440972905/STDOUT.gz'
p372
sg100
S'GluGluToHToTauTau_M-150_8TeV-powheg-pythia6/Summer12_DR53X-PU_S10_START53_V7A-v1/AODSIM/PAT_CMG_V5_16_0_1377467569/HTT_24Jul_newTES_manzoni_Up_Jobs/Job_21/LSFJOB_440973977/STDOUT.gz'
p373
sg101
S'GluGluToHToTauTau_M-150_8TeV-powheg-pythia6/Summer12_DR53X-PU_S10_START53_V7A-v1/AODSIM/PAT_CMG_V5_16_0_1377467569/HTT_24Jul_newTES_manzoni_Up_Jobs/Job_3/LSFJOB_440973079/STDOUT.gz'
p374
sg102
S'GluGluToHToTauTau_M-150_8TeV-powheg-pythia6/Summer12_DR53X-PU_S10_START53_V7A-v1/AODSIM/PAT_CMG_V5_16_0_1377467569/HTT_24Jul_newTES_manzoni_Up_Jobs/Job_16/LSFJOB_440973753/STDOUT.gz'
p375
sg103
S'GluGluToHToTauTau_M-150_8TeV-powheg-pythia6/Summer12_DR53X-PU_S10_START53_V7A-v1/AODSIM/PAT_CMG_V5_16_0_1377467569/HTT_24Jul_newTES_manzoni_Up_Jobs/Job_17/LSFJOB_440973790/STDOUT.gz'
p376
sg104
S'GluGluToHToTauTau_M-150_8TeV-powheg-pythia6/Summer12_DR53X-PU_S10_START53_V7A-v1/AODSIM/PAT_CMG_V5_16_0_1377467569/HTT_24Jul_newTES_manzoni_Up_Jobs/Job_14/LSFJOB_440973652/STDOUT.gz'
p377
sg105
S'GluGluToHToTauTau_M-150_8TeV-powheg-pythia6/Summer12_DR53X-PU_S10_START53_V7A-v1/AODSIM/PAT_CMG_V5_16_0_1377467569/HTT_24Jul_newTES_manzoni_Up_Jobs/Job_15/LSFJOB_440973689/STDOUT.gz'
p378
sg106
S'GluGluToHToTauTau_M-150_8TeV-powheg-pythia6/Summer12_DR53X-PU_S10_START53_V7A-v1/AODSIM/PAT_CMG_V5_16_0_1377467569/HTT_24Jul_newTES_manzoni_Up_Jobs/Job_12/LSFJOB_440973559/STDOUT.gz'
p379
sg107
S'GluGluToHToTauTau_M-150_8TeV-powheg-pythia6/Summer12_DR53X-PU_S10_START53_V7A-v1/AODSIM/PAT_CMG_V5_16_0_1377467569/HTT_24Jul_newTES_manzoni_Up_Jobs/Job_2/LSFJOB_440972995/STDOUT.gz'
p380
sg108
S'GluGluToHToTauTau_M-150_8TeV-powheg-pythia6/Summer12_DR53X-PU_S10_START53_V7A-v1/AODSIM/PAT_CMG_V5_16_0_1377467569/HTT_24Jul_newTES_manzoni_Up_Jobs/Job_10/LSFJOB_440973476/STDOUT.gz'
p381
sg109
S'GluGluToHToTauTau_M-150_8TeV-powheg-pythia6/Summer12_DR53X-PU_S10_START53_V7A-v1/AODSIM/PAT_CMG_V5_16_0_1377467569/HTT_24Jul_newTES_manzoni_Up_Jobs/Job_11/LSFJOB_440973513/STDOUT.gz'
p382
sg110
S'GluGluToHToTauTau_M-150_8TeV-powheg-pythia6/Summer12_DR53X-PU_S10_START53_V7A-v1/AODSIM/PAT_CMG_V5_16_0_1377467569/HTT_24Jul_newTES_manzoni_Up_Jobs/Job_20/LSFJOB_440973952/STDOUT.gz'
p383
sg111
S'GluGluToHToTauTau_M-150_8TeV-powheg-pythia6/Summer12_DR53X-PU_S10_START53_V7A-v1/AODSIM/PAT_CMG_V5_16_0_1377467569/HTT_24Jul_newTES_manzoni_Up_Jobs/Job_18/LSFJOB_440973856/STDOUT.gz'
p384
sg92
S'GluGluToHToTauTau_M-150_8TeV-powheg-pythia6/Summer12_DR53X-PU_S10_START53_V7A-v1/AODSIM/PAT_CMG_V5_16_0_1377467569/HTT_24Jul_newTES_manzoni_Up_Jobs/Job_13/LSFJOB_440973597/STDOUT.gz'
p385
ssS'LSFJobIDs'
p386
(dp387
g100
S'440973977'
p388
sg93
S'440973352'
p389
sg94
S'440973406'
p390
sg95
S'440973149'
p391
sg96
S'440973216'
p392
sg97
S'440973260'
p393
sg98
S'440973315'
p394
sg99
S'440972905'
p395
sg107
S'440972995'
p396
sg101
S'440973079'
p397
sg102
S'440973753'
p398
sg103
S'440973790'
p399
sg104
S'440973652'
p400
sg105
S'440973689'
p401
sg106
S'440973559'
p402
sg92
S'440973597'
p403
sg108
S'440973476'
p404
sg109
S'440973513'
p405
sg110
S'440973952'
p406
sg111
S'440973856'
p407
sg112
S'440973899'
p408
sssS'FindOnCastor'
p409
(dp410
g51
S'/eos/cms/store/cmst3/group/cmgtools/CMG'
p411
sS'Directory'
p412
S'/eos/cms/store/cmst3/group/cmgtools/CMG/GluGluToHToTauTau_M-150_8TeV-powheg-pythia6/Summer12_DR53X-PU_S10_START53_V7A-v1/AODSIM/PAT_CMG_V5_16_0'
p413
ssS'CheckConfig'
p414
(dp415
g67
g68
ssS'FullCFG'
p416
(dp417
S'FullCFG'
p418
S'GluGluToHToTauTau_M-150_8TeV-powheg-pythia6/Summer12_DR53X-PU_S10_START53_V7A-v1/AODSIM/PAT_CMG_V5_16_0_1377467569/full_cfg.py'
p419
ssS'WriteJobReport'
p420
(dp421
S'SummaryFile'
p422
S'GluGluToHToTauTau_M-150_8TeV-powheg-pythia6/Summer12_DR53X-PU_S10_START53_V7A-v1/AODSIM/PAT_CMG_V5_16_0_1377467569/resubmit.sh'
p423
ssS'ExpandConfig'
p424
(dp425
S'ExpandedFullCFG'
p426
S'GluGluToHToTauTau_M-150_8TeV-powheg-pythia6/Summer12_DR53X-PU_S10_START53_V7A-v1/AODSIM/PAT_CMG_V5_16_0_1377467569/Expandedfull_cfg.py'
p427
ssS'RunTestEvents'
p428
(dp429
g67
g68
sS'TestCFG'
p430
S'GluGluToHToTauTau_M-150_8TeV-powheg-pythia6/Summer12_DR53X-PU_S10_START53_V7A-v1/AODSIM/PAT_CMG_V5_16_0_1377467569/test_cfg.py'
p431
ssS'SourceCFG'
p432
(dp433
S'SourceCFG'
p434
S'GluGluToHToTauTau_M-150_8TeV-powheg-pythia6/Summer12_DR53X-PU_S10_START53_V7A-v1/AODSIM/PAT_CMG_V5_16_0_1377467569/source_cfg.py'
p435
ssS'CheckForWrite'
p436
(dp437
g412
g413
sS'WriteAccess'
p438
I01
ssS'WriteToDatasets'
p439
(dp440
S'Added'
p441
I00
sg49
S'/GluGluToHToTauTau_M-150_8TeV-powheg-pythia6/Summer12_DR53X-PU_S10_START53_V7A-v1/AODSIM/PAT_CMG_V5_16_0/HTT_24Jul_newTES_manzoni_Up'
p442
sS'User'
p443
g82
ssS'RunCMSBatch'
p444
(dp445
S'BatchUser'
p446
g82
sS'SampleOutputDir'
p447
S'/store/cmst3/user/manzoni/CMG/GluGluToHToTauTau_M-150_8TeV-powheg-pythia6/Summer12_DR53X-PU_S10_START53_V7A-v1/AODSIM/PAT_CMG_V5_16_0/HTT_24Jul_newTES_manzoni_Up'
p448
sS'SampleDataset'
p449
g50
sS'LSFJobsTopDir'
p450
S'GluGluToHToTauTau_M-150_8TeV-powheg-pythia6/Summer12_DR53X-PU_S10_START53_V7A-v1/AODSIM/PAT_CMG_V5_16_0_1377467569/HTT_24Jul_newTES_manzoni_Up_Jobs'
p451
ssS'CreateJobDirectory'
p452
(dp453
S'JobDir'
p454
S'GluGluToHToTauTau_M-150_8TeV-powheg-pythia6/Summer12_DR53X-PU_S10_START53_V7A-v1/AODSIM/PAT_CMG_V5_16_0_1377467569'
p455
sS'PWD'
p456
S'/afs/cern.ch/user/m/manzoni/summer13/CMGTools/CMSSW_5_3_9/src/CMGTools/H2TauTau/prod/25aug_corrMC/up/mc'
p457
ssS'CleanJobFiles'
p458
(dp459
S'Compressed'
p460
(dp461
S'CompressedFiles'
p462
(lp463
ssS'Cleaned'
p464
(dp465
S'CleanedFiles'
p466
(lp467
g427
ag431
aS'GluGluToHToTauTau_M-150_8TeV-powheg-pythia6/Summer12_DR53X-PU_S10_START53_V7A-v1/AODSIM/PAT_CMG_V5_16_0_1377467569/diTau_fullsel_tree_CMG.root'
p468
aS'GluGluToHToTauTau_M-150_8TeV-powheg-pythia6/Summer12_DR53X-PU_S10_START53_V7A-v1/AODSIM/PAT_CMG_V5_16_0_1377467569/source_cfg.pyc'
p469
aS'GluGluToHToTauTau_M-150_8TeV-powheg-pythia6/Summer12_DR53X-PU_S10_START53_V7A-v1/AODSIM/PAT_CMG_V5_16_0_1377467569/Expandedfull_cfg.pyc'
p470
asssS'CheckForMask'
p471
(dp472
g3
g119
sg89
I01
ss.