(dp0
S'CheckJobStatus'
p1
(dp2
S'Report'
p3
(dp4
S'Files'
p5
(dp6
S'/store/cmst3/user/manzoni/CMG/VBF_HToTauTau_M-135_8TeV-powheg-pythia6/Summer12_DR53X-PU_S10_START53_V7A-v1/AODSIM/PAT_CMG_V5_16_0/HTT_24Jul_newTES_manzoni_Up/diTau_fullsel_tree_CMG_11.root'
p7
(I01
I2521
tp8
sS'/store/cmst3/user/manzoni/CMG/VBF_HToTauTau_M-135_8TeV-powheg-pythia6/Summer12_DR53X-PU_S10_START53_V7A-v1/AODSIM/PAT_CMG_V5_16_0/HTT_24Jul_newTES_manzoni_Up/diTau_fullsel_tree_CMG_16.root'
p9
(I01
I2573
tp10
sS'/store/cmst3/user/manzoni/CMG/VBF_HToTauTau_M-135_8TeV-powheg-pythia6/Summer12_DR53X-PU_S10_START53_V7A-v1/AODSIM/PAT_CMG_V5_16_0/HTT_24Jul_newTES_manzoni_Up/diTau_fullsel_tree_CMG_9.root'
p11
(I01
I2622
tp12
sS'/store/cmst3/user/manzoni/CMG/VBF_HToTauTau_M-135_8TeV-powheg-pythia6/Summer12_DR53X-PU_S10_START53_V7A-v1/AODSIM/PAT_CMG_V5_16_0/HTT_24Jul_newTES_manzoni_Up/diTau_fullsel_tree_CMG_3.root'
p13
(I01
I2573
tp14
sS'/store/cmst3/user/manzoni/CMG/VBF_HToTauTau_M-135_8TeV-powheg-pythia6/Summer12_DR53X-PU_S10_START53_V7A-v1/AODSIM/PAT_CMG_V5_16_0/HTT_24Jul_newTES_manzoni_Up/diTau_fullsel_tree_CMG_12.root'
p15
(I01
I2596
tp16
sS'/store/cmst3/user/manzoni/CMG/VBF_HToTauTau_M-135_8TeV-powheg-pythia6/Summer12_DR53X-PU_S10_START53_V7A-v1/AODSIM/PAT_CMG_V5_16_0/HTT_24Jul_newTES_manzoni_Up/diTau_fullsel_tree_CMG_19.root'
p17
(I01
I2562
tp18
sS'/store/cmst3/user/manzoni/CMG/VBF_HToTauTau_M-135_8TeV-powheg-pythia6/Summer12_DR53X-PU_S10_START53_V7A-v1/AODSIM/PAT_CMG_V5_16_0/HTT_24Jul_newTES_manzoni_Up/diTau_fullsel_tree_CMG_18.root'
p19
(I01
I2565
tp20
sS'/store/cmst3/user/manzoni/CMG/VBF_HToTauTau_M-135_8TeV-powheg-pythia6/Summer12_DR53X-PU_S10_START53_V7A-v1/AODSIM/PAT_CMG_V5_16_0/HTT_24Jul_newTES_manzoni_Up/diTau_fullsel_tree_CMG_13.root'
p21
(I01
I2504
tp22
sS'/store/cmst3/user/manzoni/CMG/VBF_HToTauTau_M-135_8TeV-powheg-pythia6/Summer12_DR53X-PU_S10_START53_V7A-v1/AODSIM/PAT_CMG_V5_16_0/HTT_24Jul_newTES_manzoni_Up/diTau_fullsel_tree_CMG_6.root'
p23
(I01
I2631
tp24
sS'/store/cmst3/user/manzoni/CMG/VBF_HToTauTau_M-135_8TeV-powheg-pythia6/Summer12_DR53X-PU_S10_START53_V7A-v1/AODSIM/PAT_CMG_V5_16_0/HTT_24Jul_newTES_manzoni_Up/diTau_fullsel_tree_CMG_1.root'
p25
(I01
I2586
tp26
sS'/store/cmst3/user/manzoni/CMG/VBF_HToTauTau_M-135_8TeV-powheg-pythia6/Summer12_DR53X-PU_S10_START53_V7A-v1/AODSIM/PAT_CMG_V5_16_0/HTT_24Jul_newTES_manzoni_Up/diTau_fullsel_tree_CMG_14.root'
p27
(I01
I2520
tp28
sS'/store/cmst3/user/manzoni/CMG/VBF_HToTauTau_M-135_8TeV-powheg-pythia6/Summer12_DR53X-PU_S10_START53_V7A-v1/AODSIM/PAT_CMG_V5_16_0/HTT_24Jul_newTES_manzoni_Up/diTau_fullsel_tree_CMG_2.root'
p29
(I01
I2576
tp30
sS'/store/cmst3/user/manzoni/CMG/VBF_HToTauTau_M-135_8TeV-powheg-pythia6/Summer12_DR53X-PU_S10_START53_V7A-v1/AODSIM/PAT_CMG_V5_16_0/HTT_24Jul_newTES_manzoni_Up/diTau_fullsel_tree_CMG_4.root'
p31
(I01
I2614
tp32
sS'/store/cmst3/user/manzoni/CMG/VBF_HToTauTau_M-135_8TeV-powheg-pythia6/Summer12_DR53X-PU_S10_START53_V7A-v1/AODSIM/PAT_CMG_V5_16_0/HTT_24Jul_newTES_manzoni_Up/diTau_fullsel_tree_CMG_17.root'
p33
(I01
I2645
tp34
sS'/store/cmst3/user/manzoni/CMG/VBF_HToTauTau_M-135_8TeV-powheg-pythia6/Summer12_DR53X-PU_S10_START53_V7A-v1/AODSIM/PAT_CMG_V5_16_0/HTT_24Jul_newTES_manzoni_Up/diTau_fullsel_tree_CMG_8.root'
p35
(I01
I2718
tp36
sS'/store/cmst3/user/manzoni/CMG/VBF_HToTauTau_M-135_8TeV-powheg-pythia6/Summer12_DR53X-PU_S10_START53_V7A-v1/AODSIM/PAT_CMG_V5_16_0/HTT_24Jul_newTES_manzoni_Up/diTau_fullsel_tree_CMG_5.root'
p37
(I01
I2499
tp38
sS'/store/cmst3/user/manzoni/CMG/VBF_HToTauTau_M-135_8TeV-powheg-pythia6/Summer12_DR53X-PU_S10_START53_V7A-v1/AODSIM/PAT_CMG_V5_16_0/HTT_24Jul_newTES_manzoni_Up/diTau_fullsel_tree_CMG_20.root'
p39
(I01
I2480
tp40
sS'/store/cmst3/user/manzoni/CMG/VBF_HToTauTau_M-135_8TeV-powheg-pythia6/Summer12_DR53X-PU_S10_START53_V7A-v1/AODSIM/PAT_CMG_V5_16_0/HTT_24Jul_newTES_manzoni_Up/diTau_fullsel_tree_CMG_10.root'
p41
(I01
I2649
tp42
sS'/store/cmst3/user/manzoni/CMG/VBF_HToTauTau_M-135_8TeV-powheg-pythia6/Summer12_DR53X-PU_S10_START53_V7A-v1/AODSIM/PAT_CMG_V5_16_0/HTT_24Jul_newTES_manzoni_Up/diTau_fullsel_tree_CMG_7.root'
p43
(I01
I2568
tp44
sS'/store/cmst3/user/manzoni/CMG/VBF_HToTauTau_M-135_8TeV-powheg-pythia6/Summer12_DR53X-PU_S10_START53_V7A-v1/AODSIM/PAT_CMG_V5_16_0/HTT_24Jul_newTES_manzoni_Up/diTau_fullsel_tree_CMG_15.root'
p45
(I01
I2628
tp46
ssS'Name'
p47
S'/VBF_HToTauTau_M-135_8TeV-powheg-pythia6/Summer12_DR53X-PU_S10_START53_V7A-v1/AODSIM/PAT_CMG_V5_16_0/HTT_24Jul_newTES_manzoni_Up'
p48
sS'Topdir'
p49
S'/eos/cms/store/cmst3/user/manzoni/CMG'
p50
sS'RunList'
p51
(lp52
sS'PathList'
p53
(lp54
S'/store/cmst3/user/manzoni/CMG/VBF_HToTauTau_M-135_8TeV-powheg-pythia6/Summer12_DR53X-PU_S10_START53_V7A-v1/AODSIM/PAT_CMG_V5_16_0/HTT_24Jul_newTES_manzoni_Up'
p55
asS'AlgoList'
p56
(lp57
sS'PrimaryDatasetFraction'
p58
F0.051691150631196704
sS'FilesGood'
p59
I20
sS'PrimaryDatasetEntries'
p60
I998817
sS'data'
p61
(dp62
sS'FilesBad'
p63
I0
sS'ReportVersion'
p64
I3
sS'Status'
p65
S'VALID'
p66
sS'MaxRun'
p67
I-1
sS'PhysicsGroup'
p68
S'CMG'
p69
sS'MinRun'
p70
I-1
sS'StageHost'
p71
S'castorcms'
p72
sS'FilesCount'
p73
I20
sS'FilesEntries'
p74
I51630
sS'TierList'
p75
(lp76
sS'DateCreated'
p77
S'1377472862'
p78
sS'CreatedBy'
p79
S'manzoni'
p80
sS'ValidDuplicates'
p81
(dp82
sS'PrimaryDataset'
p83
S'/VBF_HToTauTau_M-135_8TeV-powheg-pythia6/Summer12_DR53X-PU_S10_START53_V7A-v1/AODSIM'
p84
sS'BadJobs'
p85
(lp86
ssS'MaskPresent'
p87
I01
sS'LSFJobStatusCheck'
p88
(dp89
S'VBF_HToTauTau_M-135_8TeV-powheg-pythia6/Summer12_DR53X-PU_S10_START53_V7A-v1/AODSIM/PAT_CMG_V5_16_0_1377467535/HTT_24Jul_newTES_manzoni_Up_Jobs/Job_1'
p90
g66
sS'VBF_HToTauTau_M-135_8TeV-powheg-pythia6/Summer12_DR53X-PU_S10_START53_V7A-v1/AODSIM/PAT_CMG_V5_16_0_1377467535/HTT_24Jul_newTES_manzoni_Up_Jobs/Job_2'
p91
g66
sS'VBF_HToTauTau_M-135_8TeV-powheg-pythia6/Summer12_DR53X-PU_S10_START53_V7A-v1/AODSIM/PAT_CMG_V5_16_0_1377467535/HTT_24Jul_newTES_manzoni_Up_Jobs/Job_3'
p92
g66
sS'VBF_HToTauTau_M-135_8TeV-powheg-pythia6/Summer12_DR53X-PU_S10_START53_V7A-v1/AODSIM/PAT_CMG_V5_16_0_1377467535/HTT_24Jul_newTES_manzoni_Up_Jobs/Job_4'
p93
g66
sS'VBF_HToTauTau_M-135_8TeV-powheg-pythia6/Summer12_DR53X-PU_S10_START53_V7A-v1/AODSIM/PAT_CMG_V5_16_0_1377467535/HTT_24Jul_newTES_manzoni_Up_Jobs/Job_5'
p94
g66
sS'VBF_HToTauTau_M-135_8TeV-powheg-pythia6/Summer12_DR53X-PU_S10_START53_V7A-v1/AODSIM/PAT_CMG_V5_16_0_1377467535/HTT_24Jul_newTES_manzoni_Up_Jobs/Job_6'
p95
g66
sS'VBF_HToTauTau_M-135_8TeV-powheg-pythia6/Summer12_DR53X-PU_S10_START53_V7A-v1/AODSIM/PAT_CMG_V5_16_0_1377467535/HTT_24Jul_newTES_manzoni_Up_Jobs/Job_7'
p96
g66
sS'VBF_HToTauTau_M-135_8TeV-powheg-pythia6/Summer12_DR53X-PU_S10_START53_V7A-v1/AODSIM/PAT_CMG_V5_16_0_1377467535/HTT_24Jul_newTES_manzoni_Up_Jobs/Job_8'
p97
g66
sS'VBF_HToTauTau_M-135_8TeV-powheg-pythia6/Summer12_DR53X-PU_S10_START53_V7A-v1/AODSIM/PAT_CMG_V5_16_0_1377467535/HTT_24Jul_newTES_manzoni_Up_Jobs/Job_9'
p98
g66
sS'VBF_HToTauTau_M-135_8TeV-powheg-pythia6/Summer12_DR53X-PU_S10_START53_V7A-v1/AODSIM/PAT_CMG_V5_16_0_1377467535/HTT_24Jul_newTES_manzoni_Up_Jobs/Job_18'
p99
g66
sS'VBF_HToTauTau_M-135_8TeV-powheg-pythia6/Summer12_DR53X-PU_S10_START53_V7A-v1/AODSIM/PAT_CMG_V5_16_0_1377467535/HTT_24Jul_newTES_manzoni_Up_Jobs/Job_20'
p100
g66
sS'VBF_HToTauTau_M-135_8TeV-powheg-pythia6/Summer12_DR53X-PU_S10_START53_V7A-v1/AODSIM/PAT_CMG_V5_16_0_1377467535/HTT_24Jul_newTES_manzoni_Up_Jobs/Job_19'
p101
g66
sS'VBF_HToTauTau_M-135_8TeV-powheg-pythia6/Summer12_DR53X-PU_S10_START53_V7A-v1/AODSIM/PAT_CMG_V5_16_0_1377467535/HTT_24Jul_newTES_manzoni_Up_Jobs/Job_12'
p102
g66
sS'VBF_HToTauTau_M-135_8TeV-powheg-pythia6/Summer12_DR53X-PU_S10_START53_V7A-v1/AODSIM/PAT_CMG_V5_16_0_1377467535/HTT_24Jul_newTES_manzoni_Up_Jobs/Job_13'
p103
g66
sS'VBF_HToTauTau_M-135_8TeV-powheg-pythia6/Summer12_DR53X-PU_S10_START53_V7A-v1/AODSIM/PAT_CMG_V5_16_0_1377467535/HTT_24Jul_newTES_manzoni_Up_Jobs/Job_10'
p104
g66
sS'VBF_HToTauTau_M-135_8TeV-powheg-pythia6/Summer12_DR53X-PU_S10_START53_V7A-v1/AODSIM/PAT_CMG_V5_16_0_1377467535/HTT_24Jul_newTES_manzoni_Up_Jobs/Job_11'
p105
g66
sS'VBF_HToTauTau_M-135_8TeV-powheg-pythia6/Summer12_DR53X-PU_S10_START53_V7A-v1/AODSIM/PAT_CMG_V5_16_0_1377467535/HTT_24Jul_newTES_manzoni_Up_Jobs/Job_16'
p106
g66
sS'VBF_HToTauTau_M-135_8TeV-powheg-pythia6/Summer12_DR53X-PU_S10_START53_V7A-v1/AODSIM/PAT_CMG_V5_16_0_1377467535/HTT_24Jul_newTES_manzoni_Up_Jobs/Job_17'
p107
g66
sS'VBF_HToTauTau_M-135_8TeV-powheg-pythia6/Summer12_DR53X-PU_S10_START53_V7A-v1/AODSIM/PAT_CMG_V5_16_0_1377467535/HTT_24Jul_newTES_manzoni_Up_Jobs/Job_14'
p108
g66
sS'VBF_HToTauTau_M-135_8TeV-powheg-pythia6/Summer12_DR53X-PU_S10_START53_V7A-v1/AODSIM/PAT_CMG_V5_16_0_1377467535/HTT_24Jul_newTES_manzoni_Up_Jobs/Job_15'
p109
g66
sssS'CheckDatasetExists'
p110
(dp111
S'Dataset'
p112
S'/VBF_HToTauTau_M-135_8TeV-powheg-pythia6/Summer12_DR53X-PU_S10_START53_V7A-v1/AODSIM/PAT_CMG_V5_16_0'
p113
ssS'GenerateMask'
p114
(dp115
g3
(dp116
VPathList
p117
(lp118
V/store/cmst3/group/cmgtools/CMG/VBF_HToTauTau_M-135_8TeV-powheg-pythia6/Summer12_DR53X-PU_S10_START53_V7A-v1/AODSIM/PAT_CMG_V5_16_0
p119
asVStageHost
p120
Vcastorcms
p121
sVPrimaryDatasetFraction
p122
F1.0
sVFilesGood
p123
I100
sVPrimaryDatasetEntries
p124
I998817
sVReportVersion
p125
I3
sVFiles
p126
(dp127
V/store/cmst3/group/cmgtools/CMG/VBF_HToTauTau_M-135_8TeV-powheg-pythia6/Summer12_DR53X-PU_S10_START53_V7A-v1/AODSIM/PAT_CMG_V5_16_0/cmgTuple_84_1_Xje.root
p128
(lp129
I01
aI10000
asV/store/cmst3/group/cmgtools/CMG/VBF_HToTauTau_M-135_8TeV-powheg-pythia6/Summer12_DR53X-PU_S10_START53_V7A-v1/AODSIM/PAT_CMG_V5_16_0/cmgTuple_3_1_PNr.root
p130
(lp131
I01
aI10000
asV/store/cmst3/group/cmgtools/CMG/VBF_HToTauTau_M-135_8TeV-powheg-pythia6/Summer12_DR53X-PU_S10_START53_V7A-v1/AODSIM/PAT_CMG_V5_16_0/cmgTuple_14_1_yVN.root
p132
(lp133
I01
aI10000
asV/store/cmst3/group/cmgtools/CMG/VBF_HToTauTau_M-135_8TeV-powheg-pythia6/Summer12_DR53X-PU_S10_START53_V7A-v1/AODSIM/PAT_CMG_V5_16_0/cmgTuple_87_1_uIr.root
p134
(lp135
I01
aI10000
asV/store/cmst3/group/cmgtools/CMG/VBF_HToTauTau_M-135_8TeV-powheg-pythia6/Summer12_DR53X-PU_S10_START53_V7A-v1/AODSIM/PAT_CMG_V5_16_0/cmgTuple_21_1_AaN.root
p136
(lp137
I01
aI10000
asV/store/cmst3/group/cmgtools/CMG/VBF_HToTauTau_M-135_8TeV-powheg-pythia6/Summer12_DR53X-PU_S10_START53_V7A-v1/AODSIM/PAT_CMG_V5_16_0/cmgTuple_56_1_O3R.root
p138
(lp139
I01
aI10000
asV/store/cmst3/group/cmgtools/CMG/VBF_HToTauTau_M-135_8TeV-powheg-pythia6/Summer12_DR53X-PU_S10_START53_V7A-v1/AODSIM/PAT_CMG_V5_16_0/cmgTuple_18_1_0Hp.root
p140
(lp141
I01
aI10000
asV/store/cmst3/group/cmgtools/CMG/VBF_HToTauTau_M-135_8TeV-powheg-pythia6/Summer12_DR53X-PU_S10_START53_V7A-v1/AODSIM/PAT_CMG_V5_16_0/cmgTuple_63_1_bIW.root
p142
(lp143
I01
aI10000
asV/store/cmst3/group/cmgtools/CMG/VBF_HToTauTau_M-135_8TeV-powheg-pythia6/Summer12_DR53X-PU_S10_START53_V7A-v1/AODSIM/PAT_CMG_V5_16_0/cmgTuple_77_1_j5W.root
p144
(lp145
I01
aI10000
asV/store/cmst3/group/cmgtools/CMG/VBF_HToTauTau_M-135_8TeV-powheg-pythia6/Summer12_DR53X-PU_S10_START53_V7A-v1/AODSIM/PAT_CMG_V5_16_0/cmgTuple_32_1_yjA.root
p146
(lp147
I01
aI10000
asV/store/cmst3/group/cmgtools/CMG/VBF_HToTauTau_M-135_8TeV-powheg-pythia6/Summer12_DR53X-PU_S10_START53_V7A-v1/AODSIM/PAT_CMG_V5_16_0/cmgTuple_51_1_51N.root
p148
(lp149
I01
aI10000
asV/store/cmst3/group/cmgtools/CMG/VBF_HToTauTau_M-135_8TeV-powheg-pythia6/Summer12_DR53X-PU_S10_START53_V7A-v1/AODSIM/PAT_CMG_V5_16_0/cmgTuple_52_1_zOr.root
p150
(lp151
I01
aI10000
asV/store/cmst3/group/cmgtools/CMG/VBF_HToTauTau_M-135_8TeV-powheg-pythia6/Summer12_DR53X-PU_S10_START53_V7A-v1/AODSIM/PAT_CMG_V5_16_0/cmgTuple_19_1_696.root
p152
(lp153
I01
aI10000
asV/store/cmst3/group/cmgtools/CMG/VBF_HToTauTau_M-135_8TeV-powheg-pythia6/Summer12_DR53X-PU_S10_START53_V7A-v1/AODSIM/PAT_CMG_V5_16_0/cmgTuple_96_1_vSW.root
p154
(lp155
I01
aI10000
asV/store/cmst3/group/cmgtools/CMG/VBF_HToTauTau_M-135_8TeV-powheg-pythia6/Summer12_DR53X-PU_S10_START53_V7A-v1/AODSIM/PAT_CMG_V5_16_0/cmgTuple_83_1_wky.root
p156
(lp157
I01
aI10000
asV/store/cmst3/group/cmgtools/CMG/VBF_HToTauTau_M-135_8TeV-powheg-pythia6/Summer12_DR53X-PU_S10_START53_V7A-v1/AODSIM/PAT_CMG_V5_16_0/cmgTuple_64_1_133.root
p158
(lp159
I01
aI10000
asV/store/cmst3/group/cmgtools/CMG/VBF_HToTauTau_M-135_8TeV-powheg-pythia6/Summer12_DR53X-PU_S10_START53_V7A-v1/AODSIM/PAT_CMG_V5_16_0/cmgTuple_28_1_RqH.root
p160
(lp161
I01
aI10000
asV/store/cmst3/group/cmgtools/CMG/VBF_HToTauTau_M-135_8TeV-powheg-pythia6/Summer12_DR53X-PU_S10_START53_V7A-v1/AODSIM/PAT_CMG_V5_16_0/cmgTuple_92_1_Pv2.root
p162
(lp163
I01
aI10000
asV/store/cmst3/group/cmgtools/CMG/VBF_HToTauTau_M-135_8TeV-powheg-pythia6/Summer12_DR53X-PU_S10_START53_V7A-v1/AODSIM/PAT_CMG_V5_16_0/cmgTuple_10_1_bzX.root
p164
(lp165
I01
aI10000
asV/store/cmst3/group/cmgtools/CMG/VBF_HToTauTau_M-135_8TeV-powheg-pythia6/Summer12_DR53X-PU_S10_START53_V7A-v1/AODSIM/PAT_CMG_V5_16_0/cmgTuple_66_1_JOT.root
p166
(lp167
I01
aI10000
asV/store/cmst3/group/cmgtools/CMG/VBF_HToTauTau_M-135_8TeV-powheg-pythia6/Summer12_DR53X-PU_S10_START53_V7A-v1/AODSIM/PAT_CMG_V5_16_0/cmgTuple_15_1_jIN.root
p168
(lp169
I01
aI10000
asV/store/cmst3/group/cmgtools/CMG/VBF_HToTauTau_M-135_8TeV-powheg-pythia6/Summer12_DR53X-PU_S10_START53_V7A-v1/AODSIM/PAT_CMG_V5_16_0/cmgTuple_43_1_yxV.root
p170
(lp171
I01
aI10000
asV/store/cmst3/group/cmgtools/CMG/VBF_HToTauTau_M-135_8TeV-powheg-pythia6/Summer12_DR53X-PU_S10_START53_V7A-v1/AODSIM/PAT_CMG_V5_16_0/cmgTuple_55_1_Bia.root
p172
(lp173
I01
aI10000
asV/store/cmst3/group/cmgtools/CMG/VBF_HToTauTau_M-135_8TeV-powheg-pythia6/Summer12_DR53X-PU_S10_START53_V7A-v1/AODSIM/PAT_CMG_V5_16_0/cmgTuple_67_1_YW5.root
p174
(lp175
I01
aI10000
asV/store/cmst3/group/cmgtools/CMG/VBF_HToTauTau_M-135_8TeV-powheg-pythia6/Summer12_DR53X-PU_S10_START53_V7A-v1/AODSIM/PAT_CMG_V5_16_0/cmgTuple_29_1_cD8.root
p176
(lp177
I01
aI10000
asV/store/cmst3/group/cmgtools/CMG/VBF_HToTauTau_M-135_8TeV-powheg-pythia6/Summer12_DR53X-PU_S10_START53_V7A-v1/AODSIM/PAT_CMG_V5_16_0/cmgTuple_27_1_bQu.root
p178
(lp179
I01
aI10000
asV/store/cmst3/group/cmgtools/CMG/VBF_HToTauTau_M-135_8TeV-powheg-pythia6/Summer12_DR53X-PU_S10_START53_V7A-v1/AODSIM/PAT_CMG_V5_16_0/cmgTuple_39_1_pd3.root
p180
(lp181
I01
aI10000
asV/store/cmst3/group/cmgtools/CMG/VBF_HToTauTau_M-135_8TeV-powheg-pythia6/Summer12_DR53X-PU_S10_START53_V7A-v1/AODSIM/PAT_CMG_V5_16_0/cmgTuple_42_1_AVG.root
p182
(lp183
I01
aI10000
asV/store/cmst3/group/cmgtools/CMG/VBF_HToTauTau_M-135_8TeV-powheg-pythia6/Summer12_DR53X-PU_S10_START53_V7A-v1/AODSIM/PAT_CMG_V5_16_0/cmgTuple_40_1_gbu.root
p184
(lp185
I01
aI10000
asV/store/cmst3/group/cmgtools/CMG/VBF_HToTauTau_M-135_8TeV-powheg-pythia6/Summer12_DR53X-PU_S10_START53_V7A-v1/AODSIM/PAT_CMG_V5_16_0/cmgTuple_53_1_4wR.root
p186
(lp187
I01
aI10000
asV/store/cmst3/group/cmgtools/CMG/VBF_HToTauTau_M-135_8TeV-powheg-pythia6/Summer12_DR53X-PU_S10_START53_V7A-v1/AODSIM/PAT_CMG_V5_16_0/cmgTuple_46_1_2Yo.root
p188
(lp189
I01
aI10000
asV/store/cmst3/group/cmgtools/CMG/VBF_HToTauTau_M-135_8TeV-powheg-pythia6/Summer12_DR53X-PU_S10_START53_V7A-v1/AODSIM/PAT_CMG_V5_16_0/cmgTuple_26_1_kFj.root
p190
(lp191
I01
aI10000
asV/store/cmst3/group/cmgtools/CMG/VBF_HToTauTau_M-135_8TeV-powheg-pythia6/Summer12_DR53X-PU_S10_START53_V7A-v1/AODSIM/PAT_CMG_V5_16_0/cmgTuple_78_1_080.root
p192
(lp193
I01
aI10000
asV/store/cmst3/group/cmgtools/CMG/VBF_HToTauTau_M-135_8TeV-powheg-pythia6/Summer12_DR53X-PU_S10_START53_V7A-v1/AODSIM/PAT_CMG_V5_16_0/cmgTuple_58_1_T8p.root
p194
(lp195
I01
aI10000
asV/store/cmst3/group/cmgtools/CMG/VBF_HToTauTau_M-135_8TeV-powheg-pythia6/Summer12_DR53X-PU_S10_START53_V7A-v1/AODSIM/PAT_CMG_V5_16_0/cmgTuple_100_1_nRD.root
p196
(lp197
I01
aI9943
asV/store/cmst3/group/cmgtools/CMG/VBF_HToTauTau_M-135_8TeV-powheg-pythia6/Summer12_DR53X-PU_S10_START53_V7A-v1/AODSIM/PAT_CMG_V5_16_0/cmgTuple_89_1_cLr.root
p198
(lp199
I01
aI10000
asV/store/cmst3/group/cmgtools/CMG/VBF_HToTauTau_M-135_8TeV-powheg-pythia6/Summer12_DR53X-PU_S10_START53_V7A-v1/AODSIM/PAT_CMG_V5_16_0/cmgTuple_82_1_Ndp.root
p200
(lp201
I01
aI10000
asV/store/cmst3/group/cmgtools/CMG/VBF_HToTauTau_M-135_8TeV-powheg-pythia6/Summer12_DR53X-PU_S10_START53_V7A-v1/AODSIM/PAT_CMG_V5_16_0/cmgTuple_22_1_1q7.root
p202
(lp203
I01
aI10000
asV/store/cmst3/group/cmgtools/CMG/VBF_HToTauTau_M-135_8TeV-powheg-pythia6/Summer12_DR53X-PU_S10_START53_V7A-v1/AODSIM/PAT_CMG_V5_16_0/cmgTuple_61_1_mTO.root
p204
(lp205
I01
aI10000
asV/store/cmst3/group/cmgtools/CMG/VBF_HToTauTau_M-135_8TeV-powheg-pythia6/Summer12_DR53X-PU_S10_START53_V7A-v1/AODSIM/PAT_CMG_V5_16_0/cmgTuple_23_1_zi3.root
p206
(lp207
I01
aI10000
asV/store/cmst3/group/cmgtools/CMG/VBF_HToTauTau_M-135_8TeV-powheg-pythia6/Summer12_DR53X-PU_S10_START53_V7A-v1/AODSIM/PAT_CMG_V5_16_0/cmgTuple_37_1_CVF.root
p208
(lp209
I01
aI10000
asV/store/cmst3/group/cmgtools/CMG/VBF_HToTauTau_M-135_8TeV-powheg-pythia6/Summer12_DR53X-PU_S10_START53_V7A-v1/AODSIM/PAT_CMG_V5_16_0/cmgTuple_86_1_eB5.root
p210
(lp211
I01
aI10000
asV/store/cmst3/group/cmgtools/CMG/VBF_HToTauTau_M-135_8TeV-powheg-pythia6/Summer12_DR53X-PU_S10_START53_V7A-v1/AODSIM/PAT_CMG_V5_16_0/cmgTuple_93_1_Jks.root
p212
(lp213
I01
aI10000
asV/store/cmst3/group/cmgtools/CMG/VBF_HToTauTau_M-135_8TeV-powheg-pythia6/Summer12_DR53X-PU_S10_START53_V7A-v1/AODSIM/PAT_CMG_V5_16_0/cmgTuple_49_1_9WH.root
p214
(lp215
I01
aI10000
asV/store/cmst3/group/cmgtools/CMG/VBF_HToTauTau_M-135_8TeV-powheg-pythia6/Summer12_DR53X-PU_S10_START53_V7A-v1/AODSIM/PAT_CMG_V5_16_0/cmgTuple_24_1_Owi.root
p216
(lp217
I01
aI10000
asV/store/cmst3/group/cmgtools/CMG/VBF_HToTauTau_M-135_8TeV-powheg-pythia6/Summer12_DR53X-PU_S10_START53_V7A-v1/AODSIM/PAT_CMG_V5_16_0/cmgTuple_94_1_s9D.root
p218
(lp219
I01
aI10000
asV/store/cmst3/group/cmgtools/CMG/VBF_HToTauTau_M-135_8TeV-powheg-pythia6/Summer12_DR53X-PU_S10_START53_V7A-v1/AODSIM/PAT_CMG_V5_16_0/cmgTuple_7_1_S70.root
p220
(lp221
I01
aI10000
asV/store/cmst3/group/cmgtools/CMG/VBF_HToTauTau_M-135_8TeV-powheg-pythia6/Summer12_DR53X-PU_S10_START53_V7A-v1/AODSIM/PAT_CMG_V5_16_0/cmgTuple_50_1_6uk.root
p222
(lp223
I01
aI10000
asV/store/cmst3/group/cmgtools/CMG/VBF_HToTauTau_M-135_8TeV-powheg-pythia6/Summer12_DR53X-PU_S10_START53_V7A-v1/AODSIM/PAT_CMG_V5_16_0/cmgTuple_54_1_39T.root
p224
(lp225
I01
aI10000
asV/store/cmst3/group/cmgtools/CMG/VBF_HToTauTau_M-135_8TeV-powheg-pythia6/Summer12_DR53X-PU_S10_START53_V7A-v1/AODSIM/PAT_CMG_V5_16_0/cmgTuple_90_1_NWv.root
p226
(lp227
I01
aI10000
asV/store/cmst3/group/cmgtools/CMG/VBF_HToTauTau_M-135_8TeV-powheg-pythia6/Summer12_DR53X-PU_S10_START53_V7A-v1/AODSIM/PAT_CMG_V5_16_0/cmgTuple_25_1_NuJ.root
p228
(lp229
I01
aI10000
asV/store/cmst3/group/cmgtools/CMG/VBF_HToTauTau_M-135_8TeV-powheg-pythia6/Summer12_DR53X-PU_S10_START53_V7A-v1/AODSIM/PAT_CMG_V5_16_0/cmgTuple_71_1_Sst.root
p230
(lp231
I01
aI10000
asV/store/cmst3/group/cmgtools/CMG/VBF_HToTauTau_M-135_8TeV-powheg-pythia6/Summer12_DR53X-PU_S10_START53_V7A-v1/AODSIM/PAT_CMG_V5_16_0/cmgTuple_72_1_b6A.root
p232
(lp233
I01
aI10000
asV/store/cmst3/group/cmgtools/CMG/VBF_HToTauTau_M-135_8TeV-powheg-pythia6/Summer12_DR53X-PU_S10_START53_V7A-v1/AODSIM/PAT_CMG_V5_16_0/cmgTuple_41_1_Lj3.root
p234
(lp235
I01
aI10000
asV/store/cmst3/group/cmgtools/CMG/VBF_HToTauTau_M-135_8TeV-powheg-pythia6/Summer12_DR53X-PU_S10_START53_V7A-v1/AODSIM/PAT_CMG_V5_16_0/cmgTuple_69_1_rsL.root
p236
(lp237
I01
aI10000
asV/store/cmst3/group/cmgtools/CMG/VBF_HToTauTau_M-135_8TeV-powheg-pythia6/Summer12_DR53X-PU_S10_START53_V7A-v1/AODSIM/PAT_CMG_V5_16_0/cmgTuple_65_1_prR.root
p238
(lp239
I01
aI10000
asV/store/cmst3/group/cmgtools/CMG/VBF_HToTauTau_M-135_8TeV-powheg-pythia6/Summer12_DR53X-PU_S10_START53_V7A-v1/AODSIM/PAT_CMG_V5_16_0/cmgTuple_8_1_AEA.root
p240
(lp241
I01
aI10000
asV/store/cmst3/group/cmgtools/CMG/VBF_HToTauTau_M-135_8TeV-powheg-pythia6/Summer12_DR53X-PU_S10_START53_V7A-v1/AODSIM/PAT_CMG_V5_16_0/cmgTuple_12_1_njA.root
p242
(lp243
I01
aI10000
asV/store/cmst3/group/cmgtools/CMG/VBF_HToTauTau_M-135_8TeV-powheg-pythia6/Summer12_DR53X-PU_S10_START53_V7A-v1/AODSIM/PAT_CMG_V5_16_0/cmgTuple_4_1_hOY.root
p244
(lp245
I01
aI10000
asV/store/cmst3/group/cmgtools/CMG/VBF_HToTauTau_M-135_8TeV-powheg-pythia6/Summer12_DR53X-PU_S10_START53_V7A-v1/AODSIM/PAT_CMG_V5_16_0/cmgTuple_30_1_Phq.root
p246
(lp247
I01
aI10000
asV/store/cmst3/group/cmgtools/CMG/VBF_HToTauTau_M-135_8TeV-powheg-pythia6/Summer12_DR53X-PU_S10_START53_V7A-v1/AODSIM/PAT_CMG_V5_16_0/cmgTuple_48_1_VXZ.root
p248
(lp249
I01
aI10000
asV/store/cmst3/group/cmgtools/CMG/VBF_HToTauTau_M-135_8TeV-powheg-pythia6/Summer12_DR53X-PU_S10_START53_V7A-v1/AODSIM/PAT_CMG_V5_16_0/cmgTuple_13_1_bVC.root
p250
(lp251
I01
aI10000
asV/store/cmst3/group/cmgtools/CMG/VBF_HToTauTau_M-135_8TeV-powheg-pythia6/Summer12_DR53X-PU_S10_START53_V7A-v1/AODSIM/PAT_CMG_V5_16_0/cmgTuple_6_1_May.root
p252
(lp253
I01
aI10000
asV/store/cmst3/group/cmgtools/CMG/VBF_HToTauTau_M-135_8TeV-powheg-pythia6/Summer12_DR53X-PU_S10_START53_V7A-v1/AODSIM/PAT_CMG_V5_16_0/cmgTuple_98_1_iW4.root
p254
(lp255
I01
aI10000
asV/store/cmst3/group/cmgtools/CMG/VBF_HToTauTau_M-135_8TeV-powheg-pythia6/Summer12_DR53X-PU_S10_START53_V7A-v1/AODSIM/PAT_CMG_V5_16_0/cmgTuple_5_1_QYM.root
p256
(lp257
I01
aI10000
asV/store/cmst3/group/cmgtools/CMG/VBF_HToTauTau_M-135_8TeV-powheg-pythia6/Summer12_DR53X-PU_S10_START53_V7A-v1/AODSIM/PAT_CMG_V5_16_0/cmgTuple_33_1_pvf.root
p258
(lp259
I01
aI10000
asV/store/cmst3/group/cmgtools/CMG/VBF_HToTauTau_M-135_8TeV-powheg-pythia6/Summer12_DR53X-PU_S10_START53_V7A-v1/AODSIM/PAT_CMG_V5_16_0/cmgTuple_11_1_hR9.root
p260
(lp261
I01
aI10000
asV/store/cmst3/group/cmgtools/CMG/VBF_HToTauTau_M-135_8TeV-powheg-pythia6/Summer12_DR53X-PU_S10_START53_V7A-v1/AODSIM/PAT_CMG_V5_16_0/cmgTuple_9_1_uAo.root
p262
(lp263
I01
aI10000
asV/store/cmst3/group/cmgtools/CMG/VBF_HToTauTau_M-135_8TeV-powheg-pythia6/Summer12_DR53X-PU_S10_START53_V7A-v1/AODSIM/PAT_CMG_V5_16_0/cmgTuple_99_1_7SR.root
p264
(lp265
I01
aI10000
asV/store/cmst3/group/cmgtools/CMG/VBF_HToTauTau_M-135_8TeV-powheg-pythia6/Summer12_DR53X-PU_S10_START53_V7A-v1/AODSIM/PAT_CMG_V5_16_0/cmgTuple_81_1_ckp.root
p266
(lp267
I01
aI10000
asV/store/cmst3/group/cmgtools/CMG/VBF_HToTauTau_M-135_8TeV-powheg-pythia6/Summer12_DR53X-PU_S10_START53_V7A-v1/AODSIM/PAT_CMG_V5_16_0/cmgTuple_88_1_mf0.root
p268
(lp269
I01
aI10000
asV/store/cmst3/group/cmgtools/CMG/VBF_HToTauTau_M-135_8TeV-powheg-pythia6/Summer12_DR53X-PU_S10_START53_V7A-v1/AODSIM/PAT_CMG_V5_16_0/cmgTuple_85_1_xGf.root
p270
(lp271
I01
aI10000
asV/store/cmst3/group/cmgtools/CMG/VBF_HToTauTau_M-135_8TeV-powheg-pythia6/Summer12_DR53X-PU_S10_START53_V7A-v1/AODSIM/PAT_CMG_V5_16_0/cmgTuple_35_1_NLo.root
p272
(lp273
I01
aI10000
asV/store/cmst3/group/cmgtools/CMG/VBF_HToTauTau_M-135_8TeV-powheg-pythia6/Summer12_DR53X-PU_S10_START53_V7A-v1/AODSIM/PAT_CMG_V5_16_0/cmgTuple_17_1_x8e.root
p274
(lp275
I01
aI10000
asV/store/cmst3/group/cmgtools/CMG/VBF_HToTauTau_M-135_8TeV-powheg-pythia6/Summer12_DR53X-PU_S10_START53_V7A-v1/AODSIM/PAT_CMG_V5_16_0/cmgTuple_80_1_EyL.root
p276
(lp277
I01
aI10000
asV/store/cmst3/group/cmgtools/CMG/VBF_HToTauTau_M-135_8TeV-powheg-pythia6/Summer12_DR53X-PU_S10_START53_V7A-v1/AODSIM/PAT_CMG_V5_16_0/cmgTuple_34_1_vGA.root
p278
(lp279
I01
aI10000
asV/store/cmst3/group/cmgtools/CMG/VBF_HToTauTau_M-135_8TeV-powheg-pythia6/Summer12_DR53X-PU_S10_START53_V7A-v1/AODSIM/PAT_CMG_V5_16_0/cmgTuple_20_1_QaY.root
p280
(lp281
I01
aI10000
asV/store/cmst3/group/cmgtools/CMG/VBF_HToTauTau_M-135_8TeV-powheg-pythia6/Summer12_DR53X-PU_S10_START53_V7A-v1/AODSIM/PAT_CMG_V5_16_0/cmgTuple_75_1_A3K.root
p282
(lp283
I01
aI10000
asV/store/cmst3/group/cmgtools/CMG/VBF_HToTauTau_M-135_8TeV-powheg-pythia6/Summer12_DR53X-PU_S10_START53_V7A-v1/AODSIM/PAT_CMG_V5_16_0/cmgTuple_38_1_Ftv.root
p284
(lp285
I01
aI10000
asV/store/cmst3/group/cmgtools/CMG/VBF_HToTauTau_M-135_8TeV-powheg-pythia6/Summer12_DR53X-PU_S10_START53_V7A-v1/AODSIM/PAT_CMG_V5_16_0/cmgTuple_74_1_Bid.root
p286
(lp287
I01
aI10000
asV/store/cmst3/group/cmgtools/CMG/VBF_HToTauTau_M-135_8TeV-powheg-pythia6/Summer12_DR53X-PU_S10_START53_V7A-v1/AODSIM/PAT_CMG_V5_16_0/cmgTuple_60_1_1ef.root
p288
(lp289
I01
aI10000
asV/store/cmst3/group/cmgtools/CMG/VBF_HToTauTau_M-135_8TeV-powheg-pythia6/Summer12_DR53X-PU_S10_START53_V7A-v1/AODSIM/PAT_CMG_V5_16_0/cmgTuple_16_1_UzO.root
p290
(lp291
I01
aI10000
asV/store/cmst3/group/cmgtools/CMG/VBF_HToTauTau_M-135_8TeV-powheg-pythia6/Summer12_DR53X-PU_S10_START53_V7A-v1/AODSIM/PAT_CMG_V5_16_0/cmgTuple_62_1_gSK.root
p292
(lp293
I01
aI10000
asV/store/cmst3/group/cmgtools/CMG/VBF_HToTauTau_M-135_8TeV-powheg-pythia6/Summer12_DR53X-PU_S10_START53_V7A-v1/AODSIM/PAT_CMG_V5_16_0/cmgTuple_76_1_pKw.root
p294
(lp295
I01
aI10000
asV/store/cmst3/group/cmgtools/CMG/VBF_HToTauTau_M-135_8TeV-powheg-pythia6/Summer12_DR53X-PU_S10_START53_V7A-v1/AODSIM/PAT_CMG_V5_16_0/cmgTuple_73_1_4Uf.root
p296
(lp297
I01
aI10000
asV/store/cmst3/group/cmgtools/CMG/VBF_HToTauTau_M-135_8TeV-powheg-pythia6/Summer12_DR53X-PU_S10_START53_V7A-v1/AODSIM/PAT_CMG_V5_16_0/cmgTuple_1_1_mAK.root
p298
(lp299
I01
aI10000
asV/store/cmst3/group/cmgtools/CMG/VBF_HToTauTau_M-135_8TeV-powheg-pythia6/Summer12_DR53X-PU_S10_START53_V7A-v1/AODSIM/PAT_CMG_V5_16_0/cmgTuple_45_1_J8S.root
p300
(lp301
I01
aI10000
asV/store/cmst3/group/cmgtools/CMG/VBF_HToTauTau_M-135_8TeV-powheg-pythia6/Summer12_DR53X-PU_S10_START53_V7A-v1/AODSIM/PAT_CMG_V5_16_0/cmgTuple_2_1_m7I.root
p302
(lp303
I01
aI8874
asV/store/cmst3/group/cmgtools/CMG/VBF_HToTauTau_M-135_8TeV-powheg-pythia6/Summer12_DR53X-PU_S10_START53_V7A-v1/AODSIM/PAT_CMG_V5_16_0/cmgTuple_36_1_fPF.root
p304
(lp305
I01
aI10000
asV/store/cmst3/group/cmgtools/CMG/VBF_HToTauTau_M-135_8TeV-powheg-pythia6/Summer12_DR53X-PU_S10_START53_V7A-v1/AODSIM/PAT_CMG_V5_16_0/cmgTuple_68_1_cAr.root
p306
(lp307
I01
aI10000
asV/store/cmst3/group/cmgtools/CMG/VBF_HToTauTau_M-135_8TeV-powheg-pythia6/Summer12_DR53X-PU_S10_START53_V7A-v1/AODSIM/PAT_CMG_V5_16_0/cmgTuple_57_1_zj2.root
p308
(lp309
I01
aI10000
asV/store/cmst3/group/cmgtools/CMG/VBF_HToTauTau_M-135_8TeV-powheg-pythia6/Summer12_DR53X-PU_S10_START53_V7A-v1/AODSIM/PAT_CMG_V5_16_0/cmgTuple_31_1_2Oh.root
p310
(lp311
I01
aI10000
asV/store/cmst3/group/cmgtools/CMG/VBF_HToTauTau_M-135_8TeV-powheg-pythia6/Summer12_DR53X-PU_S10_START53_V7A-v1/AODSIM/PAT_CMG_V5_16_0/cmgTuple_47_1_fkF.root
p312
(lp313
I01
aI10000
asV/store/cmst3/group/cmgtools/CMG/VBF_HToTauTau_M-135_8TeV-powheg-pythia6/Summer12_DR53X-PU_S10_START53_V7A-v1/AODSIM/PAT_CMG_V5_16_0/cmgTuple_97_1_NyE.root
p314
(lp315
I01
aI10000
asV/store/cmst3/group/cmgtools/CMG/VBF_HToTauTau_M-135_8TeV-powheg-pythia6/Summer12_DR53X-PU_S10_START53_V7A-v1/AODSIM/PAT_CMG_V5_16_0/cmgTuple_91_1_q5w.root
p316
(lp317
I01
aI10000
asV/store/cmst3/group/cmgtools/CMG/VBF_HToTauTau_M-135_8TeV-powheg-pythia6/Summer12_DR53X-PU_S10_START53_V7A-v1/AODSIM/PAT_CMG_V5_16_0/cmgTuple_70_1_XW1.root
p318
(lp319
I01
aI10000
asV/store/cmst3/group/cmgtools/CMG/VBF_HToTauTau_M-135_8TeV-powheg-pythia6/Summer12_DR53X-PU_S10_START53_V7A-v1/AODSIM/PAT_CMG_V5_16_0/cmgTuple_59_1_pJp.root
p320
(lp321
I01
aI10000
asV/store/cmst3/group/cmgtools/CMG/VBF_HToTauTau_M-135_8TeV-powheg-pythia6/Summer12_DR53X-PU_S10_START53_V7A-v1/AODSIM/PAT_CMG_V5_16_0/cmgTuple_79_1_XTo.root
p322
(lp323
I01
aI10000
asV/store/cmst3/group/cmgtools/CMG/VBF_HToTauTau_M-135_8TeV-powheg-pythia6/Summer12_DR53X-PU_S10_START53_V7A-v1/AODSIM/PAT_CMG_V5_16_0/cmgTuple_95_1_nLp.root
p324
(lp325
I01
aI10000
asV/store/cmst3/group/cmgtools/CMG/VBF_HToTauTau_M-135_8TeV-powheg-pythia6/Summer12_DR53X-PU_S10_START53_V7A-v1/AODSIM/PAT_CMG_V5_16_0/cmgTuple_44_1_zmP.root
p326
(lp327
I01
aI10000
assVPhysicsGroup
p328
VCMG
p329
sVFilesCount
p330
I100
sVFilesEntries
p331
I998817
sVRunList
p332
(lp333
sVValidDuplicates
p334
(dp335
sVPrimaryDataset
p336
V/VBF_HToTauTau_M-135_8TeV-powheg-pythia6/Summer12_DR53X-PU_S10_START53_V7A-v1/AODSIM
p337
sVStatus
p338
VVALID
p339
sVName
p340
V/VBF_HToTauTau_M-135_8TeV-powheg-pythia6/Summer12_DR53X-PU_S10_START53_V7A-v1/AODSIM/PAT_CMG_V5_16_0
p341
sVTopdir
p342
V/eos/cms/store/cmst3/group/cmgtools/CMG
p343
sVdata
p344
(dp345
sVFilesBad
p346
I0
sVMinRun
p347
I-1
sVAlgoList
p348
(lp349
sVTierList
p350
(lp351
sVDateCreated
p352
V1370943237
p353
sVCreatedBy
p354
Vcmgtools_group
p355
sVMaxRun
p356
I-1
sVBadJobs
p357
(lp358
ssg87
I01
ssS'MonitorJobs'
p359
(dp360
S'LSFJobStatus'
p361
(dp362
g90
S'VBF_HToTauTau_M-135_8TeV-powheg-pythia6/Summer12_DR53X-PU_S10_START53_V7A-v1/AODSIM/PAT_CMG_V5_16_0_1377467535/HTT_24Jul_newTES_manzoni_Up_Jobs/Job_1/LSFJOB_440972501/STDOUT.gz'
p363
sg91
S'VBF_HToTauTau_M-135_8TeV-powheg-pythia6/Summer12_DR53X-PU_S10_START53_V7A-v1/AODSIM/PAT_CMG_V5_16_0_1377467535/HTT_24Jul_newTES_manzoni_Up_Jobs/Job_2/LSFJOB_440972594/STDOUT.gz'
p364
sg92
S'VBF_HToTauTau_M-135_8TeV-powheg-pythia6/Summer12_DR53X-PU_S10_START53_V7A-v1/AODSIM/PAT_CMG_V5_16_0_1377467535/HTT_24Jul_newTES_manzoni_Up_Jobs/Job_3/LSFJOB_440972707/STDOUT.gz'
p365
sg93
S'VBF_HToTauTau_M-135_8TeV-powheg-pythia6/Summer12_DR53X-PU_S10_START53_V7A-v1/AODSIM/PAT_CMG_V5_16_0_1377467535/HTT_24Jul_newTES_manzoni_Up_Jobs/Job_4/LSFJOB_440972859/STDOUT.gz'
p366
sg94
S'VBF_HToTauTau_M-135_8TeV-powheg-pythia6/Summer12_DR53X-PU_S10_START53_V7A-v1/AODSIM/PAT_CMG_V5_16_0_1377467535/HTT_24Jul_newTES_manzoni_Up_Jobs/Job_5/LSFJOB_440972959/STDOUT.gz'
p367
sg95
S'VBF_HToTauTau_M-135_8TeV-powheg-pythia6/Summer12_DR53X-PU_S10_START53_V7A-v1/AODSIM/PAT_CMG_V5_16_0_1377467535/HTT_24Jul_newTES_manzoni_Up_Jobs/Job_6/LSFJOB_440973067/STDOUT.gz'
p368
sg96
S'VBF_HToTauTau_M-135_8TeV-powheg-pythia6/Summer12_DR53X-PU_S10_START53_V7A-v1/AODSIM/PAT_CMG_V5_16_0_1377467535/HTT_24Jul_newTES_manzoni_Up_Jobs/Job_7/LSFJOB_440973129/STDOUT.gz'
p369
sg97
S'VBF_HToTauTau_M-135_8TeV-powheg-pythia6/Summer12_DR53X-PU_S10_START53_V7A-v1/AODSIM/PAT_CMG_V5_16_0_1377467535/HTT_24Jul_newTES_manzoni_Up_Jobs/Job_8/LSFJOB_440973191/STDOUT.gz'
p370
sg98
S'VBF_HToTauTau_M-135_8TeV-powheg-pythia6/Summer12_DR53X-PU_S10_START53_V7A-v1/AODSIM/PAT_CMG_V5_16_0_1377467535/HTT_24Jul_newTES_manzoni_Up_Jobs/Job_9/LSFJOB_440973250/STDOUT.gz'
p371
sg99
S'VBF_HToTauTau_M-135_8TeV-powheg-pythia6/Summer12_DR53X-PU_S10_START53_V7A-v1/AODSIM/PAT_CMG_V5_16_0_1377467535/HTT_24Jul_newTES_manzoni_Up_Jobs/Job_18/LSFJOB_440973754/STDOUT.gz'
p372
sg100
S'VBF_HToTauTau_M-135_8TeV-powheg-pythia6/Summer12_DR53X-PU_S10_START53_V7A-v1/AODSIM/PAT_CMG_V5_16_0_1377467535/HTT_24Jul_newTES_manzoni_Up_Jobs/Job_20/LSFJOB_440973857/STDOUT.gz'
p373
sg101
S'VBF_HToTauTau_M-135_8TeV-powheg-pythia6/Summer12_DR53X-PU_S10_START53_V7A-v1/AODSIM/PAT_CMG_V5_16_0_1377467535/HTT_24Jul_newTES_manzoni_Up_Jobs/Job_19/LSFJOB_440973791/STDOUT.gz'
p374
sg102
S'VBF_HToTauTau_M-135_8TeV-powheg-pythia6/Summer12_DR53X-PU_S10_START53_V7A-v1/AODSIM/PAT_CMG_V5_16_0_1377467535/HTT_24Jul_newTES_manzoni_Up_Jobs/Job_12/LSFJOB_440973409/STDOUT.gz'
p375
sg103
S'VBF_HToTauTau_M-135_8TeV-powheg-pythia6/Summer12_DR53X-PU_S10_START53_V7A-v1/AODSIM/PAT_CMG_V5_16_0_1377467535/HTT_24Jul_newTES_manzoni_Up_Jobs/Job_13/LSFJOB_440973477/STDOUT.gz'
p376
sg104
S'VBF_HToTauTau_M-135_8TeV-powheg-pythia6/Summer12_DR53X-PU_S10_START53_V7A-v1/AODSIM/PAT_CMG_V5_16_0_1377467535/HTT_24Jul_newTES_manzoni_Up_Jobs/Job_10/LSFJOB_440973314/STDOUT.gz'
p377
sg105
S'VBF_HToTauTau_M-135_8TeV-powheg-pythia6/Summer12_DR53X-PU_S10_START53_V7A-v1/AODSIM/PAT_CMG_V5_16_0_1377467535/HTT_24Jul_newTES_manzoni_Up_Jobs/Job_11/LSFJOB_440973350/STDOUT.gz'
p378
sg106
S'VBF_HToTauTau_M-135_8TeV-powheg-pythia6/Summer12_DR53X-PU_S10_START53_V7A-v1/AODSIM/PAT_CMG_V5_16_0_1377467535/HTT_24Jul_newTES_manzoni_Up_Jobs/Job_16/LSFJOB_440973645/STDOUT.gz'
p379
sg107
S'VBF_HToTauTau_M-135_8TeV-powheg-pythia6/Summer12_DR53X-PU_S10_START53_V7A-v1/AODSIM/PAT_CMG_V5_16_0_1377467535/HTT_24Jul_newTES_manzoni_Up_Jobs/Job_17/LSFJOB_440973686/STDOUT.gz'
p380
sg108
S'VBF_HToTauTau_M-135_8TeV-powheg-pythia6/Summer12_DR53X-PU_S10_START53_V7A-v1/AODSIM/PAT_CMG_V5_16_0_1377467535/HTT_24Jul_newTES_manzoni_Up_Jobs/Job_14/LSFJOB_440973527/STDOUT.gz'
p381
sg109
S'VBF_HToTauTau_M-135_8TeV-powheg-pythia6/Summer12_DR53X-PU_S10_START53_V7A-v1/AODSIM/PAT_CMG_V5_16_0_1377467535/HTT_24Jul_newTES_manzoni_Up_Jobs/Job_15/LSFJOB_440973582/STDOUT.gz'
p382
ssS'LSFJobIDs'
p383
(dp384
g90
S'440972501'
p385
sg91
S'440972594'
p386
sg92
S'440972707'
p387
sg93
S'440972859'
p388
sg94
S'440972959'
p389
sg95
S'440973067'
p390
sg96
S'440973129'
p391
sg97
S'440973191'
p392
sg98
S'440973250'
p393
sg100
S'440973857'
p394
sg99
S'440973754'
p395
sg101
S'440973791'
p396
sg102
S'440973409'
p397
sg103
S'440973477'
p398
sg104
S'440973314'
p399
sg105
S'440973350'
p400
sg106
S'440973645'
p401
sg107
S'440973686'
p402
sg108
S'440973527'
p403
sg109
S'440973582'
p404
sssS'FindOnCastor'
p405
(dp406
g49
S'/eos/cms/store/cmst3/group/cmgtools/CMG'
p407
sS'Directory'
p408
S'/eos/cms/store/cmst3/group/cmgtools/CMG/VBF_HToTauTau_M-135_8TeV-powheg-pythia6/Summer12_DR53X-PU_S10_START53_V7A-v1/AODSIM/PAT_CMG_V5_16_0'
p409
ssS'CheckConfig'
p410
(dp411
g65
g66
ssS'FullCFG'
p412
(dp413
S'FullCFG'
p414
S'VBF_HToTauTau_M-135_8TeV-powheg-pythia6/Summer12_DR53X-PU_S10_START53_V7A-v1/AODSIM/PAT_CMG_V5_16_0_1377467535/full_cfg.py'
p415
ssS'WriteJobReport'
p416
(dp417
S'SummaryFile'
p418
S'VBF_HToTauTau_M-135_8TeV-powheg-pythia6/Summer12_DR53X-PU_S10_START53_V7A-v1/AODSIM/PAT_CMG_V5_16_0_1377467535/resubmit.sh'
p419
ssS'ExpandConfig'
p420
(dp421
S'ExpandedFullCFG'
p422
S'VBF_HToTauTau_M-135_8TeV-powheg-pythia6/Summer12_DR53X-PU_S10_START53_V7A-v1/AODSIM/PAT_CMG_V5_16_0_1377467535/Expandedfull_cfg.py'
p423
ssS'RunTestEvents'
p424
(dp425
g65
g66
sS'TestCFG'
p426
S'VBF_HToTauTau_M-135_8TeV-powheg-pythia6/Summer12_DR53X-PU_S10_START53_V7A-v1/AODSIM/PAT_CMG_V5_16_0_1377467535/test_cfg.py'
p427
ssS'SourceCFG'
p428
(dp429
S'SourceCFG'
p430
S'VBF_HToTauTau_M-135_8TeV-powheg-pythia6/Summer12_DR53X-PU_S10_START53_V7A-v1/AODSIM/PAT_CMG_V5_16_0_1377467535/source_cfg.py'
p431
ssS'CheckForWrite'
p432
(dp433
g408
g409
sS'WriteAccess'
p434
I01
ssS'WriteToDatasets'
p435
(dp436
S'Added'
p437
I00
sg47
S'/VBF_HToTauTau_M-135_8TeV-powheg-pythia6/Summer12_DR53X-PU_S10_START53_V7A-v1/AODSIM/PAT_CMG_V5_16_0/HTT_24Jul_newTES_manzoni_Up'
p438
sS'User'
p439
g80
ssS'RunCMSBatch'
p440
(dp441
S'BatchUser'
p442
g80
sS'SampleOutputDir'
p443
S'/store/cmst3/user/manzoni/CMG/VBF_HToTauTau_M-135_8TeV-powheg-pythia6/Summer12_DR53X-PU_S10_START53_V7A-v1/AODSIM/PAT_CMG_V5_16_0/HTT_24Jul_newTES_manzoni_Up'
p444
sS'SampleDataset'
p445
g48
sS'LSFJobsTopDir'
p446
S'VBF_HToTauTau_M-135_8TeV-powheg-pythia6/Summer12_DR53X-PU_S10_START53_V7A-v1/AODSIM/PAT_CMG_V5_16_0_1377467535/HTT_24Jul_newTES_manzoni_Up_Jobs'
p447
ssS'CreateJobDirectory'
p448
(dp449
S'JobDir'
p450
S'VBF_HToTauTau_M-135_8TeV-powheg-pythia6/Summer12_DR53X-PU_S10_START53_V7A-v1/AODSIM/PAT_CMG_V5_16_0_1377467535'
p451
sS'PWD'
p452
S'/afs/cern.ch/user/m/manzoni/summer13/CMGTools/CMSSW_5_3_9/src/CMGTools/H2TauTau/prod/25aug_corrMC/up/mc'
p453
ssS'CleanJobFiles'
p454
(dp455
S'Compressed'
p456
(dp457
S'CompressedFiles'
p458
(lp459
ssS'Cleaned'
p460
(dp461
S'CleanedFiles'
p462
(lp463
g423
ag427
aS'VBF_HToTauTau_M-135_8TeV-powheg-pythia6/Summer12_DR53X-PU_S10_START53_V7A-v1/AODSIM/PAT_CMG_V5_16_0_1377467535/diTau_fullsel_tree_CMG.root'
p464
aS'VBF_HToTauTau_M-135_8TeV-powheg-pythia6/Summer12_DR53X-PU_S10_START53_V7A-v1/AODSIM/PAT_CMG_V5_16_0_1377467535/source_cfg.pyc'
p465
aS'VBF_HToTauTau_M-135_8TeV-powheg-pythia6/Summer12_DR53X-PU_S10_START53_V7A-v1/AODSIM/PAT_CMG_V5_16_0_1377467535/Expandedfull_cfg.pyc'
p466
asssS'CheckForMask'
p467
(dp468
g3
g116
sg87
I01
ss.