(dp0
S'CheckJobStatus'
p1
(dp2
S'Report'
p3
(dp4
S'Files'
p5
(dp6
S'/store/cmst3/user/manzoni/CMG/SUSYGluGluToHToTauTau_M-300_8TeV-pythia6-tauola/Summer12_DR53X-PU_S10_START53_V7A-v1/AODSIM/PAT_CMG_V5_16_0/HTT_24Jul_newTES_manzoni_Up/diTau_fullsel_tree_CMG_12.root'
p7
(I01
I7276
tp8
sS'/store/cmst3/user/manzoni/CMG/SUSYGluGluToHToTauTau_M-300_8TeV-pythia6-tauola/Summer12_DR53X-PU_S10_START53_V7A-v1/AODSIM/PAT_CMG_V5_16_0/HTT_24Jul_newTES_manzoni_Up/diTau_fullsel_tree_CMG_20.root'
p9
(I01
I7333
tp10
sS'/store/cmst3/user/manzoni/CMG/SUSYGluGluToHToTauTau_M-300_8TeV-pythia6-tauola/Summer12_DR53X-PU_S10_START53_V7A-v1/AODSIM/PAT_CMG_V5_16_0/HTT_24Jul_newTES_manzoni_Up/diTau_fullsel_tree_CMG_10.root'
p11
(I01
I7323
tp12
sS'/store/cmst3/user/manzoni/CMG/SUSYGluGluToHToTauTau_M-300_8TeV-pythia6-tauola/Summer12_DR53X-PU_S10_START53_V7A-v1/AODSIM/PAT_CMG_V5_16_0/HTT_24Jul_newTES_manzoni_Up/diTau_fullsel_tree_CMG_13.root'
p13
(I01
I7224
tp14
sS'/store/cmst3/user/manzoni/CMG/SUSYGluGluToHToTauTau_M-300_8TeV-pythia6-tauola/Summer12_DR53X-PU_S10_START53_V7A-v1/AODSIM/PAT_CMG_V5_16_0/HTT_24Jul_newTES_manzoni_Up/diTau_fullsel_tree_CMG_1.root'
p15
(I01
I4568
tp16
sS'/store/cmst3/user/manzoni/CMG/SUSYGluGluToHToTauTau_M-300_8TeV-pythia6-tauola/Summer12_DR53X-PU_S10_START53_V7A-v1/AODSIM/PAT_CMG_V5_16_0/HTT_24Jul_newTES_manzoni_Up/diTau_fullsel_tree_CMG_14.root'
p17
(I01
I7036
tp18
sS'/store/cmst3/user/manzoni/CMG/SUSYGluGluToHToTauTau_M-300_8TeV-pythia6-tauola/Summer12_DR53X-PU_S10_START53_V7A-v1/AODSIM/PAT_CMG_V5_16_0/HTT_24Jul_newTES_manzoni_Up/diTau_fullsel_tree_CMG_16.root'
p19
(I01
I7180
tp20
sS'/store/cmst3/user/manzoni/CMG/SUSYGluGluToHToTauTau_M-300_8TeV-pythia6-tauola/Summer12_DR53X-PU_S10_START53_V7A-v1/AODSIM/PAT_CMG_V5_16_0/HTT_24Jul_newTES_manzoni_Up/diTau_fullsel_tree_CMG_3.root'
p21
(I01
I7125
tp22
sS'/store/cmst3/user/manzoni/CMG/SUSYGluGluToHToTauTau_M-300_8TeV-pythia6-tauola/Summer12_DR53X-PU_S10_START53_V7A-v1/AODSIM/PAT_CMG_V5_16_0/HTT_24Jul_newTES_manzoni_Up/diTau_fullsel_tree_CMG_8.root'
p23
(I01
I5305
tp24
sS'/store/cmst3/user/manzoni/CMG/SUSYGluGluToHToTauTau_M-300_8TeV-pythia6-tauola/Summer12_DR53X-PU_S10_START53_V7A-v1/AODSIM/PAT_CMG_V5_16_0/HTT_24Jul_newTES_manzoni_Up/diTau_fullsel_tree_CMG_17.root'
p25
(I01
I7216
tp26
sS'/store/cmst3/user/manzoni/CMG/SUSYGluGluToHToTauTau_M-300_8TeV-pythia6-tauola/Summer12_DR53X-PU_S10_START53_V7A-v1/AODSIM/PAT_CMG_V5_16_0/HTT_24Jul_newTES_manzoni_Up/diTau_fullsel_tree_CMG_28.root'
p27
(I01
I7354
tp28
sS'/store/cmst3/user/manzoni/CMG/SUSYGluGluToHToTauTau_M-300_8TeV-pythia6-tauola/Summer12_DR53X-PU_S10_START53_V7A-v1/AODSIM/PAT_CMG_V5_16_0/HTT_24Jul_newTES_manzoni_Up/diTau_fullsel_tree_CMG_30.root'
p29
(I01
I7240
tp30
sS'/store/cmst3/user/manzoni/CMG/SUSYGluGluToHToTauTau_M-300_8TeV-pythia6-tauola/Summer12_DR53X-PU_S10_START53_V7A-v1/AODSIM/PAT_CMG_V5_16_0/HTT_24Jul_newTES_manzoni_Up/diTau_fullsel_tree_CMG_31.root'
p31
(I01
I7200
tp32
sS'/store/cmst3/user/manzoni/CMG/SUSYGluGluToHToTauTau_M-300_8TeV-pythia6-tauola/Summer12_DR53X-PU_S10_START53_V7A-v1/AODSIM/PAT_CMG_V5_16_0/HTT_24Jul_newTES_manzoni_Up/diTau_fullsel_tree_CMG_7.root'
p33
(I01
I7149
tp34
sS'/store/cmst3/user/manzoni/CMG/SUSYGluGluToHToTauTau_M-300_8TeV-pythia6-tauola/Summer12_DR53X-PU_S10_START53_V7A-v1/AODSIM/PAT_CMG_V5_16_0/HTT_24Jul_newTES_manzoni_Up/diTau_fullsel_tree_CMG_11.root'
p35
(I01
I7300
tp36
sS'/store/cmst3/user/manzoni/CMG/SUSYGluGluToHToTauTau_M-300_8TeV-pythia6-tauola/Summer12_DR53X-PU_S10_START53_V7A-v1/AODSIM/PAT_CMG_V5_16_0/HTT_24Jul_newTES_manzoni_Up/diTau_fullsel_tree_CMG_27.root'
p37
(I01
I7405
tp38
sS'/store/cmst3/user/manzoni/CMG/SUSYGluGluToHToTauTau_M-300_8TeV-pythia6-tauola/Summer12_DR53X-PU_S10_START53_V7A-v1/AODSIM/PAT_CMG_V5_16_0/HTT_24Jul_newTES_manzoni_Up/diTau_fullsel_tree_CMG_15.root'
p39
(I01
I7272
tp40
sS'/store/cmst3/user/manzoni/CMG/SUSYGluGluToHToTauTau_M-300_8TeV-pythia6-tauola/Summer12_DR53X-PU_S10_START53_V7A-v1/AODSIM/PAT_CMG_V5_16_0/HTT_24Jul_newTES_manzoni_Up/diTau_fullsel_tree_CMG_6.root'
p41
(I01
I7201
tp42
sS'/store/cmst3/user/manzoni/CMG/SUSYGluGluToHToTauTau_M-300_8TeV-pythia6-tauola/Summer12_DR53X-PU_S10_START53_V7A-v1/AODSIM/PAT_CMG_V5_16_0/HTT_24Jul_newTES_manzoni_Up/diTau_fullsel_tree_CMG_25.root'
p43
(I01
I7234
tp44
sS'/store/cmst3/user/manzoni/CMG/SUSYGluGluToHToTauTau_M-300_8TeV-pythia6-tauola/Summer12_DR53X-PU_S10_START53_V7A-v1/AODSIM/PAT_CMG_V5_16_0/HTT_24Jul_newTES_manzoni_Up/diTau_fullsel_tree_CMG_2.root'
p45
(I01
I7146
tp46
sS'/store/cmst3/user/manzoni/CMG/SUSYGluGluToHToTauTau_M-300_8TeV-pythia6-tauola/Summer12_DR53X-PU_S10_START53_V7A-v1/AODSIM/PAT_CMG_V5_16_0/HTT_24Jul_newTES_manzoni_Up/diTau_fullsel_tree_CMG_18.root'
p47
(I01
I7258
tp48
sS'/store/cmst3/user/manzoni/CMG/SUSYGluGluToHToTauTau_M-300_8TeV-pythia6-tauola/Summer12_DR53X-PU_S10_START53_V7A-v1/AODSIM/PAT_CMG_V5_16_0/HTT_24Jul_newTES_manzoni_Up/diTau_fullsel_tree_CMG_26.root'
p49
(I01
I7237
tp50
sS'/store/cmst3/user/manzoni/CMG/SUSYGluGluToHToTauTau_M-300_8TeV-pythia6-tauola/Summer12_DR53X-PU_S10_START53_V7A-v1/AODSIM/PAT_CMG_V5_16_0/HTT_24Jul_newTES_manzoni_Up/diTau_fullsel_tree_CMG_21.root'
p51
(I01
I7204
tp52
sS'/store/cmst3/user/manzoni/CMG/SUSYGluGluToHToTauTau_M-300_8TeV-pythia6-tauola/Summer12_DR53X-PU_S10_START53_V7A-v1/AODSIM/PAT_CMG_V5_16_0/HTT_24Jul_newTES_manzoni_Up/diTau_fullsel_tree_CMG_22.root'
p53
(I01
I7352
tp54
sS'/store/cmst3/user/manzoni/CMG/SUSYGluGluToHToTauTau_M-300_8TeV-pythia6-tauola/Summer12_DR53X-PU_S10_START53_V7A-v1/AODSIM/PAT_CMG_V5_16_0/HTT_24Jul_newTES_manzoni_Up/diTau_fullsel_tree_CMG_4.root'
p55
(I01
I7331
tp56
sS'/store/cmst3/user/manzoni/CMG/SUSYGluGluToHToTauTau_M-300_8TeV-pythia6-tauola/Summer12_DR53X-PU_S10_START53_V7A-v1/AODSIM/PAT_CMG_V5_16_0/HTT_24Jul_newTES_manzoni_Up/diTau_fullsel_tree_CMG_9.root'
p57
(I01
I7181
tp58
sS'/store/cmst3/user/manzoni/CMG/SUSYGluGluToHToTauTau_M-300_8TeV-pythia6-tauola/Summer12_DR53X-PU_S10_START53_V7A-v1/AODSIM/PAT_CMG_V5_16_0/HTT_24Jul_newTES_manzoni_Up/diTau_fullsel_tree_CMG_23.root'
p59
(I01
I7213
tp60
sS'/store/cmst3/user/manzoni/CMG/SUSYGluGluToHToTauTau_M-300_8TeV-pythia6-tauola/Summer12_DR53X-PU_S10_START53_V7A-v1/AODSIM/PAT_CMG_V5_16_0/HTT_24Jul_newTES_manzoni_Up/diTau_fullsel_tree_CMG_24.root'
p61
(I01
I7229
tp62
sS'/store/cmst3/user/manzoni/CMG/SUSYGluGluToHToTauTau_M-300_8TeV-pythia6-tauola/Summer12_DR53X-PU_S10_START53_V7A-v1/AODSIM/PAT_CMG_V5_16_0/HTT_24Jul_newTES_manzoni_Up/diTau_fullsel_tree_CMG_5.root'
p63
(I01
I7085
tp64
sS'/store/cmst3/user/manzoni/CMG/SUSYGluGluToHToTauTau_M-300_8TeV-pythia6-tauola/Summer12_DR53X-PU_S10_START53_V7A-v1/AODSIM/PAT_CMG_V5_16_0/HTT_24Jul_newTES_manzoni_Up/diTau_fullsel_tree_CMG_29.root'
p65
(I01
I7235
tp66
sS'/store/cmst3/user/manzoni/CMG/SUSYGluGluToHToTauTau_M-300_8TeV-pythia6-tauola/Summer12_DR53X-PU_S10_START53_V7A-v1/AODSIM/PAT_CMG_V5_16_0/HTT_24Jul_newTES_manzoni_Up/diTau_fullsel_tree_CMG_19.root'
p67
(I01
I7263
tp68
ssS'Name'
p69
S'/SUSYGluGluToHToTauTau_M-300_8TeV-pythia6-tauola/Summer12_DR53X-PU_S10_START53_V7A-v1/AODSIM/PAT_CMG_V5_16_0/HTT_24Jul_newTES_manzoni_Up'
p70
sS'Topdir'
p71
S'/eos/cms/store/cmst3/user/manzoni/CMG'
p72
sS'RunList'
p73
(lp74
sS'PathList'
p75
(lp76
S'/store/cmst3/user/manzoni/CMG/SUSYGluGluToHToTauTau_M-300_8TeV-pythia6-tauola/Summer12_DR53X-PU_S10_START53_V7A-v1/AODSIM/PAT_CMG_V5_16_0/HTT_24Jul_newTES_manzoni_Up'
p77
asS'AlgoList'
p78
(lp79
sS'PrimaryDatasetFraction'
p80
F0.22167539879876
sS'FilesGood'
p81
I31
sS'PrimaryDatasetEntries'
p82
I990976
sS'data'
p83
(dp84
sS'FilesBad'
p85
I0
sS'ReportVersion'
p86
I3
sS'Status'
p87
S'VALID'
p88
sS'MaxRun'
p89
I-1
sS'PhysicsGroup'
p90
S'CMG'
p91
sS'MinRun'
p92
I-1
sS'StageHost'
p93
S'castorcms'
p94
sS'FilesCount'
p95
I31
sS'FilesEntries'
p96
I219675
sS'TierList'
p97
(lp98
sS'DateCreated'
p99
S'1377483861'
p100
sS'CreatedBy'
p101
S'manzoni'
p102
sS'ValidDuplicates'
p103
(dp104
sS'PrimaryDataset'
p105
S'/SUSYGluGluToHToTauTau_M-300_8TeV-pythia6-tauola/Summer12_DR53X-PU_S10_START53_V7A-v1/AODSIM'
p106
sS'BadJobs'
p107
(lp108
ssS'MaskPresent'
p109
I01
sS'LSFJobStatusCheck'
p110
(dp111
S'SUSYGluGluToHToTauTau_M-300_8TeV-pythia6-tauola/Summer12_DR53X-PU_S10_START53_V7A-v1/AODSIM/PAT_CMG_V5_16_0_1377467570/HTT_24Jul_newTES_manzoni_Up_Jobs/Job_15'
p112
g88
sS'SUSYGluGluToHToTauTau_M-300_8TeV-pythia6-tauola/Summer12_DR53X-PU_S10_START53_V7A-v1/AODSIM/PAT_CMG_V5_16_0_1377467570/HTT_24Jul_newTES_manzoni_Up_Jobs/Job_14'
p113
g88
sS'SUSYGluGluToHToTauTau_M-300_8TeV-pythia6-tauola/Summer12_DR53X-PU_S10_START53_V7A-v1/AODSIM/PAT_CMG_V5_16_0_1377467570/HTT_24Jul_newTES_manzoni_Up_Jobs/Job_17'
p114
g88
sS'SUSYGluGluToHToTauTau_M-300_8TeV-pythia6-tauola/Summer12_DR53X-PU_S10_START53_V7A-v1/AODSIM/PAT_CMG_V5_16_0_1377467570/HTT_24Jul_newTES_manzoni_Up_Jobs/Job_16'
p115
g88
sS'SUSYGluGluToHToTauTau_M-300_8TeV-pythia6-tauola/Summer12_DR53X-PU_S10_START53_V7A-v1/AODSIM/PAT_CMG_V5_16_0_1377467570/HTT_24Jul_newTES_manzoni_Up_Jobs/Job_11'
p116
g88
sS'SUSYGluGluToHToTauTau_M-300_8TeV-pythia6-tauola/Summer12_DR53X-PU_S10_START53_V7A-v1/AODSIM/PAT_CMG_V5_16_0_1377467570/HTT_24Jul_newTES_manzoni_Up_Jobs/Job_10'
p117
g88
sS'SUSYGluGluToHToTauTau_M-300_8TeV-pythia6-tauola/Summer12_DR53X-PU_S10_START53_V7A-v1/AODSIM/PAT_CMG_V5_16_0_1377467570/HTT_24Jul_newTES_manzoni_Up_Jobs/Job_13'
p118
g88
sS'SUSYGluGluToHToTauTau_M-300_8TeV-pythia6-tauola/Summer12_DR53X-PU_S10_START53_V7A-v1/AODSIM/PAT_CMG_V5_16_0_1377467570/HTT_24Jul_newTES_manzoni_Up_Jobs/Job_12'
p119
g88
sS'SUSYGluGluToHToTauTau_M-300_8TeV-pythia6-tauola/Summer12_DR53X-PU_S10_START53_V7A-v1/AODSIM/PAT_CMG_V5_16_0_1377467570/HTT_24Jul_newTES_manzoni_Up_Jobs/Job_19'
p120
g88
sS'SUSYGluGluToHToTauTau_M-300_8TeV-pythia6-tauola/Summer12_DR53X-PU_S10_START53_V7A-v1/AODSIM/PAT_CMG_V5_16_0_1377467570/HTT_24Jul_newTES_manzoni_Up_Jobs/Job_18'
p121
g88
sS'SUSYGluGluToHToTauTau_M-300_8TeV-pythia6-tauola/Summer12_DR53X-PU_S10_START53_V7A-v1/AODSIM/PAT_CMG_V5_16_0_1377467570/HTT_24Jul_newTES_manzoni_Up_Jobs/Job_31'
p122
g88
sS'SUSYGluGluToHToTauTau_M-300_8TeV-pythia6-tauola/Summer12_DR53X-PU_S10_START53_V7A-v1/AODSIM/PAT_CMG_V5_16_0_1377467570/HTT_24Jul_newTES_manzoni_Up_Jobs/Job_30'
p123
g88
sS'SUSYGluGluToHToTauTau_M-300_8TeV-pythia6-tauola/Summer12_DR53X-PU_S10_START53_V7A-v1/AODSIM/PAT_CMG_V5_16_0_1377467570/HTT_24Jul_newTES_manzoni_Up_Jobs/Job_20'
p124
g88
sS'SUSYGluGluToHToTauTau_M-300_8TeV-pythia6-tauola/Summer12_DR53X-PU_S10_START53_V7A-v1/AODSIM/PAT_CMG_V5_16_0_1377467570/HTT_24Jul_newTES_manzoni_Up_Jobs/Job_21'
p125
g88
sS'SUSYGluGluToHToTauTau_M-300_8TeV-pythia6-tauola/Summer12_DR53X-PU_S10_START53_V7A-v1/AODSIM/PAT_CMG_V5_16_0_1377467570/HTT_24Jul_newTES_manzoni_Up_Jobs/Job_22'
p126
g88
sS'SUSYGluGluToHToTauTau_M-300_8TeV-pythia6-tauola/Summer12_DR53X-PU_S10_START53_V7A-v1/AODSIM/PAT_CMG_V5_16_0_1377467570/HTT_24Jul_newTES_manzoni_Up_Jobs/Job_23'
p127
g88
sS'SUSYGluGluToHToTauTau_M-300_8TeV-pythia6-tauola/Summer12_DR53X-PU_S10_START53_V7A-v1/AODSIM/PAT_CMG_V5_16_0_1377467570/HTT_24Jul_newTES_manzoni_Up_Jobs/Job_24'
p128
g88
sS'SUSYGluGluToHToTauTau_M-300_8TeV-pythia6-tauola/Summer12_DR53X-PU_S10_START53_V7A-v1/AODSIM/PAT_CMG_V5_16_0_1377467570/HTT_24Jul_newTES_manzoni_Up_Jobs/Job_25'
p129
g88
sS'SUSYGluGluToHToTauTau_M-300_8TeV-pythia6-tauola/Summer12_DR53X-PU_S10_START53_V7A-v1/AODSIM/PAT_CMG_V5_16_0_1377467570/HTT_24Jul_newTES_manzoni_Up_Jobs/Job_26'
p130
g88
sS'SUSYGluGluToHToTauTau_M-300_8TeV-pythia6-tauola/Summer12_DR53X-PU_S10_START53_V7A-v1/AODSIM/PAT_CMG_V5_16_0_1377467570/HTT_24Jul_newTES_manzoni_Up_Jobs/Job_27'
p131
g88
sS'SUSYGluGluToHToTauTau_M-300_8TeV-pythia6-tauola/Summer12_DR53X-PU_S10_START53_V7A-v1/AODSIM/PAT_CMG_V5_16_0_1377467570/HTT_24Jul_newTES_manzoni_Up_Jobs/Job_28'
p132
g88
sS'SUSYGluGluToHToTauTau_M-300_8TeV-pythia6-tauola/Summer12_DR53X-PU_S10_START53_V7A-v1/AODSIM/PAT_CMG_V5_16_0_1377467570/HTT_24Jul_newTES_manzoni_Up_Jobs/Job_29'
p133
g88
sS'SUSYGluGluToHToTauTau_M-300_8TeV-pythia6-tauola/Summer12_DR53X-PU_S10_START53_V7A-v1/AODSIM/PAT_CMG_V5_16_0_1377467570/HTT_24Jul_newTES_manzoni_Up_Jobs/Job_5'
p134
g88
sS'SUSYGluGluToHToTauTau_M-300_8TeV-pythia6-tauola/Summer12_DR53X-PU_S10_START53_V7A-v1/AODSIM/PAT_CMG_V5_16_0_1377467570/HTT_24Jul_newTES_manzoni_Up_Jobs/Job_4'
p135
g88
sS'SUSYGluGluToHToTauTau_M-300_8TeV-pythia6-tauola/Summer12_DR53X-PU_S10_START53_V7A-v1/AODSIM/PAT_CMG_V5_16_0_1377467570/HTT_24Jul_newTES_manzoni_Up_Jobs/Job_7'
p136
g88
sS'SUSYGluGluToHToTauTau_M-300_8TeV-pythia6-tauola/Summer12_DR53X-PU_S10_START53_V7A-v1/AODSIM/PAT_CMG_V5_16_0_1377467570/HTT_24Jul_newTES_manzoni_Up_Jobs/Job_6'
p137
g88
sS'SUSYGluGluToHToTauTau_M-300_8TeV-pythia6-tauola/Summer12_DR53X-PU_S10_START53_V7A-v1/AODSIM/PAT_CMG_V5_16_0_1377467570/HTT_24Jul_newTES_manzoni_Up_Jobs/Job_1'
p138
g88
sS'SUSYGluGluToHToTauTau_M-300_8TeV-pythia6-tauola/Summer12_DR53X-PU_S10_START53_V7A-v1/AODSIM/PAT_CMG_V5_16_0_1377467570/HTT_24Jul_newTES_manzoni_Up_Jobs/Job_3'
p139
g88
sS'SUSYGluGluToHToTauTau_M-300_8TeV-pythia6-tauola/Summer12_DR53X-PU_S10_START53_V7A-v1/AODSIM/PAT_CMG_V5_16_0_1377467570/HTT_24Jul_newTES_manzoni_Up_Jobs/Job_2'
p140
g88
sS'SUSYGluGluToHToTauTau_M-300_8TeV-pythia6-tauola/Summer12_DR53X-PU_S10_START53_V7A-v1/AODSIM/PAT_CMG_V5_16_0_1377467570/HTT_24Jul_newTES_manzoni_Up_Jobs/Job_9'
p141
g88
sS'SUSYGluGluToHToTauTau_M-300_8TeV-pythia6-tauola/Summer12_DR53X-PU_S10_START53_V7A-v1/AODSIM/PAT_CMG_V5_16_0_1377467570/HTT_24Jul_newTES_manzoni_Up_Jobs/Job_8'
p142
g88
sssS'CheckDatasetExists'
p143
(dp144
S'Dataset'
p145
S'/SUSYGluGluToHToTauTau_M-300_8TeV-pythia6-tauola/Summer12_DR53X-PU_S10_START53_V7A-v1/AODSIM/PAT_CMG_V5_16_0'
p146
ssS'GenerateMask'
p147
(dp148
g3
(dp149
VPathList
p150
(lp151
V/store/cmst3/group/cmgtools/CMG/SUSYGluGluToHToTauTau_M-300_8TeV-pythia6-tauola/Summer12_DR53X-PU_S10_START53_V7A-v1/AODSIM/PAT_CMG_V5_16_0
p152
asVStageHost
p153
Vcastorcms
p154
sVPrimaryDatasetFraction
p155
F0.91927150607078278
sVFilesGood
p156
I93
sVPrimaryDatasetEntries
p157
I990976
sVReportVersion
p158
I3
sVFiles
p159
(dp160
V/store/cmst3/group/cmgtools/CMG/SUSYGluGluToHToTauTau_M-300_8TeV-pythia6-tauola/Summer12_DR53X-PU_S10_START53_V7A-v1/AODSIM/PAT_CMG_V5_16_0/cmgTuple_89_1_juA.root
p161
(lp162
I01
aI10000
asV/store/cmst3/group/cmgtools/CMG/SUSYGluGluToHToTauTau_M-300_8TeV-pythia6-tauola/Summer12_DR53X-PU_S10_START53_V7A-v1/AODSIM/PAT_CMG_V5_16_0/cmgTuple_76_1_D4T.root
p163
(lp164
I01
aI10000
asV/store/cmst3/group/cmgtools/CMG/SUSYGluGluToHToTauTau_M-300_8TeV-pythia6-tauola/Summer12_DR53X-PU_S10_START53_V7A-v1/AODSIM/PAT_CMG_V5_16_0/cmgTuple_22_1_AB0.root
p165
(lp166
I01
aI10000
asV/store/cmst3/group/cmgtools/CMG/SUSYGluGluToHToTauTau_M-300_8TeV-pythia6-tauola/Summer12_DR53X-PU_S10_START53_V7A-v1/AODSIM/PAT_CMG_V5_16_0/cmgTuple_32_1_flu.root
p167
(lp168
I01
aI10000
asV/store/cmst3/group/cmgtools/CMG/SUSYGluGluToHToTauTau_M-300_8TeV-pythia6-tauola/Summer12_DR53X-PU_S10_START53_V7A-v1/AODSIM/PAT_CMG_V5_16_0/cmgTuple_97_1_B6h.root
p169
(lp170
I01
aI10000
asV/store/cmst3/group/cmgtools/CMG/SUSYGluGluToHToTauTau_M-300_8TeV-pythia6-tauola/Summer12_DR53X-PU_S10_START53_V7A-v1/AODSIM/PAT_CMG_V5_16_0/cmgTuple_58_1_sOc.root
p171
(lp172
I01
aI10000
asV/store/cmst3/group/cmgtools/CMG/SUSYGluGluToHToTauTau_M-300_8TeV-pythia6-tauola/Summer12_DR53X-PU_S10_START53_V7A-v1/AODSIM/PAT_CMG_V5_16_0/cmgTuple_77_1_532.root
p173
(lp174
I01
aI10000
asV/store/cmst3/group/cmgtools/CMG/SUSYGluGluToHToTauTau_M-300_8TeV-pythia6-tauola/Summer12_DR53X-PU_S10_START53_V7A-v1/AODSIM/PAT_CMG_V5_16_0/cmgTuple_71_1_D5R.root
p175
(lp176
I01
aI10000
asV/store/cmst3/group/cmgtools/CMG/SUSYGluGluToHToTauTau_M-300_8TeV-pythia6-tauola/Summer12_DR53X-PU_S10_START53_V7A-v1/AODSIM/PAT_CMG_V5_16_0/cmgTuple_2_1_QHf.root
p177
(lp178
I01
aI1613
asV/store/cmst3/group/cmgtools/CMG/SUSYGluGluToHToTauTau_M-300_8TeV-pythia6-tauola/Summer12_DR53X-PU_S10_START53_V7A-v1/AODSIM/PAT_CMG_V5_16_0/cmgTuple_6_1_daL.root
p179
(lp180
I01
aI10000
asV/store/cmst3/group/cmgtools/CMG/SUSYGluGluToHToTauTau_M-300_8TeV-pythia6-tauola/Summer12_DR53X-PU_S10_START53_V7A-v1/AODSIM/PAT_CMG_V5_16_0/cmgTuple_57_1_2tt.root
p181
(lp182
I01
aI10000
asV/store/cmst3/group/cmgtools/CMG/SUSYGluGluToHToTauTau_M-300_8TeV-pythia6-tauola/Summer12_DR53X-PU_S10_START53_V7A-v1/AODSIM/PAT_CMG_V5_16_0/cmgTuple_94_1_bgq.root
p183
(lp184
I01
aI10000
asV/store/cmst3/group/cmgtools/CMG/SUSYGluGluToHToTauTau_M-300_8TeV-pythia6-tauola/Summer12_DR53X-PU_S10_START53_V7A-v1/AODSIM/PAT_CMG_V5_16_0/cmgTuple_47_1_UAj.root
p185
(lp186
I01
aI10000
asV/store/cmst3/group/cmgtools/CMG/SUSYGluGluToHToTauTau_M-300_8TeV-pythia6-tauola/Summer12_DR53X-PU_S10_START53_V7A-v1/AODSIM/PAT_CMG_V5_16_0/cmgTuple_3_1_zwU.root
p187
(lp188
I01
aI10000
asV/store/cmst3/group/cmgtools/CMG/SUSYGluGluToHToTauTau_M-300_8TeV-pythia6-tauola/Summer12_DR53X-PU_S10_START53_V7A-v1/AODSIM/PAT_CMG_V5_16_0/cmgTuple_40_1_tLZ.root
p189
(lp190
I01
aI10000
asV/store/cmst3/group/cmgtools/CMG/SUSYGluGluToHToTauTau_M-300_8TeV-pythia6-tauola/Summer12_DR53X-PU_S10_START53_V7A-v1/AODSIM/PAT_CMG_V5_16_0/cmgTuple_95_1_5KL.root
p191
(lp192
I01
aI10000
asV/store/cmst3/group/cmgtools/CMG/SUSYGluGluToHToTauTau_M-300_8TeV-pythia6-tauola/Summer12_DR53X-PU_S10_START53_V7A-v1/AODSIM/PAT_CMG_V5_16_0/cmgTuple_79_1_L67.root
p193
(lp194
I01
aI10000
asV/store/cmst3/group/cmgtools/CMG/SUSYGluGluToHToTauTau_M-300_8TeV-pythia6-tauola/Summer12_DR53X-PU_S10_START53_V7A-v1/AODSIM/PAT_CMG_V5_16_0/cmgTuple_82_1_iSf.root
p195
(lp196
I01
aI10000
asV/store/cmst3/group/cmgtools/CMG/SUSYGluGluToHToTauTau_M-300_8TeV-pythia6-tauola/Summer12_DR53X-PU_S10_START53_V7A-v1/AODSIM/PAT_CMG_V5_16_0/cmgTuple_62_1_qaE.root
p197
(lp198
I01
aI10000
asV/store/cmst3/group/cmgtools/CMG/SUSYGluGluToHToTauTau_M-300_8TeV-pythia6-tauola/Summer12_DR53X-PU_S10_START53_V7A-v1/AODSIM/PAT_CMG_V5_16_0/cmgTuple_99_1_uZa.root
p199
(lp200
I01
aI10000
asV/store/cmst3/group/cmgtools/CMG/SUSYGluGluToHToTauTau_M-300_8TeV-pythia6-tauola/Summer12_DR53X-PU_S10_START53_V7A-v1/AODSIM/PAT_CMG_V5_16_0/cmgTuple_7_1_8Cw.root
p201
(lp202
I01
aI10000
asV/store/cmst3/group/cmgtools/CMG/SUSYGluGluToHToTauTau_M-300_8TeV-pythia6-tauola/Summer12_DR53X-PU_S10_START53_V7A-v1/AODSIM/PAT_CMG_V5_16_0/cmgTuple_49_1_F2k.root
p203
(lp204
I01
aI10000
asV/store/cmst3/group/cmgtools/CMG/SUSYGluGluToHToTauTau_M-300_8TeV-pythia6-tauola/Summer12_DR53X-PU_S10_START53_V7A-v1/AODSIM/PAT_CMG_V5_16_0/cmgTuple_101_1_jvi.root
p205
(lp206
I01
aI8295
asV/store/cmst3/group/cmgtools/CMG/SUSYGluGluToHToTauTau_M-300_8TeV-pythia6-tauola/Summer12_DR53X-PU_S10_START53_V7A-v1/AODSIM/PAT_CMG_V5_16_0/cmgTuple_42_1_bj1.root
p207
(lp208
I01
aI10000
asV/store/cmst3/group/cmgtools/CMG/SUSYGluGluToHToTauTau_M-300_8TeV-pythia6-tauola/Summer12_DR53X-PU_S10_START53_V7A-v1/AODSIM/PAT_CMG_V5_16_0/cmgTuple_10_1_I5S.root
p209
(lp210
I01
aI10000
asV/store/cmst3/group/cmgtools/CMG/SUSYGluGluToHToTauTau_M-300_8TeV-pythia6-tauola/Summer12_DR53X-PU_S10_START53_V7A-v1/AODSIM/PAT_CMG_V5_16_0/cmgTuple_11_1_rk5.root
p211
(lp212
I01
aI10000
asV/store/cmst3/group/cmgtools/CMG/SUSYGluGluToHToTauTau_M-300_8TeV-pythia6-tauola/Summer12_DR53X-PU_S10_START53_V7A-v1/AODSIM/PAT_CMG_V5_16_0/cmgTuple_52_1_QnE.root
p213
(lp214
I01
aI10000
asV/store/cmst3/group/cmgtools/CMG/SUSYGluGluToHToTauTau_M-300_8TeV-pythia6-tauola/Summer12_DR53X-PU_S10_START53_V7A-v1/AODSIM/PAT_CMG_V5_16_0/cmgTuple_36_1_Y8D.root
p215
(lp216
I01
aI10000
asV/store/cmst3/group/cmgtools/CMG/SUSYGluGluToHToTauTau_M-300_8TeV-pythia6-tauola/Summer12_DR53X-PU_S10_START53_V7A-v1/AODSIM/PAT_CMG_V5_16_0/cmgTuple_67_1_2xx.root
p217
(lp218
I01
aI10000
asV/store/cmst3/group/cmgtools/CMG/SUSYGluGluToHToTauTau_M-300_8TeV-pythia6-tauola/Summer12_DR53X-PU_S10_START53_V7A-v1/AODSIM/PAT_CMG_V5_16_0/cmgTuple_98_1_rqO.root
p219
(lp220
I01
aI10000
asV/store/cmst3/group/cmgtools/CMG/SUSYGluGluToHToTauTau_M-300_8TeV-pythia6-tauola/Summer12_DR53X-PU_S10_START53_V7A-v1/AODSIM/PAT_CMG_V5_16_0/cmgTuple_51_1_yXr.root
p221
(lp222
I01
aI10000
asV/store/cmst3/group/cmgtools/CMG/SUSYGluGluToHToTauTau_M-300_8TeV-pythia6-tauola/Summer12_DR53X-PU_S10_START53_V7A-v1/AODSIM/PAT_CMG_V5_16_0/cmgTuple_29_1_F5B.root
p223
(lp224
I01
aI10000
asV/store/cmst3/group/cmgtools/CMG/SUSYGluGluToHToTauTau_M-300_8TeV-pythia6-tauola/Summer12_DR53X-PU_S10_START53_V7A-v1/AODSIM/PAT_CMG_V5_16_0/cmgTuple_93_1_1dO.root
p225
(lp226
I01
aI10000
asV/store/cmst3/group/cmgtools/CMG/SUSYGluGluToHToTauTau_M-300_8TeV-pythia6-tauola/Summer12_DR53X-PU_S10_START53_V7A-v1/AODSIM/PAT_CMG_V5_16_0/cmgTuple_68_1_tRs.root
p227
(lp228
I01
aI10000
asV/store/cmst3/group/cmgtools/CMG/SUSYGluGluToHToTauTau_M-300_8TeV-pythia6-tauola/Summer12_DR53X-PU_S10_START53_V7A-v1/AODSIM/PAT_CMG_V5_16_0/cmgTuple_39_1_NiJ.root
p229
(lp230
I01
aI10000
asV/store/cmst3/group/cmgtools/CMG/SUSYGluGluToHToTauTau_M-300_8TeV-pythia6-tauola/Summer12_DR53X-PU_S10_START53_V7A-v1/AODSIM/PAT_CMG_V5_16_0/cmgTuple_60_1_ef3.root
p231
(lp232
I01
aI10000
asV/store/cmst3/group/cmgtools/CMG/SUSYGluGluToHToTauTau_M-300_8TeV-pythia6-tauola/Summer12_DR53X-PU_S10_START53_V7A-v1/AODSIM/PAT_CMG_V5_16_0/cmgTuple_31_1_Wzp.root
p233
(lp234
I01
aI10000
asV/store/cmst3/group/cmgtools/CMG/SUSYGluGluToHToTauTau_M-300_8TeV-pythia6-tauola/Summer12_DR53X-PU_S10_START53_V7A-v1/AODSIM/PAT_CMG_V5_16_0/cmgTuple_55_1_wEM.root
p235
(lp236
I01
aI10000
asV/store/cmst3/group/cmgtools/CMG/SUSYGluGluToHToTauTau_M-300_8TeV-pythia6-tauola/Summer12_DR53X-PU_S10_START53_V7A-v1/AODSIM/PAT_CMG_V5_16_0/cmgTuple_34_1_8ad.root
p237
(lp238
I01
aI10000
asV/store/cmst3/group/cmgtools/CMG/SUSYGluGluToHToTauTau_M-300_8TeV-pythia6-tauola/Summer12_DR53X-PU_S10_START53_V7A-v1/AODSIM/PAT_CMG_V5_16_0/cmgTuple_4_1_Clq.root
p239
(lp240
I01
aI10000
asV/store/cmst3/group/cmgtools/CMG/SUSYGluGluToHToTauTau_M-300_8TeV-pythia6-tauola/Summer12_DR53X-PU_S10_START53_V7A-v1/AODSIM/PAT_CMG_V5_16_0/cmgTuple_20_1_7Jd.root
p241
(lp242
I01
aI10000
asV/store/cmst3/group/cmgtools/CMG/SUSYGluGluToHToTauTau_M-300_8TeV-pythia6-tauola/Summer12_DR53X-PU_S10_START53_V7A-v1/AODSIM/PAT_CMG_V5_16_0/cmgTuple_38_1_SvE.root
p243
(lp244
I01
aI10000
asV/store/cmst3/group/cmgtools/CMG/SUSYGluGluToHToTauTau_M-300_8TeV-pythia6-tauola/Summer12_DR53X-PU_S10_START53_V7A-v1/AODSIM/PAT_CMG_V5_16_0/cmgTuple_83_1_zKY.root
p245
(lp246
I01
aI10000
asV/store/cmst3/group/cmgtools/CMG/SUSYGluGluToHToTauTau_M-300_8TeV-pythia6-tauola/Summer12_DR53X-PU_S10_START53_V7A-v1/AODSIM/PAT_CMG_V5_16_0/cmgTuple_80_1_RnZ.root
p247
(lp248
I01
aI10000
asV/store/cmst3/group/cmgtools/CMG/SUSYGluGluToHToTauTau_M-300_8TeV-pythia6-tauola/Summer12_DR53X-PU_S10_START53_V7A-v1/AODSIM/PAT_CMG_V5_16_0/cmgTuple_18_1_Xf9.root
p249
(lp250
I01
aI10000
asV/store/cmst3/group/cmgtools/CMG/SUSYGluGluToHToTauTau_M-300_8TeV-pythia6-tauola/Summer12_DR53X-PU_S10_START53_V7A-v1/AODSIM/PAT_CMG_V5_16_0/cmgTuple_28_1_HTF.root
p251
(lp252
I01
aI10000
asV/store/cmst3/group/cmgtools/CMG/SUSYGluGluToHToTauTau_M-300_8TeV-pythia6-tauola/Summer12_DR53X-PU_S10_START53_V7A-v1/AODSIM/PAT_CMG_V5_16_0/cmgTuple_23_1_TYH.root
p253
(lp254
I01
aI10000
asV/store/cmst3/group/cmgtools/CMG/SUSYGluGluToHToTauTau_M-300_8TeV-pythia6-tauola/Summer12_DR53X-PU_S10_START53_V7A-v1/AODSIM/PAT_CMG_V5_16_0/cmgTuple_53_1_r9N.root
p255
(lp256
I01
aI10000
asV/store/cmst3/group/cmgtools/CMG/SUSYGluGluToHToTauTau_M-300_8TeV-pythia6-tauola/Summer12_DR53X-PU_S10_START53_V7A-v1/AODSIM/PAT_CMG_V5_16_0/cmgTuple_63_1_mk7.root
p257
(lp258
I01
aI10000
asV/store/cmst3/group/cmgtools/CMG/SUSYGluGluToHToTauTau_M-300_8TeV-pythia6-tauola/Summer12_DR53X-PU_S10_START53_V7A-v1/AODSIM/PAT_CMG_V5_16_0/cmgTuple_24_1_6B0.root
p259
(lp260
I01
aI10000
asV/store/cmst3/group/cmgtools/CMG/SUSYGluGluToHToTauTau_M-300_8TeV-pythia6-tauola/Summer12_DR53X-PU_S10_START53_V7A-v1/AODSIM/PAT_CMG_V5_16_0/cmgTuple_30_1_jGa.root
p261
(lp262
I01
aI10000
asV/store/cmst3/group/cmgtools/CMG/SUSYGluGluToHToTauTau_M-300_8TeV-pythia6-tauola/Summer12_DR53X-PU_S10_START53_V7A-v1/AODSIM/PAT_CMG_V5_16_0/cmgTuple_33_1_IRc.root
p263
(lp264
I01
aI10000
asV/store/cmst3/group/cmgtools/CMG/SUSYGluGluToHToTauTau_M-300_8TeV-pythia6-tauola/Summer12_DR53X-PU_S10_START53_V7A-v1/AODSIM/PAT_CMG_V5_16_0/cmgTuple_50_1_sSs.root
p265
(lp266
I01
aI10000
asV/store/cmst3/group/cmgtools/CMG/SUSYGluGluToHToTauTau_M-300_8TeV-pythia6-tauola/Summer12_DR53X-PU_S10_START53_V7A-v1/AODSIM/PAT_CMG_V5_16_0/cmgTuple_85_1_xNw.root
p267
(lp268
I01
aI10000
asV/store/cmst3/group/cmgtools/CMG/SUSYGluGluToHToTauTau_M-300_8TeV-pythia6-tauola/Summer12_DR53X-PU_S10_START53_V7A-v1/AODSIM/PAT_CMG_V5_16_0/cmgTuple_13_1_kFt.root
p269
(lp270
I01
aI10000
asV/store/cmst3/group/cmgtools/CMG/SUSYGluGluToHToTauTau_M-300_8TeV-pythia6-tauola/Summer12_DR53X-PU_S10_START53_V7A-v1/AODSIM/PAT_CMG_V5_16_0/cmgTuple_15_1_esU.root
p271
(lp272
I01
aI10000
asV/store/cmst3/group/cmgtools/CMG/SUSYGluGluToHToTauTau_M-300_8TeV-pythia6-tauola/Summer12_DR53X-PU_S10_START53_V7A-v1/AODSIM/PAT_CMG_V5_16_0/cmgTuple_75_1_Yxo.root
p273
(lp274
I01
aI10000
asV/store/cmst3/group/cmgtools/CMG/SUSYGluGluToHToTauTau_M-300_8TeV-pythia6-tauola/Summer12_DR53X-PU_S10_START53_V7A-v1/AODSIM/PAT_CMG_V5_16_0/cmgTuple_78_1_cDZ.root
p275
(lp276
I01
aI10000
asV/store/cmst3/group/cmgtools/CMG/SUSYGluGluToHToTauTau_M-300_8TeV-pythia6-tauola/Summer12_DR53X-PU_S10_START53_V7A-v1/AODSIM/PAT_CMG_V5_16_0/cmgTuple_26_1_tOo.root
p277
(lp278
I01
aI10000
asV/store/cmst3/group/cmgtools/CMG/SUSYGluGluToHToTauTau_M-300_8TeV-pythia6-tauola/Summer12_DR53X-PU_S10_START53_V7A-v1/AODSIM/PAT_CMG_V5_16_0/cmgTuple_65_1_wvg.root
p279
(lp280
I01
aI10000
asV/store/cmst3/group/cmgtools/CMG/SUSYGluGluToHToTauTau_M-300_8TeV-pythia6-tauola/Summer12_DR53X-PU_S10_START53_V7A-v1/AODSIM/PAT_CMG_V5_16_0/cmgTuple_37_1_zya.root
p281
(lp282
I01
aI10000
asV/store/cmst3/group/cmgtools/CMG/SUSYGluGluToHToTauTau_M-300_8TeV-pythia6-tauola/Summer12_DR53X-PU_S10_START53_V7A-v1/AODSIM/PAT_CMG_V5_16_0/cmgTuple_70_1_PUT.root
p283
(lp284
I01
aI10000
asV/store/cmst3/group/cmgtools/CMG/SUSYGluGluToHToTauTau_M-300_8TeV-pythia6-tauola/Summer12_DR53X-PU_S10_START53_V7A-v1/AODSIM/PAT_CMG_V5_16_0/cmgTuple_66_1_7CI.root
p285
(lp286
I01
aI10000
asV/store/cmst3/group/cmgtools/CMG/SUSYGluGluToHToTauTau_M-300_8TeV-pythia6-tauola/Summer12_DR53X-PU_S10_START53_V7A-v1/AODSIM/PAT_CMG_V5_16_0/cmgTuple_43_1_7U5.root
p287
(lp288
I01
aI10000
asV/store/cmst3/group/cmgtools/CMG/SUSYGluGluToHToTauTau_M-300_8TeV-pythia6-tauola/Summer12_DR53X-PU_S10_START53_V7A-v1/AODSIM/PAT_CMG_V5_16_0/cmgTuple_21_1_4Iz.root
p289
(lp290
I01
aI10000
asV/store/cmst3/group/cmgtools/CMG/SUSYGluGluToHToTauTau_M-300_8TeV-pythia6-tauola/Summer12_DR53X-PU_S10_START53_V7A-v1/AODSIM/PAT_CMG_V5_16_0/cmgTuple_54_1_Ms5.root
p291
(lp292
I01
aI10000
asV/store/cmst3/group/cmgtools/CMG/SUSYGluGluToHToTauTau_M-300_8TeV-pythia6-tauola/Summer12_DR53X-PU_S10_START53_V7A-v1/AODSIM/PAT_CMG_V5_16_0/cmgTuple_1_1_C16.root
p293
(lp294
I01
aI10000
asV/store/cmst3/group/cmgtools/CMG/SUSYGluGluToHToTauTau_M-300_8TeV-pythia6-tauola/Summer12_DR53X-PU_S10_START53_V7A-v1/AODSIM/PAT_CMG_V5_16_0/cmgTuple_41_1_5HK.root
p295
(lp296
I01
aI10000
asV/store/cmst3/group/cmgtools/CMG/SUSYGluGluToHToTauTau_M-300_8TeV-pythia6-tauola/Summer12_DR53X-PU_S10_START53_V7A-v1/AODSIM/PAT_CMG_V5_16_0/cmgTuple_16_1_t6s.root
p297
(lp298
I01
aI10000
asV/store/cmst3/group/cmgtools/CMG/SUSYGluGluToHToTauTau_M-300_8TeV-pythia6-tauola/Summer12_DR53X-PU_S10_START53_V7A-v1/AODSIM/PAT_CMG_V5_16_0/cmgTuple_46_1_PkG.root
p299
(lp300
I01
aI10000
asV/store/cmst3/group/cmgtools/CMG/SUSYGluGluToHToTauTau_M-300_8TeV-pythia6-tauola/Summer12_DR53X-PU_S10_START53_V7A-v1/AODSIM/PAT_CMG_V5_16_0/cmgTuple_25_1_b0l.root
p301
(lp302
I01
aI10000
asV/store/cmst3/group/cmgtools/CMG/SUSYGluGluToHToTauTau_M-300_8TeV-pythia6-tauola/Summer12_DR53X-PU_S10_START53_V7A-v1/AODSIM/PAT_CMG_V5_16_0/cmgTuple_45_1_jWO.root
p303
(lp304
I01
aI10000
asV/store/cmst3/group/cmgtools/CMG/SUSYGluGluToHToTauTau_M-300_8TeV-pythia6-tauola/Summer12_DR53X-PU_S10_START53_V7A-v1/AODSIM/PAT_CMG_V5_16_0/cmgTuple_14_1_NFY.root
p305
(lp306
I01
aI10000
asV/store/cmst3/group/cmgtools/CMG/SUSYGluGluToHToTauTau_M-300_8TeV-pythia6-tauola/Summer12_DR53X-PU_S10_START53_V7A-v1/AODSIM/PAT_CMG_V5_16_0/cmgTuple_73_1_JDS.root
p307
(lp308
I01
aI10000
asV/store/cmst3/group/cmgtools/CMG/SUSYGluGluToHToTauTau_M-300_8TeV-pythia6-tauola/Summer12_DR53X-PU_S10_START53_V7A-v1/AODSIM/PAT_CMG_V5_16_0/cmgTuple_72_1_dYj.root
p309
(lp310
I01
aI10000
asV/store/cmst3/group/cmgtools/CMG/SUSYGluGluToHToTauTau_M-300_8TeV-pythia6-tauola/Summer12_DR53X-PU_S10_START53_V7A-v1/AODSIM/PAT_CMG_V5_16_0/cmgTuple_90_1_giW.root
p311
(lp312
I01
aI10000
asV/store/cmst3/group/cmgtools/CMG/SUSYGluGluToHToTauTau_M-300_8TeV-pythia6-tauola/Summer12_DR53X-PU_S10_START53_V7A-v1/AODSIM/PAT_CMG_V5_16_0/cmgTuple_96_1_h1U.root
p313
(lp314
I01
aI10000
asV/store/cmst3/group/cmgtools/CMG/SUSYGluGluToHToTauTau_M-300_8TeV-pythia6-tauola/Summer12_DR53X-PU_S10_START53_V7A-v1/AODSIM/PAT_CMG_V5_16_0/cmgTuple_69_1_2oT.root
p315
(lp316
I01
aI10000
asV/store/cmst3/group/cmgtools/CMG/SUSYGluGluToHToTauTau_M-300_8TeV-pythia6-tauola/Summer12_DR53X-PU_S10_START53_V7A-v1/AODSIM/PAT_CMG_V5_16_0/cmgTuple_92_1_Kf7.root
p317
(lp318
I01
aI10000
asV/store/cmst3/group/cmgtools/CMG/SUSYGluGluToHToTauTau_M-300_8TeV-pythia6-tauola/Summer12_DR53X-PU_S10_START53_V7A-v1/AODSIM/PAT_CMG_V5_16_0/cmgTuple_100_1_MjN.root
p319
(lp320
I01
aI1068
asV/store/cmst3/group/cmgtools/CMG/SUSYGluGluToHToTauTau_M-300_8TeV-pythia6-tauola/Summer12_DR53X-PU_S10_START53_V7A-v1/AODSIM/PAT_CMG_V5_16_0/cmgTuple_87_1_QGe.root
p321
(lp322
I01
aI10000
asV/store/cmst3/group/cmgtools/CMG/SUSYGluGluToHToTauTau_M-300_8TeV-pythia6-tauola/Summer12_DR53X-PU_S10_START53_V7A-v1/AODSIM/PAT_CMG_V5_16_0/cmgTuple_27_1_IXh.root
p323
(lp324
I01
aI10000
asV/store/cmst3/group/cmgtools/CMG/SUSYGluGluToHToTauTau_M-300_8TeV-pythia6-tauola/Summer12_DR53X-PU_S10_START53_V7A-v1/AODSIM/PAT_CMG_V5_16_0/cmgTuple_81_1_mc8.root
p325
(lp326
I01
aI10000
asV/store/cmst3/group/cmgtools/CMG/SUSYGluGluToHToTauTau_M-300_8TeV-pythia6-tauola/Summer12_DR53X-PU_S10_START53_V7A-v1/AODSIM/PAT_CMG_V5_16_0/cmgTuple_91_1_Il2.root
p327
(lp328
I01
aI10000
asV/store/cmst3/group/cmgtools/CMG/SUSYGluGluToHToTauTau_M-300_8TeV-pythia6-tauola/Summer12_DR53X-PU_S10_START53_V7A-v1/AODSIM/PAT_CMG_V5_16_0/cmgTuple_59_1_XuM.root
p329
(lp330
I01
aI10000
asV/store/cmst3/group/cmgtools/CMG/SUSYGluGluToHToTauTau_M-300_8TeV-pythia6-tauola/Summer12_DR53X-PU_S10_START53_V7A-v1/AODSIM/PAT_CMG_V5_16_0/cmgTuple_56_1_4aN.root
p331
(lp332
I01
aI10000
asV/store/cmst3/group/cmgtools/CMG/SUSYGluGluToHToTauTau_M-300_8TeV-pythia6-tauola/Summer12_DR53X-PU_S10_START53_V7A-v1/AODSIM/PAT_CMG_V5_16_0/cmgTuple_84_1_A95.root
p333
(lp334
I01
aI10000
asV/store/cmst3/group/cmgtools/CMG/SUSYGluGluToHToTauTau_M-300_8TeV-pythia6-tauola/Summer12_DR53X-PU_S10_START53_V7A-v1/AODSIM/PAT_CMG_V5_16_0/cmgTuple_86_1_Y7J.root
p335
(lp336
I01
aI10000
asV/store/cmst3/group/cmgtools/CMG/SUSYGluGluToHToTauTau_M-300_8TeV-pythia6-tauola/Summer12_DR53X-PU_S10_START53_V7A-v1/AODSIM/PAT_CMG_V5_16_0/cmgTuple_61_1_DKK.root
p337
(lp338
I01
aI10000
asV/store/cmst3/group/cmgtools/CMG/SUSYGluGluToHToTauTau_M-300_8TeV-pythia6-tauola/Summer12_DR53X-PU_S10_START53_V7A-v1/AODSIM/PAT_CMG_V5_16_0/cmgTuple_48_1_Tkq.root
p339
(lp340
I01
aI10000
asV/store/cmst3/group/cmgtools/CMG/SUSYGluGluToHToTauTau_M-300_8TeV-pythia6-tauola/Summer12_DR53X-PU_S10_START53_V7A-v1/AODSIM/PAT_CMG_V5_16_0/cmgTuple_64_1_nyM.root
p341
(lp342
I01
aI10000
asV/store/cmst3/group/cmgtools/CMG/SUSYGluGluToHToTauTau_M-300_8TeV-pythia6-tauola/Summer12_DR53X-PU_S10_START53_V7A-v1/AODSIM/PAT_CMG_V5_16_0/cmgTuple_17_1_lZb.root
p343
(lp344
I01
aI10000
asV/store/cmst3/group/cmgtools/CMG/SUSYGluGluToHToTauTau_M-300_8TeV-pythia6-tauola/Summer12_DR53X-PU_S10_START53_V7A-v1/AODSIM/PAT_CMG_V5_16_0/cmgTuple_5_1_qsO.root
p345
(lp346
I01
aI10000
assVPhysicsGroup
p347
VCMG
p348
sVFilesCount
p349
I93
sVFilesEntries
p350
I910976
sVRunList
p351
(lp352
sVValidDuplicates
p353
(dp354
sVPrimaryDataset
p355
V/SUSYGluGluToHToTauTau_M-300_8TeV-pythia6-tauola/Summer12_DR53X-PU_S10_START53_V7A-v1/AODSIM
p356
sVStatus
p357
VVALID
p358
sVName
p359
V/SUSYGluGluToHToTauTau_M-300_8TeV-pythia6-tauola/Summer12_DR53X-PU_S10_START53_V7A-v1/AODSIM/PAT_CMG_V5_16_0
p360
sVTopdir
p361
V/eos/cms/store/cmst3/group/cmgtools/CMG
p362
sVdata
p363
(dp364
sVFilesBad
p365
I0
sVMinRun
p366
I-1
sVAlgoList
p367
(lp368
sVTierList
p369
(lp370
sVDateCreated
p371
V1371077170
p372
sVCreatedBy
p373
Vcmgtools_group
p374
sVMaxRun
p375
I-1
sVBadJobs
p376
(lp377
I8
aI9
aI12
aI19
aI35
aI44
aI74
aI88
assg109
I01
ssS'MonitorJobs'
p378
(dp379
S'LSFJobStatus'
p380
(dp381
g112
S'SUSYGluGluToHToTauTau_M-300_8TeV-pythia6-tauola/Summer12_DR53X-PU_S10_START53_V7A-v1/AODSIM/PAT_CMG_V5_16_0_1377467570/HTT_24Jul_newTES_manzoni_Up_Jobs/Job_15/LSFJOB_440973170/STDOUT.gz'
p382
sg113
S'SUSYGluGluToHToTauTau_M-300_8TeV-pythia6-tauola/Summer12_DR53X-PU_S10_START53_V7A-v1/AODSIM/PAT_CMG_V5_16_0_1377467570/HTT_24Jul_newTES_manzoni_Up_Jobs/Job_14/LSFJOB_440973088/STDOUT.gz'
p383
sg114
S'SUSYGluGluToHToTauTau_M-300_8TeV-pythia6-tauola/Summer12_DR53X-PU_S10_START53_V7A-v1/AODSIM/PAT_CMG_V5_16_0_1377467570/HTT_24Jul_newTES_manzoni_Up_Jobs/Job_17/LSFJOB_440973310/STDOUT.gz'
p384
sg115
S'SUSYGluGluToHToTauTau_M-300_8TeV-pythia6-tauola/Summer12_DR53X-PU_S10_START53_V7A-v1/AODSIM/PAT_CMG_V5_16_0_1377467570/HTT_24Jul_newTES_manzoni_Up_Jobs/Job_16/LSFJOB_440973245/STDOUT.gz'
p385
sg116
S'SUSYGluGluToHToTauTau_M-300_8TeV-pythia6-tauola/Summer12_DR53X-PU_S10_START53_V7A-v1/AODSIM/PAT_CMG_V5_16_0_1377467570/HTT_24Jul_newTES_manzoni_Up_Jobs/Job_11/LSFJOB_440972800/STDOUT.gz'
p386
sg117
S'SUSYGluGluToHToTauTau_M-300_8TeV-pythia6-tauola/Summer12_DR53X-PU_S10_START53_V7A-v1/AODSIM/PAT_CMG_V5_16_0_1377467570/HTT_24Jul_newTES_manzoni_Up_Jobs/Job_10/LSFJOB_440972701/STDOUT.gz'
p387
sg118
S'SUSYGluGluToHToTauTau_M-300_8TeV-pythia6-tauola/Summer12_DR53X-PU_S10_START53_V7A-v1/AODSIM/PAT_CMG_V5_16_0_1377467570/HTT_24Jul_newTES_manzoni_Up_Jobs/Job_13/LSFJOB_440972977/STDOUT.gz'
p388
sg119
S'SUSYGluGluToHToTauTau_M-300_8TeV-pythia6-tauola/Summer12_DR53X-PU_S10_START53_V7A-v1/AODSIM/PAT_CMG_V5_16_0_1377467570/HTT_24Jul_newTES_manzoni_Up_Jobs/Job_12/LSFJOB_440972887/STDOUT.gz'
p389
sg120
S'SUSYGluGluToHToTauTau_M-300_8TeV-pythia6-tauola/Summer12_DR53X-PU_S10_START53_V7A-v1/AODSIM/PAT_CMG_V5_16_0_1377467570/HTT_24Jul_newTES_manzoni_Up_Jobs/Job_19/LSFJOB_440973444/STDOUT.gz'
p390
sg121
S'SUSYGluGluToHToTauTau_M-300_8TeV-pythia6-tauola/Summer12_DR53X-PU_S10_START53_V7A-v1/AODSIM/PAT_CMG_V5_16_0_1377467570/HTT_24Jul_newTES_manzoni_Up_Jobs/Job_18/LSFJOB_440973388/STDOUT.gz'
p391
sg122
S'SUSYGluGluToHToTauTau_M-300_8TeV-pythia6-tauola/Summer12_DR53X-PU_S10_START53_V7A-v1/AODSIM/PAT_CMG_V5_16_0_1377467570/HTT_24Jul_newTES_manzoni_Up_Jobs/Job_31/LSFJOB_440974356/STDOUT.gz'
p392
sg123
S'SUSYGluGluToHToTauTau_M-300_8TeV-pythia6-tauola/Summer12_DR53X-PU_S10_START53_V7A-v1/AODSIM/PAT_CMG_V5_16_0_1377467570/HTT_24Jul_newTES_manzoni_Up_Jobs/Job_30/LSFJOB_440974303/STDOUT.gz'
p393
sg124
S'SUSYGluGluToHToTauTau_M-300_8TeV-pythia6-tauola/Summer12_DR53X-PU_S10_START53_V7A-v1/AODSIM/PAT_CMG_V5_16_0_1377467570/HTT_24Jul_newTES_manzoni_Up_Jobs/Job_20/LSFJOB_440973503/STDOUT.gz'
p394
sg125
S'SUSYGluGluToHToTauTau_M-300_8TeV-pythia6-tauola/Summer12_DR53X-PU_S10_START53_V7A-v1/AODSIM/PAT_CMG_V5_16_0_1377467570/HTT_24Jul_newTES_manzoni_Up_Jobs/Job_21/LSFJOB_440973568/STDOUT.gz'
p395
sg126
S'SUSYGluGluToHToTauTau_M-300_8TeV-pythia6-tauola/Summer12_DR53X-PU_S10_START53_V7A-v1/AODSIM/PAT_CMG_V5_16_0_1377467570/HTT_24Jul_newTES_manzoni_Up_Jobs/Job_22/LSFJOB_440973656/STDOUT.gz'
p396
sg127
S'SUSYGluGluToHToTauTau_M-300_8TeV-pythia6-tauola/Summer12_DR53X-PU_S10_START53_V7A-v1/AODSIM/PAT_CMG_V5_16_0_1377467570/HTT_24Jul_newTES_manzoni_Up_Jobs/Job_23/LSFJOB_440973726/STDOUT.gz'
p397
sg128
S'SUSYGluGluToHToTauTau_M-300_8TeV-pythia6-tauola/Summer12_DR53X-PU_S10_START53_V7A-v1/AODSIM/PAT_CMG_V5_16_0_1377467570/HTT_24Jul_newTES_manzoni_Up_Jobs/Job_24/LSFJOB_440973838/STDOUT.gz'
p398
sg129
S'SUSYGluGluToHToTauTau_M-300_8TeV-pythia6-tauola/Summer12_DR53X-PU_S10_START53_V7A-v1/AODSIM/PAT_CMG_V5_16_0_1377467570/HTT_24Jul_newTES_manzoni_Up_Jobs/Job_25/LSFJOB_440973942/STDOUT.gz'
p399
sg130
S'SUSYGluGluToHToTauTau_M-300_8TeV-pythia6-tauola/Summer12_DR53X-PU_S10_START53_V7A-v1/AODSIM/PAT_CMG_V5_16_0_1377467570/HTT_24Jul_newTES_manzoni_Up_Jobs/Job_26/LSFJOB_440974030/STDOUT.gz'
p400
sg131
S'SUSYGluGluToHToTauTau_M-300_8TeV-pythia6-tauola/Summer12_DR53X-PU_S10_START53_V7A-v1/AODSIM/PAT_CMG_V5_16_0_1377467570/HTT_24Jul_newTES_manzoni_Up_Jobs/Job_27/LSFJOB_440974100/STDOUT.gz'
p401
sg132
S'SUSYGluGluToHToTauTau_M-300_8TeV-pythia6-tauola/Summer12_DR53X-PU_S10_START53_V7A-v1/AODSIM/PAT_CMG_V5_16_0_1377467570/HTT_24Jul_newTES_manzoni_Up_Jobs/Job_28/LSFJOB_440974187/STDOUT.gz'
p402
sg133
S'SUSYGluGluToHToTauTau_M-300_8TeV-pythia6-tauola/Summer12_DR53X-PU_S10_START53_V7A-v1/AODSIM/PAT_CMG_V5_16_0_1377467570/HTT_24Jul_newTES_manzoni_Up_Jobs/Job_29/LSFJOB_440974235/STDOUT.gz'
p403
sg134
S'SUSYGluGluToHToTauTau_M-300_8TeV-pythia6-tauola/Summer12_DR53X-PU_S10_START53_V7A-v1/AODSIM/PAT_CMG_V5_16_0_1377467570/HTT_24Jul_newTES_manzoni_Up_Jobs/Job_5/LSFJOB_440972208/STDOUT.gz'
p404
sg135
S'SUSYGluGluToHToTauTau_M-300_8TeV-pythia6-tauola/Summer12_DR53X-PU_S10_START53_V7A-v1/AODSIM/PAT_CMG_V5_16_0_1377467570/HTT_24Jul_newTES_manzoni_Up_Jobs/Job_4/LSFJOB_440972139/STDOUT.gz'
p405
sg136
S'SUSYGluGluToHToTauTau_M-300_8TeV-pythia6-tauola/Summer12_DR53X-PU_S10_START53_V7A-v1/AODSIM/PAT_CMG_V5_16_0_1377467570/HTT_24Jul_newTES_manzoni_Up_Jobs/Job_7/LSFJOB_440972380/STDOUT.gz'
p406
sg137
S'SUSYGluGluToHToTauTau_M-300_8TeV-pythia6-tauola/Summer12_DR53X-PU_S10_START53_V7A-v1/AODSIM/PAT_CMG_V5_16_0_1377467570/HTT_24Jul_newTES_manzoni_Up_Jobs/Job_6/LSFJOB_440972287/STDOUT.gz'
p407
sg138
S'SUSYGluGluToHToTauTau_M-300_8TeV-pythia6-tauola/Summer12_DR53X-PU_S10_START53_V7A-v1/AODSIM/PAT_CMG_V5_16_0_1377467570/HTT_24Jul_newTES_manzoni_Up_Jobs/Job_1/LSFJOB_440971878/STDOUT.gz'
p408
sg139
S'SUSYGluGluToHToTauTau_M-300_8TeV-pythia6-tauola/Summer12_DR53X-PU_S10_START53_V7A-v1/AODSIM/PAT_CMG_V5_16_0_1377467570/HTT_24Jul_newTES_manzoni_Up_Jobs/Job_3/LSFJOB_440972056/STDOUT.gz'
p409
sg140
S'SUSYGluGluToHToTauTau_M-300_8TeV-pythia6-tauola/Summer12_DR53X-PU_S10_START53_V7A-v1/AODSIM/PAT_CMG_V5_16_0_1377467570/HTT_24Jul_newTES_manzoni_Up_Jobs/Job_2/LSFJOB_440971963/STDOUT.gz'
p410
sg141
S'SUSYGluGluToHToTauTau_M-300_8TeV-pythia6-tauola/Summer12_DR53X-PU_S10_START53_V7A-v1/AODSIM/PAT_CMG_V5_16_0_1377467570/HTT_24Jul_newTES_manzoni_Up_Jobs/Job_9/LSFJOB_440972640/STDOUT.gz'
p411
sg142
S'SUSYGluGluToHToTauTau_M-300_8TeV-pythia6-tauola/Summer12_DR53X-PU_S10_START53_V7A-v1/AODSIM/PAT_CMG_V5_16_0_1377467570/HTT_24Jul_newTES_manzoni_Up_Jobs/Job_8/LSFJOB_440972510/STDOUT.gz'
p412
ssS'LSFJobIDs'
p413
(dp414
g112
S'440973170'
p415
sg113
S'440973088'
p416
sg114
S'440973310'
p417
sg115
S'440973245'
p418
sg116
S'440972800'
p419
sg117
S'440972701'
p420
sg118
S'440972977'
p421
sg119
S'440972887'
p422
sg120
S'440973444'
p423
sg121
S'440973388'
p424
sg122
S'440974356'
p425
sg123
S'440974303'
p426
sg124
S'440973503'
p427
sg125
S'440973568'
p428
sg126
S'440973656'
p429
sg127
S'440973726'
p430
sg128
S'440973838'
p431
sg129
S'440973942'
p432
sg130
S'440974030'
p433
sg131
S'440974100'
p434
sg132
S'440974187'
p435
sg133
S'440974235'
p436
sg134
S'440972208'
p437
sg135
S'440972139'
p438
sg136
S'440972380'
p439
sg137
S'440972287'
p440
sg138
S'440971878'
p441
sg139
S'440972056'
p442
sg140
S'440971963'
p443
sg141
S'440972640'
p444
sg142
S'440972510'
p445
sssS'FindOnCastor'
p446
(dp447
g71
S'/eos/cms/store/cmst3/group/cmgtools/CMG'
p448
sS'Directory'
p449
S'/eos/cms/store/cmst3/group/cmgtools/CMG/SUSYGluGluToHToTauTau_M-300_8TeV-pythia6-tauola/Summer12_DR53X-PU_S10_START53_V7A-v1/AODSIM/PAT_CMG_V5_16_0'
p450
ssS'CheckConfig'
p451
(dp452
g87
g88
ssS'FullCFG'
p453
(dp454
S'FullCFG'
p455
S'SUSYGluGluToHToTauTau_M-300_8TeV-pythia6-tauola/Summer12_DR53X-PU_S10_START53_V7A-v1/AODSIM/PAT_CMG_V5_16_0_1377467570/full_cfg.py'
p456
ssS'WriteJobReport'
p457
(dp458
S'SummaryFile'
p459
S'SUSYGluGluToHToTauTau_M-300_8TeV-pythia6-tauola/Summer12_DR53X-PU_S10_START53_V7A-v1/AODSIM/PAT_CMG_V5_16_0_1377467570/resubmit.sh'
p460
ssS'ExpandConfig'
p461
(dp462
S'ExpandedFullCFG'
p463
S'SUSYGluGluToHToTauTau_M-300_8TeV-pythia6-tauola/Summer12_DR53X-PU_S10_START53_V7A-v1/AODSIM/PAT_CMG_V5_16_0_1377467570/Expandedfull_cfg.py'
p464
ssS'RunTestEvents'
p465
(dp466
g87
g88
sS'TestCFG'
p467
S'SUSYGluGluToHToTauTau_M-300_8TeV-pythia6-tauola/Summer12_DR53X-PU_S10_START53_V7A-v1/AODSIM/PAT_CMG_V5_16_0_1377467570/test_cfg.py'
p468
ssS'SourceCFG'
p469
(dp470
S'SourceCFG'
p471
S'SUSYGluGluToHToTauTau_M-300_8TeV-pythia6-tauola/Summer12_DR53X-PU_S10_START53_V7A-v1/AODSIM/PAT_CMG_V5_16_0_1377467570/source_cfg.py'
p472
ssS'CheckForWrite'
p473
(dp474
g449
g450
sS'WriteAccess'
p475
I01
ssS'WriteToDatasets'
p476
(dp477
S'Added'
p478
I00
sg69
S'/SUSYGluGluToHToTauTau_M-300_8TeV-pythia6-tauola/Summer12_DR53X-PU_S10_START53_V7A-v1/AODSIM/PAT_CMG_V5_16_0/HTT_24Jul_newTES_manzoni_Up'
p479
sS'User'
p480
g102
ssS'RunCMSBatch'
p481
(dp482
S'BatchUser'
p483
g102
sS'SampleOutputDir'
p484
S'/store/cmst3/user/manzoni/CMG/SUSYGluGluToHToTauTau_M-300_8TeV-pythia6-tauola/Summer12_DR53X-PU_S10_START53_V7A-v1/AODSIM/PAT_CMG_V5_16_0/HTT_24Jul_newTES_manzoni_Up'
p485
sS'SampleDataset'
p486
g70
sS'LSFJobsTopDir'
p487
S'SUSYGluGluToHToTauTau_M-300_8TeV-pythia6-tauola/Summer12_DR53X-PU_S10_START53_V7A-v1/AODSIM/PAT_CMG_V5_16_0_1377467570/HTT_24Jul_newTES_manzoni_Up_Jobs'
p488
ssS'CreateJobDirectory'
p489
(dp490
S'JobDir'
p491
S'SUSYGluGluToHToTauTau_M-300_8TeV-pythia6-tauola/Summer12_DR53X-PU_S10_START53_V7A-v1/AODSIM/PAT_CMG_V5_16_0_1377467570'
p492
sS'PWD'
p493
S'/afs/cern.ch/user/m/manzoni/summer13/CMGTools/CMSSW_5_3_9/src/CMGTools/H2TauTau/prod/25aug_corrMC/up/mc'
p494
ssS'CleanJobFiles'
p495
(dp496
S'Compressed'
p497
(dp498
S'CompressedFiles'
p499
(lp500
ssS'Cleaned'
p501
(dp502
S'CleanedFiles'
p503
(lp504
g464
ag468
aS'SUSYGluGluToHToTauTau_M-300_8TeV-pythia6-tauola/Summer12_DR53X-PU_S10_START53_V7A-v1/AODSIM/PAT_CMG_V5_16_0_1377467570/diTau_fullsel_tree_CMG.root'
p505
aS'SUSYGluGluToHToTauTau_M-300_8TeV-pythia6-tauola/Summer12_DR53X-PU_S10_START53_V7A-v1/AODSIM/PAT_CMG_V5_16_0_1377467570/source_cfg.pyc'
p506
aS'SUSYGluGluToHToTauTau_M-300_8TeV-pythia6-tauola/Summer12_DR53X-PU_S10_START53_V7A-v1/AODSIM/PAT_CMG_V5_16_0_1377467570/Expandedfull_cfg.pyc'
p507
asssS'CheckForMask'
p508
(dp509
g3
g149
sg109
I01
ss.