(dp0
S'CheckJobStatus'
p1
(dp2
S'Report'
p3
(dp4
S'Files'
p5
(dp6
S'/store/cmst3/user/manzoni/CMG/SUSYGluGluToHToTauTau_M-120_8TeV-pythia6-tauola/Summer12_DR53X-PU_S10_START53_V7A-v1/AODSIM/PAT_CMG_V5_16_0/HTT_24Jul_newTES_manzoni_Up/diTau_fullsel_tree_CMG_10.root'
p7
(I01
I473
tp8
sS'/store/cmst3/user/manzoni/CMG/SUSYGluGluToHToTauTau_M-120_8TeV-pythia6-tauola/Summer12_DR53X-PU_S10_START53_V7A-v1/AODSIM/PAT_CMG_V5_16_0/HTT_24Jul_newTES_manzoni_Up/diTau_fullsel_tree_CMG_29.root'
p9
(I01
I451
tp10
sS'/store/cmst3/user/manzoni/CMG/SUSYGluGluToHToTauTau_M-120_8TeV-pythia6-tauola/Summer12_DR53X-PU_S10_START53_V7A-v1/AODSIM/PAT_CMG_V5_16_0/HTT_24Jul_newTES_manzoni_Up/diTau_fullsel_tree_CMG_4.root'
p11
(I01
I425
tp12
sS'/store/cmst3/user/manzoni/CMG/SUSYGluGluToHToTauTau_M-120_8TeV-pythia6-tauola/Summer12_DR53X-PU_S10_START53_V7A-v1/AODSIM/PAT_CMG_V5_16_0/HTT_24Jul_newTES_manzoni_Up/diTau_fullsel_tree_CMG_32.root'
p13
(I01
I449
tp14
sS'/store/cmst3/user/manzoni/CMG/SUSYGluGluToHToTauTau_M-120_8TeV-pythia6-tauola/Summer12_DR53X-PU_S10_START53_V7A-v1/AODSIM/PAT_CMG_V5_16_0/HTT_24Jul_newTES_manzoni_Up/diTau_fullsel_tree_CMG_8.root'
p15
(I01
I457
tp16
sS'/store/cmst3/user/manzoni/CMG/SUSYGluGluToHToTauTau_M-120_8TeV-pythia6-tauola/Summer12_DR53X-PU_S10_START53_V7A-v1/AODSIM/PAT_CMG_V5_16_0/HTT_24Jul_newTES_manzoni_Up/diTau_fullsel_tree_CMG_15.root'
p17
(I01
I471
tp18
sS'/store/cmst3/user/manzoni/CMG/SUSYGluGluToHToTauTau_M-120_8TeV-pythia6-tauola/Summer12_DR53X-PU_S10_START53_V7A-v1/AODSIM/PAT_CMG_V5_16_0/HTT_24Jul_newTES_manzoni_Up/diTau_fullsel_tree_CMG_7.root'
p19
(I01
I470
tp20
sS'/store/cmst3/user/manzoni/CMG/SUSYGluGluToHToTauTau_M-120_8TeV-pythia6-tauola/Summer12_DR53X-PU_S10_START53_V7A-v1/AODSIM/PAT_CMG_V5_16_0/HTT_24Jul_newTES_manzoni_Up/diTau_fullsel_tree_CMG_9.root'
p21
(I01
I453
tp22
sS'/store/cmst3/user/manzoni/CMG/SUSYGluGluToHToTauTau_M-120_8TeV-pythia6-tauola/Summer12_DR53X-PU_S10_START53_V7A-v1/AODSIM/PAT_CMG_V5_16_0/HTT_24Jul_newTES_manzoni_Up/diTau_fullsel_tree_CMG_23.root'
p23
(I01
I477
tp24
sS'/store/cmst3/user/manzoni/CMG/SUSYGluGluToHToTauTau_M-120_8TeV-pythia6-tauola/Summer12_DR53X-PU_S10_START53_V7A-v1/AODSIM/PAT_CMG_V5_16_0/HTT_24Jul_newTES_manzoni_Up/diTau_fullsel_tree_CMG_21.root'
p25
(I01
I486
tp26
sS'/store/cmst3/user/manzoni/CMG/SUSYGluGluToHToTauTau_M-120_8TeV-pythia6-tauola/Summer12_DR53X-PU_S10_START53_V7A-v1/AODSIM/PAT_CMG_V5_16_0/HTT_24Jul_newTES_manzoni_Up/diTau_fullsel_tree_CMG_11.root'
p27
(I01
I424
tp28
sS'/store/cmst3/user/manzoni/CMG/SUSYGluGluToHToTauTau_M-120_8TeV-pythia6-tauola/Summer12_DR53X-PU_S10_START53_V7A-v1/AODSIM/PAT_CMG_V5_16_0/HTT_24Jul_newTES_manzoni_Up/diTau_fullsel_tree_CMG_22.root'
p29
(I01
I434
tp30
sS'/store/cmst3/user/manzoni/CMG/SUSYGluGluToHToTauTau_M-120_8TeV-pythia6-tauola/Summer12_DR53X-PU_S10_START53_V7A-v1/AODSIM/PAT_CMG_V5_16_0/HTT_24Jul_newTES_manzoni_Up/diTau_fullsel_tree_CMG_13.root'
p31
(I01
I504
tp32
sS'/store/cmst3/user/manzoni/CMG/SUSYGluGluToHToTauTau_M-120_8TeV-pythia6-tauola/Summer12_DR53X-PU_S10_START53_V7A-v1/AODSIM/PAT_CMG_V5_16_0/HTT_24Jul_newTES_manzoni_Up/diTau_fullsel_tree_CMG_12.root'
p33
(I01
I512
tp34
sS'/store/cmst3/user/manzoni/CMG/SUSYGluGluToHToTauTau_M-120_8TeV-pythia6-tauola/Summer12_DR53X-PU_S10_START53_V7A-v1/AODSIM/PAT_CMG_V5_16_0/HTT_24Jul_newTES_manzoni_Up/diTau_fullsel_tree_CMG_17.root'
p35
(I01
I432
tp36
sS'/store/cmst3/user/manzoni/CMG/SUSYGluGluToHToTauTau_M-120_8TeV-pythia6-tauola/Summer12_DR53X-PU_S10_START53_V7A-v1/AODSIM/PAT_CMG_V5_16_0/HTT_24Jul_newTES_manzoni_Up/diTau_fullsel_tree_CMG_25.root'
p37
(I01
I483
tp38
sS'/store/cmst3/user/manzoni/CMG/SUSYGluGluToHToTauTau_M-120_8TeV-pythia6-tauola/Summer12_DR53X-PU_S10_START53_V7A-v1/AODSIM/PAT_CMG_V5_16_0/HTT_24Jul_newTES_manzoni_Up/diTau_fullsel_tree_CMG_3.root'
p39
(I01
I451
tp40
sS'/store/cmst3/user/manzoni/CMG/SUSYGluGluToHToTauTau_M-120_8TeV-pythia6-tauola/Summer12_DR53X-PU_S10_START53_V7A-v1/AODSIM/PAT_CMG_V5_16_0/HTT_24Jul_newTES_manzoni_Up/diTau_fullsel_tree_CMG_33.root'
p41
(I01
I432
tp42
sS'/store/cmst3/user/manzoni/CMG/SUSYGluGluToHToTauTau_M-120_8TeV-pythia6-tauola/Summer12_DR53X-PU_S10_START53_V7A-v1/AODSIM/PAT_CMG_V5_16_0/HTT_24Jul_newTES_manzoni_Up/diTau_fullsel_tree_CMG_26.root'
p43
(I01
I452
tp44
sS'/store/cmst3/user/manzoni/CMG/SUSYGluGluToHToTauTau_M-120_8TeV-pythia6-tauola/Summer12_DR53X-PU_S10_START53_V7A-v1/AODSIM/PAT_CMG_V5_16_0/HTT_24Jul_newTES_manzoni_Up/diTau_fullsel_tree_CMG_1.root'
p45
(I01
I392
tp46
sS'/store/cmst3/user/manzoni/CMG/SUSYGluGluToHToTauTau_M-120_8TeV-pythia6-tauola/Summer12_DR53X-PU_S10_START53_V7A-v1/AODSIM/PAT_CMG_V5_16_0/HTT_24Jul_newTES_manzoni_Up/diTau_fullsel_tree_CMG_2.root'
p47
(I01
I479
tp48
sS'/store/cmst3/user/manzoni/CMG/SUSYGluGluToHToTauTau_M-120_8TeV-pythia6-tauola/Summer12_DR53X-PU_S10_START53_V7A-v1/AODSIM/PAT_CMG_V5_16_0/HTT_24Jul_newTES_manzoni_Up/diTau_fullsel_tree_CMG_20.root'
p49
(I01
I497
tp50
sS'/store/cmst3/user/manzoni/CMG/SUSYGluGluToHToTauTau_M-120_8TeV-pythia6-tauola/Summer12_DR53X-PU_S10_START53_V7A-v1/AODSIM/PAT_CMG_V5_16_0/HTT_24Jul_newTES_manzoni_Up/diTau_fullsel_tree_CMG_16.root'
p51
(I01
I453
tp52
sS'/store/cmst3/user/manzoni/CMG/SUSYGluGluToHToTauTau_M-120_8TeV-pythia6-tauola/Summer12_DR53X-PU_S10_START53_V7A-v1/AODSIM/PAT_CMG_V5_16_0/HTT_24Jul_newTES_manzoni_Up/diTau_fullsel_tree_CMG_30.root'
p53
(I01
I463
tp54
sS'/store/cmst3/user/manzoni/CMG/SUSYGluGluToHToTauTau_M-120_8TeV-pythia6-tauola/Summer12_DR53X-PU_S10_START53_V7A-v1/AODSIM/PAT_CMG_V5_16_0/HTT_24Jul_newTES_manzoni_Up/diTau_fullsel_tree_CMG_5.root'
p55
(I01
I397
tp56
sS'/store/cmst3/user/manzoni/CMG/SUSYGluGluToHToTauTau_M-120_8TeV-pythia6-tauola/Summer12_DR53X-PU_S10_START53_V7A-v1/AODSIM/PAT_CMG_V5_16_0/HTT_24Jul_newTES_manzoni_Up/diTau_fullsel_tree_CMG_19.root'
p57
(I01
I447
tp58
sS'/store/cmst3/user/manzoni/CMG/SUSYGluGluToHToTauTau_M-120_8TeV-pythia6-tauola/Summer12_DR53X-PU_S10_START53_V7A-v1/AODSIM/PAT_CMG_V5_16_0/HTT_24Jul_newTES_manzoni_Up/diTau_fullsel_tree_CMG_14.root'
p59
(I01
I445
tp60
sS'/store/cmst3/user/manzoni/CMG/SUSYGluGluToHToTauTau_M-120_8TeV-pythia6-tauola/Summer12_DR53X-PU_S10_START53_V7A-v1/AODSIM/PAT_CMG_V5_16_0/HTT_24Jul_newTES_manzoni_Up/diTau_fullsel_tree_CMG_6.root'
p61
(I01
I514
tp62
sS'/store/cmst3/user/manzoni/CMG/SUSYGluGluToHToTauTau_M-120_8TeV-pythia6-tauola/Summer12_DR53X-PU_S10_START53_V7A-v1/AODSIM/PAT_CMG_V5_16_0/HTT_24Jul_newTES_manzoni_Up/diTau_fullsel_tree_CMG_24.root'
p63
(I01
I487
tp64
sS'/store/cmst3/user/manzoni/CMG/SUSYGluGluToHToTauTau_M-120_8TeV-pythia6-tauola/Summer12_DR53X-PU_S10_START53_V7A-v1/AODSIM/PAT_CMG_V5_16_0/HTT_24Jul_newTES_manzoni_Up/diTau_fullsel_tree_CMG_28.root'
p65
(I01
I451
tp66
sS'/store/cmst3/user/manzoni/CMG/SUSYGluGluToHToTauTau_M-120_8TeV-pythia6-tauola/Summer12_DR53X-PU_S10_START53_V7A-v1/AODSIM/PAT_CMG_V5_16_0/HTT_24Jul_newTES_manzoni_Up/diTau_fullsel_tree_CMG_31.root'
p67
(I01
I480
tp68
sS'/store/cmst3/user/manzoni/CMG/SUSYGluGluToHToTauTau_M-120_8TeV-pythia6-tauola/Summer12_DR53X-PU_S10_START53_V7A-v1/AODSIM/PAT_CMG_V5_16_0/HTT_24Jul_newTES_manzoni_Up/diTau_fullsel_tree_CMG_18.root'
p69
(I01
I482
tp70
sS'/store/cmst3/user/manzoni/CMG/SUSYGluGluToHToTauTau_M-120_8TeV-pythia6-tauola/Summer12_DR53X-PU_S10_START53_V7A-v1/AODSIM/PAT_CMG_V5_16_0/HTT_24Jul_newTES_manzoni_Up/diTau_fullsel_tree_CMG_27.root'
p71
(I01
I442
tp72
ssS'Name'
p73
S'/SUSYGluGluToHToTauTau_M-120_8TeV-pythia6-tauola/Summer12_DR53X-PU_S10_START53_V7A-v1/AODSIM/PAT_CMG_V5_16_0/HTT_24Jul_newTES_manzoni_Up'
p74
sS'Topdir'
p75
S'/eos/cms/store/cmst3/user/manzoni/CMG'
p76
sS'RunList'
p77
(lp78
sS'PathList'
p79
(lp80
S'/store/cmst3/user/manzoni/CMG/SUSYGluGluToHToTauTau_M-120_8TeV-pythia6-tauola/Summer12_DR53X-PU_S10_START53_V7A-v1/AODSIM/PAT_CMG_V5_16_0/HTT_24Jul_newTES_manzoni_Up'
p81
asS'AlgoList'
p82
(lp83
sS'PrimaryDatasetFraction'
p84
F0.015155603525813995
sS'FilesGood'
p85
I33
sS'PrimaryDatasetEntries'
p86
I1000620
sS'data'
p87
(dp88
sS'FilesBad'
p89
I0
sS'ReportVersion'
p90
I3
sS'Status'
p91
S'VALID'
p92
sS'MaxRun'
p93
I-1
sS'PhysicsGroup'
p94
S'CMG'
p95
sS'MinRun'
p96
I-1
sS'StageHost'
p97
S'castorcms'
p98
sS'FilesCount'
p99
I33
sS'FilesEntries'
p100
I15165
sS'TierList'
p101
(lp102
sS'DateCreated'
p103
S'1377479169'
p104
sS'CreatedBy'
p105
S'manzoni'
p106
sS'ValidDuplicates'
p107
(dp108
sS'PrimaryDataset'
p109
S'/SUSYGluGluToHToTauTau_M-120_8TeV-pythia6-tauola/Summer12_DR53X-PU_S10_START53_V7A-v1/AODSIM'
p110
sS'BadJobs'
p111
(lp112
ssS'MaskPresent'
p113
I01
sS'LSFJobStatusCheck'
p114
(dp115
S'SUSYGluGluToHToTauTau_M-120_8TeV-pythia6-tauola/Summer12_DR53X-PU_S10_START53_V7A-v1/AODSIM/PAT_CMG_V5_16_0_1377467520/HTT_24Jul_newTES_manzoni_Up_Jobs/Job_30'
p116
g92
sS'SUSYGluGluToHToTauTau_M-120_8TeV-pythia6-tauola/Summer12_DR53X-PU_S10_START53_V7A-v1/AODSIM/PAT_CMG_V5_16_0_1377467520/HTT_24Jul_newTES_manzoni_Up_Jobs/Job_31'
p117
g92
sS'SUSYGluGluToHToTauTau_M-120_8TeV-pythia6-tauola/Summer12_DR53X-PU_S10_START53_V7A-v1/AODSIM/PAT_CMG_V5_16_0_1377467520/HTT_24Jul_newTES_manzoni_Up_Jobs/Job_32'
p118
g92
sS'SUSYGluGluToHToTauTau_M-120_8TeV-pythia6-tauola/Summer12_DR53X-PU_S10_START53_V7A-v1/AODSIM/PAT_CMG_V5_16_0_1377467520/HTT_24Jul_newTES_manzoni_Up_Jobs/Job_33'
p119
g92
sS'SUSYGluGluToHToTauTau_M-120_8TeV-pythia6-tauola/Summer12_DR53X-PU_S10_START53_V7A-v1/AODSIM/PAT_CMG_V5_16_0_1377467520/HTT_24Jul_newTES_manzoni_Up_Jobs/Job_8'
p120
g92
sS'SUSYGluGluToHToTauTau_M-120_8TeV-pythia6-tauola/Summer12_DR53X-PU_S10_START53_V7A-v1/AODSIM/PAT_CMG_V5_16_0_1377467520/HTT_24Jul_newTES_manzoni_Up_Jobs/Job_9'
p121
g92
sS'SUSYGluGluToHToTauTau_M-120_8TeV-pythia6-tauola/Summer12_DR53X-PU_S10_START53_V7A-v1/AODSIM/PAT_CMG_V5_16_0_1377467520/HTT_24Jul_newTES_manzoni_Up_Jobs/Job_1'
p122
g92
sS'SUSYGluGluToHToTauTau_M-120_8TeV-pythia6-tauola/Summer12_DR53X-PU_S10_START53_V7A-v1/AODSIM/PAT_CMG_V5_16_0_1377467520/HTT_24Jul_newTES_manzoni_Up_Jobs/Job_2'
p123
g92
sS'SUSYGluGluToHToTauTau_M-120_8TeV-pythia6-tauola/Summer12_DR53X-PU_S10_START53_V7A-v1/AODSIM/PAT_CMG_V5_16_0_1377467520/HTT_24Jul_newTES_manzoni_Up_Jobs/Job_3'
p124
g92
sS'SUSYGluGluToHToTauTau_M-120_8TeV-pythia6-tauola/Summer12_DR53X-PU_S10_START53_V7A-v1/AODSIM/PAT_CMG_V5_16_0_1377467520/HTT_24Jul_newTES_manzoni_Up_Jobs/Job_4'
p125
g92
sS'SUSYGluGluToHToTauTau_M-120_8TeV-pythia6-tauola/Summer12_DR53X-PU_S10_START53_V7A-v1/AODSIM/PAT_CMG_V5_16_0_1377467520/HTT_24Jul_newTES_manzoni_Up_Jobs/Job_5'
p126
g92
sS'SUSYGluGluToHToTauTau_M-120_8TeV-pythia6-tauola/Summer12_DR53X-PU_S10_START53_V7A-v1/AODSIM/PAT_CMG_V5_16_0_1377467520/HTT_24Jul_newTES_manzoni_Up_Jobs/Job_6'
p127
g92
sS'SUSYGluGluToHToTauTau_M-120_8TeV-pythia6-tauola/Summer12_DR53X-PU_S10_START53_V7A-v1/AODSIM/PAT_CMG_V5_16_0_1377467520/HTT_24Jul_newTES_manzoni_Up_Jobs/Job_7'
p128
g92
sS'SUSYGluGluToHToTauTau_M-120_8TeV-pythia6-tauola/Summer12_DR53X-PU_S10_START53_V7A-v1/AODSIM/PAT_CMG_V5_16_0_1377467520/HTT_24Jul_newTES_manzoni_Up_Jobs/Job_12'
p129
g92
sS'SUSYGluGluToHToTauTau_M-120_8TeV-pythia6-tauola/Summer12_DR53X-PU_S10_START53_V7A-v1/AODSIM/PAT_CMG_V5_16_0_1377467520/HTT_24Jul_newTES_manzoni_Up_Jobs/Job_13'
p130
g92
sS'SUSYGluGluToHToTauTau_M-120_8TeV-pythia6-tauola/Summer12_DR53X-PU_S10_START53_V7A-v1/AODSIM/PAT_CMG_V5_16_0_1377467520/HTT_24Jul_newTES_manzoni_Up_Jobs/Job_10'
p131
g92
sS'SUSYGluGluToHToTauTau_M-120_8TeV-pythia6-tauola/Summer12_DR53X-PU_S10_START53_V7A-v1/AODSIM/PAT_CMG_V5_16_0_1377467520/HTT_24Jul_newTES_manzoni_Up_Jobs/Job_11'
p132
g92
sS'SUSYGluGluToHToTauTau_M-120_8TeV-pythia6-tauola/Summer12_DR53X-PU_S10_START53_V7A-v1/AODSIM/PAT_CMG_V5_16_0_1377467520/HTT_24Jul_newTES_manzoni_Up_Jobs/Job_16'
p133
g92
sS'SUSYGluGluToHToTauTau_M-120_8TeV-pythia6-tauola/Summer12_DR53X-PU_S10_START53_V7A-v1/AODSIM/PAT_CMG_V5_16_0_1377467520/HTT_24Jul_newTES_manzoni_Up_Jobs/Job_17'
p134
g92
sS'SUSYGluGluToHToTauTau_M-120_8TeV-pythia6-tauola/Summer12_DR53X-PU_S10_START53_V7A-v1/AODSIM/PAT_CMG_V5_16_0_1377467520/HTT_24Jul_newTES_manzoni_Up_Jobs/Job_14'
p135
g92
sS'SUSYGluGluToHToTauTau_M-120_8TeV-pythia6-tauola/Summer12_DR53X-PU_S10_START53_V7A-v1/AODSIM/PAT_CMG_V5_16_0_1377467520/HTT_24Jul_newTES_manzoni_Up_Jobs/Job_15'
p136
g92
sS'SUSYGluGluToHToTauTau_M-120_8TeV-pythia6-tauola/Summer12_DR53X-PU_S10_START53_V7A-v1/AODSIM/PAT_CMG_V5_16_0_1377467520/HTT_24Jul_newTES_manzoni_Up_Jobs/Job_18'
p137
g92
sS'SUSYGluGluToHToTauTau_M-120_8TeV-pythia6-tauola/Summer12_DR53X-PU_S10_START53_V7A-v1/AODSIM/PAT_CMG_V5_16_0_1377467520/HTT_24Jul_newTES_manzoni_Up_Jobs/Job_19'
p138
g92
sS'SUSYGluGluToHToTauTau_M-120_8TeV-pythia6-tauola/Summer12_DR53X-PU_S10_START53_V7A-v1/AODSIM/PAT_CMG_V5_16_0_1377467520/HTT_24Jul_newTES_manzoni_Up_Jobs/Job_29'
p139
g92
sS'SUSYGluGluToHToTauTau_M-120_8TeV-pythia6-tauola/Summer12_DR53X-PU_S10_START53_V7A-v1/AODSIM/PAT_CMG_V5_16_0_1377467520/HTT_24Jul_newTES_manzoni_Up_Jobs/Job_28'
p140
g92
sS'SUSYGluGluToHToTauTau_M-120_8TeV-pythia6-tauola/Summer12_DR53X-PU_S10_START53_V7A-v1/AODSIM/PAT_CMG_V5_16_0_1377467520/HTT_24Jul_newTES_manzoni_Up_Jobs/Job_23'
p141
g92
sS'SUSYGluGluToHToTauTau_M-120_8TeV-pythia6-tauola/Summer12_DR53X-PU_S10_START53_V7A-v1/AODSIM/PAT_CMG_V5_16_0_1377467520/HTT_24Jul_newTES_manzoni_Up_Jobs/Job_22'
p142
g92
sS'SUSYGluGluToHToTauTau_M-120_8TeV-pythia6-tauola/Summer12_DR53X-PU_S10_START53_V7A-v1/AODSIM/PAT_CMG_V5_16_0_1377467520/HTT_24Jul_newTES_manzoni_Up_Jobs/Job_21'
p143
g92
sS'SUSYGluGluToHToTauTau_M-120_8TeV-pythia6-tauola/Summer12_DR53X-PU_S10_START53_V7A-v1/AODSIM/PAT_CMG_V5_16_0_1377467520/HTT_24Jul_newTES_manzoni_Up_Jobs/Job_20'
p144
g92
sS'SUSYGluGluToHToTauTau_M-120_8TeV-pythia6-tauola/Summer12_DR53X-PU_S10_START53_V7A-v1/AODSIM/PAT_CMG_V5_16_0_1377467520/HTT_24Jul_newTES_manzoni_Up_Jobs/Job_27'
p145
g92
sS'SUSYGluGluToHToTauTau_M-120_8TeV-pythia6-tauola/Summer12_DR53X-PU_S10_START53_V7A-v1/AODSIM/PAT_CMG_V5_16_0_1377467520/HTT_24Jul_newTES_manzoni_Up_Jobs/Job_26'
p146
g92
sS'SUSYGluGluToHToTauTau_M-120_8TeV-pythia6-tauola/Summer12_DR53X-PU_S10_START53_V7A-v1/AODSIM/PAT_CMG_V5_16_0_1377467520/HTT_24Jul_newTES_manzoni_Up_Jobs/Job_25'
p147
g92
sS'SUSYGluGluToHToTauTau_M-120_8TeV-pythia6-tauola/Summer12_DR53X-PU_S10_START53_V7A-v1/AODSIM/PAT_CMG_V5_16_0_1377467520/HTT_24Jul_newTES_manzoni_Up_Jobs/Job_24'
p148
g92
sssS'CheckDatasetExists'
p149
(dp150
S'Dataset'
p151
S'/SUSYGluGluToHToTauTau_M-120_8TeV-pythia6-tauola/Summer12_DR53X-PU_S10_START53_V7A-v1/AODSIM/PAT_CMG_V5_16_0'
p152
ssS'GenerateMask'
p153
(dp154
g3
(dp155
VPathList
p156
(lp157
V/store/cmst3/group/cmgtools/CMG/SUSYGluGluToHToTauTau_M-110_8TeV-pythia6-tauola/Summer12_DR53X-PU_S10_START53_V7A-v1/AODSIM/PAT_CMG_V5_16_0
p158
asVStageHost
p159
Vcastorcms
p160
sVPrimaryDatasetFraction
p161
F0.99000347878938133
sVFilesGood
p162
I100
sVPrimaryDatasetEntries
p163
I1000348
sVReportVersion
p164
I3
sVFiles
p165
(dp166
V/store/cmst3/group/cmgtools/CMG/SUSYGluGluToHToTauTau_M-110_8TeV-pythia6-tauola/Summer12_DR53X-PU_S10_START53_V7A-v1/AODSIM/PAT_CMG_V5_16_0/cmgTuple_56_1_WCI.root
p167
(lp168
I01
aI10000
asV/store/cmst3/group/cmgtools/CMG/SUSYGluGluToHToTauTau_M-110_8TeV-pythia6-tauola/Summer12_DR53X-PU_S10_START53_V7A-v1/AODSIM/PAT_CMG_V5_16_0/cmgTuple_29_1_rRx.root
p169
(lp170
I01
aI10000
asV/store/cmst3/group/cmgtools/CMG/SUSYGluGluToHToTauTau_M-110_8TeV-pythia6-tauola/Summer12_DR53X-PU_S10_START53_V7A-v1/AODSIM/PAT_CMG_V5_16_0/cmgTuple_82_1_kXY.root
p171
(lp172
I01
aI10000
asV/store/cmst3/group/cmgtools/CMG/SUSYGluGluToHToTauTau_M-110_8TeV-pythia6-tauola/Summer12_DR53X-PU_S10_START53_V7A-v1/AODSIM/PAT_CMG_V5_16_0/cmgTuple_71_1_MGI.root
p173
(lp174
I01
aI10000
asV/store/cmst3/group/cmgtools/CMG/SUSYGluGluToHToTauTau_M-110_8TeV-pythia6-tauola/Summer12_DR53X-PU_S10_START53_V7A-v1/AODSIM/PAT_CMG_V5_16_0/cmgTuple_84_1_OVQ.root
p175
(lp176
I01
aI10000
asV/store/cmst3/group/cmgtools/CMG/SUSYGluGluToHToTauTau_M-110_8TeV-pythia6-tauola/Summer12_DR53X-PU_S10_START53_V7A-v1/AODSIM/PAT_CMG_V5_16_0/cmgTuple_43_1_f10.root
p177
(lp178
I01
aI10000
asV/store/cmst3/group/cmgtools/CMG/SUSYGluGluToHToTauTau_M-110_8TeV-pythia6-tauola/Summer12_DR53X-PU_S10_START53_V7A-v1/AODSIM/PAT_CMG_V5_16_0/cmgTuple_46_1_4xi.root
p179
(lp180
I01
aI10000
asV/store/cmst3/group/cmgtools/CMG/SUSYGluGluToHToTauTau_M-110_8TeV-pythia6-tauola/Summer12_DR53X-PU_S10_START53_V7A-v1/AODSIM/PAT_CMG_V5_16_0/cmgTuple_57_1_Nj7.root
p181
(lp182
I01
aI10000
asV/store/cmst3/group/cmgtools/CMG/SUSYGluGluToHToTauTau_M-110_8TeV-pythia6-tauola/Summer12_DR53X-PU_S10_START53_V7A-v1/AODSIM/PAT_CMG_V5_16_0/cmgTuple_10_1_N8B.root
p183
(lp184
I01
aI10000
asV/store/cmst3/group/cmgtools/CMG/SUSYGluGluToHToTauTau_M-110_8TeV-pythia6-tauola/Summer12_DR53X-PU_S10_START53_V7A-v1/AODSIM/PAT_CMG_V5_16_0/cmgTuple_96_1_mbm.root
p185
(lp186
I01
aI10000
asV/store/cmst3/group/cmgtools/CMG/SUSYGluGluToHToTauTau_M-110_8TeV-pythia6-tauola/Summer12_DR53X-PU_S10_START53_V7A-v1/AODSIM/PAT_CMG_V5_16_0/cmgTuple_80_1_vB8.root
p187
(lp188
I01
aI10000
asV/store/cmst3/group/cmgtools/CMG/SUSYGluGluToHToTauTau_M-110_8TeV-pythia6-tauola/Summer12_DR53X-PU_S10_START53_V7A-v1/AODSIM/PAT_CMG_V5_16_0/cmgTuple_21_1_GqI.root
p189
(lp190
I01
aI10000
asV/store/cmst3/group/cmgtools/CMG/SUSYGluGluToHToTauTau_M-110_8TeV-pythia6-tauola/Summer12_DR53X-PU_S10_START53_V7A-v1/AODSIM/PAT_CMG_V5_16_0/cmgTuple_60_1_zig.root
p191
(lp192
I01
aI10000
asV/store/cmst3/group/cmgtools/CMG/SUSYGluGluToHToTauTau_M-110_8TeV-pythia6-tauola/Summer12_DR53X-PU_S10_START53_V7A-v1/AODSIM/PAT_CMG_V5_16_0/cmgTuple_25_1_fIV.root
p193
(lp194
I01
aI10000
asV/store/cmst3/group/cmgtools/CMG/SUSYGluGluToHToTauTau_M-110_8TeV-pythia6-tauola/Summer12_DR53X-PU_S10_START53_V7A-v1/AODSIM/PAT_CMG_V5_16_0/cmgTuple_51_1_0T4.root
p195
(lp196
I01
aI10000
asV/store/cmst3/group/cmgtools/CMG/SUSYGluGluToHToTauTau_M-110_8TeV-pythia6-tauola/Summer12_DR53X-PU_S10_START53_V7A-v1/AODSIM/PAT_CMG_V5_16_0/cmgTuple_75_1_jeq.root
p197
(lp198
I01
aI10000
asV/store/cmst3/group/cmgtools/CMG/SUSYGluGluToHToTauTau_M-110_8TeV-pythia6-tauola/Summer12_DR53X-PU_S10_START53_V7A-v1/AODSIM/PAT_CMG_V5_16_0/cmgTuple_55_1_NYn.root
p199
(lp200
I01
aI10000
asV/store/cmst3/group/cmgtools/CMG/SUSYGluGluToHToTauTau_M-110_8TeV-pythia6-tauola/Summer12_DR53X-PU_S10_START53_V7A-v1/AODSIM/PAT_CMG_V5_16_0/cmgTuple_61_1_NqI.root
p201
(lp202
I01
aI10000
asV/store/cmst3/group/cmgtools/CMG/SUSYGluGluToHToTauTau_M-110_8TeV-pythia6-tauola/Summer12_DR53X-PU_S10_START53_V7A-v1/AODSIM/PAT_CMG_V5_16_0/cmgTuple_69_1_fI9.root
p203
(lp204
I01
aI10000
asV/store/cmst3/group/cmgtools/CMG/SUSYGluGluToHToTauTau_M-110_8TeV-pythia6-tauola/Summer12_DR53X-PU_S10_START53_V7A-v1/AODSIM/PAT_CMG_V5_16_0/cmgTuple_18_1_eGb.root
p205
(lp206
I01
aI10000
asV/store/cmst3/group/cmgtools/CMG/SUSYGluGluToHToTauTau_M-110_8TeV-pythia6-tauola/Summer12_DR53X-PU_S10_START53_V7A-v1/AODSIM/PAT_CMG_V5_16_0/cmgTuple_47_1_sE8.root
p207
(lp208
I01
aI10000
asV/store/cmst3/group/cmgtools/CMG/SUSYGluGluToHToTauTau_M-110_8TeV-pythia6-tauola/Summer12_DR53X-PU_S10_START53_V7A-v1/AODSIM/PAT_CMG_V5_16_0/cmgTuple_67_1_wsJ.root
p209
(lp210
I01
aI10000
asV/store/cmst3/group/cmgtools/CMG/SUSYGluGluToHToTauTau_M-110_8TeV-pythia6-tauola/Summer12_DR53X-PU_S10_START53_V7A-v1/AODSIM/PAT_CMG_V5_16_0/cmgTuple_68_1_Jrc.root
p211
(lp212
I01
aI10000
asV/store/cmst3/group/cmgtools/CMG/SUSYGluGluToHToTauTau_M-110_8TeV-pythia6-tauola/Summer12_DR53X-PU_S10_START53_V7A-v1/AODSIM/PAT_CMG_V5_16_0/cmgTuple_17_1_H6b.root
p213
(lp214
I01
aI10000
asV/store/cmst3/group/cmgtools/CMG/SUSYGluGluToHToTauTau_M-110_8TeV-pythia6-tauola/Summer12_DR53X-PU_S10_START53_V7A-v1/AODSIM/PAT_CMG_V5_16_0/cmgTuple_11_1_AY5.root
p215
(lp216
I01
aI10000
asV/store/cmst3/group/cmgtools/CMG/SUSYGluGluToHToTauTau_M-110_8TeV-pythia6-tauola/Summer12_DR53X-PU_S10_START53_V7A-v1/AODSIM/PAT_CMG_V5_16_0/cmgTuple_13_1_YUd.root
p217
(lp218
I01
aI10000
asV/store/cmst3/group/cmgtools/CMG/SUSYGluGluToHToTauTau_M-110_8TeV-pythia6-tauola/Summer12_DR53X-PU_S10_START53_V7A-v1/AODSIM/PAT_CMG_V5_16_0/cmgTuple_23_1_cSb.root
p219
(lp220
I01
aI10000
asV/store/cmst3/group/cmgtools/CMG/SUSYGluGluToHToTauTau_M-110_8TeV-pythia6-tauola/Summer12_DR53X-PU_S10_START53_V7A-v1/AODSIM/PAT_CMG_V5_16_0/cmgTuple_28_1_oGz.root
p221
(lp222
I01
aI10000
asV/store/cmst3/group/cmgtools/CMG/SUSYGluGluToHToTauTau_M-110_8TeV-pythia6-tauola/Summer12_DR53X-PU_S10_START53_V7A-v1/AODSIM/PAT_CMG_V5_16_0/cmgTuple_27_1_ClS.root
p223
(lp224
I01
aI10000
asV/store/cmst3/group/cmgtools/CMG/SUSYGluGluToHToTauTau_M-110_8TeV-pythia6-tauola/Summer12_DR53X-PU_S10_START53_V7A-v1/AODSIM/PAT_CMG_V5_16_0/cmgTuple_12_1_FdT.root
p225
(lp226
I01
aI10000
asV/store/cmst3/group/cmgtools/CMG/SUSYGluGluToHToTauTau_M-110_8TeV-pythia6-tauola/Summer12_DR53X-PU_S10_START53_V7A-v1/AODSIM/PAT_CMG_V5_16_0/cmgTuple_26_1_WSA.root
p227
(lp228
I01
aI10000
asV/store/cmst3/group/cmgtools/CMG/SUSYGluGluToHToTauTau_M-110_8TeV-pythia6-tauola/Summer12_DR53X-PU_S10_START53_V7A-v1/AODSIM/PAT_CMG_V5_16_0/cmgTuple_40_1_TFN.root
p229
(lp230
I01
aI10000
asV/store/cmst3/group/cmgtools/CMG/SUSYGluGluToHToTauTau_M-110_8TeV-pythia6-tauola/Summer12_DR53X-PU_S10_START53_V7A-v1/AODSIM/PAT_CMG_V5_16_0/cmgTuple_94_1_KCa.root
p231
(lp232
I01
aI10000
asV/store/cmst3/group/cmgtools/CMG/SUSYGluGluToHToTauTau_M-110_8TeV-pythia6-tauola/Summer12_DR53X-PU_S10_START53_V7A-v1/AODSIM/PAT_CMG_V5_16_0/cmgTuple_16_1_ZbY.root
p233
(lp234
I01
aI10000
asV/store/cmst3/group/cmgtools/CMG/SUSYGluGluToHToTauTau_M-110_8TeV-pythia6-tauola/Summer12_DR53X-PU_S10_START53_V7A-v1/AODSIM/PAT_CMG_V5_16_0/cmgTuple_83_1_CiN.root
p235
(lp236
I01
aI10000
asV/store/cmst3/group/cmgtools/CMG/SUSYGluGluToHToTauTau_M-110_8TeV-pythia6-tauola/Summer12_DR53X-PU_S10_START53_V7A-v1/AODSIM/PAT_CMG_V5_16_0/cmgTuple_98_1_lWS.root
p237
(lp238
I01
aI10000
asV/store/cmst3/group/cmgtools/CMG/SUSYGluGluToHToTauTau_M-110_8TeV-pythia6-tauola/Summer12_DR53X-PU_S10_START53_V7A-v1/AODSIM/PAT_CMG_V5_16_0/cmgTuple_101_1_ovL.root
p239
(lp240
I01
aI7138
asV/store/cmst3/group/cmgtools/CMG/SUSYGluGluToHToTauTau_M-110_8TeV-pythia6-tauola/Summer12_DR53X-PU_S10_START53_V7A-v1/AODSIM/PAT_CMG_V5_16_0/cmgTuple_48_1_PRx.root
p241
(lp242
I01
aI10000
asV/store/cmst3/group/cmgtools/CMG/SUSYGluGluToHToTauTau_M-110_8TeV-pythia6-tauola/Summer12_DR53X-PU_S10_START53_V7A-v1/AODSIM/PAT_CMG_V5_16_0/cmgTuple_9_1_yUI.root
p243
(lp244
I01
aI10000
asV/store/cmst3/group/cmgtools/CMG/SUSYGluGluToHToTauTau_M-110_8TeV-pythia6-tauola/Summer12_DR53X-PU_S10_START53_V7A-v1/AODSIM/PAT_CMG_V5_16_0/cmgTuple_2_1_rHm.root
p245
(lp246
I01
aI10000
asV/store/cmst3/group/cmgtools/CMG/SUSYGluGluToHToTauTau_M-110_8TeV-pythia6-tauola/Summer12_DR53X-PU_S10_START53_V7A-v1/AODSIM/PAT_CMG_V5_16_0/cmgTuple_78_1_6ZI.root
p247
(lp248
I01
aI10000
asV/store/cmst3/group/cmgtools/CMG/SUSYGluGluToHToTauTau_M-110_8TeV-pythia6-tauola/Summer12_DR53X-PU_S10_START53_V7A-v1/AODSIM/PAT_CMG_V5_16_0/cmgTuple_72_1_73K.root
p249
(lp250
I01
aI10000
asV/store/cmst3/group/cmgtools/CMG/SUSYGluGluToHToTauTau_M-110_8TeV-pythia6-tauola/Summer12_DR53X-PU_S10_START53_V7A-v1/AODSIM/PAT_CMG_V5_16_0/cmgTuple_5_1_9ML.root
p251
(lp252
I01
aI10000
asV/store/cmst3/group/cmgtools/CMG/SUSYGluGluToHToTauTau_M-110_8TeV-pythia6-tauola/Summer12_DR53X-PU_S10_START53_V7A-v1/AODSIM/PAT_CMG_V5_16_0/cmgTuple_41_1_JJc.root
p253
(lp254
I01
aI10000
asV/store/cmst3/group/cmgtools/CMG/SUSYGluGluToHToTauTau_M-110_8TeV-pythia6-tauola/Summer12_DR53X-PU_S10_START53_V7A-v1/AODSIM/PAT_CMG_V5_16_0/cmgTuple_8_1_0N8.root
p255
(lp256
I01
aI10000
asV/store/cmst3/group/cmgtools/CMG/SUSYGluGluToHToTauTau_M-110_8TeV-pythia6-tauola/Summer12_DR53X-PU_S10_START53_V7A-v1/AODSIM/PAT_CMG_V5_16_0/cmgTuple_52_1_5rE.root
p257
(lp258
I01
aI10000
asV/store/cmst3/group/cmgtools/CMG/SUSYGluGluToHToTauTau_M-110_8TeV-pythia6-tauola/Summer12_DR53X-PU_S10_START53_V7A-v1/AODSIM/PAT_CMG_V5_16_0/cmgTuple_93_1_toS.root
p259
(lp260
I01
aI10000
asV/store/cmst3/group/cmgtools/CMG/SUSYGluGluToHToTauTau_M-110_8TeV-pythia6-tauola/Summer12_DR53X-PU_S10_START53_V7A-v1/AODSIM/PAT_CMG_V5_16_0/cmgTuple_22_1_Yi3.root
p261
(lp262
I01
aI10000
asV/store/cmst3/group/cmgtools/CMG/SUSYGluGluToHToTauTau_M-110_8TeV-pythia6-tauola/Summer12_DR53X-PU_S10_START53_V7A-v1/AODSIM/PAT_CMG_V5_16_0/cmgTuple_19_1_Xkz.root
p263
(lp264
I01
aI10000
asV/store/cmst3/group/cmgtools/CMG/SUSYGluGluToHToTauTau_M-110_8TeV-pythia6-tauola/Summer12_DR53X-PU_S10_START53_V7A-v1/AODSIM/PAT_CMG_V5_16_0/cmgTuple_64_1_HhU.root
p265
(lp266
I01
aI10000
asV/store/cmst3/group/cmgtools/CMG/SUSYGluGluToHToTauTau_M-110_8TeV-pythia6-tauola/Summer12_DR53X-PU_S10_START53_V7A-v1/AODSIM/PAT_CMG_V5_16_0/cmgTuple_87_1_q9z.root
p267
(lp268
I01
aI10000
asV/store/cmst3/group/cmgtools/CMG/SUSYGluGluToHToTauTau_M-110_8TeV-pythia6-tauola/Summer12_DR53X-PU_S10_START53_V7A-v1/AODSIM/PAT_CMG_V5_16_0/cmgTuple_24_1_Fjr.root
p269
(lp270
I01
aI10000
asV/store/cmst3/group/cmgtools/CMG/SUSYGluGluToHToTauTau_M-110_8TeV-pythia6-tauola/Summer12_DR53X-PU_S10_START53_V7A-v1/AODSIM/PAT_CMG_V5_16_0/cmgTuple_4_1_mzq.root
p271
(lp272
I01
aI10000
asV/store/cmst3/group/cmgtools/CMG/SUSYGluGluToHToTauTau_M-110_8TeV-pythia6-tauola/Summer12_DR53X-PU_S10_START53_V7A-v1/AODSIM/PAT_CMG_V5_16_0/cmgTuple_99_1_pvr.root
p273
(lp274
I01
aI10000
asV/store/cmst3/group/cmgtools/CMG/SUSYGluGluToHToTauTau_M-110_8TeV-pythia6-tauola/Summer12_DR53X-PU_S10_START53_V7A-v1/AODSIM/PAT_CMG_V5_16_0/cmgTuple_85_1_6ti.root
p275
(lp276
I01
aI10000
asV/store/cmst3/group/cmgtools/CMG/SUSYGluGluToHToTauTau_M-110_8TeV-pythia6-tauola/Summer12_DR53X-PU_S10_START53_V7A-v1/AODSIM/PAT_CMG_V5_16_0/cmgTuple_77_1_Nkt.root
p277
(lp278
I01
aI10000
asV/store/cmst3/group/cmgtools/CMG/SUSYGluGluToHToTauTau_M-110_8TeV-pythia6-tauola/Summer12_DR53X-PU_S10_START53_V7A-v1/AODSIM/PAT_CMG_V5_16_0/cmgTuple_91_1_nHe.root
p279
(lp280
I01
aI10000
asV/store/cmst3/group/cmgtools/CMG/SUSYGluGluToHToTauTau_M-110_8TeV-pythia6-tauola/Summer12_DR53X-PU_S10_START53_V7A-v1/AODSIM/PAT_CMG_V5_16_0/cmgTuple_30_1_kJP.root
p281
(lp282
I01
aI10000
asV/store/cmst3/group/cmgtools/CMG/SUSYGluGluToHToTauTau_M-110_8TeV-pythia6-tauola/Summer12_DR53X-PU_S10_START53_V7A-v1/AODSIM/PAT_CMG_V5_16_0/cmgTuple_66_1_4Nb.root
p283
(lp284
I01
aI10000
asV/store/cmst3/group/cmgtools/CMG/SUSYGluGluToHToTauTau_M-110_8TeV-pythia6-tauola/Summer12_DR53X-PU_S10_START53_V7A-v1/AODSIM/PAT_CMG_V5_16_0/cmgTuple_3_1_bYC.root
p285
(lp286
I01
aI10000
asV/store/cmst3/group/cmgtools/CMG/SUSYGluGluToHToTauTau_M-110_8TeV-pythia6-tauola/Summer12_DR53X-PU_S10_START53_V7A-v1/AODSIM/PAT_CMG_V5_16_0/cmgTuple_76_1_gyv.root
p287
(lp288
I01
aI10000
asV/store/cmst3/group/cmgtools/CMG/SUSYGluGluToHToTauTau_M-110_8TeV-pythia6-tauola/Summer12_DR53X-PU_S10_START53_V7A-v1/AODSIM/PAT_CMG_V5_16_0/cmgTuple_6_1_QJO.root
p289
(lp290
I01
aI3210
asV/store/cmst3/group/cmgtools/CMG/SUSYGluGluToHToTauTau_M-110_8TeV-pythia6-tauola/Summer12_DR53X-PU_S10_START53_V7A-v1/AODSIM/PAT_CMG_V5_16_0/cmgTuple_81_1_2qq.root
p291
(lp292
I01
aI10000
asV/store/cmst3/group/cmgtools/CMG/SUSYGluGluToHToTauTau_M-110_8TeV-pythia6-tauola/Summer12_DR53X-PU_S10_START53_V7A-v1/AODSIM/PAT_CMG_V5_16_0/cmgTuple_36_1_ayg.root
p293
(lp294
I01
aI10000
asV/store/cmst3/group/cmgtools/CMG/SUSYGluGluToHToTauTau_M-110_8TeV-pythia6-tauola/Summer12_DR53X-PU_S10_START53_V7A-v1/AODSIM/PAT_CMG_V5_16_0/cmgTuple_88_1_gc1.root
p295
(lp296
I01
aI10000
asV/store/cmst3/group/cmgtools/CMG/SUSYGluGluToHToTauTau_M-110_8TeV-pythia6-tauola/Summer12_DR53X-PU_S10_START53_V7A-v1/AODSIM/PAT_CMG_V5_16_0/cmgTuple_15_1_dcw.root
p297
(lp298
I01
aI10000
asV/store/cmst3/group/cmgtools/CMG/SUSYGluGluToHToTauTau_M-110_8TeV-pythia6-tauola/Summer12_DR53X-PU_S10_START53_V7A-v1/AODSIM/PAT_CMG_V5_16_0/cmgTuple_50_1_fCg.root
p299
(lp300
I01
aI10000
asV/store/cmst3/group/cmgtools/CMG/SUSYGluGluToHToTauTau_M-110_8TeV-pythia6-tauola/Summer12_DR53X-PU_S10_START53_V7A-v1/AODSIM/PAT_CMG_V5_16_0/cmgTuple_63_1_2Ns.root
p301
(lp302
I01
aI10000
asV/store/cmst3/group/cmgtools/CMG/SUSYGluGluToHToTauTau_M-110_8TeV-pythia6-tauola/Summer12_DR53X-PU_S10_START53_V7A-v1/AODSIM/PAT_CMG_V5_16_0/cmgTuple_79_1_TNO.root
p303
(lp304
I01
aI10000
asV/store/cmst3/group/cmgtools/CMG/SUSYGluGluToHToTauTau_M-110_8TeV-pythia6-tauola/Summer12_DR53X-PU_S10_START53_V7A-v1/AODSIM/PAT_CMG_V5_16_0/cmgTuple_100_1_VGJ.root
p305
(lp306
I01
aI10000
asV/store/cmst3/group/cmgtools/CMG/SUSYGluGluToHToTauTau_M-110_8TeV-pythia6-tauola/Summer12_DR53X-PU_S10_START53_V7A-v1/AODSIM/PAT_CMG_V5_16_0/cmgTuple_20_1_hxr.root
p307
(lp308
I01
aI10000
asV/store/cmst3/group/cmgtools/CMG/SUSYGluGluToHToTauTau_M-110_8TeV-pythia6-tauola/Summer12_DR53X-PU_S10_START53_V7A-v1/AODSIM/PAT_CMG_V5_16_0/cmgTuple_42_1_jHb.root
p309
(lp310
I01
aI10000
asV/store/cmst3/group/cmgtools/CMG/SUSYGluGluToHToTauTau_M-110_8TeV-pythia6-tauola/Summer12_DR53X-PU_S10_START53_V7A-v1/AODSIM/PAT_CMG_V5_16_0/cmgTuple_95_1_vZG.root
p311
(lp312
I01
aI10000
asV/store/cmst3/group/cmgtools/CMG/SUSYGluGluToHToTauTau_M-110_8TeV-pythia6-tauola/Summer12_DR53X-PU_S10_START53_V7A-v1/AODSIM/PAT_CMG_V5_16_0/cmgTuple_1_1_QUO.root
p313
(lp314
I01
aI10000
asV/store/cmst3/group/cmgtools/CMG/SUSYGluGluToHToTauTau_M-110_8TeV-pythia6-tauola/Summer12_DR53X-PU_S10_START53_V7A-v1/AODSIM/PAT_CMG_V5_16_0/cmgTuple_74_1_533.root
p315
(lp316
I01
aI10000
asV/store/cmst3/group/cmgtools/CMG/SUSYGluGluToHToTauTau_M-110_8TeV-pythia6-tauola/Summer12_DR53X-PU_S10_START53_V7A-v1/AODSIM/PAT_CMG_V5_16_0/cmgTuple_90_1_QqR.root
p317
(lp318
I01
aI10000
asV/store/cmst3/group/cmgtools/CMG/SUSYGluGluToHToTauTau_M-110_8TeV-pythia6-tauola/Summer12_DR53X-PU_S10_START53_V7A-v1/AODSIM/PAT_CMG_V5_16_0/cmgTuple_45_1_5x4.root
p319
(lp320
I01
aI10000
asV/store/cmst3/group/cmgtools/CMG/SUSYGluGluToHToTauTau_M-110_8TeV-pythia6-tauola/Summer12_DR53X-PU_S10_START53_V7A-v1/AODSIM/PAT_CMG_V5_16_0/cmgTuple_37_1_aWg.root
p321
(lp322
I01
aI10000
asV/store/cmst3/group/cmgtools/CMG/SUSYGluGluToHToTauTau_M-110_8TeV-pythia6-tauola/Summer12_DR53X-PU_S10_START53_V7A-v1/AODSIM/PAT_CMG_V5_16_0/cmgTuple_33_1_rBT.root
p323
(lp324
I01
aI10000
asV/store/cmst3/group/cmgtools/CMG/SUSYGluGluToHToTauTau_M-110_8TeV-pythia6-tauola/Summer12_DR53X-PU_S10_START53_V7A-v1/AODSIM/PAT_CMG_V5_16_0/cmgTuple_92_1_pbD.root
p325
(lp326
I01
aI10000
asV/store/cmst3/group/cmgtools/CMG/SUSYGluGluToHToTauTau_M-110_8TeV-pythia6-tauola/Summer12_DR53X-PU_S10_START53_V7A-v1/AODSIM/PAT_CMG_V5_16_0/cmgTuple_89_1_Hot.root
p327
(lp328
I01
aI10000
asV/store/cmst3/group/cmgtools/CMG/SUSYGluGluToHToTauTau_M-110_8TeV-pythia6-tauola/Summer12_DR53X-PU_S10_START53_V7A-v1/AODSIM/PAT_CMG_V5_16_0/cmgTuple_34_1_aLw.root
p329
(lp330
I01
aI10000
asV/store/cmst3/group/cmgtools/CMG/SUSYGluGluToHToTauTau_M-110_8TeV-pythia6-tauola/Summer12_DR53X-PU_S10_START53_V7A-v1/AODSIM/PAT_CMG_V5_16_0/cmgTuple_44_1_Iys.root
p331
(lp332
I01
aI10000
asV/store/cmst3/group/cmgtools/CMG/SUSYGluGluToHToTauTau_M-110_8TeV-pythia6-tauola/Summer12_DR53X-PU_S10_START53_V7A-v1/AODSIM/PAT_CMG_V5_16_0/cmgTuple_39_1_lfQ.root
p333
(lp334
I01
aI10000
asV/store/cmst3/group/cmgtools/CMG/SUSYGluGluToHToTauTau_M-110_8TeV-pythia6-tauola/Summer12_DR53X-PU_S10_START53_V7A-v1/AODSIM/PAT_CMG_V5_16_0/cmgTuple_49_1_IPA.root
p335
(lp336
I01
aI10000
asV/store/cmst3/group/cmgtools/CMG/SUSYGluGluToHToTauTau_M-110_8TeV-pythia6-tauola/Summer12_DR53X-PU_S10_START53_V7A-v1/AODSIM/PAT_CMG_V5_16_0/cmgTuple_38_1_o8M.root
p337
(lp338
I01
aI10000
asV/store/cmst3/group/cmgtools/CMG/SUSYGluGluToHToTauTau_M-110_8TeV-pythia6-tauola/Summer12_DR53X-PU_S10_START53_V7A-v1/AODSIM/PAT_CMG_V5_16_0/cmgTuple_97_1_VH7.root
p339
(lp340
I01
aI10000
asV/store/cmst3/group/cmgtools/CMG/SUSYGluGluToHToTauTau_M-110_8TeV-pythia6-tauola/Summer12_DR53X-PU_S10_START53_V7A-v1/AODSIM/PAT_CMG_V5_16_0/cmgTuple_32_1_taw.root
p341
(lp342
I01
aI10000
asV/store/cmst3/group/cmgtools/CMG/SUSYGluGluToHToTauTau_M-110_8TeV-pythia6-tauola/Summer12_DR53X-PU_S10_START53_V7A-v1/AODSIM/PAT_CMG_V5_16_0/cmgTuple_70_1_xZn.root
p343
(lp344
I01
aI10000
asV/store/cmst3/group/cmgtools/CMG/SUSYGluGluToHToTauTau_M-110_8TeV-pythia6-tauola/Summer12_DR53X-PU_S10_START53_V7A-v1/AODSIM/PAT_CMG_V5_16_0/cmgTuple_59_1_3Ea.root
p345
(lp346
I01
aI10000
asV/store/cmst3/group/cmgtools/CMG/SUSYGluGluToHToTauTau_M-110_8TeV-pythia6-tauola/Summer12_DR53X-PU_S10_START53_V7A-v1/AODSIM/PAT_CMG_V5_16_0/cmgTuple_31_1_rRU.root
p347
(lp348
I01
aI10000
asV/store/cmst3/group/cmgtools/CMG/SUSYGluGluToHToTauTau_M-110_8TeV-pythia6-tauola/Summer12_DR53X-PU_S10_START53_V7A-v1/AODSIM/PAT_CMG_V5_16_0/cmgTuple_58_1_zls.root
p349
(lp350
I01
aI10000
asV/store/cmst3/group/cmgtools/CMG/SUSYGluGluToHToTauTau_M-110_8TeV-pythia6-tauola/Summer12_DR53X-PU_S10_START53_V7A-v1/AODSIM/PAT_CMG_V5_16_0/cmgTuple_7_1_zqm.root
p351
(lp352
I01
aI10000
asV/store/cmst3/group/cmgtools/CMG/SUSYGluGluToHToTauTau_M-110_8TeV-pythia6-tauola/Summer12_DR53X-PU_S10_START53_V7A-v1/AODSIM/PAT_CMG_V5_16_0/cmgTuple_54_1_iUa.root
p353
(lp354
I01
aI10000
asV/store/cmst3/group/cmgtools/CMG/SUSYGluGluToHToTauTau_M-110_8TeV-pythia6-tauola/Summer12_DR53X-PU_S10_START53_V7A-v1/AODSIM/PAT_CMG_V5_16_0/cmgTuple_65_1_97Q.root
p355
(lp356
I01
aI10000
asV/store/cmst3/group/cmgtools/CMG/SUSYGluGluToHToTauTau_M-110_8TeV-pythia6-tauola/Summer12_DR53X-PU_S10_START53_V7A-v1/AODSIM/PAT_CMG_V5_16_0/cmgTuple_35_1_nYD.root
p357
(lp358
I01
aI10000
asV/store/cmst3/group/cmgtools/CMG/SUSYGluGluToHToTauTau_M-110_8TeV-pythia6-tauola/Summer12_DR53X-PU_S10_START53_V7A-v1/AODSIM/PAT_CMG_V5_16_0/cmgTuple_53_1_Wyj.root
p359
(lp360
I01
aI10000
asV/store/cmst3/group/cmgtools/CMG/SUSYGluGluToHToTauTau_M-110_8TeV-pythia6-tauola/Summer12_DR53X-PU_S10_START53_V7A-v1/AODSIM/PAT_CMG_V5_16_0/cmgTuple_14_1_PGs.root
p361
(lp362
I01
aI10000
asV/store/cmst3/group/cmgtools/CMG/SUSYGluGluToHToTauTau_M-110_8TeV-pythia6-tauola/Summer12_DR53X-PU_S10_START53_V7A-v1/AODSIM/PAT_CMG_V5_16_0/cmgTuple_73_1_jTQ.root
p363
(lp364
I01
aI10000
asV/store/cmst3/group/cmgtools/CMG/SUSYGluGluToHToTauTau_M-110_8TeV-pythia6-tauola/Summer12_DR53X-PU_S10_START53_V7A-v1/AODSIM/PAT_CMG_V5_16_0/cmgTuple_62_1_17T.root
p365
(lp366
I01
aI10000
assVPhysicsGroup
p367
VCMG
p368
sVFilesCount
p369
I100
sVFilesEntries
p370
I990348
sVRunList
p371
(lp372
sVValidDuplicates
p373
(dp374
sVPrimaryDataset
p375
V/SUSYGluGluToHToTauTau_M-110_8TeV-pythia6-tauola/Summer12_DR53X-PU_S10_START53_V7A-v1/AODSIM
p376
sVStatus
p377
VVALID
p378
sVName
p379
V/SUSYGluGluToHToTauTau_M-110_8TeV-pythia6-tauola/Summer12_DR53X-PU_S10_START53_V7A-v1/AODSIM/PAT_CMG_V5_16_0
p380
sVTopdir
p381
V/eos/cms/store/cmst3/group/cmgtools/CMG
p382
sVdata
p383
(dp384
sVFilesBad
p385
I0
sVMinRun
p386
I-1
sVAlgoList
p387
(lp388
sVTierList
p389
(lp390
sVDateCreated
p391
V1371077218
p392
sVCreatedBy
p393
Vcmgtools_group
p394
sVMaxRun
p395
I-1
sVBadJobs
p396
(lp397
I86
assg113
I01
ssS'MonitorJobs'
p398
(dp399
S'LSFJobStatus'
p400
(dp401
g116
S'SUSYGluGluToHToTauTau_M-120_8TeV-pythia6-tauola/Summer12_DR53X-PU_S10_START53_V7A-v1/AODSIM/PAT_CMG_V5_16_0_1377467520/HTT_24Jul_newTES_manzoni_Up_Jobs/Job_30/LSFJOB_440973822/STDOUT.gz'
p402
sg117
S'SUSYGluGluToHToTauTau_M-120_8TeV-pythia6-tauola/Summer12_DR53X-PU_S10_START53_V7A-v1/AODSIM/PAT_CMG_V5_16_0_1377467520/HTT_24Jul_newTES_manzoni_Up_Jobs/Job_31/LSFJOB_440973903/STDOUT.gz'
p403
sg118
S'SUSYGluGluToHToTauTau_M-120_8TeV-pythia6-tauola/Summer12_DR53X-PU_S10_START53_V7A-v1/AODSIM/PAT_CMG_V5_16_0_1377467520/HTT_24Jul_newTES_manzoni_Up_Jobs/Job_32/LSFJOB_440973982/STDOUT.gz'
p404
sg119
S'SUSYGluGluToHToTauTau_M-120_8TeV-pythia6-tauola/Summer12_DR53X-PU_S10_START53_V7A-v1/AODSIM/PAT_CMG_V5_16_0_1377467520/HTT_24Jul_newTES_manzoni_Up_Jobs/Job_33/LSFJOB_440974072/STDOUT.gz'
p405
sg120
S'SUSYGluGluToHToTauTau_M-120_8TeV-pythia6-tauola/Summer12_DR53X-PU_S10_START53_V7A-v1/AODSIM/PAT_CMG_V5_16_0_1377467520/HTT_24Jul_newTES_manzoni_Up_Jobs/Job_8/LSFJOB_440971974/STDOUT.gz'
p406
sg121
S'SUSYGluGluToHToTauTau_M-120_8TeV-pythia6-tauola/Summer12_DR53X-PU_S10_START53_V7A-v1/AODSIM/PAT_CMG_V5_16_0_1377467520/HTT_24Jul_newTES_manzoni_Up_Jobs/Job_9/LSFJOB_440972064/STDOUT.gz'
p407
sg122
S'SUSYGluGluToHToTauTau_M-120_8TeV-pythia6-tauola/Summer12_DR53X-PU_S10_START53_V7A-v1/AODSIM/PAT_CMG_V5_16_0_1377467520/HTT_24Jul_newTES_manzoni_Up_Jobs/Job_1/LSFJOB_440971443/STDOUT.gz'
p408
sg123
S'SUSYGluGluToHToTauTau_M-120_8TeV-pythia6-tauola/Summer12_DR53X-PU_S10_START53_V7A-v1/AODSIM/PAT_CMG_V5_16_0_1377467520/HTT_24Jul_newTES_manzoni_Up_Jobs/Job_2/LSFJOB_440971509/STDOUT.gz'
p409
sg124
S'SUSYGluGluToHToTauTau_M-120_8TeV-pythia6-tauola/Summer12_DR53X-PU_S10_START53_V7A-v1/AODSIM/PAT_CMG_V5_16_0_1377467520/HTT_24Jul_newTES_manzoni_Up_Jobs/Job_3/LSFJOB_440971569/STDOUT.gz'
p410
sg125
S'SUSYGluGluToHToTauTau_M-120_8TeV-pythia6-tauola/Summer12_DR53X-PU_S10_START53_V7A-v1/AODSIM/PAT_CMG_V5_16_0_1377467520/HTT_24Jul_newTES_manzoni_Up_Jobs/Job_4/LSFJOB_440971637/STDOUT.gz'
p411
sg126
S'SUSYGluGluToHToTauTau_M-120_8TeV-pythia6-tauola/Summer12_DR53X-PU_S10_START53_V7A-v1/AODSIM/PAT_CMG_V5_16_0_1377467520/HTT_24Jul_newTES_manzoni_Up_Jobs/Job_5/LSFJOB_440971739/STDOUT.gz'
p412
sg127
S'SUSYGluGluToHToTauTau_M-120_8TeV-pythia6-tauola/Summer12_DR53X-PU_S10_START53_V7A-v1/AODSIM/PAT_CMG_V5_16_0_1377467520/HTT_24Jul_newTES_manzoni_Up_Jobs/Job_6/LSFJOB_440971823/STDOUT.gz'
p413
sg128
S'SUSYGluGluToHToTauTau_M-120_8TeV-pythia6-tauola/Summer12_DR53X-PU_S10_START53_V7A-v1/AODSIM/PAT_CMG_V5_16_0_1377467520/HTT_24Jul_newTES_manzoni_Up_Jobs/Job_7/LSFJOB_440971871/STDOUT.gz'
p414
sg129
S'SUSYGluGluToHToTauTau_M-120_8TeV-pythia6-tauola/Summer12_DR53X-PU_S10_START53_V7A-v1/AODSIM/PAT_CMG_V5_16_0_1377467520/HTT_24Jul_newTES_manzoni_Up_Jobs/Job_12/LSFJOB_440972321/STDOUT.gz'
p415
sg130
S'SUSYGluGluToHToTauTau_M-120_8TeV-pythia6-tauola/Summer12_DR53X-PU_S10_START53_V7A-v1/AODSIM/PAT_CMG_V5_16_0_1377467520/HTT_24Jul_newTES_manzoni_Up_Jobs/Job_13/LSFJOB_440972389/STDOUT.gz'
p416
sg131
S'SUSYGluGluToHToTauTau_M-120_8TeV-pythia6-tauola/Summer12_DR53X-PU_S10_START53_V7A-v1/AODSIM/PAT_CMG_V5_16_0_1377467520/HTT_24Jul_newTES_manzoni_Up_Jobs/Job_10/LSFJOB_440972153/STDOUT.gz'
p417
sg132
S'SUSYGluGluToHToTauTau_M-120_8TeV-pythia6-tauola/Summer12_DR53X-PU_S10_START53_V7A-v1/AODSIM/PAT_CMG_V5_16_0_1377467520/HTT_24Jul_newTES_manzoni_Up_Jobs/Job_11/LSFJOB_440972236/STDOUT.gz'
p418
sg133
S'SUSYGluGluToHToTauTau_M-120_8TeV-pythia6-tauola/Summer12_DR53X-PU_S10_START53_V7A-v1/AODSIM/PAT_CMG_V5_16_0_1377467520/HTT_24Jul_newTES_manzoni_Up_Jobs/Job_16/LSFJOB_440972712/STDOUT.gz'
p419
sg134
S'SUSYGluGluToHToTauTau_M-120_8TeV-pythia6-tauola/Summer12_DR53X-PU_S10_START53_V7A-v1/AODSIM/PAT_CMG_V5_16_0_1377467520/HTT_24Jul_newTES_manzoni_Up_Jobs/Job_17/LSFJOB_440972803/STDOUT.gz'
p420
sg135
S'SUSYGluGluToHToTauTau_M-120_8TeV-pythia6-tauola/Summer12_DR53X-PU_S10_START53_V7A-v1/AODSIM/PAT_CMG_V5_16_0_1377467520/HTT_24Jul_newTES_manzoni_Up_Jobs/Job_14/LSFJOB_440972516/STDOUT.gz'
p421
sg136
S'SUSYGluGluToHToTauTau_M-120_8TeV-pythia6-tauola/Summer12_DR53X-PU_S10_START53_V7A-v1/AODSIM/PAT_CMG_V5_16_0_1377467520/HTT_24Jul_newTES_manzoni_Up_Jobs/Job_15/LSFJOB_440972620/STDOUT.gz'
p422
sg137
S'SUSYGluGluToHToTauTau_M-120_8TeV-pythia6-tauola/Summer12_DR53X-PU_S10_START53_V7A-v1/AODSIM/PAT_CMG_V5_16_0_1377467520/HTT_24Jul_newTES_manzoni_Up_Jobs/Job_18/LSFJOB_440972884/STDOUT.gz'
p423
sg138
S'SUSYGluGluToHToTauTau_M-120_8TeV-pythia6-tauola/Summer12_DR53X-PU_S10_START53_V7A-v1/AODSIM/PAT_CMG_V5_16_0_1377467520/HTT_24Jul_newTES_manzoni_Up_Jobs/Job_19/LSFJOB_440972983/STDOUT.gz'
p424
sg139
S'SUSYGluGluToHToTauTau_M-120_8TeV-pythia6-tauola/Summer12_DR53X-PU_S10_START53_V7A-v1/AODSIM/PAT_CMG_V5_16_0_1377467520/HTT_24Jul_newTES_manzoni_Up_Jobs/Job_29/LSFJOB_440973731/STDOUT.gz'
p425
sg140
S'SUSYGluGluToHToTauTau_M-120_8TeV-pythia6-tauola/Summer12_DR53X-PU_S10_START53_V7A-v1/AODSIM/PAT_CMG_V5_16_0_1377467520/HTT_24Jul_newTES_manzoni_Up_Jobs/Job_28/LSFJOB_440973659/STDOUT.gz'
p426
sg141
S'SUSYGluGluToHToTauTau_M-120_8TeV-pythia6-tauola/Summer12_DR53X-PU_S10_START53_V7A-v1/AODSIM/PAT_CMG_V5_16_0_1377467520/HTT_24Jul_newTES_manzoni_Up_Jobs/Job_23/LSFJOB_440973290/STDOUT.gz'
p427
sg142
S'SUSYGluGluToHToTauTau_M-120_8TeV-pythia6-tauola/Summer12_DR53X-PU_S10_START53_V7A-v1/AODSIM/PAT_CMG_V5_16_0_1377467520/HTT_24Jul_newTES_manzoni_Up_Jobs/Job_22/LSFJOB_440973210/STDOUT.gz'
p428
sg143
S'SUSYGluGluToHToTauTau_M-120_8TeV-pythia6-tauola/Summer12_DR53X-PU_S10_START53_V7A-v1/AODSIM/PAT_CMG_V5_16_0_1377467520/HTT_24Jul_newTES_manzoni_Up_Jobs/Job_21/LSFJOB_440973138/STDOUT.gz'
p429
sg144
S'SUSYGluGluToHToTauTau_M-120_8TeV-pythia6-tauola/Summer12_DR53X-PU_S10_START53_V7A-v1/AODSIM/PAT_CMG_V5_16_0_1377467520/HTT_24Jul_newTES_manzoni_Up_Jobs/Job_20/LSFJOB_440973080/STDOUT.gz'
p430
sg145
S'SUSYGluGluToHToTauTau_M-120_8TeV-pythia6-tauola/Summer12_DR53X-PU_S10_START53_V7A-v1/AODSIM/PAT_CMG_V5_16_0_1377467520/HTT_24Jul_newTES_manzoni_Up_Jobs/Job_27/LSFJOB_440973572/STDOUT.gz'
p431
sg146
S'SUSYGluGluToHToTauTau_M-120_8TeV-pythia6-tauola/Summer12_DR53X-PU_S10_START53_V7A-v1/AODSIM/PAT_CMG_V5_16_0_1377467520/HTT_24Jul_newTES_manzoni_Up_Jobs/Job_26/LSFJOB_440973508/STDOUT.gz'
p432
sg147
S'SUSYGluGluToHToTauTau_M-120_8TeV-pythia6-tauola/Summer12_DR53X-PU_S10_START53_V7A-v1/AODSIM/PAT_CMG_V5_16_0_1377467520/HTT_24Jul_newTES_manzoni_Up_Jobs/Job_25/LSFJOB_440973428/STDOUT.gz'
p433
sg148
S'SUSYGluGluToHToTauTau_M-120_8TeV-pythia6-tauola/Summer12_DR53X-PU_S10_START53_V7A-v1/AODSIM/PAT_CMG_V5_16_0_1377467520/HTT_24Jul_newTES_manzoni_Up_Jobs/Job_24/LSFJOB_440973363/STDOUT.gz'
p434
ssS'LSFJobIDs'
p435
(dp436
g116
S'440973822'
p437
sg117
S'440973903'
p438
sg118
S'440973982'
p439
sg119
S'440974072'
p440
sg120
S'440971974'
p441
sg121
S'440972064'
p442
sg122
S'440971443'
p443
sg123
S'440971509'
p444
sg124
S'440971569'
p445
sg125
S'440971637'
p446
sg126
S'440971739'
p447
sg127
S'440971823'
p448
sg128
S'440971871'
p449
sg129
S'440972321'
p450
sg130
S'440972389'
p451
sg131
S'440972153'
p452
sg132
S'440972236'
p453
sg133
S'440972712'
p454
sg134
S'440972803'
p455
sg135
S'440972516'
p456
sg136
S'440972620'
p457
sg137
S'440972884'
p458
sg138
S'440972983'
p459
sg139
S'440973731'
p460
sg140
S'440973659'
p461
sg141
S'440973290'
p462
sg142
S'440973210'
p463
sg143
S'440973138'
p464
sg144
S'440973080'
p465
sg145
S'440973572'
p466
sg146
S'440973508'
p467
sg147
S'440973428'
p468
sg148
S'440973363'
p469
sssS'FindOnCastor'
p470
(dp471
g75
S'/eos/cms/store/cmst3/group/cmgtools/CMG'
p472
sS'Directory'
p473
S'/eos/cms/store/cmst3/group/cmgtools/CMG/SUSYGluGluToHToTauTau_M-120_8TeV-pythia6-tauola/Summer12_DR53X-PU_S10_START53_V7A-v1/AODSIM/PAT_CMG_V5_16_0'
p474
ssS'CheckConfig'
p475
(dp476
g91
g92
ssS'FullCFG'
p477
(dp478
S'FullCFG'
p479
S'SUSYGluGluToHToTauTau_M-120_8TeV-pythia6-tauola/Summer12_DR53X-PU_S10_START53_V7A-v1/AODSIM/PAT_CMG_V5_16_0_1377467520/full_cfg.py'
p480
ssS'WriteJobReport'
p481
(dp482
S'SummaryFile'
p483
S'SUSYGluGluToHToTauTau_M-120_8TeV-pythia6-tauola/Summer12_DR53X-PU_S10_START53_V7A-v1/AODSIM/PAT_CMG_V5_16_0_1377467520/resubmit.sh'
p484
ssS'ExpandConfig'
p485
(dp486
S'ExpandedFullCFG'
p487
S'SUSYGluGluToHToTauTau_M-120_8TeV-pythia6-tauola/Summer12_DR53X-PU_S10_START53_V7A-v1/AODSIM/PAT_CMG_V5_16_0_1377467520/Expandedfull_cfg.py'
p488
ssS'RunTestEvents'
p489
(dp490
g91
g92
sS'TestCFG'
p491
S'SUSYGluGluToHToTauTau_M-120_8TeV-pythia6-tauola/Summer12_DR53X-PU_S10_START53_V7A-v1/AODSIM/PAT_CMG_V5_16_0_1377467520/test_cfg.py'
p492
ssS'SourceCFG'
p493
(dp494
S'SourceCFG'
p495
S'SUSYGluGluToHToTauTau_M-120_8TeV-pythia6-tauola/Summer12_DR53X-PU_S10_START53_V7A-v1/AODSIM/PAT_CMG_V5_16_0_1377467520/source_cfg.py'
p496
ssS'CheckForWrite'
p497
(dp498
g473
g474
sS'WriteAccess'
p499
I01
ssS'WriteToDatasets'
p500
(dp501
S'Added'
p502
I00
sg73
S'/SUSYGluGluToHToTauTau_M-120_8TeV-pythia6-tauola/Summer12_DR53X-PU_S10_START53_V7A-v1/AODSIM/PAT_CMG_V5_16_0/HTT_24Jul_newTES_manzoni_Up'
p503
sS'User'
p504
g106
ssS'RunCMSBatch'
p505
(dp506
S'BatchUser'
p507
g106
sS'SampleOutputDir'
p508
S'/store/cmst3/user/manzoni/CMG/SUSYGluGluToHToTauTau_M-120_8TeV-pythia6-tauola/Summer12_DR53X-PU_S10_START53_V7A-v1/AODSIM/PAT_CMG_V5_16_0/HTT_24Jul_newTES_manzoni_Up'
p509
sS'SampleDataset'
p510
g74
sS'LSFJobsTopDir'
p511
S'SUSYGluGluToHToTauTau_M-120_8TeV-pythia6-tauola/Summer12_DR53X-PU_S10_START53_V7A-v1/AODSIM/PAT_CMG_V5_16_0_1377467520/HTT_24Jul_newTES_manzoni_Up_Jobs'
p512
ssS'CreateJobDirectory'
p513
(dp514
S'JobDir'
p515
S'SUSYGluGluToHToTauTau_M-120_8TeV-pythia6-tauola/Summer12_DR53X-PU_S10_START53_V7A-v1/AODSIM/PAT_CMG_V5_16_0_1377467520'
p516
sS'PWD'
p517
S'/afs/cern.ch/user/m/manzoni/summer13/CMGTools/CMSSW_5_3_9/src/CMGTools/H2TauTau/prod/25aug_corrMC/up/mc'
p518
ssS'CleanJobFiles'
p519
(dp520
S'Compressed'
p521
(dp522
S'CompressedFiles'
p523
(lp524
ssS'Cleaned'
p525
(dp526
S'CleanedFiles'
p527
(lp528
g488
ag492
aS'SUSYGluGluToHToTauTau_M-120_8TeV-pythia6-tauola/Summer12_DR53X-PU_S10_START53_V7A-v1/AODSIM/PAT_CMG_V5_16_0_1377467520/diTau_fullsel_tree_CMG.root'
p529
aS'SUSYGluGluToHToTauTau_M-120_8TeV-pythia6-tauola/Summer12_DR53X-PU_S10_START53_V7A-v1/AODSIM/PAT_CMG_V5_16_0_1377467520/source_cfg.pyc'
p530
aS'SUSYGluGluToHToTauTau_M-120_8TeV-pythia6-tauola/Summer12_DR53X-PU_S10_START53_V7A-v1/AODSIM/PAT_CMG_V5_16_0_1377467520/Expandedfull_cfg.pyc'
p531
asssS'CheckForMask'
p532
(dp533
g3
g155
sg113
I01
ss.