(dp0
S'CheckJobStatus'
p1
(dp2
S'Report'
p3
(dp4
S'Files'
p5
(dp6
S'/store/cmst3/user/manzoni/CMG/VBF_HToTauTau_M-140_8TeV-powheg-pythia6/Summer12_DR53X-PU_S10_START53_V7A-v1/AODSIM/PAT_CMG_V5_16_0/HTT_24Jul_newTES_manzoni_Up/diTau_fullsel_tree_CMG_11.root'
p7
(I01
I2812
tp8
sS'/store/cmst3/user/manzoni/CMG/VBF_HToTauTau_M-140_8TeV-powheg-pythia6/Summer12_DR53X-PU_S10_START53_V7A-v1/AODSIM/PAT_CMG_V5_16_0/HTT_24Jul_newTES_manzoni_Up/diTau_fullsel_tree_CMG_16.root'
p9
(I01
I2753
tp10
sS'/store/cmst3/user/manzoni/CMG/VBF_HToTauTau_M-140_8TeV-powheg-pythia6/Summer12_DR53X-PU_S10_START53_V7A-v1/AODSIM/PAT_CMG_V5_16_0/HTT_24Jul_newTES_manzoni_Up/diTau_fullsel_tree_CMG_9.root'
p11
(I01
I2836
tp12
sS'/store/cmst3/user/manzoni/CMG/VBF_HToTauTau_M-140_8TeV-powheg-pythia6/Summer12_DR53X-PU_S10_START53_V7A-v1/AODSIM/PAT_CMG_V5_16_0/HTT_24Jul_newTES_manzoni_Up/diTau_fullsel_tree_CMG_3.root'
p13
(I01
I2802
tp14
sS'/store/cmst3/user/manzoni/CMG/VBF_HToTauTau_M-140_8TeV-powheg-pythia6/Summer12_DR53X-PU_S10_START53_V7A-v1/AODSIM/PAT_CMG_V5_16_0/HTT_24Jul_newTES_manzoni_Up/diTau_fullsel_tree_CMG_12.root'
p15
(I01
I2848
tp16
sS'/store/cmst3/user/manzoni/CMG/VBF_HToTauTau_M-140_8TeV-powheg-pythia6/Summer12_DR53X-PU_S10_START53_V7A-v1/AODSIM/PAT_CMG_V5_16_0/HTT_24Jul_newTES_manzoni_Up/diTau_fullsel_tree_CMG_19.root'
p17
(I01
I2719
tp18
sS'/store/cmst3/user/manzoni/CMG/VBF_HToTauTau_M-140_8TeV-powheg-pythia6/Summer12_DR53X-PU_S10_START53_V7A-v1/AODSIM/PAT_CMG_V5_16_0/HTT_24Jul_newTES_manzoni_Up/diTau_fullsel_tree_CMG_21.root'
p19
(I01
I587
tp20
sS'/store/cmst3/user/manzoni/CMG/VBF_HToTauTau_M-140_8TeV-powheg-pythia6/Summer12_DR53X-PU_S10_START53_V7A-v1/AODSIM/PAT_CMG_V5_16_0/HTT_24Jul_newTES_manzoni_Up/diTau_fullsel_tree_CMG_13.root'
p21
(I01
I2897
tp22
sS'/store/cmst3/user/manzoni/CMG/VBF_HToTauTau_M-140_8TeV-powheg-pythia6/Summer12_DR53X-PU_S10_START53_V7A-v1/AODSIM/PAT_CMG_V5_16_0/HTT_24Jul_newTES_manzoni_Up/diTau_fullsel_tree_CMG_6.root'
p23
(I01
I2898
tp24
sS'/store/cmst3/user/manzoni/CMG/VBF_HToTauTau_M-140_8TeV-powheg-pythia6/Summer12_DR53X-PU_S10_START53_V7A-v1/AODSIM/PAT_CMG_V5_16_0/HTT_24Jul_newTES_manzoni_Up/diTau_fullsel_tree_CMG_1.root'
p25
(I01
I2240
tp26
sS'/store/cmst3/user/manzoni/CMG/VBF_HToTauTau_M-140_8TeV-powheg-pythia6/Summer12_DR53X-PU_S10_START53_V7A-v1/AODSIM/PAT_CMG_V5_16_0/HTT_24Jul_newTES_manzoni_Up/diTau_fullsel_tree_CMG_14.root'
p27
(I01
I2786
tp28
sS'/store/cmst3/user/manzoni/CMG/VBF_HToTauTau_M-140_8TeV-powheg-pythia6/Summer12_DR53X-PU_S10_START53_V7A-v1/AODSIM/PAT_CMG_V5_16_0/HTT_24Jul_newTES_manzoni_Up/diTau_fullsel_tree_CMG_4.root'
p29
(I01
I2835
tp30
sS'/store/cmst3/user/manzoni/CMG/VBF_HToTauTau_M-140_8TeV-powheg-pythia6/Summer12_DR53X-PU_S10_START53_V7A-v1/AODSIM/PAT_CMG_V5_16_0/HTT_24Jul_newTES_manzoni_Up/diTau_fullsel_tree_CMG_5.root'
p31
(I01
I2848
tp32
sS'/store/cmst3/user/manzoni/CMG/VBF_HToTauTau_M-140_8TeV-powheg-pythia6/Summer12_DR53X-PU_S10_START53_V7A-v1/AODSIM/PAT_CMG_V5_16_0/HTT_24Jul_newTES_manzoni_Up/diTau_fullsel_tree_CMG_17.root'
p33
(I01
I2849
tp34
sS'/store/cmst3/user/manzoni/CMG/VBF_HToTauTau_M-140_8TeV-powheg-pythia6/Summer12_DR53X-PU_S10_START53_V7A-v1/AODSIM/PAT_CMG_V5_16_0/HTT_24Jul_newTES_manzoni_Up/diTau_fullsel_tree_CMG_8.root'
p35
(I01
I2872
tp36
sS'/store/cmst3/user/manzoni/CMG/VBF_HToTauTau_M-140_8TeV-powheg-pythia6/Summer12_DR53X-PU_S10_START53_V7A-v1/AODSIM/PAT_CMG_V5_16_0/HTT_24Jul_newTES_manzoni_Up/diTau_fullsel_tree_CMG_2.root'
p37
(I01
I2868
tp38
sS'/store/cmst3/user/manzoni/CMG/VBF_HToTauTau_M-140_8TeV-powheg-pythia6/Summer12_DR53X-PU_S10_START53_V7A-v1/AODSIM/PAT_CMG_V5_16_0/HTT_24Jul_newTES_manzoni_Up/diTau_fullsel_tree_CMG_20.root'
p39
(I01
I2802
tp40
sS'/store/cmst3/user/manzoni/CMG/VBF_HToTauTau_M-140_8TeV-powheg-pythia6/Summer12_DR53X-PU_S10_START53_V7A-v1/AODSIM/PAT_CMG_V5_16_0/HTT_24Jul_newTES_manzoni_Up/diTau_fullsel_tree_CMG_10.root'
p41
(I01
I2862
tp42
sS'/store/cmst3/user/manzoni/CMG/VBF_HToTauTau_M-140_8TeV-powheg-pythia6/Summer12_DR53X-PU_S10_START53_V7A-v1/AODSIM/PAT_CMG_V5_16_0/HTT_24Jul_newTES_manzoni_Up/diTau_fullsel_tree_CMG_7.root'
p43
(I01
I2870
tp44
sS'/store/cmst3/user/manzoni/CMG/VBF_HToTauTau_M-140_8TeV-powheg-pythia6/Summer12_DR53X-PU_S10_START53_V7A-v1/AODSIM/PAT_CMG_V5_16_0/HTT_24Jul_newTES_manzoni_Up/diTau_fullsel_tree_CMG_15.root'
p45
(I01
I2911
tp46
sS'/store/cmst3/user/manzoni/CMG/VBF_HToTauTau_M-140_8TeV-powheg-pythia6/Summer12_DR53X-PU_S10_START53_V7A-v1/AODSIM/PAT_CMG_V5_16_0/HTT_24Jul_newTES_manzoni_Up/diTau_fullsel_tree_CMG_18.root'
p47
(I01
I2804
tp48
ssS'Name'
p49
S'/VBF_HToTauTau_M-140_8TeV-powheg-pythia6/Summer12_DR53X-PU_S10_START53_V7A-v1/AODSIM/PAT_CMG_V5_16_0/HTT_24Jul_newTES_manzoni_Up'
p50
sS'Topdir'
p51
S'/eos/cms/store/cmst3/user/manzoni/CMG'
p52
sS'RunList'
p53
(lp54
sS'PathList'
p55
(lp56
S'/store/cmst3/user/manzoni/CMG/VBF_HToTauTau_M-140_8TeV-powheg-pythia6/Summer12_DR53X-PU_S10_START53_V7A-v1/AODSIM/PAT_CMG_V5_16_0/HTT_24Jul_newTES_manzoni_Up'
p57
asS'AlgoList'
p58
(lp59
sS'PrimaryDatasetFraction'
p60
F0.056761778527050916
sS'FilesGood'
p61
I21
sS'PrimaryDatasetEntries'
p62
I998894
sS'data'
p63
(dp64
sS'FilesBad'
p65
I0
sS'ReportVersion'
p66
I3
sS'Status'
p67
S'VALID'
p68
sS'MaxRun'
p69
I-1
sS'PhysicsGroup'
p70
S'CMG'
p71
sS'MinRun'
p72
I-1
sS'StageHost'
p73
S'castorcms'
p74
sS'FilesCount'
p75
I21
sS'FilesEntries'
p76
I56699
sS'TierList'
p77
(lp78
sS'DateCreated'
p79
S'1377477541'
p80
sS'CreatedBy'
p81
S'manzoni'
p82
sS'ValidDuplicates'
p83
(dp84
sS'PrimaryDataset'
p85
S'/VBF_HToTauTau_M-140_8TeV-powheg-pythia6/Summer12_DR53X-PU_S10_START53_V7A-v1/AODSIM'
p86
sS'BadJobs'
p87
(lp88
ssS'MaskPresent'
p89
I01
sS'LSFJobStatusCheck'
p90
(dp91
S'VBF_HToTauTau_M-140_8TeV-powheg-pythia6/Summer12_DR53X-PU_S10_START53_V7A-v1/AODSIM/PAT_CMG_V5_16_0_1377467448/HTT_24Jul_newTES_manzoni_Up_Jobs/Job_14'
p92
g68
sS'VBF_HToTauTau_M-140_8TeV-powheg-pythia6/Summer12_DR53X-PU_S10_START53_V7A-v1/AODSIM/PAT_CMG_V5_16_0_1377467448/HTT_24Jul_newTES_manzoni_Up_Jobs/Job_9'
p93
g68
sS'VBF_HToTauTau_M-140_8TeV-powheg-pythia6/Summer12_DR53X-PU_S10_START53_V7A-v1/AODSIM/PAT_CMG_V5_16_0_1377467448/HTT_24Jul_newTES_manzoni_Up_Jobs/Job_8'
p94
g68
sS'VBF_HToTauTau_M-140_8TeV-powheg-pythia6/Summer12_DR53X-PU_S10_START53_V7A-v1/AODSIM/PAT_CMG_V5_16_0_1377467448/HTT_24Jul_newTES_manzoni_Up_Jobs/Job_3'
p95
g68
sS'VBF_HToTauTau_M-140_8TeV-powheg-pythia6/Summer12_DR53X-PU_S10_START53_V7A-v1/AODSIM/PAT_CMG_V5_16_0_1377467448/HTT_24Jul_newTES_manzoni_Up_Jobs/Job_2'
p96
g68
sS'VBF_HToTauTau_M-140_8TeV-powheg-pythia6/Summer12_DR53X-PU_S10_START53_V7A-v1/AODSIM/PAT_CMG_V5_16_0_1377467448/HTT_24Jul_newTES_manzoni_Up_Jobs/Job_1'
p97
g68
sS'VBF_HToTauTau_M-140_8TeV-powheg-pythia6/Summer12_DR53X-PU_S10_START53_V7A-v1/AODSIM/PAT_CMG_V5_16_0_1377467448/HTT_24Jul_newTES_manzoni_Up_Jobs/Job_7'
p98
g68
sS'VBF_HToTauTau_M-140_8TeV-powheg-pythia6/Summer12_DR53X-PU_S10_START53_V7A-v1/AODSIM/PAT_CMG_V5_16_0_1377467448/HTT_24Jul_newTES_manzoni_Up_Jobs/Job_6'
p99
g68
sS'VBF_HToTauTau_M-140_8TeV-powheg-pythia6/Summer12_DR53X-PU_S10_START53_V7A-v1/AODSIM/PAT_CMG_V5_16_0_1377467448/HTT_24Jul_newTES_manzoni_Up_Jobs/Job_5'
p100
g68
sS'VBF_HToTauTau_M-140_8TeV-powheg-pythia6/Summer12_DR53X-PU_S10_START53_V7A-v1/AODSIM/PAT_CMG_V5_16_0_1377467448/HTT_24Jul_newTES_manzoni_Up_Jobs/Job_4'
p101
g68
sS'VBF_HToTauTau_M-140_8TeV-powheg-pythia6/Summer12_DR53X-PU_S10_START53_V7A-v1/AODSIM/PAT_CMG_V5_16_0_1377467448/HTT_24Jul_newTES_manzoni_Up_Jobs/Job_19'
p102
g68
sS'VBF_HToTauTau_M-140_8TeV-powheg-pythia6/Summer12_DR53X-PU_S10_START53_V7A-v1/AODSIM/PAT_CMG_V5_16_0_1377467448/HTT_24Jul_newTES_manzoni_Up_Jobs/Job_18'
p103
g68
sS'VBF_HToTauTau_M-140_8TeV-powheg-pythia6/Summer12_DR53X-PU_S10_START53_V7A-v1/AODSIM/PAT_CMG_V5_16_0_1377467448/HTT_24Jul_newTES_manzoni_Up_Jobs/Job_16'
p104
g68
sS'VBF_HToTauTau_M-140_8TeV-powheg-pythia6/Summer12_DR53X-PU_S10_START53_V7A-v1/AODSIM/PAT_CMG_V5_16_0_1377467448/HTT_24Jul_newTES_manzoni_Up_Jobs/Job_13'
p105
g68
sS'VBF_HToTauTau_M-140_8TeV-powheg-pythia6/Summer12_DR53X-PU_S10_START53_V7A-v1/AODSIM/PAT_CMG_V5_16_0_1377467448/HTT_24Jul_newTES_manzoni_Up_Jobs/Job_12'
p106
g68
sS'VBF_HToTauTau_M-140_8TeV-powheg-pythia6/Summer12_DR53X-PU_S10_START53_V7A-v1/AODSIM/PAT_CMG_V5_16_0_1377467448/HTT_24Jul_newTES_manzoni_Up_Jobs/Job_11'
p107
g68
sS'VBF_HToTauTau_M-140_8TeV-powheg-pythia6/Summer12_DR53X-PU_S10_START53_V7A-v1/AODSIM/PAT_CMG_V5_16_0_1377467448/HTT_24Jul_newTES_manzoni_Up_Jobs/Job_10'
p108
g68
sS'VBF_HToTauTau_M-140_8TeV-powheg-pythia6/Summer12_DR53X-PU_S10_START53_V7A-v1/AODSIM/PAT_CMG_V5_16_0_1377467448/HTT_24Jul_newTES_manzoni_Up_Jobs/Job_17'
p109
g68
sS'VBF_HToTauTau_M-140_8TeV-powheg-pythia6/Summer12_DR53X-PU_S10_START53_V7A-v1/AODSIM/PAT_CMG_V5_16_0_1377467448/HTT_24Jul_newTES_manzoni_Up_Jobs/Job_21'
p110
g68
sS'VBF_HToTauTau_M-140_8TeV-powheg-pythia6/Summer12_DR53X-PU_S10_START53_V7A-v1/AODSIM/PAT_CMG_V5_16_0_1377467448/HTT_24Jul_newTES_manzoni_Up_Jobs/Job_15'
p111
g68
sS'VBF_HToTauTau_M-140_8TeV-powheg-pythia6/Summer12_DR53X-PU_S10_START53_V7A-v1/AODSIM/PAT_CMG_V5_16_0_1377467448/HTT_24Jul_newTES_manzoni_Up_Jobs/Job_20'
p112
g68
sssS'CheckDatasetExists'
p113
(dp114
S'Dataset'
p115
S'/VBF_HToTauTau_M-140_8TeV-powheg-pythia6/Summer12_DR53X-PU_S10_START53_V7A-v1/AODSIM/PAT_CMG_V5_16_0'
p116
ssS'GenerateMask'
p117
(dp118
g3
(dp119
VPathList
p120
(lp121
V/store/cmst3/group/cmgtools/CMG/GluGluToHToTauTau_M-145_8TeV-powheg-pythia6/Summer12_DR53X-PU_S10_START53_V7A-v1/AODSIM/PAT_CMG_V5_16_0
p122
asVStageHost
p123
Vcastorcms
p124
sVPrimaryDatasetFraction
p125
F1.0
sVFilesGood
p126
I98
sVPrimaryDatasetEntries
p127
I962119
sVReportVersion
p128
I3
sVFiles
p129
(dp130
V/store/cmst3/group/cmgtools/CMG/GluGluToHToTauTau_M-145_8TeV-powheg-pythia6/Summer12_DR53X-PU_S10_START53_V7A-v1/AODSIM/PAT_CMG_V5_16_0/cmgTuple_59_1_EFo.root
p131
(lp132
I01
aI10000
asV/store/cmst3/group/cmgtools/CMG/GluGluToHToTauTau_M-145_8TeV-powheg-pythia6/Summer12_DR53X-PU_S10_START53_V7A-v1/AODSIM/PAT_CMG_V5_16_0/cmgTuple_76_1_77T.root
p133
(lp134
I01
aI10000
asV/store/cmst3/group/cmgtools/CMG/GluGluToHToTauTau_M-145_8TeV-powheg-pythia6/Summer12_DR53X-PU_S10_START53_V7A-v1/AODSIM/PAT_CMG_V5_16_0/cmgTuple_15_1_GWJ.root
p135
(lp136
I01
aI10000
asV/store/cmst3/group/cmgtools/CMG/GluGluToHToTauTau_M-145_8TeV-powheg-pythia6/Summer12_DR53X-PU_S10_START53_V7A-v1/AODSIM/PAT_CMG_V5_16_0/cmgTuple_72_1_neR.root
p137
(lp138
I01
aI10000
asV/store/cmst3/group/cmgtools/CMG/GluGluToHToTauTau_M-145_8TeV-powheg-pythia6/Summer12_DR53X-PU_S10_START53_V7A-v1/AODSIM/PAT_CMG_V5_16_0/cmgTuple_14_1_ebO.root
p139
(lp140
I01
aI10000
asV/store/cmst3/group/cmgtools/CMG/GluGluToHToTauTau_M-145_8TeV-powheg-pythia6/Summer12_DR53X-PU_S10_START53_V7A-v1/AODSIM/PAT_CMG_V5_16_0/cmgTuple_18_1_4fo.root
p141
(lp142
I01
aI10000
asV/store/cmst3/group/cmgtools/CMG/GluGluToHToTauTau_M-145_8TeV-powheg-pythia6/Summer12_DR53X-PU_S10_START53_V7A-v1/AODSIM/PAT_CMG_V5_16_0/cmgTuple_95_1_QdL.root
p143
(lp144
I01
aI10000
asV/store/cmst3/group/cmgtools/CMG/GluGluToHToTauTau_M-145_8TeV-powheg-pythia6/Summer12_DR53X-PU_S10_START53_V7A-v1/AODSIM/PAT_CMG_V5_16_0/cmgTuple_6_1_hIk.root
p145
(lp146
I01
aI10000
asV/store/cmst3/group/cmgtools/CMG/GluGluToHToTauTau_M-145_8TeV-powheg-pythia6/Summer12_DR53X-PU_S10_START53_V7A-v1/AODSIM/PAT_CMG_V5_16_0/cmgTuple_32_1_Qjo.root
p147
(lp148
I01
aI10000
asV/store/cmst3/group/cmgtools/CMG/GluGluToHToTauTau_M-145_8TeV-powheg-pythia6/Summer12_DR53X-PU_S10_START53_V7A-v1/AODSIM/PAT_CMG_V5_16_0/cmgTuple_67_1_fA0.root
p149
(lp150
I01
aI10000
asV/store/cmst3/group/cmgtools/CMG/GluGluToHToTauTau_M-145_8TeV-powheg-pythia6/Summer12_DR53X-PU_S10_START53_V7A-v1/AODSIM/PAT_CMG_V5_16_0/cmgTuple_56_1_zdi.root
p151
(lp152
I01
aI10000
asV/store/cmst3/group/cmgtools/CMG/GluGluToHToTauTau_M-145_8TeV-powheg-pythia6/Summer12_DR53X-PU_S10_START53_V7A-v1/AODSIM/PAT_CMG_V5_16_0/cmgTuple_26_1_D9P.root
p153
(lp154
I01
aI10000
asV/store/cmst3/group/cmgtools/CMG/GluGluToHToTauTau_M-145_8TeV-powheg-pythia6/Summer12_DR53X-PU_S10_START53_V7A-v1/AODSIM/PAT_CMG_V5_16_0/cmgTuple_38_1_Nul.root
p155
(lp156
I01
aI10000
asV/store/cmst3/group/cmgtools/CMG/GluGluToHToTauTau_M-145_8TeV-powheg-pythia6/Summer12_DR53X-PU_S10_START53_V7A-v1/AODSIM/PAT_CMG_V5_16_0/cmgTuple_92_1_tn2.root
p157
(lp158
I01
aI10000
asV/store/cmst3/group/cmgtools/CMG/GluGluToHToTauTau_M-145_8TeV-powheg-pythia6/Summer12_DR53X-PU_S10_START53_V7A-v1/AODSIM/PAT_CMG_V5_16_0/cmgTuple_57_1_4Tr.root
p159
(lp160
I01
aI10000
asV/store/cmst3/group/cmgtools/CMG/GluGluToHToTauTau_M-145_8TeV-powheg-pythia6/Summer12_DR53X-PU_S10_START53_V7A-v1/AODSIM/PAT_CMG_V5_16_0/cmgTuple_1_1_XdK.root
p161
(lp162
I01
aI1800
asV/store/cmst3/group/cmgtools/CMG/GluGluToHToTauTau_M-145_8TeV-powheg-pythia6/Summer12_DR53X-PU_S10_START53_V7A-v1/AODSIM/PAT_CMG_V5_16_0/cmgTuple_27_1_fUT.root
p163
(lp164
I01
aI10000
asV/store/cmst3/group/cmgtools/CMG/GluGluToHToTauTau_M-145_8TeV-powheg-pythia6/Summer12_DR53X-PU_S10_START53_V7A-v1/AODSIM/PAT_CMG_V5_16_0/cmgTuple_81_1_uEw.root
p165
(lp166
I01
aI10000
asV/store/cmst3/group/cmgtools/CMG/GluGluToHToTauTau_M-145_8TeV-powheg-pythia6/Summer12_DR53X-PU_S10_START53_V7A-v1/AODSIM/PAT_CMG_V5_16_0/cmgTuple_64_1_Ya5.root
p167
(lp168
I01
aI10000
asV/store/cmst3/group/cmgtools/CMG/GluGluToHToTauTau_M-145_8TeV-powheg-pythia6/Summer12_DR53X-PU_S10_START53_V7A-v1/AODSIM/PAT_CMG_V5_16_0/cmgTuple_9_1_tln.root
p169
(lp170
I01
aI10000
asV/store/cmst3/group/cmgtools/CMG/GluGluToHToTauTau_M-145_8TeV-powheg-pythia6/Summer12_DR53X-PU_S10_START53_V7A-v1/AODSIM/PAT_CMG_V5_16_0/cmgTuple_88_1_bzL.root
p171
(lp172
I01
aI10000
asV/store/cmst3/group/cmgtools/CMG/GluGluToHToTauTau_M-145_8TeV-powheg-pythia6/Summer12_DR53X-PU_S10_START53_V7A-v1/AODSIM/PAT_CMG_V5_16_0/cmgTuple_43_1_gTb.root
p173
(lp174
I01
aI10000
asV/store/cmst3/group/cmgtools/CMG/GluGluToHToTauTau_M-145_8TeV-powheg-pythia6/Summer12_DR53X-PU_S10_START53_V7A-v1/AODSIM/PAT_CMG_V5_16_0/cmgTuple_25_1_TR2.root
p175
(lp176
I01
aI10000
asV/store/cmst3/group/cmgtools/CMG/GluGluToHToTauTau_M-145_8TeV-powheg-pythia6/Summer12_DR53X-PU_S10_START53_V7A-v1/AODSIM/PAT_CMG_V5_16_0/cmgTuple_50_1_lGK.root
p177
(lp178
I01
aI10000
asV/store/cmst3/group/cmgtools/CMG/GluGluToHToTauTau_M-145_8TeV-powheg-pythia6/Summer12_DR53X-PU_S10_START53_V7A-v1/AODSIM/PAT_CMG_V5_16_0/cmgTuple_97_1_yVg.root
p179
(lp180
I01
aI10000
asV/store/cmst3/group/cmgtools/CMG/GluGluToHToTauTau_M-145_8TeV-powheg-pythia6/Summer12_DR53X-PU_S10_START53_V7A-v1/AODSIM/PAT_CMG_V5_16_0/cmgTuple_4_1_xLR.root
p181
(lp182
I01
aI10000
asV/store/cmst3/group/cmgtools/CMG/GluGluToHToTauTau_M-145_8TeV-powheg-pythia6/Summer12_DR53X-PU_S10_START53_V7A-v1/AODSIM/PAT_CMG_V5_16_0/cmgTuple_73_1_ypN.root
p183
(lp184
I01
aI10000
asV/store/cmst3/group/cmgtools/CMG/GluGluToHToTauTau_M-145_8TeV-powheg-pythia6/Summer12_DR53X-PU_S10_START53_V7A-v1/AODSIM/PAT_CMG_V5_16_0/cmgTuple_60_1_Cgw.root
p185
(lp186
I01
aI10000
asV/store/cmst3/group/cmgtools/CMG/GluGluToHToTauTau_M-145_8TeV-powheg-pythia6/Summer12_DR53X-PU_S10_START53_V7A-v1/AODSIM/PAT_CMG_V5_16_0/cmgTuple_11_1_5Cj.root
p187
(lp188
I01
aI10000
asV/store/cmst3/group/cmgtools/CMG/GluGluToHToTauTau_M-145_8TeV-powheg-pythia6/Summer12_DR53X-PU_S10_START53_V7A-v1/AODSIM/PAT_CMG_V5_16_0/cmgTuple_20_1_OyW.root
p189
(lp190
I01
aI10000
asV/store/cmst3/group/cmgtools/CMG/GluGluToHToTauTau_M-145_8TeV-powheg-pythia6/Summer12_DR53X-PU_S10_START53_V7A-v1/AODSIM/PAT_CMG_V5_16_0/cmgTuple_37_1_BgH.root
p191
(lp192
I01
aI10000
asV/store/cmst3/group/cmgtools/CMG/GluGluToHToTauTau_M-145_8TeV-powheg-pythia6/Summer12_DR53X-PU_S10_START53_V7A-v1/AODSIM/PAT_CMG_V5_16_0/cmgTuple_10_1_fEp.root
p193
(lp194
I01
aI10000
asV/store/cmst3/group/cmgtools/CMG/GluGluToHToTauTau_M-145_8TeV-powheg-pythia6/Summer12_DR53X-PU_S10_START53_V7A-v1/AODSIM/PAT_CMG_V5_16_0/cmgTuple_44_1_LyM.root
p195
(lp196
I01
aI10000
asV/store/cmst3/group/cmgtools/CMG/GluGluToHToTauTau_M-145_8TeV-powheg-pythia6/Summer12_DR53X-PU_S10_START53_V7A-v1/AODSIM/PAT_CMG_V5_16_0/cmgTuple_17_1_cjK.root
p197
(lp198
I01
aI10000
asV/store/cmst3/group/cmgtools/CMG/GluGluToHToTauTau_M-145_8TeV-powheg-pythia6/Summer12_DR53X-PU_S10_START53_V7A-v1/AODSIM/PAT_CMG_V5_16_0/cmgTuple_66_1_1pR.root
p199
(lp200
I01
aI10000
asV/store/cmst3/group/cmgtools/CMG/GluGluToHToTauTau_M-145_8TeV-powheg-pythia6/Summer12_DR53X-PU_S10_START53_V7A-v1/AODSIM/PAT_CMG_V5_16_0/cmgTuple_87_1_MJo.root
p201
(lp202
I01
aI10000
asV/store/cmst3/group/cmgtools/CMG/GluGluToHToTauTau_M-145_8TeV-powheg-pythia6/Summer12_DR53X-PU_S10_START53_V7A-v1/AODSIM/PAT_CMG_V5_16_0/cmgTuple_8_1_rZF.root
p203
(lp204
I01
aI10000
asV/store/cmst3/group/cmgtools/CMG/GluGluToHToTauTau_M-145_8TeV-powheg-pythia6/Summer12_DR53X-PU_S10_START53_V7A-v1/AODSIM/PAT_CMG_V5_16_0/cmgTuple_70_1_fgN.root
p205
(lp206
I01
aI10000
asV/store/cmst3/group/cmgtools/CMG/GluGluToHToTauTau_M-145_8TeV-powheg-pythia6/Summer12_DR53X-PU_S10_START53_V7A-v1/AODSIM/PAT_CMG_V5_16_0/cmgTuple_34_1_HKz.root
p207
(lp208
I01
aI10000
asV/store/cmst3/group/cmgtools/CMG/GluGluToHToTauTau_M-145_8TeV-powheg-pythia6/Summer12_DR53X-PU_S10_START53_V7A-v1/AODSIM/PAT_CMG_V5_16_0/cmgTuple_36_1_vPX.root
p209
(lp210
I01
aI10000
asV/store/cmst3/group/cmgtools/CMG/GluGluToHToTauTau_M-145_8TeV-powheg-pythia6/Summer12_DR53X-PU_S10_START53_V7A-v1/AODSIM/PAT_CMG_V5_16_0/cmgTuple_12_1_iEd.root
p211
(lp212
I01
aI10000
asV/store/cmst3/group/cmgtools/CMG/GluGluToHToTauTau_M-145_8TeV-powheg-pythia6/Summer12_DR53X-PU_S10_START53_V7A-v1/AODSIM/PAT_CMG_V5_16_0/cmgTuple_2_1_43r.root
p213
(lp214
I01
aI10000
asV/store/cmst3/group/cmgtools/CMG/GluGluToHToTauTau_M-145_8TeV-powheg-pythia6/Summer12_DR53X-PU_S10_START53_V7A-v1/AODSIM/PAT_CMG_V5_16_0/cmgTuple_69_1_z3g.root
p215
(lp216
I01
aI10000
asV/store/cmst3/group/cmgtools/CMG/GluGluToHToTauTau_M-145_8TeV-powheg-pythia6/Summer12_DR53X-PU_S10_START53_V7A-v1/AODSIM/PAT_CMG_V5_16_0/cmgTuple_82_1_uHi.root
p217
(lp218
I01
aI10000
asV/store/cmst3/group/cmgtools/CMG/GluGluToHToTauTau_M-145_8TeV-powheg-pythia6/Summer12_DR53X-PU_S10_START53_V7A-v1/AODSIM/PAT_CMG_V5_16_0/cmgTuple_40_1_01D.root
p219
(lp220
I01
aI10000
asV/store/cmst3/group/cmgtools/CMG/GluGluToHToTauTau_M-145_8TeV-powheg-pythia6/Summer12_DR53X-PU_S10_START53_V7A-v1/AODSIM/PAT_CMG_V5_16_0/cmgTuple_35_1_tYD.root
p221
(lp222
I01
aI10000
asV/store/cmst3/group/cmgtools/CMG/GluGluToHToTauTau_M-145_8TeV-powheg-pythia6/Summer12_DR53X-PU_S10_START53_V7A-v1/AODSIM/PAT_CMG_V5_16_0/cmgTuple_13_1_BbN.root
p223
(lp224
I01
aI10000
asV/store/cmst3/group/cmgtools/CMG/GluGluToHToTauTau_M-145_8TeV-powheg-pythia6/Summer12_DR53X-PU_S10_START53_V7A-v1/AODSIM/PAT_CMG_V5_16_0/cmgTuple_19_1_zfk.root
p225
(lp226
I01
aI10000
asV/store/cmst3/group/cmgtools/CMG/GluGluToHToTauTau_M-145_8TeV-powheg-pythia6/Summer12_DR53X-PU_S10_START53_V7A-v1/AODSIM/PAT_CMG_V5_16_0/cmgTuple_61_1_GyU.root
p227
(lp228
I01
aI10000
asV/store/cmst3/group/cmgtools/CMG/GluGluToHToTauTau_M-145_8TeV-powheg-pythia6/Summer12_DR53X-PU_S10_START53_V7A-v1/AODSIM/PAT_CMG_V5_16_0/cmgTuple_41_1_ebj.root
p229
(lp230
I01
aI10000
asV/store/cmst3/group/cmgtools/CMG/GluGluToHToTauTau_M-145_8TeV-powheg-pythia6/Summer12_DR53X-PU_S10_START53_V7A-v1/AODSIM/PAT_CMG_V5_16_0/cmgTuple_71_1_03b.root
p231
(lp232
I01
aI10000
asV/store/cmst3/group/cmgtools/CMG/GluGluToHToTauTau_M-145_8TeV-powheg-pythia6/Summer12_DR53X-PU_S10_START53_V7A-v1/AODSIM/PAT_CMG_V5_16_0/cmgTuple_21_1_keT.root
p233
(lp234
I01
aI10000
asV/store/cmst3/group/cmgtools/CMG/GluGluToHToTauTau_M-145_8TeV-powheg-pythia6/Summer12_DR53X-PU_S10_START53_V7A-v1/AODSIM/PAT_CMG_V5_16_0/cmgTuple_52_1_xT8.root
p235
(lp236
I01
aI10000
asV/store/cmst3/group/cmgtools/CMG/GluGluToHToTauTau_M-145_8TeV-powheg-pythia6/Summer12_DR53X-PU_S10_START53_V7A-v1/AODSIM/PAT_CMG_V5_16_0/cmgTuple_7_1_wZn.root
p237
(lp238
I01
aI10000
asV/store/cmst3/group/cmgtools/CMG/GluGluToHToTauTau_M-145_8TeV-powheg-pythia6/Summer12_DR53X-PU_S10_START53_V7A-v1/AODSIM/PAT_CMG_V5_16_0/cmgTuple_45_1_0xf.root
p239
(lp240
I01
aI10000
asV/store/cmst3/group/cmgtools/CMG/GluGluToHToTauTau_M-145_8TeV-powheg-pythia6/Summer12_DR53X-PU_S10_START53_V7A-v1/AODSIM/PAT_CMG_V5_16_0/cmgTuple_80_1_wkQ.root
p241
(lp242
I01
aI10000
asV/store/cmst3/group/cmgtools/CMG/GluGluToHToTauTau_M-145_8TeV-powheg-pythia6/Summer12_DR53X-PU_S10_START53_V7A-v1/AODSIM/PAT_CMG_V5_16_0/cmgTuple_47_1_zCW.root
p243
(lp244
I01
aI10000
asV/store/cmst3/group/cmgtools/CMG/GluGluToHToTauTau_M-145_8TeV-powheg-pythia6/Summer12_DR53X-PU_S10_START53_V7A-v1/AODSIM/PAT_CMG_V5_16_0/cmgTuple_74_1_dD9.root
p245
(lp246
I01
aI10000
asV/store/cmst3/group/cmgtools/CMG/GluGluToHToTauTau_M-145_8TeV-powheg-pythia6/Summer12_DR53X-PU_S10_START53_V7A-v1/AODSIM/PAT_CMG_V5_16_0/cmgTuple_62_1_M4N.root
p247
(lp248
I01
aI10000
asV/store/cmst3/group/cmgtools/CMG/GluGluToHToTauTau_M-145_8TeV-powheg-pythia6/Summer12_DR53X-PU_S10_START53_V7A-v1/AODSIM/PAT_CMG_V5_16_0/cmgTuple_75_1_8u9.root
p249
(lp250
I01
aI10000
asV/store/cmst3/group/cmgtools/CMG/GluGluToHToTauTau_M-145_8TeV-powheg-pythia6/Summer12_DR53X-PU_S10_START53_V7A-v1/AODSIM/PAT_CMG_V5_16_0/cmgTuple_29_1_YTU.root
p251
(lp252
I01
aI10000
asV/store/cmst3/group/cmgtools/CMG/GluGluToHToTauTau_M-145_8TeV-powheg-pythia6/Summer12_DR53X-PU_S10_START53_V7A-v1/AODSIM/PAT_CMG_V5_16_0/cmgTuple_53_1_PHh.root
p253
(lp254
I01
aI10000
asV/store/cmst3/group/cmgtools/CMG/GluGluToHToTauTau_M-145_8TeV-powheg-pythia6/Summer12_DR53X-PU_S10_START53_V7A-v1/AODSIM/PAT_CMG_V5_16_0/cmgTuple_77_1_D50.root
p255
(lp256
I01
aI10000
asV/store/cmst3/group/cmgtools/CMG/GluGluToHToTauTau_M-145_8TeV-powheg-pythia6/Summer12_DR53X-PU_S10_START53_V7A-v1/AODSIM/PAT_CMG_V5_16_0/cmgTuple_65_1_Apt.root
p257
(lp258
I01
aI10000
asV/store/cmst3/group/cmgtools/CMG/GluGluToHToTauTau_M-145_8TeV-powheg-pythia6/Summer12_DR53X-PU_S10_START53_V7A-v1/AODSIM/PAT_CMG_V5_16_0/cmgTuple_48_1_fO8.root
p259
(lp260
I01
aI10000
asV/store/cmst3/group/cmgtools/CMG/GluGluToHToTauTau_M-145_8TeV-powheg-pythia6/Summer12_DR53X-PU_S10_START53_V7A-v1/AODSIM/PAT_CMG_V5_16_0/cmgTuple_30_1_sk0.root
p261
(lp262
I01
aI10000
asV/store/cmst3/group/cmgtools/CMG/GluGluToHToTauTau_M-145_8TeV-powheg-pythia6/Summer12_DR53X-PU_S10_START53_V7A-v1/AODSIM/PAT_CMG_V5_16_0/cmgTuple_68_1_nc1.root
p263
(lp264
I01
aI10000
asV/store/cmst3/group/cmgtools/CMG/GluGluToHToTauTau_M-145_8TeV-powheg-pythia6/Summer12_DR53X-PU_S10_START53_V7A-v1/AODSIM/PAT_CMG_V5_16_0/cmgTuple_63_1_d3z.root
p265
(lp266
I01
aI10000
asV/store/cmst3/group/cmgtools/CMG/GluGluToHToTauTau_M-145_8TeV-powheg-pythia6/Summer12_DR53X-PU_S10_START53_V7A-v1/AODSIM/PAT_CMG_V5_16_0/cmgTuple_98_1_dlV.root
p267
(lp268
I01
aI3121
asV/store/cmst3/group/cmgtools/CMG/GluGluToHToTauTau_M-145_8TeV-powheg-pythia6/Summer12_DR53X-PU_S10_START53_V7A-v1/AODSIM/PAT_CMG_V5_16_0/cmgTuple_94_1_wbj.root
p269
(lp270
I01
aI10000
asV/store/cmst3/group/cmgtools/CMG/GluGluToHToTauTau_M-145_8TeV-powheg-pythia6/Summer12_DR53X-PU_S10_START53_V7A-v1/AODSIM/PAT_CMG_V5_16_0/cmgTuple_93_1_xEX.root
p271
(lp272
I01
aI10000
asV/store/cmst3/group/cmgtools/CMG/GluGluToHToTauTau_M-145_8TeV-powheg-pythia6/Summer12_DR53X-PU_S10_START53_V7A-v1/AODSIM/PAT_CMG_V5_16_0/cmgTuple_85_1_bpy.root
p273
(lp274
I01
aI10000
asV/store/cmst3/group/cmgtools/CMG/GluGluToHToTauTau_M-145_8TeV-powheg-pythia6/Summer12_DR53X-PU_S10_START53_V7A-v1/AODSIM/PAT_CMG_V5_16_0/cmgTuple_24_1_neg.root
p275
(lp276
I01
aI10000
asV/store/cmst3/group/cmgtools/CMG/GluGluToHToTauTau_M-145_8TeV-powheg-pythia6/Summer12_DR53X-PU_S10_START53_V7A-v1/AODSIM/PAT_CMG_V5_16_0/cmgTuple_49_1_hiT.root
p277
(lp278
I01
aI10000
asV/store/cmst3/group/cmgtools/CMG/GluGluToHToTauTau_M-145_8TeV-powheg-pythia6/Summer12_DR53X-PU_S10_START53_V7A-v1/AODSIM/PAT_CMG_V5_16_0/cmgTuple_89_1_l3v.root
p279
(lp280
I01
aI10000
asV/store/cmst3/group/cmgtools/CMG/GluGluToHToTauTau_M-145_8TeV-powheg-pythia6/Summer12_DR53X-PU_S10_START53_V7A-v1/AODSIM/PAT_CMG_V5_16_0/cmgTuple_46_1_nTK.root
p281
(lp282
I01
aI10000
asV/store/cmst3/group/cmgtools/CMG/GluGluToHToTauTau_M-145_8TeV-powheg-pythia6/Summer12_DR53X-PU_S10_START53_V7A-v1/AODSIM/PAT_CMG_V5_16_0/cmgTuple_96_1_rNR.root
p283
(lp284
I01
aI10000
asV/store/cmst3/group/cmgtools/CMG/GluGluToHToTauTau_M-145_8TeV-powheg-pythia6/Summer12_DR53X-PU_S10_START53_V7A-v1/AODSIM/PAT_CMG_V5_16_0/cmgTuple_5_1_vBg.root
p285
(lp286
I01
aI7198
asV/store/cmst3/group/cmgtools/CMG/GluGluToHToTauTau_M-145_8TeV-powheg-pythia6/Summer12_DR53X-PU_S10_START53_V7A-v1/AODSIM/PAT_CMG_V5_16_0/cmgTuple_16_1_Wa5.root
p287
(lp288
I01
aI10000
asV/store/cmst3/group/cmgtools/CMG/GluGluToHToTauTau_M-145_8TeV-powheg-pythia6/Summer12_DR53X-PU_S10_START53_V7A-v1/AODSIM/PAT_CMG_V5_16_0/cmgTuple_22_1_JsJ.root
p289
(lp290
I01
aI10000
asV/store/cmst3/group/cmgtools/CMG/GluGluToHToTauTau_M-145_8TeV-powheg-pythia6/Summer12_DR53X-PU_S10_START53_V7A-v1/AODSIM/PAT_CMG_V5_16_0/cmgTuple_83_1_cnH.root
p291
(lp292
I01
aI10000
asV/store/cmst3/group/cmgtools/CMG/GluGluToHToTauTau_M-145_8TeV-powheg-pythia6/Summer12_DR53X-PU_S10_START53_V7A-v1/AODSIM/PAT_CMG_V5_16_0/cmgTuple_31_1_QT6.root
p293
(lp294
I01
aI10000
asV/store/cmst3/group/cmgtools/CMG/GluGluToHToTauTau_M-145_8TeV-powheg-pythia6/Summer12_DR53X-PU_S10_START53_V7A-v1/AODSIM/PAT_CMG_V5_16_0/cmgTuple_23_1_hIs.root
p295
(lp296
I01
aI10000
asV/store/cmst3/group/cmgtools/CMG/GluGluToHToTauTau_M-145_8TeV-powheg-pythia6/Summer12_DR53X-PU_S10_START53_V7A-v1/AODSIM/PAT_CMG_V5_16_0/cmgTuple_51_1_y4e.root
p297
(lp298
I01
aI10000
asV/store/cmst3/group/cmgtools/CMG/GluGluToHToTauTau_M-145_8TeV-powheg-pythia6/Summer12_DR53X-PU_S10_START53_V7A-v1/AODSIM/PAT_CMG_V5_16_0/cmgTuple_90_1_95Q.root
p299
(lp300
I01
aI10000
asV/store/cmst3/group/cmgtools/CMG/GluGluToHToTauTau_M-145_8TeV-powheg-pythia6/Summer12_DR53X-PU_S10_START53_V7A-v1/AODSIM/PAT_CMG_V5_16_0/cmgTuple_54_1_sx0.root
p301
(lp302
I01
aI10000
asV/store/cmst3/group/cmgtools/CMG/GluGluToHToTauTau_M-145_8TeV-powheg-pythia6/Summer12_DR53X-PU_S10_START53_V7A-v1/AODSIM/PAT_CMG_V5_16_0/cmgTuple_78_1_Ax6.root
p303
(lp304
I01
aI10000
asV/store/cmst3/group/cmgtools/CMG/GluGluToHToTauTau_M-145_8TeV-powheg-pythia6/Summer12_DR53X-PU_S10_START53_V7A-v1/AODSIM/PAT_CMG_V5_16_0/cmgTuple_42_1_dsp.root
p305
(lp306
I01
aI10000
asV/store/cmst3/group/cmgtools/CMG/GluGluToHToTauTau_M-145_8TeV-powheg-pythia6/Summer12_DR53X-PU_S10_START53_V7A-v1/AODSIM/PAT_CMG_V5_16_0/cmgTuple_86_1_kvS.root
p307
(lp308
I01
aI10000
asV/store/cmst3/group/cmgtools/CMG/GluGluToHToTauTau_M-145_8TeV-powheg-pythia6/Summer12_DR53X-PU_S10_START53_V7A-v1/AODSIM/PAT_CMG_V5_16_0/cmgTuple_33_1_Gxe.root
p309
(lp310
I01
aI10000
asV/store/cmst3/group/cmgtools/CMG/GluGluToHToTauTau_M-145_8TeV-powheg-pythia6/Summer12_DR53X-PU_S10_START53_V7A-v1/AODSIM/PAT_CMG_V5_16_0/cmgTuple_91_1_BPg.root
p311
(lp312
I01
aI10000
asV/store/cmst3/group/cmgtools/CMG/GluGluToHToTauTau_M-145_8TeV-powheg-pythia6/Summer12_DR53X-PU_S10_START53_V7A-v1/AODSIM/PAT_CMG_V5_16_0/cmgTuple_28_1_Fba.root
p313
(lp314
I01
aI10000
asV/store/cmst3/group/cmgtools/CMG/GluGluToHToTauTau_M-145_8TeV-powheg-pythia6/Summer12_DR53X-PU_S10_START53_V7A-v1/AODSIM/PAT_CMG_V5_16_0/cmgTuple_58_1_TCs.root
p315
(lp316
I01
aI10000
asV/store/cmst3/group/cmgtools/CMG/GluGluToHToTauTau_M-145_8TeV-powheg-pythia6/Summer12_DR53X-PU_S10_START53_V7A-v1/AODSIM/PAT_CMG_V5_16_0/cmgTuple_79_1_GNC.root
p317
(lp318
I01
aI10000
asV/store/cmst3/group/cmgtools/CMG/GluGluToHToTauTau_M-145_8TeV-powheg-pythia6/Summer12_DR53X-PU_S10_START53_V7A-v1/AODSIM/PAT_CMG_V5_16_0/cmgTuple_39_1_mnH.root
p319
(lp320
I01
aI10000
asV/store/cmst3/group/cmgtools/CMG/GluGluToHToTauTau_M-145_8TeV-powheg-pythia6/Summer12_DR53X-PU_S10_START53_V7A-v1/AODSIM/PAT_CMG_V5_16_0/cmgTuple_55_1_wSY.root
p321
(lp322
I01
aI10000
asV/store/cmst3/group/cmgtools/CMG/GluGluToHToTauTau_M-145_8TeV-powheg-pythia6/Summer12_DR53X-PU_S10_START53_V7A-v1/AODSIM/PAT_CMG_V5_16_0/cmgTuple_3_1_rJF.root
p323
(lp324
I01
aI10000
asV/store/cmst3/group/cmgtools/CMG/GluGluToHToTauTau_M-145_8TeV-powheg-pythia6/Summer12_DR53X-PU_S10_START53_V7A-v1/AODSIM/PAT_CMG_V5_16_0/cmgTuple_84_1_130.root
p325
(lp326
I01
aI10000
assVPhysicsGroup
p327
VCMG
p328
sVFilesCount
p329
I98
sVFilesEntries
p330
I962119
sVRunList
p331
(lp332
sVValidDuplicates
p333
(dp334
sVPrimaryDataset
p335
V/GluGluToHToTauTau_M-145_8TeV-powheg-pythia6/Summer12_DR53X-PU_S10_START53_V7A-v1/AODSIM
p336
sVStatus
p337
VVALID
p338
sVName
p339
V/GluGluToHToTauTau_M-145_8TeV-powheg-pythia6/Summer12_DR53X-PU_S10_START53_V7A-v1/AODSIM/PAT_CMG_V5_16_0
p340
sVTopdir
p341
V/eos/cms/store/cmst3/group/cmgtools/CMG
p342
sVdata
p343
(dp344
sVFilesBad
p345
I0
sVMinRun
p346
I-1
sVAlgoList
p347
(lp348
sVTierList
p349
(lp350
sVDateCreated
p351
V1370943235
p352
sVCreatedBy
p353
Vcmgtools_group
p354
sVMaxRun
p355
I-1
sVBadJobs
p356
(lp357
ssg89
I01
ssS'MonitorJobs'
p358
(dp359
S'LSFJobStatus'
p360
(dp361
g93
S'VBF_HToTauTau_M-140_8TeV-powheg-pythia6/Summer12_DR53X-PU_S10_START53_V7A-v1/AODSIM/PAT_CMG_V5_16_0_1377467448/HTT_24Jul_newTES_manzoni_Up_Jobs/Job_9/LSFJOB_440971473/STDOUT.gz'
p362
sg94
S'VBF_HToTauTau_M-140_8TeV-powheg-pythia6/Summer12_DR53X-PU_S10_START53_V7A-v1/AODSIM/PAT_CMG_V5_16_0_1377467448/HTT_24Jul_newTES_manzoni_Up_Jobs/Job_8/LSFJOB_440971404/STDOUT.gz'
p363
sg95
S'VBF_HToTauTau_M-140_8TeV-powheg-pythia6/Summer12_DR53X-PU_S10_START53_V7A-v1/AODSIM/PAT_CMG_V5_16_0_1377467448/HTT_24Jul_newTES_manzoni_Up_Jobs/Job_3/LSFJOB_440970894/STDOUT.gz'
p364
sg96
S'VBF_HToTauTau_M-140_8TeV-powheg-pythia6/Summer12_DR53X-PU_S10_START53_V7A-v1/AODSIM/PAT_CMG_V5_16_0_1377467448/HTT_24Jul_newTES_manzoni_Up_Jobs/Job_2/LSFJOB_440970762/STDOUT.gz'
p365
sg97
S'VBF_HToTauTau_M-140_8TeV-powheg-pythia6/Summer12_DR53X-PU_S10_START53_V7A-v1/AODSIM/PAT_CMG_V5_16_0_1377467448/HTT_24Jul_newTES_manzoni_Up_Jobs/Job_1/LSFJOB_440970645/STDOUT.gz'
p366
sg103
S'VBF_HToTauTau_M-140_8TeV-powheg-pythia6/Summer12_DR53X-PU_S10_START53_V7A-v1/AODSIM/PAT_CMG_V5_16_0_1377467448/HTT_24Jul_newTES_manzoni_Up_Jobs/Job_18/LSFJOB_440972352/STDOUT.gz'
p367
sg98
S'VBF_HToTauTau_M-140_8TeV-powheg-pythia6/Summer12_DR53X-PU_S10_START53_V7A-v1/AODSIM/PAT_CMG_V5_16_0_1377467448/HTT_24Jul_newTES_manzoni_Up_Jobs/Job_7/LSFJOB_440971342/STDOUT.gz'
p368
sg99
S'VBF_HToTauTau_M-140_8TeV-powheg-pythia6/Summer12_DR53X-PU_S10_START53_V7A-v1/AODSIM/PAT_CMG_V5_16_0_1377467448/HTT_24Jul_newTES_manzoni_Up_Jobs/Job_6/LSFJOB_440971220/STDOUT.gz'
p369
sg100
S'VBF_HToTauTau_M-140_8TeV-powheg-pythia6/Summer12_DR53X-PU_S10_START53_V7A-v1/AODSIM/PAT_CMG_V5_16_0_1377467448/HTT_24Jul_newTES_manzoni_Up_Jobs/Job_5/LSFJOB_440971092/STDOUT.gz'
p370
sg101
S'VBF_HToTauTau_M-140_8TeV-powheg-pythia6/Summer12_DR53X-PU_S10_START53_V7A-v1/AODSIM/PAT_CMG_V5_16_0_1377467448/HTT_24Jul_newTES_manzoni_Up_Jobs/Job_4/LSFJOB_440971003/STDOUT.gz'
p371
sg102
S'VBF_HToTauTau_M-140_8TeV-powheg-pythia6/Summer12_DR53X-PU_S10_START53_V7A-v1/AODSIM/PAT_CMG_V5_16_0_1377467448/HTT_24Jul_newTES_manzoni_Up_Jobs/Job_19/LSFJOB_440972478/STDOUT.gz'
p372
sg112
S'VBF_HToTauTau_M-140_8TeV-powheg-pythia6/Summer12_DR53X-PU_S10_START53_V7A-v1/AODSIM/PAT_CMG_V5_16_0_1377467448/HTT_24Jul_newTES_manzoni_Up_Jobs/Job_20/LSFJOB_440972595/STDOUT.gz'
p373
sg110
S'VBF_HToTauTau_M-140_8TeV-powheg-pythia6/Summer12_DR53X-PU_S10_START53_V7A-v1/AODSIM/PAT_CMG_V5_16_0_1377467448/HTT_24Jul_newTES_manzoni_Up_Jobs/Job_21/LSFJOB_440972709/STDOUT.gz'
p374
sg105
S'VBF_HToTauTau_M-140_8TeV-powheg-pythia6/Summer12_DR53X-PU_S10_START53_V7A-v1/AODSIM/PAT_CMG_V5_16_0_1377467448/HTT_24Jul_newTES_manzoni_Up_Jobs/Job_13/LSFJOB_440971888/STDOUT.gz'
p375
sg106
S'VBF_HToTauTau_M-140_8TeV-powheg-pythia6/Summer12_DR53X-PU_S10_START53_V7A-v1/AODSIM/PAT_CMG_V5_16_0_1377467448/HTT_24Jul_newTES_manzoni_Up_Jobs/Job_12/LSFJOB_440971787/STDOUT.gz'
p376
sg107
S'VBF_HToTauTau_M-140_8TeV-powheg-pythia6/Summer12_DR53X-PU_S10_START53_V7A-v1/AODSIM/PAT_CMG_V5_16_0_1377467448/HTT_24Jul_newTES_manzoni_Up_Jobs/Job_11/LSFJOB_440971658/STDOUT.gz'
p377
sg108
S'VBF_HToTauTau_M-140_8TeV-powheg-pythia6/Summer12_DR53X-PU_S10_START53_V7A-v1/AODSIM/PAT_CMG_V5_16_0_1377467448/HTT_24Jul_newTES_manzoni_Up_Jobs/Job_10/LSFJOB_440971578/STDOUT.gz'
p378
sg109
S'VBF_HToTauTau_M-140_8TeV-powheg-pythia6/Summer12_DR53X-PU_S10_START53_V7A-v1/AODSIM/PAT_CMG_V5_16_0_1377467448/HTT_24Jul_newTES_manzoni_Up_Jobs/Job_17/LSFJOB_440972255/STDOUT.gz'
p379
sg104
S'VBF_HToTauTau_M-140_8TeV-powheg-pythia6/Summer12_DR53X-PU_S10_START53_V7A-v1/AODSIM/PAT_CMG_V5_16_0_1377467448/HTT_24Jul_newTES_manzoni_Up_Jobs/Job_16/LSFJOB_440972178/STDOUT.gz'
p380
sg111
S'VBF_HToTauTau_M-140_8TeV-powheg-pythia6/Summer12_DR53X-PU_S10_START53_V7A-v1/AODSIM/PAT_CMG_V5_16_0_1377467448/HTT_24Jul_newTES_manzoni_Up_Jobs/Job_15/LSFJOB_440972087/STDOUT.gz'
p381
sg92
S'VBF_HToTauTau_M-140_8TeV-powheg-pythia6/Summer12_DR53X-PU_S10_START53_V7A-v1/AODSIM/PAT_CMG_V5_16_0_1377467448/HTT_24Jul_newTES_manzoni_Up_Jobs/Job_14/LSFJOB_440972002/STDOUT.gz'
p382
ssS'LSFJobIDs'
p383
(dp384
g110
S'440972709'
p385
sg93
S'440971473'
p386
sg94
S'440971404'
p387
sg112
S'440972595'
p388
sg95
S'440970894'
p389
sg96
S'440970762'
p390
sg97
S'440970645'
p391
sg98
S'440971342'
p392
sg99
S'440971220'
p393
sg100
S'440971092'
p394
sg101
S'440971003'
p395
sg102
S'440972478'
p396
sg103
S'440972352'
p397
sg105
S'440971888'
p398
sg106
S'440971787'
p399
sg107
S'440971658'
p400
sg108
S'440971578'
p401
sg109
S'440972255'
p402
sg104
S'440972178'
p403
sg111
S'440972087'
p404
sg92
S'440972002'
p405
sssS'FindOnCastor'
p406
(dp407
g51
S'/eos/cms/store/cmst3/group/cmgtools/CMG'
p408
sS'Directory'
p409
S'/eos/cms/store/cmst3/group/cmgtools/CMG/VBF_HToTauTau_M-140_8TeV-powheg-pythia6/Summer12_DR53X-PU_S10_START53_V7A-v1/AODSIM/PAT_CMG_V5_16_0'
p410
ssS'CheckConfig'
p411
(dp412
g67
g68
ssS'FullCFG'
p413
(dp414
S'FullCFG'
p415
S'VBF_HToTauTau_M-140_8TeV-powheg-pythia6/Summer12_DR53X-PU_S10_START53_V7A-v1/AODSIM/PAT_CMG_V5_16_0_1377467448/full_cfg.py'
p416
ssS'WriteJobReport'
p417
(dp418
S'SummaryFile'
p419
S'VBF_HToTauTau_M-140_8TeV-powheg-pythia6/Summer12_DR53X-PU_S10_START53_V7A-v1/AODSIM/PAT_CMG_V5_16_0_1377467448/resubmit.sh'
p420
ssS'ExpandConfig'
p421
(dp422
S'ExpandedFullCFG'
p423
S'VBF_HToTauTau_M-140_8TeV-powheg-pythia6/Summer12_DR53X-PU_S10_START53_V7A-v1/AODSIM/PAT_CMG_V5_16_0_1377467448/Expandedfull_cfg.py'
p424
ssS'RunTestEvents'
p425
(dp426
g67
g68
sS'TestCFG'
p427
S'VBF_HToTauTau_M-140_8TeV-powheg-pythia6/Summer12_DR53X-PU_S10_START53_V7A-v1/AODSIM/PAT_CMG_V5_16_0_1377467448/test_cfg.py'
p428
ssS'SourceCFG'
p429
(dp430
S'SourceCFG'
p431
S'VBF_HToTauTau_M-140_8TeV-powheg-pythia6/Summer12_DR53X-PU_S10_START53_V7A-v1/AODSIM/PAT_CMG_V5_16_0_1377467448/source_cfg.py'
p432
ssS'CheckForWrite'
p433
(dp434
g409
g410
sS'WriteAccess'
p435
I01
ssS'WriteToDatasets'
p436
(dp437
S'Added'
p438
I00
sg49
S'/VBF_HToTauTau_M-140_8TeV-powheg-pythia6/Summer12_DR53X-PU_S10_START53_V7A-v1/AODSIM/PAT_CMG_V5_16_0/HTT_24Jul_newTES_manzoni_Up'
p439
sS'User'
p440
g82
ssS'RunCMSBatch'
p441
(dp442
S'BatchUser'
p443
g82
sS'SampleOutputDir'
p444
S'/store/cmst3/user/manzoni/CMG/VBF_HToTauTau_M-140_8TeV-powheg-pythia6/Summer12_DR53X-PU_S10_START53_V7A-v1/AODSIM/PAT_CMG_V5_16_0/HTT_24Jul_newTES_manzoni_Up'
p445
sS'SampleDataset'
p446
g50
sS'LSFJobsTopDir'
p447
S'VBF_HToTauTau_M-140_8TeV-powheg-pythia6/Summer12_DR53X-PU_S10_START53_V7A-v1/AODSIM/PAT_CMG_V5_16_0_1377467448/HTT_24Jul_newTES_manzoni_Up_Jobs'
p448
ssS'CreateJobDirectory'
p449
(dp450
S'JobDir'
p451
S'VBF_HToTauTau_M-140_8TeV-powheg-pythia6/Summer12_DR53X-PU_S10_START53_V7A-v1/AODSIM/PAT_CMG_V5_16_0_1377467448'
p452
sS'PWD'
p453
S'/afs/cern.ch/user/m/manzoni/summer13/CMGTools/CMSSW_5_3_9/src/CMGTools/H2TauTau/prod/25aug_corrMC/up/mc'
p454
ssS'CleanJobFiles'
p455
(dp456
S'Compressed'
p457
(dp458
S'CompressedFiles'
p459
(lp460
ssS'Cleaned'
p461
(dp462
S'CleanedFiles'
p463
(lp464
g424
ag428
aS'VBF_HToTauTau_M-140_8TeV-powheg-pythia6/Summer12_DR53X-PU_S10_START53_V7A-v1/AODSIM/PAT_CMG_V5_16_0_1377467448/diTau_fullsel_tree_CMG.root'
p465
aS'VBF_HToTauTau_M-140_8TeV-powheg-pythia6/Summer12_DR53X-PU_S10_START53_V7A-v1/AODSIM/PAT_CMG_V5_16_0_1377467448/source_cfg.pyc'
p466
aS'VBF_HToTauTau_M-140_8TeV-powheg-pythia6/Summer12_DR53X-PU_S10_START53_V7A-v1/AODSIM/PAT_CMG_V5_16_0_1377467448/Expandedfull_cfg.pyc'
p467
asssS'CheckForMask'
p468
(dp469
g3
g119
sg89
I01
ss.