(dp0
S'CheckJobStatus'
p1
(dp2
S'Report'
p3
(dp4
S'Files'
p5
(dp6
S'/store/cmst3/user/manzoni/CMG/SUSYBBHToTauTau_M-120_8TeV-pythia6-tauola/Summer12_DR53X-PU_S10_START53_V7A-v1/AODSIM/PAT_CMG_V5_16_0/HTT_24Jul_newTES_manzoni_Up/diTau_fullsel_tree_CMG_33.root'
p7
(I01
I127
tp8
sS'/store/cmst3/user/manzoni/CMG/SUSYBBHToTauTau_M-120_8TeV-pythia6-tauola/Summer12_DR53X-PU_S10_START53_V7A-v1/AODSIM/PAT_CMG_V5_16_0/HTT_24Jul_newTES_manzoni_Up/diTau_fullsel_tree_CMG_26.root'
p9
(I01
I374
tp10
sS'/store/cmst3/user/manzoni/CMG/SUSYBBHToTauTau_M-120_8TeV-pythia6-tauola/Summer12_DR53X-PU_S10_START53_V7A-v1/AODSIM/PAT_CMG_V5_16_0/HTT_24Jul_newTES_manzoni_Up/diTau_fullsel_tree_CMG_21.root'
p11
(I01
I368
tp12
sS'/store/cmst3/user/manzoni/CMG/SUSYBBHToTauTau_M-120_8TeV-pythia6-tauola/Summer12_DR53X-PU_S10_START53_V7A-v1/AODSIM/PAT_CMG_V5_16_0/HTT_24Jul_newTES_manzoni_Up/diTau_fullsel_tree_CMG_13.root'
p13
(I01
I288
tp14
sS'/store/cmst3/user/manzoni/CMG/SUSYBBHToTauTau_M-120_8TeV-pythia6-tauola/Summer12_DR53X-PU_S10_START53_V7A-v1/AODSIM/PAT_CMG_V5_16_0/HTT_24Jul_newTES_manzoni_Up/diTau_fullsel_tree_CMG_19.root'
p15
(I01
I349
tp16
sS'/store/cmst3/user/manzoni/CMG/SUSYBBHToTauTau_M-120_8TeV-pythia6-tauola/Summer12_DR53X-PU_S10_START53_V7A-v1/AODSIM/PAT_CMG_V5_16_0/HTT_24Jul_newTES_manzoni_Up/diTau_fullsel_tree_CMG_5.root'
p17
(I01
I352
tp18
sS'/store/cmst3/user/manzoni/CMG/SUSYBBHToTauTau_M-120_8TeV-pythia6-tauola/Summer12_DR53X-PU_S10_START53_V7A-v1/AODSIM/PAT_CMG_V5_16_0/HTT_24Jul_newTES_manzoni_Up/diTau_fullsel_tree_CMG_1.root'
p19
(I01
I274
tp20
sS'/store/cmst3/user/manzoni/CMG/SUSYBBHToTauTau_M-120_8TeV-pythia6-tauola/Summer12_DR53X-PU_S10_START53_V7A-v1/AODSIM/PAT_CMG_V5_16_0/HTT_24Jul_newTES_manzoni_Up/diTau_fullsel_tree_CMG_6.root'
p21
(I01
I345
tp22
sS'/store/cmst3/user/manzoni/CMG/SUSYBBHToTauTau_M-120_8TeV-pythia6-tauola/Summer12_DR53X-PU_S10_START53_V7A-v1/AODSIM/PAT_CMG_V5_16_0/HTT_24Jul_newTES_manzoni_Up/diTau_fullsel_tree_CMG_29.root'
p23
(I01
I344
tp24
sS'/store/cmst3/user/manzoni/CMG/SUSYBBHToTauTau_M-120_8TeV-pythia6-tauola/Summer12_DR53X-PU_S10_START53_V7A-v1/AODSIM/PAT_CMG_V5_16_0/HTT_24Jul_newTES_manzoni_Up/diTau_fullsel_tree_CMG_8.root'
p25
(I01
I324
tp26
sS'/store/cmst3/user/manzoni/CMG/SUSYBBHToTauTau_M-120_8TeV-pythia6-tauola/Summer12_DR53X-PU_S10_START53_V7A-v1/AODSIM/PAT_CMG_V5_16_0/HTT_24Jul_newTES_manzoni_Up/diTau_fullsel_tree_CMG_22.root'
p27
(I01
I330
tp28
sS'/store/cmst3/user/manzoni/CMG/SUSYBBHToTauTau_M-120_8TeV-pythia6-tauola/Summer12_DR53X-PU_S10_START53_V7A-v1/AODSIM/PAT_CMG_V5_16_0/HTT_24Jul_newTES_manzoni_Up/diTau_fullsel_tree_CMG_10.root'
p29
(I01
I330
tp30
sS'/store/cmst3/user/manzoni/CMG/SUSYBBHToTauTau_M-120_8TeV-pythia6-tauola/Summer12_DR53X-PU_S10_START53_V7A-v1/AODSIM/PAT_CMG_V5_16_0/HTT_24Jul_newTES_manzoni_Up/diTau_fullsel_tree_CMG_7.root'
p31
(I01
I383
tp32
sS'/store/cmst3/user/manzoni/CMG/SUSYBBHToTauTau_M-120_8TeV-pythia6-tauola/Summer12_DR53X-PU_S10_START53_V7A-v1/AODSIM/PAT_CMG_V5_16_0/HTT_24Jul_newTES_manzoni_Up/diTau_fullsel_tree_CMG_17.root'
p33
(I01
I317
tp34
sS'/store/cmst3/user/manzoni/CMG/SUSYBBHToTauTau_M-120_8TeV-pythia6-tauola/Summer12_DR53X-PU_S10_START53_V7A-v1/AODSIM/PAT_CMG_V5_16_0/HTT_24Jul_newTES_manzoni_Up/diTau_fullsel_tree_CMG_32.root'
p35
(I01
I335
tp36
sS'/store/cmst3/user/manzoni/CMG/SUSYBBHToTauTau_M-120_8TeV-pythia6-tauola/Summer12_DR53X-PU_S10_START53_V7A-v1/AODSIM/PAT_CMG_V5_16_0/HTT_24Jul_newTES_manzoni_Up/diTau_fullsel_tree_CMG_14.root'
p37
(I01
I363
tp38
sS'/store/cmst3/user/manzoni/CMG/SUSYBBHToTauTau_M-120_8TeV-pythia6-tauola/Summer12_DR53X-PU_S10_START53_V7A-v1/AODSIM/PAT_CMG_V5_16_0/HTT_24Jul_newTES_manzoni_Up/diTau_fullsel_tree_CMG_30.root'
p39
(I01
I341
tp40
sS'/store/cmst3/user/manzoni/CMG/SUSYBBHToTauTau_M-120_8TeV-pythia6-tauola/Summer12_DR53X-PU_S10_START53_V7A-v1/AODSIM/PAT_CMG_V5_16_0/HTT_24Jul_newTES_manzoni_Up/diTau_fullsel_tree_CMG_24.root'
p41
(I01
I332
tp42
sS'/store/cmst3/user/manzoni/CMG/SUSYBBHToTauTau_M-120_8TeV-pythia6-tauola/Summer12_DR53X-PU_S10_START53_V7A-v1/AODSIM/PAT_CMG_V5_16_0/HTT_24Jul_newTES_manzoni_Up/diTau_fullsel_tree_CMG_12.root'
p43
(I01
I325
tp44
sS'/store/cmst3/user/manzoni/CMG/SUSYBBHToTauTau_M-120_8TeV-pythia6-tauola/Summer12_DR53X-PU_S10_START53_V7A-v1/AODSIM/PAT_CMG_V5_16_0/HTT_24Jul_newTES_manzoni_Up/diTau_fullsel_tree_CMG_4.root'
p45
(I01
I338
tp46
sS'/store/cmst3/user/manzoni/CMG/SUSYBBHToTauTau_M-120_8TeV-pythia6-tauola/Summer12_DR53X-PU_S10_START53_V7A-v1/AODSIM/PAT_CMG_V5_16_0/HTT_24Jul_newTES_manzoni_Up/diTau_fullsel_tree_CMG_31.root'
p47
(I01
I332
tp48
sS'/store/cmst3/user/manzoni/CMG/SUSYBBHToTauTau_M-120_8TeV-pythia6-tauola/Summer12_DR53X-PU_S10_START53_V7A-v1/AODSIM/PAT_CMG_V5_16_0/HTT_24Jul_newTES_manzoni_Up/diTau_fullsel_tree_CMG_11.root'
p49
(I01
I349
tp50
sS'/store/cmst3/user/manzoni/CMG/SUSYBBHToTauTau_M-120_8TeV-pythia6-tauola/Summer12_DR53X-PU_S10_START53_V7A-v1/AODSIM/PAT_CMG_V5_16_0/HTT_24Jul_newTES_manzoni_Up/diTau_fullsel_tree_CMG_9.root'
p51
(I01
I348
tp52
sS'/store/cmst3/user/manzoni/CMG/SUSYBBHToTauTau_M-120_8TeV-pythia6-tauola/Summer12_DR53X-PU_S10_START53_V7A-v1/AODSIM/PAT_CMG_V5_16_0/HTT_24Jul_newTES_manzoni_Up/diTau_fullsel_tree_CMG_28.root'
p53
(I01
I342
tp54
sS'/store/cmst3/user/manzoni/CMG/SUSYBBHToTauTau_M-120_8TeV-pythia6-tauola/Summer12_DR53X-PU_S10_START53_V7A-v1/AODSIM/PAT_CMG_V5_16_0/HTT_24Jul_newTES_manzoni_Up/diTau_fullsel_tree_CMG_25.root'
p55
(I01
I318
tp56
sS'/store/cmst3/user/manzoni/CMG/SUSYBBHToTauTau_M-120_8TeV-pythia6-tauola/Summer12_DR53X-PU_S10_START53_V7A-v1/AODSIM/PAT_CMG_V5_16_0/HTT_24Jul_newTES_manzoni_Up/diTau_fullsel_tree_CMG_16.root'
p57
(I01
I384
tp58
sS'/store/cmst3/user/manzoni/CMG/SUSYBBHToTauTau_M-120_8TeV-pythia6-tauola/Summer12_DR53X-PU_S10_START53_V7A-v1/AODSIM/PAT_CMG_V5_16_0/HTT_24Jul_newTES_manzoni_Up/diTau_fullsel_tree_CMG_2.root'
p59
(I01
I342
tp60
sS'/store/cmst3/user/manzoni/CMG/SUSYBBHToTauTau_M-120_8TeV-pythia6-tauola/Summer12_DR53X-PU_S10_START53_V7A-v1/AODSIM/PAT_CMG_V5_16_0/HTT_24Jul_newTES_manzoni_Up/diTau_fullsel_tree_CMG_15.root'
p61
(I01
I337
tp62
sS'/store/cmst3/user/manzoni/CMG/SUSYBBHToTauTau_M-120_8TeV-pythia6-tauola/Summer12_DR53X-PU_S10_START53_V7A-v1/AODSIM/PAT_CMG_V5_16_0/HTT_24Jul_newTES_manzoni_Up/diTau_fullsel_tree_CMG_18.root'
p63
(I01
I340
tp64
sS'/store/cmst3/user/manzoni/CMG/SUSYBBHToTauTau_M-120_8TeV-pythia6-tauola/Summer12_DR53X-PU_S10_START53_V7A-v1/AODSIM/PAT_CMG_V5_16_0/HTT_24Jul_newTES_manzoni_Up/diTau_fullsel_tree_CMG_3.root'
p65
(I01
I345
tp66
sS'/store/cmst3/user/manzoni/CMG/SUSYBBHToTauTau_M-120_8TeV-pythia6-tauola/Summer12_DR53X-PU_S10_START53_V7A-v1/AODSIM/PAT_CMG_V5_16_0/HTT_24Jul_newTES_manzoni_Up/diTau_fullsel_tree_CMG_23.root'
p67
(I01
I342
tp68
sS'/store/cmst3/user/manzoni/CMG/SUSYBBHToTauTau_M-120_8TeV-pythia6-tauola/Summer12_DR53X-PU_S10_START53_V7A-v1/AODSIM/PAT_CMG_V5_16_0/HTT_24Jul_newTES_manzoni_Up/diTau_fullsel_tree_CMG_27.root'
p69
(I01
I322
tp70
sS'/store/cmst3/user/manzoni/CMG/SUSYBBHToTauTau_M-120_8TeV-pythia6-tauola/Summer12_DR53X-PU_S10_START53_V7A-v1/AODSIM/PAT_CMG_V5_16_0/HTT_24Jul_newTES_manzoni_Up/diTau_fullsel_tree_CMG_20.root'
p71
(I01
I341
tp72
ssS'Name'
p73
S'/SUSYBBHToTauTau_M-120_8TeV-pythia6-tauola/Summer12_DR53X-PU_S10_START53_V7A-v1/AODSIM/PAT_CMG_V5_16_0/HTT_24Jul_newTES_manzoni_Up'
p74
sS'Topdir'
p75
S'/eos/cms/store/cmst3/user/manzoni/CMG'
p76
sS'RunList'
p77
(lp78
sS'PathList'
p79
(lp80
S'/store/cmst3/user/manzoni/CMG/SUSYBBHToTauTau_M-120_8TeV-pythia6-tauola/Summer12_DR53X-PU_S10_START53_V7A-v1/AODSIM/PAT_CMG_V5_16_0/HTT_24Jul_newTES_manzoni_Up'
p81
asS'AlgoList'
p82
(lp83
sS'PrimaryDatasetFraction'
p84
F0.011070527354717601
sS'FilesGood'
p85
I33
sS'PrimaryDatasetEntries'
p86
I991913
sS'data'
p87
(dp88
sS'FilesBad'
p89
I0
sS'ReportVersion'
p90
I3
sS'Status'
p91
S'VALID'
p92
sS'MaxRun'
p93
I-1
sS'PhysicsGroup'
p94
S'CMG'
p95
sS'MinRun'
p96
I-1
sS'StageHost'
p97
S'castorcms'
p98
sS'FilesCount'
p99
I33
sS'FilesEntries'
p100
I10981
sS'TierList'
p101
(lp102
sS'DateCreated'
p103
S'1377478617'
p104
sS'CreatedBy'
p105
S'manzoni'
p106
sS'ValidDuplicates'
p107
(dp108
sS'PrimaryDataset'
p109
S'/SUSYBBHToTauTau_M-120_8TeV-pythia6-tauola/Summer12_DR53X-PU_S10_START53_V7A-v1/AODSIM'
p110
sS'BadJobs'
p111
(lp112
ssS'MaskPresent'
p113
I01
sS'LSFJobStatusCheck'
p114
(dp115
S'SUSYBBHToTauTau_M-120_8TeV-pythia6-tauola/Summer12_DR53X-PU_S10_START53_V7A-v1/AODSIM/PAT_CMG_V5_16_0_1377467563/HTT_24Jul_newTES_manzoni_Up_Jobs/Job_31'
p116
g92
sS'SUSYBBHToTauTau_M-120_8TeV-pythia6-tauola/Summer12_DR53X-PU_S10_START53_V7A-v1/AODSIM/PAT_CMG_V5_16_0_1377467563/HTT_24Jul_newTES_manzoni_Up_Jobs/Job_21'
p117
g92
sS'SUSYBBHToTauTau_M-120_8TeV-pythia6-tauola/Summer12_DR53X-PU_S10_START53_V7A-v1/AODSIM/PAT_CMG_V5_16_0_1377467563/HTT_24Jul_newTES_manzoni_Up_Jobs/Job_20'
p118
g92
sS'SUSYBBHToTauTau_M-120_8TeV-pythia6-tauola/Summer12_DR53X-PU_S10_START53_V7A-v1/AODSIM/PAT_CMG_V5_16_0_1377467563/HTT_24Jul_newTES_manzoni_Up_Jobs/Job_23'
p119
g92
sS'SUSYBBHToTauTau_M-120_8TeV-pythia6-tauola/Summer12_DR53X-PU_S10_START53_V7A-v1/AODSIM/PAT_CMG_V5_16_0_1377467563/HTT_24Jul_newTES_manzoni_Up_Jobs/Job_22'
p120
g92
sS'SUSYBBHToTauTau_M-120_8TeV-pythia6-tauola/Summer12_DR53X-PU_S10_START53_V7A-v1/AODSIM/PAT_CMG_V5_16_0_1377467563/HTT_24Jul_newTES_manzoni_Up_Jobs/Job_25'
p121
g92
sS'SUSYBBHToTauTau_M-120_8TeV-pythia6-tauola/Summer12_DR53X-PU_S10_START53_V7A-v1/AODSIM/PAT_CMG_V5_16_0_1377467563/HTT_24Jul_newTES_manzoni_Up_Jobs/Job_24'
p122
g92
sS'SUSYBBHToTauTau_M-120_8TeV-pythia6-tauola/Summer12_DR53X-PU_S10_START53_V7A-v1/AODSIM/PAT_CMG_V5_16_0_1377467563/HTT_24Jul_newTES_manzoni_Up_Jobs/Job_27'
p123
g92
sS'SUSYBBHToTauTau_M-120_8TeV-pythia6-tauola/Summer12_DR53X-PU_S10_START53_V7A-v1/AODSIM/PAT_CMG_V5_16_0_1377467563/HTT_24Jul_newTES_manzoni_Up_Jobs/Job_26'
p124
g92
sS'SUSYBBHToTauTau_M-120_8TeV-pythia6-tauola/Summer12_DR53X-PU_S10_START53_V7A-v1/AODSIM/PAT_CMG_V5_16_0_1377467563/HTT_24Jul_newTES_manzoni_Up_Jobs/Job_29'
p125
g92
sS'SUSYBBHToTauTau_M-120_8TeV-pythia6-tauola/Summer12_DR53X-PU_S10_START53_V7A-v1/AODSIM/PAT_CMG_V5_16_0_1377467563/HTT_24Jul_newTES_manzoni_Up_Jobs/Job_28'
p126
g92
sS'SUSYBBHToTauTau_M-120_8TeV-pythia6-tauola/Summer12_DR53X-PU_S10_START53_V7A-v1/AODSIM/PAT_CMG_V5_16_0_1377467563/HTT_24Jul_newTES_manzoni_Up_Jobs/Job_6'
p127
g92
sS'SUSYBBHToTauTau_M-120_8TeV-pythia6-tauola/Summer12_DR53X-PU_S10_START53_V7A-v1/AODSIM/PAT_CMG_V5_16_0_1377467563/HTT_24Jul_newTES_manzoni_Up_Jobs/Job_7'
p128
g92
sS'SUSYBBHToTauTau_M-120_8TeV-pythia6-tauola/Summer12_DR53X-PU_S10_START53_V7A-v1/AODSIM/PAT_CMG_V5_16_0_1377467563/HTT_24Jul_newTES_manzoni_Up_Jobs/Job_4'
p129
g92
sS'SUSYBBHToTauTau_M-120_8TeV-pythia6-tauola/Summer12_DR53X-PU_S10_START53_V7A-v1/AODSIM/PAT_CMG_V5_16_0_1377467563/HTT_24Jul_newTES_manzoni_Up_Jobs/Job_5'
p130
g92
sS'SUSYBBHToTauTau_M-120_8TeV-pythia6-tauola/Summer12_DR53X-PU_S10_START53_V7A-v1/AODSIM/PAT_CMG_V5_16_0_1377467563/HTT_24Jul_newTES_manzoni_Up_Jobs/Job_2'
p131
g92
sS'SUSYBBHToTauTau_M-120_8TeV-pythia6-tauola/Summer12_DR53X-PU_S10_START53_V7A-v1/AODSIM/PAT_CMG_V5_16_0_1377467563/HTT_24Jul_newTES_manzoni_Up_Jobs/Job_3'
p132
g92
sS'SUSYBBHToTauTau_M-120_8TeV-pythia6-tauola/Summer12_DR53X-PU_S10_START53_V7A-v1/AODSIM/PAT_CMG_V5_16_0_1377467563/HTT_24Jul_newTES_manzoni_Up_Jobs/Job_1'
p133
g92
sS'SUSYBBHToTauTau_M-120_8TeV-pythia6-tauola/Summer12_DR53X-PU_S10_START53_V7A-v1/AODSIM/PAT_CMG_V5_16_0_1377467563/HTT_24Jul_newTES_manzoni_Up_Jobs/Job_32'
p134
g92
sS'SUSYBBHToTauTau_M-120_8TeV-pythia6-tauola/Summer12_DR53X-PU_S10_START53_V7A-v1/AODSIM/PAT_CMG_V5_16_0_1377467563/HTT_24Jul_newTES_manzoni_Up_Jobs/Job_33'
p135
g92
sS'SUSYBBHToTauTau_M-120_8TeV-pythia6-tauola/Summer12_DR53X-PU_S10_START53_V7A-v1/AODSIM/PAT_CMG_V5_16_0_1377467563/HTT_24Jul_newTES_manzoni_Up_Jobs/Job_8'
p136
g92
sS'SUSYBBHToTauTau_M-120_8TeV-pythia6-tauola/Summer12_DR53X-PU_S10_START53_V7A-v1/AODSIM/PAT_CMG_V5_16_0_1377467563/HTT_24Jul_newTES_manzoni_Up_Jobs/Job_9'
p137
g92
sS'SUSYBBHToTauTau_M-120_8TeV-pythia6-tauola/Summer12_DR53X-PU_S10_START53_V7A-v1/AODSIM/PAT_CMG_V5_16_0_1377467563/HTT_24Jul_newTES_manzoni_Up_Jobs/Job_18'
p138
g92
sS'SUSYBBHToTauTau_M-120_8TeV-pythia6-tauola/Summer12_DR53X-PU_S10_START53_V7A-v1/AODSIM/PAT_CMG_V5_16_0_1377467563/HTT_24Jul_newTES_manzoni_Up_Jobs/Job_19'
p139
g92
sS'SUSYBBHToTauTau_M-120_8TeV-pythia6-tauola/Summer12_DR53X-PU_S10_START53_V7A-v1/AODSIM/PAT_CMG_V5_16_0_1377467563/HTT_24Jul_newTES_manzoni_Up_Jobs/Job_30'
p140
g92
sS'SUSYBBHToTauTau_M-120_8TeV-pythia6-tauola/Summer12_DR53X-PU_S10_START53_V7A-v1/AODSIM/PAT_CMG_V5_16_0_1377467563/HTT_24Jul_newTES_manzoni_Up_Jobs/Job_10'
p141
g92
sS'SUSYBBHToTauTau_M-120_8TeV-pythia6-tauola/Summer12_DR53X-PU_S10_START53_V7A-v1/AODSIM/PAT_CMG_V5_16_0_1377467563/HTT_24Jul_newTES_manzoni_Up_Jobs/Job_11'
p142
g92
sS'SUSYBBHToTauTau_M-120_8TeV-pythia6-tauola/Summer12_DR53X-PU_S10_START53_V7A-v1/AODSIM/PAT_CMG_V5_16_0_1377467563/HTT_24Jul_newTES_manzoni_Up_Jobs/Job_12'
p143
g92
sS'SUSYBBHToTauTau_M-120_8TeV-pythia6-tauola/Summer12_DR53X-PU_S10_START53_V7A-v1/AODSIM/PAT_CMG_V5_16_0_1377467563/HTT_24Jul_newTES_manzoni_Up_Jobs/Job_13'
p144
g92
sS'SUSYBBHToTauTau_M-120_8TeV-pythia6-tauola/Summer12_DR53X-PU_S10_START53_V7A-v1/AODSIM/PAT_CMG_V5_16_0_1377467563/HTT_24Jul_newTES_manzoni_Up_Jobs/Job_14'
p145
g92
sS'SUSYBBHToTauTau_M-120_8TeV-pythia6-tauola/Summer12_DR53X-PU_S10_START53_V7A-v1/AODSIM/PAT_CMG_V5_16_0_1377467563/HTT_24Jul_newTES_manzoni_Up_Jobs/Job_15'
p146
g92
sS'SUSYBBHToTauTau_M-120_8TeV-pythia6-tauola/Summer12_DR53X-PU_S10_START53_V7A-v1/AODSIM/PAT_CMG_V5_16_0_1377467563/HTT_24Jul_newTES_manzoni_Up_Jobs/Job_16'
p147
g92
sS'SUSYBBHToTauTau_M-120_8TeV-pythia6-tauola/Summer12_DR53X-PU_S10_START53_V7A-v1/AODSIM/PAT_CMG_V5_16_0_1377467563/HTT_24Jul_newTES_manzoni_Up_Jobs/Job_17'
p148
g92
sssS'CheckDatasetExists'
p149
(dp150
S'Dataset'
p151
S'/SUSYBBHToTauTau_M-120_8TeV-pythia6-tauola/Summer12_DR53X-PU_S10_START53_V7A-v1/AODSIM/PAT_CMG_V5_16_0'
p152
ssS'GenerateMask'
p153
(dp154
g3
(dp155
VPathList
p156
(lp157
V/store/cmst3/group/cmgtools/CMG/SUSYBBHToTauTau_M-120_8TeV-pythia6-tauola/Summer12_DR53X-PU_S10_START53_V7A-v1/AODSIM/PAT_CMG_V5_16_0
p158
asVStageHost
p159
Vcastorcms
p160
sVPrimaryDatasetFraction
p161
F0.96975541201698134
sVFilesGood
p162
I97
sVPrimaryDatasetEntries
p163
I991913
sVReportVersion
p164
I3
sVFiles
p165
(dp166
V/store/cmst3/group/cmgtools/CMG/SUSYBBHToTauTau_M-120_8TeV-pythia6-tauola/Summer12_DR53X-PU_S10_START53_V7A-v1/AODSIM/PAT_CMG_V5_16_0/cmgTuple_80_1_Ti0.root
p167
(lp168
I01
aI10000
asV/store/cmst3/group/cmgtools/CMG/SUSYBBHToTauTau_M-120_8TeV-pythia6-tauola/Summer12_DR53X-PU_S10_START53_V7A-v1/AODSIM/PAT_CMG_V5_16_0/cmgTuple_60_1_5Bh.root
p169
(lp170
I01
aI10000
asV/store/cmst3/group/cmgtools/CMG/SUSYBBHToTauTau_M-120_8TeV-pythia6-tauola/Summer12_DR53X-PU_S10_START53_V7A-v1/AODSIM/PAT_CMG_V5_16_0/cmgTuple_29_1_pPf.root
p171
(lp172
I01
aI10000
asV/store/cmst3/group/cmgtools/CMG/SUSYBBHToTauTau_M-120_8TeV-pythia6-tauola/Summer12_DR53X-PU_S10_START53_V7A-v1/AODSIM/PAT_CMG_V5_16_0/cmgTuple_100_1_8gq.root
p173
(lp174
I01
aI1913
asV/store/cmst3/group/cmgtools/CMG/SUSYBBHToTauTau_M-120_8TeV-pythia6-tauola/Summer12_DR53X-PU_S10_START53_V7A-v1/AODSIM/PAT_CMG_V5_16_0/cmgTuple_63_1_55A.root
p175
(lp176
I01
aI10000
asV/store/cmst3/group/cmgtools/CMG/SUSYBBHToTauTau_M-120_8TeV-pythia6-tauola/Summer12_DR53X-PU_S10_START53_V7A-v1/AODSIM/PAT_CMG_V5_16_0/cmgTuple_11_1_wqR.root
p177
(lp178
I01
aI10000
asV/store/cmst3/group/cmgtools/CMG/SUSYBBHToTauTau_M-120_8TeV-pythia6-tauola/Summer12_DR53X-PU_S10_START53_V7A-v1/AODSIM/PAT_CMG_V5_16_0/cmgTuple_62_1_mnb.root
p179
(lp180
I01
aI10000
asV/store/cmst3/group/cmgtools/CMG/SUSYBBHToTauTau_M-120_8TeV-pythia6-tauola/Summer12_DR53X-PU_S10_START53_V7A-v1/AODSIM/PAT_CMG_V5_16_0/cmgTuple_53_1_ur8.root
p181
(lp182
I01
aI10000
asV/store/cmst3/group/cmgtools/CMG/SUSYBBHToTauTau_M-120_8TeV-pythia6-tauola/Summer12_DR53X-PU_S10_START53_V7A-v1/AODSIM/PAT_CMG_V5_16_0/cmgTuple_71_1_rUz.root
p183
(lp184
I01
aI10000
asV/store/cmst3/group/cmgtools/CMG/SUSYBBHToTauTau_M-120_8TeV-pythia6-tauola/Summer12_DR53X-PU_S10_START53_V7A-v1/AODSIM/PAT_CMG_V5_16_0/cmgTuple_16_1_vQN.root
p185
(lp186
I01
aI10000
asV/store/cmst3/group/cmgtools/CMG/SUSYBBHToTauTau_M-120_8TeV-pythia6-tauola/Summer12_DR53X-PU_S10_START53_V7A-v1/AODSIM/PAT_CMG_V5_16_0/cmgTuple_32_1_TAl.root
p187
(lp188
I01
aI10000
asV/store/cmst3/group/cmgtools/CMG/SUSYBBHToTauTau_M-120_8TeV-pythia6-tauola/Summer12_DR53X-PU_S10_START53_V7A-v1/AODSIM/PAT_CMG_V5_16_0/cmgTuple_34_1_CvK.root
p189
(lp190
I01
aI10000
asV/store/cmst3/group/cmgtools/CMG/SUSYBBHToTauTau_M-120_8TeV-pythia6-tauola/Summer12_DR53X-PU_S10_START53_V7A-v1/AODSIM/PAT_CMG_V5_16_0/cmgTuple_20_1_O5t.root
p191
(lp192
I01
aI10000
asV/store/cmst3/group/cmgtools/CMG/SUSYBBHToTauTau_M-120_8TeV-pythia6-tauola/Summer12_DR53X-PU_S10_START53_V7A-v1/AODSIM/PAT_CMG_V5_16_0/cmgTuple_50_1_9IL.root
p193
(lp194
I01
aI10000
asV/store/cmst3/group/cmgtools/CMG/SUSYBBHToTauTau_M-120_8TeV-pythia6-tauola/Summer12_DR53X-PU_S10_START53_V7A-v1/AODSIM/PAT_CMG_V5_16_0/cmgTuple_27_1_eLJ.root
p195
(lp196
I01
aI10000
asV/store/cmst3/group/cmgtools/CMG/SUSYBBHToTauTau_M-120_8TeV-pythia6-tauola/Summer12_DR53X-PU_S10_START53_V7A-v1/AODSIM/PAT_CMG_V5_16_0/cmgTuple_4_1_WFc.root
p197
(lp198
I01
aI10000
asV/store/cmst3/group/cmgtools/CMG/SUSYBBHToTauTau_M-120_8TeV-pythia6-tauola/Summer12_DR53X-PU_S10_START53_V7A-v1/AODSIM/PAT_CMG_V5_16_0/cmgTuple_18_1_0SB.root
p199
(lp200
I01
aI10000
asV/store/cmst3/group/cmgtools/CMG/SUSYBBHToTauTau_M-120_8TeV-pythia6-tauola/Summer12_DR53X-PU_S10_START53_V7A-v1/AODSIM/PAT_CMG_V5_16_0/cmgTuple_25_1_yhK.root
p201
(lp202
I01
aI10000
asV/store/cmst3/group/cmgtools/CMG/SUSYBBHToTauTau_M-120_8TeV-pythia6-tauola/Summer12_DR53X-PU_S10_START53_V7A-v1/AODSIM/PAT_CMG_V5_16_0/cmgTuple_82_1_PPr.root
p203
(lp204
I01
aI10000
asV/store/cmst3/group/cmgtools/CMG/SUSYBBHToTauTau_M-120_8TeV-pythia6-tauola/Summer12_DR53X-PU_S10_START53_V7A-v1/AODSIM/PAT_CMG_V5_16_0/cmgTuple_94_1_hlW.root
p205
(lp206
I01
aI10000
asV/store/cmst3/group/cmgtools/CMG/SUSYBBHToTauTau_M-120_8TeV-pythia6-tauola/Summer12_DR53X-PU_S10_START53_V7A-v1/AODSIM/PAT_CMG_V5_16_0/cmgTuple_93_1_xh3.root
p207
(lp208
I01
aI10000
asV/store/cmst3/group/cmgtools/CMG/SUSYBBHToTauTau_M-120_8TeV-pythia6-tauola/Summer12_DR53X-PU_S10_START53_V7A-v1/AODSIM/PAT_CMG_V5_16_0/cmgTuple_15_1_ZHR.root
p209
(lp210
I01
aI10000
asV/store/cmst3/group/cmgtools/CMG/SUSYBBHToTauTau_M-120_8TeV-pythia6-tauola/Summer12_DR53X-PU_S10_START53_V7A-v1/AODSIM/PAT_CMG_V5_16_0/cmgTuple_33_1_ugz.root
p211
(lp212
I01
aI10000
asV/store/cmst3/group/cmgtools/CMG/SUSYBBHToTauTau_M-120_8TeV-pythia6-tauola/Summer12_DR53X-PU_S10_START53_V7A-v1/AODSIM/PAT_CMG_V5_16_0/cmgTuple_59_1_D0q.root
p213
(lp214
I01
aI10000
asV/store/cmst3/group/cmgtools/CMG/SUSYBBHToTauTau_M-120_8TeV-pythia6-tauola/Summer12_DR53X-PU_S10_START53_V7A-v1/AODSIM/PAT_CMG_V5_16_0/cmgTuple_96_1_uJc.root
p215
(lp216
I01
aI10000
asV/store/cmst3/group/cmgtools/CMG/SUSYBBHToTauTau_M-120_8TeV-pythia6-tauola/Summer12_DR53X-PU_S10_START53_V7A-v1/AODSIM/PAT_CMG_V5_16_0/cmgTuple_81_1_7Nb.root
p217
(lp218
I01
aI10000
asV/store/cmst3/group/cmgtools/CMG/SUSYBBHToTauTau_M-120_8TeV-pythia6-tauola/Summer12_DR53X-PU_S10_START53_V7A-v1/AODSIM/PAT_CMG_V5_16_0/cmgTuple_5_1_OFj.root
p219
(lp220
I01
aI10000
asV/store/cmst3/group/cmgtools/CMG/SUSYBBHToTauTau_M-120_8TeV-pythia6-tauola/Summer12_DR53X-PU_S10_START53_V7A-v1/AODSIM/PAT_CMG_V5_16_0/cmgTuple_65_1_hwG.root
p221
(lp222
I01
aI10000
asV/store/cmst3/group/cmgtools/CMG/SUSYBBHToTauTau_M-120_8TeV-pythia6-tauola/Summer12_DR53X-PU_S10_START53_V7A-v1/AODSIM/PAT_CMG_V5_16_0/cmgTuple_17_1_1r6.root
p223
(lp224
I01
aI10000
asV/store/cmst3/group/cmgtools/CMG/SUSYBBHToTauTau_M-120_8TeV-pythia6-tauola/Summer12_DR53X-PU_S10_START53_V7A-v1/AODSIM/PAT_CMG_V5_16_0/cmgTuple_91_1_laK.root
p225
(lp226
I01
aI10000
asV/store/cmst3/group/cmgtools/CMG/SUSYBBHToTauTau_M-120_8TeV-pythia6-tauola/Summer12_DR53X-PU_S10_START53_V7A-v1/AODSIM/PAT_CMG_V5_16_0/cmgTuple_23_1_zpT.root
p227
(lp228
I01
aI10000
asV/store/cmst3/group/cmgtools/CMG/SUSYBBHToTauTau_M-120_8TeV-pythia6-tauola/Summer12_DR53X-PU_S10_START53_V7A-v1/AODSIM/PAT_CMG_V5_16_0/cmgTuple_98_1_Lyh.root
p229
(lp230
I01
aI10000
asV/store/cmst3/group/cmgtools/CMG/SUSYBBHToTauTau_M-120_8TeV-pythia6-tauola/Summer12_DR53X-PU_S10_START53_V7A-v1/AODSIM/PAT_CMG_V5_16_0/cmgTuple_58_1_eQF.root
p231
(lp232
I01
aI10000
asV/store/cmst3/group/cmgtools/CMG/SUSYBBHToTauTau_M-120_8TeV-pythia6-tauola/Summer12_DR53X-PU_S10_START53_V7A-v1/AODSIM/PAT_CMG_V5_16_0/cmgTuple_95_1_wWm.root
p233
(lp234
I01
aI10000
asV/store/cmst3/group/cmgtools/CMG/SUSYBBHToTauTau_M-120_8TeV-pythia6-tauola/Summer12_DR53X-PU_S10_START53_V7A-v1/AODSIM/PAT_CMG_V5_16_0/cmgTuple_48_1_laK.root
p235
(lp236
I01
aI10000
asV/store/cmst3/group/cmgtools/CMG/SUSYBBHToTauTau_M-120_8TeV-pythia6-tauola/Summer12_DR53X-PU_S10_START53_V7A-v1/AODSIM/PAT_CMG_V5_16_0/cmgTuple_55_1_pnq.root
p237
(lp238
I01
aI10000
asV/store/cmst3/group/cmgtools/CMG/SUSYBBHToTauTau_M-120_8TeV-pythia6-tauola/Summer12_DR53X-PU_S10_START53_V7A-v1/AODSIM/PAT_CMG_V5_16_0/cmgTuple_70_1_HZw.root
p239
(lp240
I01
aI10000
asV/store/cmst3/group/cmgtools/CMG/SUSYBBHToTauTau_M-120_8TeV-pythia6-tauola/Summer12_DR53X-PU_S10_START53_V7A-v1/AODSIM/PAT_CMG_V5_16_0/cmgTuple_43_1_PoE.root
p241
(lp242
I01
aI10000
asV/store/cmst3/group/cmgtools/CMG/SUSYBBHToTauTau_M-120_8TeV-pythia6-tauola/Summer12_DR53X-PU_S10_START53_V7A-v1/AODSIM/PAT_CMG_V5_16_0/cmgTuple_22_1_iGe.root
p243
(lp244
I01
aI10000
asV/store/cmst3/group/cmgtools/CMG/SUSYBBHToTauTau_M-120_8TeV-pythia6-tauola/Summer12_DR53X-PU_S10_START53_V7A-v1/AODSIM/PAT_CMG_V5_16_0/cmgTuple_99_1_OF5.root
p245
(lp246
I01
aI10000
asV/store/cmst3/group/cmgtools/CMG/SUSYBBHToTauTau_M-120_8TeV-pythia6-tauola/Summer12_DR53X-PU_S10_START53_V7A-v1/AODSIM/PAT_CMG_V5_16_0/cmgTuple_56_1_rOj.root
p247
(lp248
I01
aI10000
asV/store/cmst3/group/cmgtools/CMG/SUSYBBHToTauTau_M-120_8TeV-pythia6-tauola/Summer12_DR53X-PU_S10_START53_V7A-v1/AODSIM/PAT_CMG_V5_16_0/cmgTuple_54_1_oiz.root
p249
(lp250
I01
aI10000
asV/store/cmst3/group/cmgtools/CMG/SUSYBBHToTauTau_M-120_8TeV-pythia6-tauola/Summer12_DR53X-PU_S10_START53_V7A-v1/AODSIM/PAT_CMG_V5_16_0/cmgTuple_38_1_OOY.root
p251
(lp252
I01
aI10000
asV/store/cmst3/group/cmgtools/CMG/SUSYBBHToTauTau_M-120_8TeV-pythia6-tauola/Summer12_DR53X-PU_S10_START53_V7A-v1/AODSIM/PAT_CMG_V5_16_0/cmgTuple_8_1_0Yq.root
p253
(lp254
I01
aI10000
asV/store/cmst3/group/cmgtools/CMG/SUSYBBHToTauTau_M-120_8TeV-pythia6-tauola/Summer12_DR53X-PU_S10_START53_V7A-v1/AODSIM/PAT_CMG_V5_16_0/cmgTuple_90_1_tOd.root
p255
(lp256
I01
aI10000
asV/store/cmst3/group/cmgtools/CMG/SUSYBBHToTauTau_M-120_8TeV-pythia6-tauola/Summer12_DR53X-PU_S10_START53_V7A-v1/AODSIM/PAT_CMG_V5_16_0/cmgTuple_64_1_USG.root
p257
(lp258
I01
aI10000
asV/store/cmst3/group/cmgtools/CMG/SUSYBBHToTauTau_M-120_8TeV-pythia6-tauola/Summer12_DR53X-PU_S10_START53_V7A-v1/AODSIM/PAT_CMG_V5_16_0/cmgTuple_1_1_9ok.root
p259
(lp260
I01
aI10000
asV/store/cmst3/group/cmgtools/CMG/SUSYBBHToTauTau_M-120_8TeV-pythia6-tauola/Summer12_DR53X-PU_S10_START53_V7A-v1/AODSIM/PAT_CMG_V5_16_0/cmgTuple_78_1_XYJ.root
p261
(lp262
I01
aI10000
asV/store/cmst3/group/cmgtools/CMG/SUSYBBHToTauTau_M-120_8TeV-pythia6-tauola/Summer12_DR53X-PU_S10_START53_V7A-v1/AODSIM/PAT_CMG_V5_16_0/cmgTuple_28_1_1jp.root
p263
(lp264
I01
aI10000
asV/store/cmst3/group/cmgtools/CMG/SUSYBBHToTauTau_M-120_8TeV-pythia6-tauola/Summer12_DR53X-PU_S10_START53_V7A-v1/AODSIM/PAT_CMG_V5_16_0/cmgTuple_73_1_81C.root
p265
(lp266
I01
aI10000
asV/store/cmst3/group/cmgtools/CMG/SUSYBBHToTauTau_M-120_8TeV-pythia6-tauola/Summer12_DR53X-PU_S10_START53_V7A-v1/AODSIM/PAT_CMG_V5_16_0/cmgTuple_39_1_pHG.root
p267
(lp268
I01
aI10000
asV/store/cmst3/group/cmgtools/CMG/SUSYBBHToTauTau_M-120_8TeV-pythia6-tauola/Summer12_DR53X-PU_S10_START53_V7A-v1/AODSIM/PAT_CMG_V5_16_0/cmgTuple_24_1_Ph3.root
p269
(lp270
I01
aI10000
asV/store/cmst3/group/cmgtools/CMG/SUSYBBHToTauTau_M-120_8TeV-pythia6-tauola/Summer12_DR53X-PU_S10_START53_V7A-v1/AODSIM/PAT_CMG_V5_16_0/cmgTuple_87_1_fvK.root
p271
(lp272
I01
aI10000
asV/store/cmst3/group/cmgtools/CMG/SUSYBBHToTauTau_M-120_8TeV-pythia6-tauola/Summer12_DR53X-PU_S10_START53_V7A-v1/AODSIM/PAT_CMG_V5_16_0/cmgTuple_3_1_EYB.root
p273
(lp274
I01
aI10000
asV/store/cmst3/group/cmgtools/CMG/SUSYBBHToTauTau_M-120_8TeV-pythia6-tauola/Summer12_DR53X-PU_S10_START53_V7A-v1/AODSIM/PAT_CMG_V5_16_0/cmgTuple_67_1_60n.root
p275
(lp276
I01
aI10000
asV/store/cmst3/group/cmgtools/CMG/SUSYBBHToTauTau_M-120_8TeV-pythia6-tauola/Summer12_DR53X-PU_S10_START53_V7A-v1/AODSIM/PAT_CMG_V5_16_0/cmgTuple_57_1_DMH.root
p277
(lp278
I01
aI10000
asV/store/cmst3/group/cmgtools/CMG/SUSYBBHToTauTau_M-120_8TeV-pythia6-tauola/Summer12_DR53X-PU_S10_START53_V7A-v1/AODSIM/PAT_CMG_V5_16_0/cmgTuple_66_1_rwP.root
p279
(lp280
I01
aI10000
asV/store/cmst3/group/cmgtools/CMG/SUSYBBHToTauTau_M-120_8TeV-pythia6-tauola/Summer12_DR53X-PU_S10_START53_V7A-v1/AODSIM/PAT_CMG_V5_16_0/cmgTuple_49_1_r4N.root
p281
(lp282
I01
aI10000
asV/store/cmst3/group/cmgtools/CMG/SUSYBBHToTauTau_M-120_8TeV-pythia6-tauola/Summer12_DR53X-PU_S10_START53_V7A-v1/AODSIM/PAT_CMG_V5_16_0/cmgTuple_84_1_xsq.root
p283
(lp284
I01
aI10000
asV/store/cmst3/group/cmgtools/CMG/SUSYBBHToTauTau_M-120_8TeV-pythia6-tauola/Summer12_DR53X-PU_S10_START53_V7A-v1/AODSIM/PAT_CMG_V5_16_0/cmgTuple_37_1_4ij.root
p285
(lp286
I01
aI10000
asV/store/cmst3/group/cmgtools/CMG/SUSYBBHToTauTau_M-120_8TeV-pythia6-tauola/Summer12_DR53X-PU_S10_START53_V7A-v1/AODSIM/PAT_CMG_V5_16_0/cmgTuple_35_1_jsj.root
p287
(lp288
I01
aI10000
asV/store/cmst3/group/cmgtools/CMG/SUSYBBHToTauTau_M-120_8TeV-pythia6-tauola/Summer12_DR53X-PU_S10_START53_V7A-v1/AODSIM/PAT_CMG_V5_16_0/cmgTuple_85_1_RLe.root
p289
(lp290
I01
aI10000
asV/store/cmst3/group/cmgtools/CMG/SUSYBBHToTauTau_M-120_8TeV-pythia6-tauola/Summer12_DR53X-PU_S10_START53_V7A-v1/AODSIM/PAT_CMG_V5_16_0/cmgTuple_41_1_9If.root
p291
(lp292
I01
aI10000
asV/store/cmst3/group/cmgtools/CMG/SUSYBBHToTauTau_M-120_8TeV-pythia6-tauola/Summer12_DR53X-PU_S10_START53_V7A-v1/AODSIM/PAT_CMG_V5_16_0/cmgTuple_42_1_O36.root
p293
(lp294
I01
aI10000
asV/store/cmst3/group/cmgtools/CMG/SUSYBBHToTauTau_M-120_8TeV-pythia6-tauola/Summer12_DR53X-PU_S10_START53_V7A-v1/AODSIM/PAT_CMG_V5_16_0/cmgTuple_83_1_5Er.root
p295
(lp296
I01
aI10000
asV/store/cmst3/group/cmgtools/CMG/SUSYBBHToTauTau_M-120_8TeV-pythia6-tauola/Summer12_DR53X-PU_S10_START53_V7A-v1/AODSIM/PAT_CMG_V5_16_0/cmgTuple_61_1_kqY.root
p297
(lp298
I01
aI10000
asV/store/cmst3/group/cmgtools/CMG/SUSYBBHToTauTau_M-120_8TeV-pythia6-tauola/Summer12_DR53X-PU_S10_START53_V7A-v1/AODSIM/PAT_CMG_V5_16_0/cmgTuple_51_1_myK.root
p299
(lp300
I01
aI10000
asV/store/cmst3/group/cmgtools/CMG/SUSYBBHToTauTau_M-120_8TeV-pythia6-tauola/Summer12_DR53X-PU_S10_START53_V7A-v1/AODSIM/PAT_CMG_V5_16_0/cmgTuple_19_1_1Oj.root
p301
(lp302
I01
aI10000
asV/store/cmst3/group/cmgtools/CMG/SUSYBBHToTauTau_M-120_8TeV-pythia6-tauola/Summer12_DR53X-PU_S10_START53_V7A-v1/AODSIM/PAT_CMG_V5_16_0/cmgTuple_68_1_axX.root
p303
(lp304
I01
aI10000
asV/store/cmst3/group/cmgtools/CMG/SUSYBBHToTauTau_M-120_8TeV-pythia6-tauola/Summer12_DR53X-PU_S10_START53_V7A-v1/AODSIM/PAT_CMG_V5_16_0/cmgTuple_21_1_acl.root
p305
(lp306
I01
aI10000
asV/store/cmst3/group/cmgtools/CMG/SUSYBBHToTauTau_M-120_8TeV-pythia6-tauola/Summer12_DR53X-PU_S10_START53_V7A-v1/AODSIM/PAT_CMG_V5_16_0/cmgTuple_79_1_xJj.root
p307
(lp308
I01
aI10000
asV/store/cmst3/group/cmgtools/CMG/SUSYBBHToTauTau_M-120_8TeV-pythia6-tauola/Summer12_DR53X-PU_S10_START53_V7A-v1/AODSIM/PAT_CMG_V5_16_0/cmgTuple_30_1_Moz.root
p309
(lp310
I01
aI10000
asV/store/cmst3/group/cmgtools/CMG/SUSYBBHToTauTau_M-120_8TeV-pythia6-tauola/Summer12_DR53X-PU_S10_START53_V7A-v1/AODSIM/PAT_CMG_V5_16_0/cmgTuple_97_1_Y7u.root
p311
(lp312
I01
aI10000
asV/store/cmst3/group/cmgtools/CMG/SUSYBBHToTauTau_M-120_8TeV-pythia6-tauola/Summer12_DR53X-PU_S10_START53_V7A-v1/AODSIM/PAT_CMG_V5_16_0/cmgTuple_14_1_0FF.root
p313
(lp314
I01
aI10000
asV/store/cmst3/group/cmgtools/CMG/SUSYBBHToTauTau_M-120_8TeV-pythia6-tauola/Summer12_DR53X-PU_S10_START53_V7A-v1/AODSIM/PAT_CMG_V5_16_0/cmgTuple_9_1_qsH.root
p315
(lp316
I01
aI10000
asV/store/cmst3/group/cmgtools/CMG/SUSYBBHToTauTau_M-120_8TeV-pythia6-tauola/Summer12_DR53X-PU_S10_START53_V7A-v1/AODSIM/PAT_CMG_V5_16_0/cmgTuple_69_1_2hg.root
p317
(lp318
I01
aI10000
asV/store/cmst3/group/cmgtools/CMG/SUSYBBHToTauTau_M-120_8TeV-pythia6-tauola/Summer12_DR53X-PU_S10_START53_V7A-v1/AODSIM/PAT_CMG_V5_16_0/cmgTuple_77_1_y2i.root
p319
(lp320
I01
aI10000
asV/store/cmst3/group/cmgtools/CMG/SUSYBBHToTauTau_M-120_8TeV-pythia6-tauola/Summer12_DR53X-PU_S10_START53_V7A-v1/AODSIM/PAT_CMG_V5_16_0/cmgTuple_72_1_1hl.root
p321
(lp322
I01
aI10000
asV/store/cmst3/group/cmgtools/CMG/SUSYBBHToTauTau_M-120_8TeV-pythia6-tauola/Summer12_DR53X-PU_S10_START53_V7A-v1/AODSIM/PAT_CMG_V5_16_0/cmgTuple_31_1_ODo.root
p323
(lp324
I01
aI10000
asV/store/cmst3/group/cmgtools/CMG/SUSYBBHToTauTau_M-120_8TeV-pythia6-tauola/Summer12_DR53X-PU_S10_START53_V7A-v1/AODSIM/PAT_CMG_V5_16_0/cmgTuple_44_1_y5A.root
p325
(lp326
I01
aI10000
asV/store/cmst3/group/cmgtools/CMG/SUSYBBHToTauTau_M-120_8TeV-pythia6-tauola/Summer12_DR53X-PU_S10_START53_V7A-v1/AODSIM/PAT_CMG_V5_16_0/cmgTuple_86_1_DNy.root
p327
(lp328
I01
aI10000
asV/store/cmst3/group/cmgtools/CMG/SUSYBBHToTauTau_M-120_8TeV-pythia6-tauola/Summer12_DR53X-PU_S10_START53_V7A-v1/AODSIM/PAT_CMG_V5_16_0/cmgTuple_75_1_ryz.root
p329
(lp330
I01
aI10000
asV/store/cmst3/group/cmgtools/CMG/SUSYBBHToTauTau_M-120_8TeV-pythia6-tauola/Summer12_DR53X-PU_S10_START53_V7A-v1/AODSIM/PAT_CMG_V5_16_0/cmgTuple_45_1_lqP.root
p331
(lp332
I01
aI10000
asV/store/cmst3/group/cmgtools/CMG/SUSYBBHToTauTau_M-120_8TeV-pythia6-tauola/Summer12_DR53X-PU_S10_START53_V7A-v1/AODSIM/PAT_CMG_V5_16_0/cmgTuple_13_1_o2B.root
p333
(lp334
I01
aI10000
asV/store/cmst3/group/cmgtools/CMG/SUSYBBHToTauTau_M-120_8TeV-pythia6-tauola/Summer12_DR53X-PU_S10_START53_V7A-v1/AODSIM/PAT_CMG_V5_16_0/cmgTuple_2_1_0Il.root
p335
(lp336
I01
aI10000
asV/store/cmst3/group/cmgtools/CMG/SUSYBBHToTauTau_M-120_8TeV-pythia6-tauola/Summer12_DR53X-PU_S10_START53_V7A-v1/AODSIM/PAT_CMG_V5_16_0/cmgTuple_46_1_7WA.root
p337
(lp338
I01
aI10000
asV/store/cmst3/group/cmgtools/CMG/SUSYBBHToTauTau_M-120_8TeV-pythia6-tauola/Summer12_DR53X-PU_S10_START53_V7A-v1/AODSIM/PAT_CMG_V5_16_0/cmgTuple_88_1_eZE.root
p339
(lp340
I01
aI10000
asV/store/cmst3/group/cmgtools/CMG/SUSYBBHToTauTau_M-120_8TeV-pythia6-tauola/Summer12_DR53X-PU_S10_START53_V7A-v1/AODSIM/PAT_CMG_V5_16_0/cmgTuple_12_1_CKZ.root
p341
(lp342
I01
aI10000
asV/store/cmst3/group/cmgtools/CMG/SUSYBBHToTauTau_M-120_8TeV-pythia6-tauola/Summer12_DR53X-PU_S10_START53_V7A-v1/AODSIM/PAT_CMG_V5_16_0/cmgTuple_89_1_XnQ.root
p343
(lp344
I01
aI10000
asV/store/cmst3/group/cmgtools/CMG/SUSYBBHToTauTau_M-120_8TeV-pythia6-tauola/Summer12_DR53X-PU_S10_START53_V7A-v1/AODSIM/PAT_CMG_V5_16_0/cmgTuple_6_1_nDo.root
p345
(lp346
I01
aI10000
asV/store/cmst3/group/cmgtools/CMG/SUSYBBHToTauTau_M-120_8TeV-pythia6-tauola/Summer12_DR53X-PU_S10_START53_V7A-v1/AODSIM/PAT_CMG_V5_16_0/cmgTuple_10_1_QIa.root
p347
(lp348
I01
aI10000
asV/store/cmst3/group/cmgtools/CMG/SUSYBBHToTauTau_M-120_8TeV-pythia6-tauola/Summer12_DR53X-PU_S10_START53_V7A-v1/AODSIM/PAT_CMG_V5_16_0/cmgTuple_76_1_aZT.root
p349
(lp350
I01
aI10000
asV/store/cmst3/group/cmgtools/CMG/SUSYBBHToTauTau_M-120_8TeV-pythia6-tauola/Summer12_DR53X-PU_S10_START53_V7A-v1/AODSIM/PAT_CMG_V5_16_0/cmgTuple_74_1_Cfu.root
p351
(lp352
I01
aI10000
asV/store/cmst3/group/cmgtools/CMG/SUSYBBHToTauTau_M-120_8TeV-pythia6-tauola/Summer12_DR53X-PU_S10_START53_V7A-v1/AODSIM/PAT_CMG_V5_16_0/cmgTuple_40_1_f1t.root
p353
(lp354
I01
aI10000
asV/store/cmst3/group/cmgtools/CMG/SUSYBBHToTauTau_M-120_8TeV-pythia6-tauola/Summer12_DR53X-PU_S10_START53_V7A-v1/AODSIM/PAT_CMG_V5_16_0/cmgTuple_47_1_IHA.root
p355
(lp356
I01
aI10000
asV/store/cmst3/group/cmgtools/CMG/SUSYBBHToTauTau_M-120_8TeV-pythia6-tauola/Summer12_DR53X-PU_S10_START53_V7A-v1/AODSIM/PAT_CMG_V5_16_0/cmgTuple_7_1_hep.root
p357
(lp358
I01
aI10000
asV/store/cmst3/group/cmgtools/CMG/SUSYBBHToTauTau_M-120_8TeV-pythia6-tauola/Summer12_DR53X-PU_S10_START53_V7A-v1/AODSIM/PAT_CMG_V5_16_0/cmgTuple_52_1_Yov.root
p359
(lp360
I01
aI10000
assVPhysicsGroup
p361
VCMG
p362
sVFilesCount
p363
I97
sVFilesEntries
p364
I961913
sVRunList
p365
(lp366
sVValidDuplicates
p367
(dp368
sVPrimaryDataset
p369
V/SUSYBBHToTauTau_M-120_8TeV-pythia6-tauola/Summer12_DR53X-PU_S10_START53_V7A-v1/AODSIM
p370
sVStatus
p371
VVALID
p372
sVName
p373
V/SUSYBBHToTauTau_M-120_8TeV-pythia6-tauola/Summer12_DR53X-PU_S10_START53_V7A-v1/AODSIM/PAT_CMG_V5_16_0
p374
sVTopdir
p375
V/eos/cms/store/cmst3/group/cmgtools/CMG
p376
sVdata
p377
(dp378
sVFilesBad
p379
I0
sVMinRun
p380
I-1
sVAlgoList
p381
(lp382
sVTierList
p383
(lp384
sVDateCreated
p385
V1371077211
p386
sVCreatedBy
p387
Vcmgtools_group
p388
sVMaxRun
p389
I-1
sVBadJobs
p390
(lp391
I26
aI36
aI92
assg113
I01
ssS'MonitorJobs'
p392
(dp393
S'LSFJobStatus'
p394
(dp395
g117
S'SUSYBBHToTauTau_M-120_8TeV-pythia6-tauola/Summer12_DR53X-PU_S10_START53_V7A-v1/AODSIM/PAT_CMG_V5_16_0_1377467563/HTT_24Jul_newTES_manzoni_Up_Jobs/Job_21/LSFJOB_440973619/STDOUT.gz'
p396
sg118
S'SUSYBBHToTauTau_M-120_8TeV-pythia6-tauola/Summer12_DR53X-PU_S10_START53_V7A-v1/AODSIM/PAT_CMG_V5_16_0_1377467563/HTT_24Jul_newTES_manzoni_Up_Jobs/Job_20/LSFJOB_440973528/STDOUT.gz'
p397
sg119
S'SUSYBBHToTauTau_M-120_8TeV-pythia6-tauola/Summer12_DR53X-PU_S10_START53_V7A-v1/AODSIM/PAT_CMG_V5_16_0_1377467563/HTT_24Jul_newTES_manzoni_Up_Jobs/Job_23/LSFJOB_440973839/STDOUT.gz'
p398
sg120
S'SUSYBBHToTauTau_M-120_8TeV-pythia6-tauola/Summer12_DR53X-PU_S10_START53_V7A-v1/AODSIM/PAT_CMG_V5_16_0_1377467563/HTT_24Jul_newTES_manzoni_Up_Jobs/Job_22/LSFJOB_440973712/STDOUT.gz'
p399
sg121
S'SUSYBBHToTauTau_M-120_8TeV-pythia6-tauola/Summer12_DR53X-PU_S10_START53_V7A-v1/AODSIM/PAT_CMG_V5_16_0_1377467563/HTT_24Jul_newTES_manzoni_Up_Jobs/Job_25/LSFJOB_440973991/STDOUT.gz'
p400
sg122
S'SUSYBBHToTauTau_M-120_8TeV-pythia6-tauola/Summer12_DR53X-PU_S10_START53_V7A-v1/AODSIM/PAT_CMG_V5_16_0_1377467563/HTT_24Jul_newTES_manzoni_Up_Jobs/Job_24/LSFJOB_440973930/STDOUT.gz'
p401
sg123
S'SUSYBBHToTauTau_M-120_8TeV-pythia6-tauola/Summer12_DR53X-PU_S10_START53_V7A-v1/AODSIM/PAT_CMG_V5_16_0_1377467563/HTT_24Jul_newTES_manzoni_Up_Jobs/Job_27/LSFJOB_440974156/STDOUT.gz'
p402
sg124
S'SUSYBBHToTauTau_M-120_8TeV-pythia6-tauola/Summer12_DR53X-PU_S10_START53_V7A-v1/AODSIM/PAT_CMG_V5_16_0_1377467563/HTT_24Jul_newTES_manzoni_Up_Jobs/Job_26/LSFJOB_440974073/STDOUT.gz'
p403
sg125
S'SUSYBBHToTauTau_M-120_8TeV-pythia6-tauola/Summer12_DR53X-PU_S10_START53_V7A-v1/AODSIM/PAT_CMG_V5_16_0_1377467563/HTT_24Jul_newTES_manzoni_Up_Jobs/Job_29/LSFJOB_440974257/STDOUT.gz'
p404
sg126
S'SUSYBBHToTauTau_M-120_8TeV-pythia6-tauola/Summer12_DR53X-PU_S10_START53_V7A-v1/AODSIM/PAT_CMG_V5_16_0_1377467563/HTT_24Jul_newTES_manzoni_Up_Jobs/Job_28/LSFJOB_440974208/STDOUT.gz'
p405
sg146
S'SUSYBBHToTauTau_M-120_8TeV-pythia6-tauola/Summer12_DR53X-PU_S10_START53_V7A-v1/AODSIM/PAT_CMG_V5_16_0_1377467563/HTT_24Jul_newTES_manzoni_Up_Jobs/Job_15/LSFJOB_440973107/STDOUT.gz'
p406
sg148
S'SUSYBBHToTauTau_M-120_8TeV-pythia6-tauola/Summer12_DR53X-PU_S10_START53_V7A-v1/AODSIM/PAT_CMG_V5_16_0_1377467563/HTT_24Jul_newTES_manzoni_Up_Jobs/Job_17/LSFJOB_440973275/STDOUT.gz'
p407
sg127
S'SUSYBBHToTauTau_M-120_8TeV-pythia6-tauola/Summer12_DR53X-PU_S10_START53_V7A-v1/AODSIM/PAT_CMG_V5_16_0_1377467563/HTT_24Jul_newTES_manzoni_Up_Jobs/Job_6/LSFJOB_440972176/STDOUT.gz'
p408
sg128
S'SUSYBBHToTauTau_M-120_8TeV-pythia6-tauola/Summer12_DR53X-PU_S10_START53_V7A-v1/AODSIM/PAT_CMG_V5_16_0_1377467563/HTT_24Jul_newTES_manzoni_Up_Jobs/Job_7/LSFJOB_440972269/STDOUT.gz'
p409
sg129
S'SUSYBBHToTauTau_M-120_8TeV-pythia6-tauola/Summer12_DR53X-PU_S10_START53_V7A-v1/AODSIM/PAT_CMG_V5_16_0_1377467563/HTT_24Jul_newTES_manzoni_Up_Jobs/Job_4/LSFJOB_440972020/STDOUT.gz'
p410
sg130
S'SUSYBBHToTauTau_M-120_8TeV-pythia6-tauola/Summer12_DR53X-PU_S10_START53_V7A-v1/AODSIM/PAT_CMG_V5_16_0_1377467563/HTT_24Jul_newTES_manzoni_Up_Jobs/Job_5/LSFJOB_440972083/STDOUT.gz'
p411
sg131
S'SUSYBBHToTauTau_M-120_8TeV-pythia6-tauola/Summer12_DR53X-PU_S10_START53_V7A-v1/AODSIM/PAT_CMG_V5_16_0_1377467563/HTT_24Jul_newTES_manzoni_Up_Jobs/Job_2/LSFJOB_440971846/STDOUT.gz'
p412
sg132
S'SUSYBBHToTauTau_M-120_8TeV-pythia6-tauola/Summer12_DR53X-PU_S10_START53_V7A-v1/AODSIM/PAT_CMG_V5_16_0_1377467563/HTT_24Jul_newTES_manzoni_Up_Jobs/Job_3/LSFJOB_440971922/STDOUT.gz'
p413
sg133
S'SUSYBBHToTauTau_M-120_8TeV-pythia6-tauola/Summer12_DR53X-PU_S10_START53_V7A-v1/AODSIM/PAT_CMG_V5_16_0_1377467563/HTT_24Jul_newTES_manzoni_Up_Jobs/Job_1/LSFJOB_440971777/STDOUT.gz'
p414
sg145
S'SUSYBBHToTauTau_M-120_8TeV-pythia6-tauola/Summer12_DR53X-PU_S10_START53_V7A-v1/AODSIM/PAT_CMG_V5_16_0_1377467563/HTT_24Jul_newTES_manzoni_Up_Jobs/Job_14/LSFJOB_440973039/STDOUT.gz'
p415
sg136
S'SUSYBBHToTauTau_M-120_8TeV-pythia6-tauola/Summer12_DR53X-PU_S10_START53_V7A-v1/AODSIM/PAT_CMG_V5_16_0_1377467563/HTT_24Jul_newTES_manzoni_Up_Jobs/Job_8/LSFJOB_440972371/STDOUT.gz'
p416
sg137
S'SUSYBBHToTauTau_M-120_8TeV-pythia6-tauola/Summer12_DR53X-PU_S10_START53_V7A-v1/AODSIM/PAT_CMG_V5_16_0_1377467563/HTT_24Jul_newTES_manzoni_Up_Jobs/Job_9/LSFJOB_440972515/STDOUT.gz'
p417
sg138
S'SUSYBBHToTauTau_M-120_8TeV-pythia6-tauola/Summer12_DR53X-PU_S10_START53_V7A-v1/AODSIM/PAT_CMG_V5_16_0_1377467563/HTT_24Jul_newTES_manzoni_Up_Jobs/Job_18/LSFJOB_440973354/STDOUT.gz'
p418
sg139
S'SUSYBBHToTauTau_M-120_8TeV-pythia6-tauola/Summer12_DR53X-PU_S10_START53_V7A-v1/AODSIM/PAT_CMG_V5_16_0_1377467563/HTT_24Jul_newTES_manzoni_Up_Jobs/Job_19/LSFJOB_440973421/STDOUT.gz'
p419
sg147
S'SUSYBBHToTauTau_M-120_8TeV-pythia6-tauola/Summer12_DR53X-PU_S10_START53_V7A-v1/AODSIM/PAT_CMG_V5_16_0_1377467563/HTT_24Jul_newTES_manzoni_Up_Jobs/Job_16/LSFJOB_440973189/STDOUT.gz'
p420
sg141
S'SUSYBBHToTauTau_M-120_8TeV-pythia6-tauola/Summer12_DR53X-PU_S10_START53_V7A-v1/AODSIM/PAT_CMG_V5_16_0_1377467563/HTT_24Jul_newTES_manzoni_Up_Jobs/Job_10/LSFJOB_440972634/STDOUT.gz'
p421
sg142
S'SUSYBBHToTauTau_M-120_8TeV-pythia6-tauola/Summer12_DR53X-PU_S10_START53_V7A-v1/AODSIM/PAT_CMG_V5_16_0_1377467563/HTT_24Jul_newTES_manzoni_Up_Jobs/Job_11/LSFJOB_440972722/STDOUT.gz'
p422
sg143
S'SUSYBBHToTauTau_M-120_8TeV-pythia6-tauola/Summer12_DR53X-PU_S10_START53_V7A-v1/AODSIM/PAT_CMG_V5_16_0_1377467563/HTT_24Jul_newTES_manzoni_Up_Jobs/Job_12/LSFJOB_440972844/STDOUT.gz'
p423
sg144
S'SUSYBBHToTauTau_M-120_8TeV-pythia6-tauola/Summer12_DR53X-PU_S10_START53_V7A-v1/AODSIM/PAT_CMG_V5_16_0_1377467563/HTT_24Jul_newTES_manzoni_Up_Jobs/Job_13/LSFJOB_440972942/STDOUT.gz'
p424
sg134
S'SUSYBBHToTauTau_M-120_8TeV-pythia6-tauola/Summer12_DR53X-PU_S10_START53_V7A-v1/AODSIM/PAT_CMG_V5_16_0_1377467563/HTT_24Jul_newTES_manzoni_Up_Jobs/Job_32/LSFJOB_440974404/STDOUT.gz'
p425
sg135
S'SUSYBBHToTauTau_M-120_8TeV-pythia6-tauola/Summer12_DR53X-PU_S10_START53_V7A-v1/AODSIM/PAT_CMG_V5_16_0_1377467563/HTT_24Jul_newTES_manzoni_Up_Jobs/Job_33/LSFJOB_440974452/STDOUT.gz'
p426
sg140
S'SUSYBBHToTauTau_M-120_8TeV-pythia6-tauola/Summer12_DR53X-PU_S10_START53_V7A-v1/AODSIM/PAT_CMG_V5_16_0_1377467563/HTT_24Jul_newTES_manzoni_Up_Jobs/Job_30/LSFJOB_440974317/STDOUT.gz'
p427
sg116
S'SUSYBBHToTauTau_M-120_8TeV-pythia6-tauola/Summer12_DR53X-PU_S10_START53_V7A-v1/AODSIM/PAT_CMG_V5_16_0_1377467563/HTT_24Jul_newTES_manzoni_Up_Jobs/Job_31/LSFJOB_440974365/STDOUT.gz'
p428
ssS'LSFJobIDs'
p429
(dp430
g116
S'440974365'
p431
sg117
S'440973619'
p432
sg118
S'440973528'
p433
sg119
S'440973839'
p434
sg120
S'440973712'
p435
sg121
S'440973991'
p436
sg122
S'440973930'
p437
sg123
S'440974156'
p438
sg124
S'440974073'
p439
sg125
S'440974257'
p440
sg126
S'440974208'
p441
sg127
S'440972176'
p442
sg128
S'440972269'
p443
sg129
S'440972020'
p444
sg130
S'440972083'
p445
sg131
S'440971846'
p446
sg132
S'440971922'
p447
sg133
S'440971777'
p448
sg134
S'440974404'
p449
sg135
S'440974452'
p450
sg136
S'440972371'
p451
sg137
S'440972515'
p452
sg138
S'440973354'
p453
sg139
S'440973421'
p454
sg140
S'440974317'
p455
sg141
S'440972634'
p456
sg142
S'440972722'
p457
sg143
S'440972844'
p458
sg144
S'440972942'
p459
sg145
S'440973039'
p460
sg146
S'440973107'
p461
sg147
S'440973189'
p462
sg148
S'440973275'
p463
sssS'FindOnCastor'
p464
(dp465
g75
S'/eos/cms/store/cmst3/group/cmgtools/CMG'
p466
sS'Directory'
p467
S'/eos/cms/store/cmst3/group/cmgtools/CMG/SUSYBBHToTauTau_M-120_8TeV-pythia6-tauola/Summer12_DR53X-PU_S10_START53_V7A-v1/AODSIM/PAT_CMG_V5_16_0'
p468
ssS'CheckConfig'
p469
(dp470
g91
g92
ssS'FullCFG'
p471
(dp472
S'FullCFG'
p473
S'SUSYBBHToTauTau_M-120_8TeV-pythia6-tauola/Summer12_DR53X-PU_S10_START53_V7A-v1/AODSIM/PAT_CMG_V5_16_0_1377467563/full_cfg.py'
p474
ssS'WriteJobReport'
p475
(dp476
S'SummaryFile'
p477
S'SUSYBBHToTauTau_M-120_8TeV-pythia6-tauola/Summer12_DR53X-PU_S10_START53_V7A-v1/AODSIM/PAT_CMG_V5_16_0_1377467563/resubmit.sh'
p478
ssS'ExpandConfig'
p479
(dp480
S'ExpandedFullCFG'
p481
S'SUSYBBHToTauTau_M-120_8TeV-pythia6-tauola/Summer12_DR53X-PU_S10_START53_V7A-v1/AODSIM/PAT_CMG_V5_16_0_1377467563/Expandedfull_cfg.py'
p482
ssS'RunTestEvents'
p483
(dp484
g91
g92
sS'TestCFG'
p485
S'SUSYBBHToTauTau_M-120_8TeV-pythia6-tauola/Summer12_DR53X-PU_S10_START53_V7A-v1/AODSIM/PAT_CMG_V5_16_0_1377467563/test_cfg.py'
p486
ssS'SourceCFG'
p487
(dp488
S'SourceCFG'
p489
S'SUSYBBHToTauTau_M-120_8TeV-pythia6-tauola/Summer12_DR53X-PU_S10_START53_V7A-v1/AODSIM/PAT_CMG_V5_16_0_1377467563/source_cfg.py'
p490
ssS'CheckForWrite'
p491
(dp492
g467
g468
sS'WriteAccess'
p493
I01
ssS'WriteToDatasets'
p494
(dp495
S'Added'
p496
I00
sg73
S'/SUSYBBHToTauTau_M-120_8TeV-pythia6-tauola/Summer12_DR53X-PU_S10_START53_V7A-v1/AODSIM/PAT_CMG_V5_16_0/HTT_24Jul_newTES_manzoni_Up'
p497
sS'User'
p498
g106
ssS'RunCMSBatch'
p499
(dp500
S'BatchUser'
p501
g106
sS'SampleOutputDir'
p502
S'/store/cmst3/user/manzoni/CMG/SUSYBBHToTauTau_M-120_8TeV-pythia6-tauola/Summer12_DR53X-PU_S10_START53_V7A-v1/AODSIM/PAT_CMG_V5_16_0/HTT_24Jul_newTES_manzoni_Up'
p503
sS'SampleDataset'
p504
g74
sS'LSFJobsTopDir'
p505
S'SUSYBBHToTauTau_M-120_8TeV-pythia6-tauola/Summer12_DR53X-PU_S10_START53_V7A-v1/AODSIM/PAT_CMG_V5_16_0_1377467563/HTT_24Jul_newTES_manzoni_Up_Jobs'
p506
ssS'CreateJobDirectory'
p507
(dp508
S'JobDir'
p509
S'SUSYBBHToTauTau_M-120_8TeV-pythia6-tauola/Summer12_DR53X-PU_S10_START53_V7A-v1/AODSIM/PAT_CMG_V5_16_0_1377467563'
p510
sS'PWD'
p511
S'/afs/cern.ch/user/m/manzoni/summer13/CMGTools/CMSSW_5_3_9/src/CMGTools/H2TauTau/prod/25aug_corrMC/up/mc'
p512
ssS'CleanJobFiles'
p513
(dp514
S'Compressed'
p515
(dp516
S'CompressedFiles'
p517
(lp518
ssS'Cleaned'
p519
(dp520
S'CleanedFiles'
p521
(lp522
g482
ag486
aS'SUSYBBHToTauTau_M-120_8TeV-pythia6-tauola/Summer12_DR53X-PU_S10_START53_V7A-v1/AODSIM/PAT_CMG_V5_16_0_1377467563/diTau_fullsel_tree_CMG.root'
p523
aS'SUSYBBHToTauTau_M-120_8TeV-pythia6-tauola/Summer12_DR53X-PU_S10_START53_V7A-v1/AODSIM/PAT_CMG_V5_16_0_1377467563/source_cfg.pyc'
p524
aS'SUSYBBHToTauTau_M-120_8TeV-pythia6-tauola/Summer12_DR53X-PU_S10_START53_V7A-v1/AODSIM/PAT_CMG_V5_16_0_1377467563/Expandedfull_cfg.pyc'
p525
asssS'CheckForMask'
p526
(dp527
g3
g155
sg113
I01
ss.