(dp0
S'CheckJobStatus'
p1
(dp2
S'Report'
p3
(dp4
S'Files'
p5
(dp6
S'/store/cmst3/user/manzoni/CMG/SUSYBBHToTauTau_M-450_8TeV-pythia6-tauola/Summer12_DR53X-PU_S10_START53_V7A-v1/AODSIM/PAT_CMG_V5_16_0/HTT_24Jul_newTES_manzoni_Up/diTau_fullsel_tree_CMG_12.root'
p7
(I01
I10901
tp8
sS'/store/cmst3/user/manzoni/CMG/SUSYBBHToTauTau_M-450_8TeV-pythia6-tauola/Summer12_DR53X-PU_S10_START53_V7A-v1/AODSIM/PAT_CMG_V5_16_0/HTT_24Jul_newTES_manzoni_Up/diTau_fullsel_tree_CMG_28.root'
p9
(I01
I10913
tp10
sS'/store/cmst3/user/manzoni/CMG/SUSYBBHToTauTau_M-450_8TeV-pythia6-tauola/Summer12_DR53X-PU_S10_START53_V7A-v1/AODSIM/PAT_CMG_V5_16_0/HTT_24Jul_newTES_manzoni_Up/diTau_fullsel_tree_CMG_16.root'
p11
(I01
I10904
tp12
sS'/store/cmst3/user/manzoni/CMG/SUSYBBHToTauTau_M-450_8TeV-pythia6-tauola/Summer12_DR53X-PU_S10_START53_V7A-v1/AODSIM/PAT_CMG_V5_16_0/HTT_24Jul_newTES_manzoni_Up/diTau_fullsel_tree_CMG_11.root'
p13
(I01
I10792
tp14
sS'/store/cmst3/user/manzoni/CMG/SUSYBBHToTauTau_M-450_8TeV-pythia6-tauola/Summer12_DR53X-PU_S10_START53_V7A-v1/AODSIM/PAT_CMG_V5_16_0/HTT_24Jul_newTES_manzoni_Up/diTau_fullsel_tree_CMG_17.root'
p15
(I01
I10905
tp16
sS'/store/cmst3/user/manzoni/CMG/SUSYBBHToTauTau_M-450_8TeV-pythia6-tauola/Summer12_DR53X-PU_S10_START53_V7A-v1/AODSIM/PAT_CMG_V5_16_0/HTT_24Jul_newTES_manzoni_Up/diTau_fullsel_tree_CMG_15.root'
p17
(I01
I10847
tp18
sS'/store/cmst3/user/manzoni/CMG/SUSYBBHToTauTau_M-450_8TeV-pythia6-tauola/Summer12_DR53X-PU_S10_START53_V7A-v1/AODSIM/PAT_CMG_V5_16_0/HTT_24Jul_newTES_manzoni_Up/diTau_fullsel_tree_CMG_1.root'
p19
(I01
I10982
tp20
sS'/store/cmst3/user/manzoni/CMG/SUSYBBHToTauTau_M-450_8TeV-pythia6-tauola/Summer12_DR53X-PU_S10_START53_V7A-v1/AODSIM/PAT_CMG_V5_16_0/HTT_24Jul_newTES_manzoni_Up/diTau_fullsel_tree_CMG_5.root'
p21
(I01
I10909
tp22
sS'/store/cmst3/user/manzoni/CMG/SUSYBBHToTauTau_M-450_8TeV-pythia6-tauola/Summer12_DR53X-PU_S10_START53_V7A-v1/AODSIM/PAT_CMG_V5_16_0/HTT_24Jul_newTES_manzoni_Up/diTau_fullsel_tree_CMG_25.root'
p23
(I01
I10928
tp24
sS'/store/cmst3/user/manzoni/CMG/SUSYBBHToTauTau_M-450_8TeV-pythia6-tauola/Summer12_DR53X-PU_S10_START53_V7A-v1/AODSIM/PAT_CMG_V5_16_0/HTT_24Jul_newTES_manzoni_Up/diTau_fullsel_tree_CMG_2.root'
p25
(I01
I10973
tp26
sS'/store/cmst3/user/manzoni/CMG/SUSYBBHToTauTau_M-450_8TeV-pythia6-tauola/Summer12_DR53X-PU_S10_START53_V7A-v1/AODSIM/PAT_CMG_V5_16_0/HTT_24Jul_newTES_manzoni_Up/diTau_fullsel_tree_CMG_32.root'
p27
(I01
I7142
tp28
sS'/store/cmst3/user/manzoni/CMG/SUSYBBHToTauTau_M-450_8TeV-pythia6-tauola/Summer12_DR53X-PU_S10_START53_V7A-v1/AODSIM/PAT_CMG_V5_16_0/HTT_24Jul_newTES_manzoni_Up/diTau_fullsel_tree_CMG_3.root'
p29
(I01
I10940
tp30
sS'/store/cmst3/user/manzoni/CMG/SUSYBBHToTauTau_M-450_8TeV-pythia6-tauola/Summer12_DR53X-PU_S10_START53_V7A-v1/AODSIM/PAT_CMG_V5_16_0/HTT_24Jul_newTES_manzoni_Up/diTau_fullsel_tree_CMG_4.root'
p31
(I01
I10858
tp32
sS'/store/cmst3/user/manzoni/CMG/SUSYBBHToTauTau_M-450_8TeV-pythia6-tauola/Summer12_DR53X-PU_S10_START53_V7A-v1/AODSIM/PAT_CMG_V5_16_0/HTT_24Jul_newTES_manzoni_Up/diTau_fullsel_tree_CMG_31.root'
p33
(I01
I10933
tp34
sS'/store/cmst3/user/manzoni/CMG/SUSYBBHToTauTau_M-450_8TeV-pythia6-tauola/Summer12_DR53X-PU_S10_START53_V7A-v1/AODSIM/PAT_CMG_V5_16_0/HTT_24Jul_newTES_manzoni_Up/diTau_fullsel_tree_CMG_21.root'
p35
(I01
I10818
tp36
sS'/store/cmst3/user/manzoni/CMG/SUSYBBHToTauTau_M-450_8TeV-pythia6-tauola/Summer12_DR53X-PU_S10_START53_V7A-v1/AODSIM/PAT_CMG_V5_16_0/HTT_24Jul_newTES_manzoni_Up/diTau_fullsel_tree_CMG_18.root'
p37
(I01
I10876
tp38
sS'/store/cmst3/user/manzoni/CMG/SUSYBBHToTauTau_M-450_8TeV-pythia6-tauola/Summer12_DR53X-PU_S10_START53_V7A-v1/AODSIM/PAT_CMG_V5_16_0/HTT_24Jul_newTES_manzoni_Up/diTau_fullsel_tree_CMG_26.root'
p39
(I01
I10960
tp40
sS'/store/cmst3/user/manzoni/CMG/SUSYBBHToTauTau_M-450_8TeV-pythia6-tauola/Summer12_DR53X-PU_S10_START53_V7A-v1/AODSIM/PAT_CMG_V5_16_0/HTT_24Jul_newTES_manzoni_Up/diTau_fullsel_tree_CMG_27.root'
p41
(I01
I10834
tp42
sS'/store/cmst3/user/manzoni/CMG/SUSYBBHToTauTau_M-450_8TeV-pythia6-tauola/Summer12_DR53X-PU_S10_START53_V7A-v1/AODSIM/PAT_CMG_V5_16_0/HTT_24Jul_newTES_manzoni_Up/diTau_fullsel_tree_CMG_23.root'
p43
(I01
I10958
tp44
sS'/store/cmst3/user/manzoni/CMG/SUSYBBHToTauTau_M-450_8TeV-pythia6-tauola/Summer12_DR53X-PU_S10_START53_V7A-v1/AODSIM/PAT_CMG_V5_16_0/HTT_24Jul_newTES_manzoni_Up/diTau_fullsel_tree_CMG_24.root'
p45
(I01
I10939
tp46
sS'/store/cmst3/user/manzoni/CMG/SUSYBBHToTauTau_M-450_8TeV-pythia6-tauola/Summer12_DR53X-PU_S10_START53_V7A-v1/AODSIM/PAT_CMG_V5_16_0/HTT_24Jul_newTES_manzoni_Up/diTau_fullsel_tree_CMG_20.root'
p47
(I01
I8758
tp48
sS'/store/cmst3/user/manzoni/CMG/SUSYBBHToTauTau_M-450_8TeV-pythia6-tauola/Summer12_DR53X-PU_S10_START53_V7A-v1/AODSIM/PAT_CMG_V5_16_0/HTT_24Jul_newTES_manzoni_Up/diTau_fullsel_tree_CMG_22.root'
p49
(I01
I10885
tp50
sS'/store/cmst3/user/manzoni/CMG/SUSYBBHToTauTau_M-450_8TeV-pythia6-tauola/Summer12_DR53X-PU_S10_START53_V7A-v1/AODSIM/PAT_CMG_V5_16_0/HTT_24Jul_newTES_manzoni_Up/diTau_fullsel_tree_CMG_10.root'
p51
(I01
I10880
tp52
sS'/store/cmst3/user/manzoni/CMG/SUSYBBHToTauTau_M-450_8TeV-pythia6-tauola/Summer12_DR53X-PU_S10_START53_V7A-v1/AODSIM/PAT_CMG_V5_16_0/HTT_24Jul_newTES_manzoni_Up/diTau_fullsel_tree_CMG_30.root'
p53
(I01
I10915
tp54
sS'/store/cmst3/user/manzoni/CMG/SUSYBBHToTauTau_M-450_8TeV-pythia6-tauola/Summer12_DR53X-PU_S10_START53_V7A-v1/AODSIM/PAT_CMG_V5_16_0/HTT_24Jul_newTES_manzoni_Up/diTau_fullsel_tree_CMG_6.root'
p55
(I01
I10788
tp56
sS'/store/cmst3/user/manzoni/CMG/SUSYBBHToTauTau_M-450_8TeV-pythia6-tauola/Summer12_DR53X-PU_S10_START53_V7A-v1/AODSIM/PAT_CMG_V5_16_0/HTT_24Jul_newTES_manzoni_Up/diTau_fullsel_tree_CMG_29.root'
p57
(I01
I10901
tp58
sS'/store/cmst3/user/manzoni/CMG/SUSYBBHToTauTau_M-450_8TeV-pythia6-tauola/Summer12_DR53X-PU_S10_START53_V7A-v1/AODSIM/PAT_CMG_V5_16_0/HTT_24Jul_newTES_manzoni_Up/diTau_fullsel_tree_CMG_19.root'
p59
(I01
I10909
tp60
sS'/store/cmst3/user/manzoni/CMG/SUSYBBHToTauTau_M-450_8TeV-pythia6-tauola/Summer12_DR53X-PU_S10_START53_V7A-v1/AODSIM/PAT_CMG_V5_16_0/HTT_24Jul_newTES_manzoni_Up/diTau_fullsel_tree_CMG_9.root'
p61
(I01
I10908
tp62
sS'/store/cmst3/user/manzoni/CMG/SUSYBBHToTauTau_M-450_8TeV-pythia6-tauola/Summer12_DR53X-PU_S10_START53_V7A-v1/AODSIM/PAT_CMG_V5_16_0/HTT_24Jul_newTES_manzoni_Up/diTau_fullsel_tree_CMG_14.root'
p63
(I01
I11010
tp64
sS'/store/cmst3/user/manzoni/CMG/SUSYBBHToTauTau_M-450_8TeV-pythia6-tauola/Summer12_DR53X-PU_S10_START53_V7A-v1/AODSIM/PAT_CMG_V5_16_0/HTT_24Jul_newTES_manzoni_Up/diTau_fullsel_tree_CMG_13.root'
p65
(I01
I10930
tp66
sS'/store/cmst3/user/manzoni/CMG/SUSYBBHToTauTau_M-450_8TeV-pythia6-tauola/Summer12_DR53X-PU_S10_START53_V7A-v1/AODSIM/PAT_CMG_V5_16_0/HTT_24Jul_newTES_manzoni_Up/diTau_fullsel_tree_CMG_7.root'
p67
(I01
I10869
tp68
sS'/store/cmst3/user/manzoni/CMG/SUSYBBHToTauTau_M-450_8TeV-pythia6-tauola/Summer12_DR53X-PU_S10_START53_V7A-v1/AODSIM/PAT_CMG_V5_16_0/HTT_24Jul_newTES_manzoni_Up/diTau_fullsel_tree_CMG_8.root'
p69
(I01
I11000
tp70
ssS'Name'
p71
S'/SUSYBBHToTauTau_M-450_8TeV-pythia6-tauola/Summer12_DR53X-PU_S10_START53_V7A-v1/AODSIM/PAT_CMG_V5_16_0/HTT_24Jul_newTES_manzoni_Up'
p72
sS'Topdir'
p73
S'/eos/cms/store/cmst3/user/manzoni/CMG'
p74
sS'RunList'
p75
(lp76
sS'PathList'
p77
(lp78
S'/store/cmst3/user/manzoni/CMG/SUSYBBHToTauTau_M-450_8TeV-pythia6-tauola/Summer12_DR53X-PU_S10_START53_V7A-v1/AODSIM/PAT_CMG_V5_16_0/HTT_24Jul_newTES_manzoni_Up'
p79
asS'AlgoList'
p80
(lp81
sS'PrimaryDatasetFraction'
p82
F0.35228427959705494
sS'FilesGood'
p83
I32
sS'PrimaryDatasetEntries'
p84
I973830
sS'data'
p85
(dp86
sS'FilesBad'
p87
I0
sS'ReportVersion'
p88
I3
sS'Status'
p89
S'VALID'
p90
sS'MaxRun'
p91
I-1
sS'PhysicsGroup'
p92
S'CMG'
p93
sS'MinRun'
p94
I-1
sS'StageHost'
p95
S'castorcms'
p96
sS'FilesCount'
p97
I32
sS'FilesEntries'
p98
I343065
sS'TierList'
p99
(lp100
sS'DateCreated'
p101
S'1377486136'
p102
sS'CreatedBy'
p103
S'manzoni'
p104
sS'ValidDuplicates'
p105
(dp106
sS'PrimaryDataset'
p107
S'/SUSYBBHToTauTau_M-450_8TeV-pythia6-tauola/Summer12_DR53X-PU_S10_START53_V7A-v1/AODSIM'
p108
sS'BadJobs'
p109
(lp110
ssS'MaskPresent'
p111
I01
sS'LSFJobStatusCheck'
p112
(dp113
S'SUSYBBHToTauTau_M-450_8TeV-pythia6-tauola/Summer12_DR53X-PU_S10_START53_V7A-v1/AODSIM/PAT_CMG_V5_16_0_1377467578/HTT_24Jul_newTES_manzoni_Up_Jobs/Job_6'
p114
g90
sS'SUSYBBHToTauTau_M-450_8TeV-pythia6-tauola/Summer12_DR53X-PU_S10_START53_V7A-v1/AODSIM/PAT_CMG_V5_16_0_1377467578/HTT_24Jul_newTES_manzoni_Up_Jobs/Job_7'
p115
g90
sS'SUSYBBHToTauTau_M-450_8TeV-pythia6-tauola/Summer12_DR53X-PU_S10_START53_V7A-v1/AODSIM/PAT_CMG_V5_16_0_1377467578/HTT_24Jul_newTES_manzoni_Up_Jobs/Job_4'
p116
g90
sS'SUSYBBHToTauTau_M-450_8TeV-pythia6-tauola/Summer12_DR53X-PU_S10_START53_V7A-v1/AODSIM/PAT_CMG_V5_16_0_1377467578/HTT_24Jul_newTES_manzoni_Up_Jobs/Job_5'
p117
g90
sS'SUSYBBHToTauTau_M-450_8TeV-pythia6-tauola/Summer12_DR53X-PU_S10_START53_V7A-v1/AODSIM/PAT_CMG_V5_16_0_1377467578/HTT_24Jul_newTES_manzoni_Up_Jobs/Job_2'
p118
g90
sS'SUSYBBHToTauTau_M-450_8TeV-pythia6-tauola/Summer12_DR53X-PU_S10_START53_V7A-v1/AODSIM/PAT_CMG_V5_16_0_1377467578/HTT_24Jul_newTES_manzoni_Up_Jobs/Job_3'
p119
g90
sS'SUSYBBHToTauTau_M-450_8TeV-pythia6-tauola/Summer12_DR53X-PU_S10_START53_V7A-v1/AODSIM/PAT_CMG_V5_16_0_1377467578/HTT_24Jul_newTES_manzoni_Up_Jobs/Job_1'
p120
g90
sS'SUSYBBHToTauTau_M-450_8TeV-pythia6-tauola/Summer12_DR53X-PU_S10_START53_V7A-v1/AODSIM/PAT_CMG_V5_16_0_1377467578/HTT_24Jul_newTES_manzoni_Up_Jobs/Job_8'
p121
g90
sS'SUSYBBHToTauTau_M-450_8TeV-pythia6-tauola/Summer12_DR53X-PU_S10_START53_V7A-v1/AODSIM/PAT_CMG_V5_16_0_1377467578/HTT_24Jul_newTES_manzoni_Up_Jobs/Job_9'
p122
g90
sS'SUSYBBHToTauTau_M-450_8TeV-pythia6-tauola/Summer12_DR53X-PU_S10_START53_V7A-v1/AODSIM/PAT_CMG_V5_16_0_1377467578/HTT_24Jul_newTES_manzoni_Up_Jobs/Job_18'
p123
g90
sS'SUSYBBHToTauTau_M-450_8TeV-pythia6-tauola/Summer12_DR53X-PU_S10_START53_V7A-v1/AODSIM/PAT_CMG_V5_16_0_1377467578/HTT_24Jul_newTES_manzoni_Up_Jobs/Job_19'
p124
g90
sS'SUSYBBHToTauTau_M-450_8TeV-pythia6-tauola/Summer12_DR53X-PU_S10_START53_V7A-v1/AODSIM/PAT_CMG_V5_16_0_1377467578/HTT_24Jul_newTES_manzoni_Up_Jobs/Job_10'
p125
g90
sS'SUSYBBHToTauTau_M-450_8TeV-pythia6-tauola/Summer12_DR53X-PU_S10_START53_V7A-v1/AODSIM/PAT_CMG_V5_16_0_1377467578/HTT_24Jul_newTES_manzoni_Up_Jobs/Job_11'
p126
g90
sS'SUSYBBHToTauTau_M-450_8TeV-pythia6-tauola/Summer12_DR53X-PU_S10_START53_V7A-v1/AODSIM/PAT_CMG_V5_16_0_1377467578/HTT_24Jul_newTES_manzoni_Up_Jobs/Job_12'
p127
g90
sS'SUSYBBHToTauTau_M-450_8TeV-pythia6-tauola/Summer12_DR53X-PU_S10_START53_V7A-v1/AODSIM/PAT_CMG_V5_16_0_1377467578/HTT_24Jul_newTES_manzoni_Up_Jobs/Job_13'
p128
g90
sS'SUSYBBHToTauTau_M-450_8TeV-pythia6-tauola/Summer12_DR53X-PU_S10_START53_V7A-v1/AODSIM/PAT_CMG_V5_16_0_1377467578/HTT_24Jul_newTES_manzoni_Up_Jobs/Job_14'
p129
g90
sS'SUSYBBHToTauTau_M-450_8TeV-pythia6-tauola/Summer12_DR53X-PU_S10_START53_V7A-v1/AODSIM/PAT_CMG_V5_16_0_1377467578/HTT_24Jul_newTES_manzoni_Up_Jobs/Job_15'
p130
g90
sS'SUSYBBHToTauTau_M-450_8TeV-pythia6-tauola/Summer12_DR53X-PU_S10_START53_V7A-v1/AODSIM/PAT_CMG_V5_16_0_1377467578/HTT_24Jul_newTES_manzoni_Up_Jobs/Job_30'
p131
g90
sS'SUSYBBHToTauTau_M-450_8TeV-pythia6-tauola/Summer12_DR53X-PU_S10_START53_V7A-v1/AODSIM/PAT_CMG_V5_16_0_1377467578/HTT_24Jul_newTES_manzoni_Up_Jobs/Job_17'
p132
g90
sS'SUSYBBHToTauTau_M-450_8TeV-pythia6-tauola/Summer12_DR53X-PU_S10_START53_V7A-v1/AODSIM/PAT_CMG_V5_16_0_1377467578/HTT_24Jul_newTES_manzoni_Up_Jobs/Job_31'
p133
g90
sS'SUSYBBHToTauTau_M-450_8TeV-pythia6-tauola/Summer12_DR53X-PU_S10_START53_V7A-v1/AODSIM/PAT_CMG_V5_16_0_1377467578/HTT_24Jul_newTES_manzoni_Up_Jobs/Job_32'
p134
g90
sS'SUSYBBHToTauTau_M-450_8TeV-pythia6-tauola/Summer12_DR53X-PU_S10_START53_V7A-v1/AODSIM/PAT_CMG_V5_16_0_1377467578/HTT_24Jul_newTES_manzoni_Up_Jobs/Job_21'
p135
g90
sS'SUSYBBHToTauTau_M-450_8TeV-pythia6-tauola/Summer12_DR53X-PU_S10_START53_V7A-v1/AODSIM/PAT_CMG_V5_16_0_1377467578/HTT_24Jul_newTES_manzoni_Up_Jobs/Job_20'
p136
g90
sS'SUSYBBHToTauTau_M-450_8TeV-pythia6-tauola/Summer12_DR53X-PU_S10_START53_V7A-v1/AODSIM/PAT_CMG_V5_16_0_1377467578/HTT_24Jul_newTES_manzoni_Up_Jobs/Job_23'
p137
g90
sS'SUSYBBHToTauTau_M-450_8TeV-pythia6-tauola/Summer12_DR53X-PU_S10_START53_V7A-v1/AODSIM/PAT_CMG_V5_16_0_1377467578/HTT_24Jul_newTES_manzoni_Up_Jobs/Job_22'
p138
g90
sS'SUSYBBHToTauTau_M-450_8TeV-pythia6-tauola/Summer12_DR53X-PU_S10_START53_V7A-v1/AODSIM/PAT_CMG_V5_16_0_1377467578/HTT_24Jul_newTES_manzoni_Up_Jobs/Job_25'
p139
g90
sS'SUSYBBHToTauTau_M-450_8TeV-pythia6-tauola/Summer12_DR53X-PU_S10_START53_V7A-v1/AODSIM/PAT_CMG_V5_16_0_1377467578/HTT_24Jul_newTES_manzoni_Up_Jobs/Job_24'
p140
g90
sS'SUSYBBHToTauTau_M-450_8TeV-pythia6-tauola/Summer12_DR53X-PU_S10_START53_V7A-v1/AODSIM/PAT_CMG_V5_16_0_1377467578/HTT_24Jul_newTES_manzoni_Up_Jobs/Job_27'
p141
g90
sS'SUSYBBHToTauTau_M-450_8TeV-pythia6-tauola/Summer12_DR53X-PU_S10_START53_V7A-v1/AODSIM/PAT_CMG_V5_16_0_1377467578/HTT_24Jul_newTES_manzoni_Up_Jobs/Job_26'
p142
g90
sS'SUSYBBHToTauTau_M-450_8TeV-pythia6-tauola/Summer12_DR53X-PU_S10_START53_V7A-v1/AODSIM/PAT_CMG_V5_16_0_1377467578/HTT_24Jul_newTES_manzoni_Up_Jobs/Job_29'
p143
g90
sS'SUSYBBHToTauTau_M-450_8TeV-pythia6-tauola/Summer12_DR53X-PU_S10_START53_V7A-v1/AODSIM/PAT_CMG_V5_16_0_1377467578/HTT_24Jul_newTES_manzoni_Up_Jobs/Job_28'
p144
g90
sS'SUSYBBHToTauTau_M-450_8TeV-pythia6-tauola/Summer12_DR53X-PU_S10_START53_V7A-v1/AODSIM/PAT_CMG_V5_16_0_1377467578/HTT_24Jul_newTES_manzoni_Up_Jobs/Job_16'
p145
g90
sssS'CheckDatasetExists'
p146
(dp147
S'Dataset'
p148
S'/SUSYBBHToTauTau_M-450_8TeV-pythia6-tauola/Summer12_DR53X-PU_S10_START53_V7A-v1/AODSIM/PAT_CMG_V5_16_0'
p149
ssS'GenerateMask'
p150
(dp151
g3
(dp152
VPathList
p153
(lp154
V/store/cmst3/group/cmgtools/CMG/SUSYBBHToTauTau_M-450_8TeV-pythia6-tauola/Summer12_DR53X-PU_S10_START53_V7A-v1/AODSIM/PAT_CMG_V5_16_0
p155
asVStageHost
p156
Vcastorcms
p157
sVPrimaryDatasetFraction
p158
F0.96919380179292069
sVFilesGood
p159
I96
sVPrimaryDatasetEntries
p160
I973830
sVReportVersion
p161
I3
sVFiles
p162
(dp163
V/store/cmst3/group/cmgtools/CMG/SUSYBBHToTauTau_M-450_8TeV-pythia6-tauola/Summer12_DR53X-PU_S10_START53_V7A-v1/AODSIM/PAT_CMG_V5_16_0/cmgTuple_43_1_N8B.root
p164
(lp165
I01
aI10000
asV/store/cmst3/group/cmgtools/CMG/SUSYBBHToTauTau_M-450_8TeV-pythia6-tauola/Summer12_DR53X-PU_S10_START53_V7A-v1/AODSIM/PAT_CMG_V5_16_0/cmgTuple_72_1_3Ju.root
p166
(lp167
I01
aI10000
asV/store/cmst3/group/cmgtools/CMG/SUSYBBHToTauTau_M-450_8TeV-pythia6-tauola/Summer12_DR53X-PU_S10_START53_V7A-v1/AODSIM/PAT_CMG_V5_16_0/cmgTuple_13_1_JQb.root
p168
(lp169
I01
aI10000
asV/store/cmst3/group/cmgtools/CMG/SUSYBBHToTauTau_M-450_8TeV-pythia6-tauola/Summer12_DR53X-PU_S10_START53_V7A-v1/AODSIM/PAT_CMG_V5_16_0/cmgTuple_54_1_Yav.root
p170
(lp171
I01
aI10000
asV/store/cmst3/group/cmgtools/CMG/SUSYBBHToTauTau_M-450_8TeV-pythia6-tauola/Summer12_DR53X-PU_S10_START53_V7A-v1/AODSIM/PAT_CMG_V5_16_0/cmgTuple_4_1_YzD.root
p172
(lp173
I01
aI10000
asV/store/cmst3/group/cmgtools/CMG/SUSYBBHToTauTau_M-450_8TeV-pythia6-tauola/Summer12_DR53X-PU_S10_START53_V7A-v1/AODSIM/PAT_CMG_V5_16_0/cmgTuple_95_1_7Nm.root
p174
(lp175
I01
aI10000
asV/store/cmst3/group/cmgtools/CMG/SUSYBBHToTauTau_M-450_8TeV-pythia6-tauola/Summer12_DR53X-PU_S10_START53_V7A-v1/AODSIM/PAT_CMG_V5_16_0/cmgTuple_53_1_TSq.root
p176
(lp177
I01
aI10000
asV/store/cmst3/group/cmgtools/CMG/SUSYBBHToTauTau_M-450_8TeV-pythia6-tauola/Summer12_DR53X-PU_S10_START53_V7A-v1/AODSIM/PAT_CMG_V5_16_0/cmgTuple_91_1_Ktd.root
p178
(lp179
I01
aI10000
asV/store/cmst3/group/cmgtools/CMG/SUSYBBHToTauTau_M-450_8TeV-pythia6-tauola/Summer12_DR53X-PU_S10_START53_V7A-v1/AODSIM/PAT_CMG_V5_16_0/cmgTuple_55_1_dkA.root
p180
(lp181
I01
aI10000
asV/store/cmst3/group/cmgtools/CMG/SUSYBBHToTauTau_M-450_8TeV-pythia6-tauola/Summer12_DR53X-PU_S10_START53_V7A-v1/AODSIM/PAT_CMG_V5_16_0/cmgTuple_94_1_dhB.root
p182
(lp183
I01
aI10000
asV/store/cmst3/group/cmgtools/CMG/SUSYBBHToTauTau_M-450_8TeV-pythia6-tauola/Summer12_DR53X-PU_S10_START53_V7A-v1/AODSIM/PAT_CMG_V5_16_0/cmgTuple_82_1_a6o.root
p184
(lp185
I01
aI10000
asV/store/cmst3/group/cmgtools/CMG/SUSYBBHToTauTau_M-450_8TeV-pythia6-tauola/Summer12_DR53X-PU_S10_START53_V7A-v1/AODSIM/PAT_CMG_V5_16_0/cmgTuple_79_1_Wnv.root
p186
(lp187
I01
aI10000
asV/store/cmst3/group/cmgtools/CMG/SUSYBBHToTauTau_M-450_8TeV-pythia6-tauola/Summer12_DR53X-PU_S10_START53_V7A-v1/AODSIM/PAT_CMG_V5_16_0/cmgTuple_87_1_Z08.root
p188
(lp189
I01
aI10000
asV/store/cmst3/group/cmgtools/CMG/SUSYBBHToTauTau_M-450_8TeV-pythia6-tauola/Summer12_DR53X-PU_S10_START53_V7A-v1/AODSIM/PAT_CMG_V5_16_0/cmgTuple_41_1_2qz.root
p190
(lp191
I01
aI10000
asV/store/cmst3/group/cmgtools/CMG/SUSYBBHToTauTau_M-450_8TeV-pythia6-tauola/Summer12_DR53X-PU_S10_START53_V7A-v1/AODSIM/PAT_CMG_V5_16_0/cmgTuple_86_1_hiv.root
p192
(lp193
I01
aI10000
asV/store/cmst3/group/cmgtools/CMG/SUSYBBHToTauTau_M-450_8TeV-pythia6-tauola/Summer12_DR53X-PU_S10_START53_V7A-v1/AODSIM/PAT_CMG_V5_16_0/cmgTuple_32_1_KiR.root
p194
(lp195
I01
aI10000
asV/store/cmst3/group/cmgtools/CMG/SUSYBBHToTauTau_M-450_8TeV-pythia6-tauola/Summer12_DR53X-PU_S10_START53_V7A-v1/AODSIM/PAT_CMG_V5_16_0/cmgTuple_2_1_QMb.root
p196
(lp197
I01
aI10000
asV/store/cmst3/group/cmgtools/CMG/SUSYBBHToTauTau_M-450_8TeV-pythia6-tauola/Summer12_DR53X-PU_S10_START53_V7A-v1/AODSIM/PAT_CMG_V5_16_0/cmgTuple_52_1_tat.root
p198
(lp199
I01
aI10000
asV/store/cmst3/group/cmgtools/CMG/SUSYBBHToTauTau_M-450_8TeV-pythia6-tauola/Summer12_DR53X-PU_S10_START53_V7A-v1/AODSIM/PAT_CMG_V5_16_0/cmgTuple_74_1_kPe.root
p200
(lp201
I01
aI10000
asV/store/cmst3/group/cmgtools/CMG/SUSYBBHToTauTau_M-450_8TeV-pythia6-tauola/Summer12_DR53X-PU_S10_START53_V7A-v1/AODSIM/PAT_CMG_V5_16_0/cmgTuple_34_1_P3r.root
p202
(lp203
I01
aI10000
asV/store/cmst3/group/cmgtools/CMG/SUSYBBHToTauTau_M-450_8TeV-pythia6-tauola/Summer12_DR53X-PU_S10_START53_V7A-v1/AODSIM/PAT_CMG_V5_16_0/cmgTuple_18_1_vIF.root
p204
(lp205
I01
aI10000
asV/store/cmst3/group/cmgtools/CMG/SUSYBBHToTauTau_M-450_8TeV-pythia6-tauola/Summer12_DR53X-PU_S10_START53_V7A-v1/AODSIM/PAT_CMG_V5_16_0/cmgTuple_56_1_M1b.root
p206
(lp207
I01
aI10000
asV/store/cmst3/group/cmgtools/CMG/SUSYBBHToTauTau_M-450_8TeV-pythia6-tauola/Summer12_DR53X-PU_S10_START53_V7A-v1/AODSIM/PAT_CMG_V5_16_0/cmgTuple_76_1_WnT.root
p208
(lp209
I01
aI10000
asV/store/cmst3/group/cmgtools/CMG/SUSYBBHToTauTau_M-450_8TeV-pythia6-tauola/Summer12_DR53X-PU_S10_START53_V7A-v1/AODSIM/PAT_CMG_V5_16_0/cmgTuple_15_1_lmJ.root
p210
(lp211
I01
aI10000
asV/store/cmst3/group/cmgtools/CMG/SUSYBBHToTauTau_M-450_8TeV-pythia6-tauola/Summer12_DR53X-PU_S10_START53_V7A-v1/AODSIM/PAT_CMG_V5_16_0/cmgTuple_84_1_A3z.root
p212
(lp213
I01
aI10000
asV/store/cmst3/group/cmgtools/CMG/SUSYBBHToTauTau_M-450_8TeV-pythia6-tauola/Summer12_DR53X-PU_S10_START53_V7A-v1/AODSIM/PAT_CMG_V5_16_0/cmgTuple_57_1_HrI.root
p214
(lp215
I01
aI10000
asV/store/cmst3/group/cmgtools/CMG/SUSYBBHToTauTau_M-450_8TeV-pythia6-tauola/Summer12_DR53X-PU_S10_START53_V7A-v1/AODSIM/PAT_CMG_V5_16_0/cmgTuple_40_1_IN1.root
p216
(lp217
I01
aI10000
asV/store/cmst3/group/cmgtools/CMG/SUSYBBHToTauTau_M-450_8TeV-pythia6-tauola/Summer12_DR53X-PU_S10_START53_V7A-v1/AODSIM/PAT_CMG_V5_16_0/cmgTuple_51_1_pKT.root
p218
(lp219
I01
aI10000
asV/store/cmst3/group/cmgtools/CMG/SUSYBBHToTauTau_M-450_8TeV-pythia6-tauola/Summer12_DR53X-PU_S10_START53_V7A-v1/AODSIM/PAT_CMG_V5_16_0/cmgTuple_29_1_d0v.root
p220
(lp221
I01
aI10000
asV/store/cmst3/group/cmgtools/CMG/SUSYBBHToTauTau_M-450_8TeV-pythia6-tauola/Summer12_DR53X-PU_S10_START53_V7A-v1/AODSIM/PAT_CMG_V5_16_0/cmgTuple_75_1_Wk5.root
p222
(lp223
I01
aI10000
asV/store/cmst3/group/cmgtools/CMG/SUSYBBHToTauTau_M-450_8TeV-pythia6-tauola/Summer12_DR53X-PU_S10_START53_V7A-v1/AODSIM/PAT_CMG_V5_16_0/cmgTuple_65_1_GBX.root
p224
(lp225
I01
aI10000
asV/store/cmst3/group/cmgtools/CMG/SUSYBBHToTauTau_M-450_8TeV-pythia6-tauola/Summer12_DR53X-PU_S10_START53_V7A-v1/AODSIM/PAT_CMG_V5_16_0/cmgTuple_1_1_gUS.root
p226
(lp227
I01
aI10000
asV/store/cmst3/group/cmgtools/CMG/SUSYBBHToTauTau_M-450_8TeV-pythia6-tauola/Summer12_DR53X-PU_S10_START53_V7A-v1/AODSIM/PAT_CMG_V5_16_0/cmgTuple_66_1_x9n.root
p228
(lp229
I01
aI4225
asV/store/cmst3/group/cmgtools/CMG/SUSYBBHToTauTau_M-450_8TeV-pythia6-tauola/Summer12_DR53X-PU_S10_START53_V7A-v1/AODSIM/PAT_CMG_V5_16_0/cmgTuple_21_1_Yei.root
p230
(lp231
I01
aI10000
asV/store/cmst3/group/cmgtools/CMG/SUSYBBHToTauTau_M-450_8TeV-pythia6-tauola/Summer12_DR53X-PU_S10_START53_V7A-v1/AODSIM/PAT_CMG_V5_16_0/cmgTuple_96_1_IQg.root
p232
(lp233
I01
aI10000
asV/store/cmst3/group/cmgtools/CMG/SUSYBBHToTauTau_M-450_8TeV-pythia6-tauola/Summer12_DR53X-PU_S10_START53_V7A-v1/AODSIM/PAT_CMG_V5_16_0/cmgTuple_26_1_nY4.root
p234
(lp235
I01
aI10000
asV/store/cmst3/group/cmgtools/CMG/SUSYBBHToTauTau_M-450_8TeV-pythia6-tauola/Summer12_DR53X-PU_S10_START53_V7A-v1/AODSIM/PAT_CMG_V5_16_0/cmgTuple_78_1_MiJ.root
p236
(lp237
I01
aI10000
asV/store/cmst3/group/cmgtools/CMG/SUSYBBHToTauTau_M-450_8TeV-pythia6-tauola/Summer12_DR53X-PU_S10_START53_V7A-v1/AODSIM/PAT_CMG_V5_16_0/cmgTuple_20_1_3iD.root
p238
(lp239
I01
aI10000
asV/store/cmst3/group/cmgtools/CMG/SUSYBBHToTauTau_M-450_8TeV-pythia6-tauola/Summer12_DR53X-PU_S10_START53_V7A-v1/AODSIM/PAT_CMG_V5_16_0/cmgTuple_93_1_KHx.root
p240
(lp241
I01
aI10000
asV/store/cmst3/group/cmgtools/CMG/SUSYBBHToTauTau_M-450_8TeV-pythia6-tauola/Summer12_DR53X-PU_S10_START53_V7A-v1/AODSIM/PAT_CMG_V5_16_0/cmgTuple_7_1_mqm.root
p242
(lp243
I01
aI10000
asV/store/cmst3/group/cmgtools/CMG/SUSYBBHToTauTau_M-450_8TeV-pythia6-tauola/Summer12_DR53X-PU_S10_START53_V7A-v1/AODSIM/PAT_CMG_V5_16_0/cmgTuple_30_1_ejh.root
p244
(lp245
I01
aI10000
asV/store/cmst3/group/cmgtools/CMG/SUSYBBHToTauTau_M-450_8TeV-pythia6-tauola/Summer12_DR53X-PU_S10_START53_V7A-v1/AODSIM/PAT_CMG_V5_16_0/cmgTuple_61_1_DG4.root
p246
(lp247
I01
aI10000
asV/store/cmst3/group/cmgtools/CMG/SUSYBBHToTauTau_M-450_8TeV-pythia6-tauola/Summer12_DR53X-PU_S10_START53_V7A-v1/AODSIM/PAT_CMG_V5_16_0/cmgTuple_48_1_6fp.root
p248
(lp249
I01
aI10000
asV/store/cmst3/group/cmgtools/CMG/SUSYBBHToTauTau_M-450_8TeV-pythia6-tauola/Summer12_DR53X-PU_S10_START53_V7A-v1/AODSIM/PAT_CMG_V5_16_0/cmgTuple_88_1_unc.root
p250
(lp251
I01
aI10000
asV/store/cmst3/group/cmgtools/CMG/SUSYBBHToTauTau_M-450_8TeV-pythia6-tauola/Summer12_DR53X-PU_S10_START53_V7A-v1/AODSIM/PAT_CMG_V5_16_0/cmgTuple_37_1_7TP.root
p252
(lp253
I01
aI10000
asV/store/cmst3/group/cmgtools/CMG/SUSYBBHToTauTau_M-450_8TeV-pythia6-tauola/Summer12_DR53X-PU_S10_START53_V7A-v1/AODSIM/PAT_CMG_V5_16_0/cmgTuple_31_1_nP4.root
p254
(lp255
I01
aI10000
asV/store/cmst3/group/cmgtools/CMG/SUSYBBHToTauTau_M-450_8TeV-pythia6-tauola/Summer12_DR53X-PU_S10_START53_V7A-v1/AODSIM/PAT_CMG_V5_16_0/cmgTuple_89_1_0Kk.root
p256
(lp257
I01
aI10000
asV/store/cmst3/group/cmgtools/CMG/SUSYBBHToTauTau_M-450_8TeV-pythia6-tauola/Summer12_DR53X-PU_S10_START53_V7A-v1/AODSIM/PAT_CMG_V5_16_0/cmgTuple_27_1_Mym.root
p258
(lp259
I01
aI10000
asV/store/cmst3/group/cmgtools/CMG/SUSYBBHToTauTau_M-450_8TeV-pythia6-tauola/Summer12_DR53X-PU_S10_START53_V7A-v1/AODSIM/PAT_CMG_V5_16_0/cmgTuple_47_1_SUs.root
p260
(lp261
I01
aI10000
asV/store/cmst3/group/cmgtools/CMG/SUSYBBHToTauTau_M-450_8TeV-pythia6-tauola/Summer12_DR53X-PU_S10_START53_V7A-v1/AODSIM/PAT_CMG_V5_16_0/cmgTuple_22_1_mVR.root
p262
(lp263
I01
aI10000
asV/store/cmst3/group/cmgtools/CMG/SUSYBBHToTauTau_M-450_8TeV-pythia6-tauola/Summer12_DR53X-PU_S10_START53_V7A-v1/AODSIM/PAT_CMG_V5_16_0/cmgTuple_97_1_NFc.root
p264
(lp265
I01
aI10000
asV/store/cmst3/group/cmgtools/CMG/SUSYBBHToTauTau_M-450_8TeV-pythia6-tauola/Summer12_DR53X-PU_S10_START53_V7A-v1/AODSIM/PAT_CMG_V5_16_0/cmgTuple_77_1_7AV.root
p266
(lp267
I01
aI10000
asV/store/cmst3/group/cmgtools/CMG/SUSYBBHToTauTau_M-450_8TeV-pythia6-tauola/Summer12_DR53X-PU_S10_START53_V7A-v1/AODSIM/PAT_CMG_V5_16_0/cmgTuple_68_1_T4K.root
p268
(lp269
I01
aI10000
asV/store/cmst3/group/cmgtools/CMG/SUSYBBHToTauTau_M-450_8TeV-pythia6-tauola/Summer12_DR53X-PU_S10_START53_V7A-v1/AODSIM/PAT_CMG_V5_16_0/cmgTuple_14_1_cec.root
p270
(lp271
I01
aI10000
asV/store/cmst3/group/cmgtools/CMG/SUSYBBHToTauTau_M-450_8TeV-pythia6-tauola/Summer12_DR53X-PU_S10_START53_V7A-v1/AODSIM/PAT_CMG_V5_16_0/cmgTuple_5_1_xAk.root
p272
(lp273
I01
aI10000
asV/store/cmst3/group/cmgtools/CMG/SUSYBBHToTauTau_M-450_8TeV-pythia6-tauola/Summer12_DR53X-PU_S10_START53_V7A-v1/AODSIM/PAT_CMG_V5_16_0/cmgTuple_70_1_VzQ.root
p274
(lp275
I01
aI10000
asV/store/cmst3/group/cmgtools/CMG/SUSYBBHToTauTau_M-450_8TeV-pythia6-tauola/Summer12_DR53X-PU_S10_START53_V7A-v1/AODSIM/PAT_CMG_V5_16_0/cmgTuple_46_1_Iim.root
p276
(lp277
I01
aI10000
asV/store/cmst3/group/cmgtools/CMG/SUSYBBHToTauTau_M-450_8TeV-pythia6-tauola/Summer12_DR53X-PU_S10_START53_V7A-v1/AODSIM/PAT_CMG_V5_16_0/cmgTuple_60_1_BxW.root
p278
(lp279
I01
aI10000
asV/store/cmst3/group/cmgtools/CMG/SUSYBBHToTauTau_M-450_8TeV-pythia6-tauola/Summer12_DR53X-PU_S10_START53_V7A-v1/AODSIM/PAT_CMG_V5_16_0/cmgTuple_92_1_aUG.root
p280
(lp281
I01
aI10000
asV/store/cmst3/group/cmgtools/CMG/SUSYBBHToTauTau_M-450_8TeV-pythia6-tauola/Summer12_DR53X-PU_S10_START53_V7A-v1/AODSIM/PAT_CMG_V5_16_0/cmgTuple_62_1_uDc.root
p282
(lp283
I01
aI10000
asV/store/cmst3/group/cmgtools/CMG/SUSYBBHToTauTau_M-450_8TeV-pythia6-tauola/Summer12_DR53X-PU_S10_START53_V7A-v1/AODSIM/PAT_CMG_V5_16_0/cmgTuple_64_1_jS2.root
p284
(lp285
I01
aI10000
asV/store/cmst3/group/cmgtools/CMG/SUSYBBHToTauTau_M-450_8TeV-pythia6-tauola/Summer12_DR53X-PU_S10_START53_V7A-v1/AODSIM/PAT_CMG_V5_16_0/cmgTuple_12_1_XoI.root
p286
(lp287
I01
aI10000
asV/store/cmst3/group/cmgtools/CMG/SUSYBBHToTauTau_M-450_8TeV-pythia6-tauola/Summer12_DR53X-PU_S10_START53_V7A-v1/AODSIM/PAT_CMG_V5_16_0/cmgTuple_85_1_gZ0.root
p288
(lp289
I01
aI10000
asV/store/cmst3/group/cmgtools/CMG/SUSYBBHToTauTau_M-450_8TeV-pythia6-tauola/Summer12_DR53X-PU_S10_START53_V7A-v1/AODSIM/PAT_CMG_V5_16_0/cmgTuple_80_1_WOy.root
p290
(lp291
I01
aI10000
asV/store/cmst3/group/cmgtools/CMG/SUSYBBHToTauTau_M-450_8TeV-pythia6-tauola/Summer12_DR53X-PU_S10_START53_V7A-v1/AODSIM/PAT_CMG_V5_16_0/cmgTuple_44_1_z8f.root
p292
(lp293
I01
aI10000
asV/store/cmst3/group/cmgtools/CMG/SUSYBBHToTauTau_M-450_8TeV-pythia6-tauola/Summer12_DR53X-PU_S10_START53_V7A-v1/AODSIM/PAT_CMG_V5_16_0/cmgTuple_16_1_P49.root
p294
(lp295
I01
aI10000
asV/store/cmst3/group/cmgtools/CMG/SUSYBBHToTauTau_M-450_8TeV-pythia6-tauola/Summer12_DR53X-PU_S10_START53_V7A-v1/AODSIM/PAT_CMG_V5_16_0/cmgTuple_42_1_O3V.root
p296
(lp297
I01
aI10000
asV/store/cmst3/group/cmgtools/CMG/SUSYBBHToTauTau_M-450_8TeV-pythia6-tauola/Summer12_DR53X-PU_S10_START53_V7A-v1/AODSIM/PAT_CMG_V5_16_0/cmgTuple_39_1_6dI.root
p298
(lp299
I01
aI10000
asV/store/cmst3/group/cmgtools/CMG/SUSYBBHToTauTau_M-450_8TeV-pythia6-tauola/Summer12_DR53X-PU_S10_START53_V7A-v1/AODSIM/PAT_CMG_V5_16_0/cmgTuple_10_1_EFH.root
p300
(lp301
I01
aI10000
asV/store/cmst3/group/cmgtools/CMG/SUSYBBHToTauTau_M-450_8TeV-pythia6-tauola/Summer12_DR53X-PU_S10_START53_V7A-v1/AODSIM/PAT_CMG_V5_16_0/cmgTuple_71_1_lY7.root
p302
(lp303
I01
aI10000
asV/store/cmst3/group/cmgtools/CMG/SUSYBBHToTauTau_M-450_8TeV-pythia6-tauola/Summer12_DR53X-PU_S10_START53_V7A-v1/AODSIM/PAT_CMG_V5_16_0/cmgTuple_36_1_fvi.root
p304
(lp305
I01
aI10000
asV/store/cmst3/group/cmgtools/CMG/SUSYBBHToTauTau_M-450_8TeV-pythia6-tauola/Summer12_DR53X-PU_S10_START53_V7A-v1/AODSIM/PAT_CMG_V5_16_0/cmgTuple_9_1_I66.root
p306
(lp307
I01
aI10000
asV/store/cmst3/group/cmgtools/CMG/SUSYBBHToTauTau_M-450_8TeV-pythia6-tauola/Summer12_DR53X-PU_S10_START53_V7A-v1/AODSIM/PAT_CMG_V5_16_0/cmgTuple_24_1_UW1.root
p308
(lp309
I01
aI10000
asV/store/cmst3/group/cmgtools/CMG/SUSYBBHToTauTau_M-450_8TeV-pythia6-tauola/Summer12_DR53X-PU_S10_START53_V7A-v1/AODSIM/PAT_CMG_V5_16_0/cmgTuple_25_1_ROk.root
p310
(lp311
I01
aI10000
asV/store/cmst3/group/cmgtools/CMG/SUSYBBHToTauTau_M-450_8TeV-pythia6-tauola/Summer12_DR53X-PU_S10_START53_V7A-v1/AODSIM/PAT_CMG_V5_16_0/cmgTuple_35_1_UJ4.root
p312
(lp313
I01
aI10000
asV/store/cmst3/group/cmgtools/CMG/SUSYBBHToTauTau_M-450_8TeV-pythia6-tauola/Summer12_DR53X-PU_S10_START53_V7A-v1/AODSIM/PAT_CMG_V5_16_0/cmgTuple_98_1_8zF.root
p314
(lp315
I01
aI7031
asV/store/cmst3/group/cmgtools/CMG/SUSYBBHToTauTau_M-450_8TeV-pythia6-tauola/Summer12_DR53X-PU_S10_START53_V7A-v1/AODSIM/PAT_CMG_V5_16_0/cmgTuple_99_1_zKD.root
p316
(lp317
I01
aI2574
asV/store/cmst3/group/cmgtools/CMG/SUSYBBHToTauTau_M-450_8TeV-pythia6-tauola/Summer12_DR53X-PU_S10_START53_V7A-v1/AODSIM/PAT_CMG_V5_16_0/cmgTuple_3_1_Eca.root
p318
(lp319
I01
aI10000
asV/store/cmst3/group/cmgtools/CMG/SUSYBBHToTauTau_M-450_8TeV-pythia6-tauola/Summer12_DR53X-PU_S10_START53_V7A-v1/AODSIM/PAT_CMG_V5_16_0/cmgTuple_17_1_Jkf.root
p320
(lp321
I01
aI10000
asV/store/cmst3/group/cmgtools/CMG/SUSYBBHToTauTau_M-450_8TeV-pythia6-tauola/Summer12_DR53X-PU_S10_START53_V7A-v1/AODSIM/PAT_CMG_V5_16_0/cmgTuple_50_1_kUs.root
p322
(lp323
I01
aI10000
asV/store/cmst3/group/cmgtools/CMG/SUSYBBHToTauTau_M-450_8TeV-pythia6-tauola/Summer12_DR53X-PU_S10_START53_V7A-v1/AODSIM/PAT_CMG_V5_16_0/cmgTuple_8_1_93S.root
p324
(lp325
I01
aI10000
asV/store/cmst3/group/cmgtools/CMG/SUSYBBHToTauTau_M-450_8TeV-pythia6-tauola/Summer12_DR53X-PU_S10_START53_V7A-v1/AODSIM/PAT_CMG_V5_16_0/cmgTuple_19_1_ohJ.root
p326
(lp327
I01
aI10000
asV/store/cmst3/group/cmgtools/CMG/SUSYBBHToTauTau_M-450_8TeV-pythia6-tauola/Summer12_DR53X-PU_S10_START53_V7A-v1/AODSIM/PAT_CMG_V5_16_0/cmgTuple_6_1_hdB.root
p328
(lp329
I01
aI10000
asV/store/cmst3/group/cmgtools/CMG/SUSYBBHToTauTau_M-450_8TeV-pythia6-tauola/Summer12_DR53X-PU_S10_START53_V7A-v1/AODSIM/PAT_CMG_V5_16_0/cmgTuple_28_1_e5I.root
p330
(lp331
I01
aI10000
asV/store/cmst3/group/cmgtools/CMG/SUSYBBHToTauTau_M-450_8TeV-pythia6-tauola/Summer12_DR53X-PU_S10_START53_V7A-v1/AODSIM/PAT_CMG_V5_16_0/cmgTuple_90_1_dpa.root
p332
(lp333
I01
aI10000
asV/store/cmst3/group/cmgtools/CMG/SUSYBBHToTauTau_M-450_8TeV-pythia6-tauola/Summer12_DR53X-PU_S10_START53_V7A-v1/AODSIM/PAT_CMG_V5_16_0/cmgTuple_33_1_zjn.root
p334
(lp335
I01
aI10000
asV/store/cmst3/group/cmgtools/CMG/SUSYBBHToTauTau_M-450_8TeV-pythia6-tauola/Summer12_DR53X-PU_S10_START53_V7A-v1/AODSIM/PAT_CMG_V5_16_0/cmgTuple_67_1_seo.root
p336
(lp337
I01
aI10000
asV/store/cmst3/group/cmgtools/CMG/SUSYBBHToTauTau_M-450_8TeV-pythia6-tauola/Summer12_DR53X-PU_S10_START53_V7A-v1/AODSIM/PAT_CMG_V5_16_0/cmgTuple_11_1_100.root
p338
(lp339
I01
aI10000
asV/store/cmst3/group/cmgtools/CMG/SUSYBBHToTauTau_M-450_8TeV-pythia6-tauola/Summer12_DR53X-PU_S10_START53_V7A-v1/AODSIM/PAT_CMG_V5_16_0/cmgTuple_45_1_rKH.root
p340
(lp341
I01
aI10000
asV/store/cmst3/group/cmgtools/CMG/SUSYBBHToTauTau_M-450_8TeV-pythia6-tauola/Summer12_DR53X-PU_S10_START53_V7A-v1/AODSIM/PAT_CMG_V5_16_0/cmgTuple_83_1_4LW.root
p342
(lp343
I01
aI10000
asV/store/cmst3/group/cmgtools/CMG/SUSYBBHToTauTau_M-450_8TeV-pythia6-tauola/Summer12_DR53X-PU_S10_START53_V7A-v1/AODSIM/PAT_CMG_V5_16_0/cmgTuple_63_1_LCy.root
p344
(lp345
I01
aI10000
asV/store/cmst3/group/cmgtools/CMG/SUSYBBHToTauTau_M-450_8TeV-pythia6-tauola/Summer12_DR53X-PU_S10_START53_V7A-v1/AODSIM/PAT_CMG_V5_16_0/cmgTuple_38_1_G8w.root
p346
(lp347
I01
aI10000
asV/store/cmst3/group/cmgtools/CMG/SUSYBBHToTauTau_M-450_8TeV-pythia6-tauola/Summer12_DR53X-PU_S10_START53_V7A-v1/AODSIM/PAT_CMG_V5_16_0/cmgTuple_81_1_yKT.root
p348
(lp349
I01
aI10000
asV/store/cmst3/group/cmgtools/CMG/SUSYBBHToTauTau_M-450_8TeV-pythia6-tauola/Summer12_DR53X-PU_S10_START53_V7A-v1/AODSIM/PAT_CMG_V5_16_0/cmgTuple_23_1_gCq.root
p350
(lp351
I01
aI10000
asV/store/cmst3/group/cmgtools/CMG/SUSYBBHToTauTau_M-450_8TeV-pythia6-tauola/Summer12_DR53X-PU_S10_START53_V7A-v1/AODSIM/PAT_CMG_V5_16_0/cmgTuple_59_1_MF5.root
p352
(lp353
I01
aI10000
asV/store/cmst3/group/cmgtools/CMG/SUSYBBHToTauTau_M-450_8TeV-pythia6-tauola/Summer12_DR53X-PU_S10_START53_V7A-v1/AODSIM/PAT_CMG_V5_16_0/cmgTuple_73_1_KHO.root
p354
(lp355
I01
aI10000
assVPhysicsGroup
p356
VCMG
p357
sVFilesCount
p358
I96
sVFilesEntries
p359
I943830
sVRunList
p360
(lp361
sVValidDuplicates
p362
(dp363
sVPrimaryDataset
p364
V/SUSYBBHToTauTau_M-450_8TeV-pythia6-tauola/Summer12_DR53X-PU_S10_START53_V7A-v1/AODSIM
p365
sVStatus
p366
VVALID
p367
sVName
p368
V/SUSYBBHToTauTau_M-450_8TeV-pythia6-tauola/Summer12_DR53X-PU_S10_START53_V7A-v1/AODSIM/PAT_CMG_V5_16_0
p369
sVTopdir
p370
V/eos/cms/store/cmst3/group/cmgtools/CMG
p371
sVdata
p372
(dp373
sVFilesBad
p374
I0
sVMinRun
p375
I-1
sVAlgoList
p376
(lp377
sVTierList
p378
(lp379
sVDateCreated
p380
V1371077174
p381
sVCreatedBy
p382
Vcmgtools_group
p383
sVMaxRun
p384
I-1
sVBadJobs
p385
(lp386
I49
aI58
aI69
assg111
I01
ssS'MonitorJobs'
p387
(dp388
S'LSFJobStatus'
p389
(dp390
g114
S'SUSYBBHToTauTau_M-450_8TeV-pythia6-tauola/Summer12_DR53X-PU_S10_START53_V7A-v1/AODSIM/PAT_CMG_V5_16_0_1377467578/HTT_24Jul_newTES_manzoni_Up_Jobs/Job_6/LSFJOB_440972811/STDOUT.gz'
p391
sg115
S'SUSYBBHToTauTau_M-450_8TeV-pythia6-tauola/Summer12_DR53X-PU_S10_START53_V7A-v1/AODSIM/PAT_CMG_V5_16_0_1377467578/HTT_24Jul_newTES_manzoni_Up_Jobs/Job_7/LSFJOB_440972897/STDOUT.gz'
p392
sg116
S'SUSYBBHToTauTau_M-450_8TeV-pythia6-tauola/Summer12_DR53X-PU_S10_START53_V7A-v1/AODSIM/PAT_CMG_V5_16_0_1377467578/HTT_24Jul_newTES_manzoni_Up_Jobs/Job_4/LSFJOB_440972617/STDOUT.gz'
p393
sg117
S'SUSYBBHToTauTau_M-450_8TeV-pythia6-tauola/Summer12_DR53X-PU_S10_START53_V7A-v1/AODSIM/PAT_CMG_V5_16_0_1377467578/HTT_24Jul_newTES_manzoni_Up_Jobs/Job_5/LSFJOB_440972704/STDOUT.gz'
p394
sg118
S'SUSYBBHToTauTau_M-450_8TeV-pythia6-tauola/Summer12_DR53X-PU_S10_START53_V7A-v1/AODSIM/PAT_CMG_V5_16_0_1377467578/HTT_24Jul_newTES_manzoni_Up_Jobs/Job_2/LSFJOB_440972375/STDOUT.gz'
p395
sg119
S'SUSYBBHToTauTau_M-450_8TeV-pythia6-tauola/Summer12_DR53X-PU_S10_START53_V7A-v1/AODSIM/PAT_CMG_V5_16_0_1377467578/HTT_24Jul_newTES_manzoni_Up_Jobs/Job_3/LSFJOB_440972512/STDOUT.gz'
p396
sg120
S'SUSYBBHToTauTau_M-450_8TeV-pythia6-tauola/Summer12_DR53X-PU_S10_START53_V7A-v1/AODSIM/PAT_CMG_V5_16_0_1377467578/HTT_24Jul_newTES_manzoni_Up_Jobs/Job_1/LSFJOB_440972280/STDOUT.gz'
p397
sg140
S'SUSYBBHToTauTau_M-450_8TeV-pythia6-tauola/Summer12_DR53X-PU_S10_START53_V7A-v1/AODSIM/PAT_CMG_V5_16_0_1377467578/HTT_24Jul_newTES_manzoni_Up_Jobs/Job_24/LSFJOB_440974309/STDOUT.gz'
p398
sg121
S'SUSYBBHToTauTau_M-450_8TeV-pythia6-tauola/Summer12_DR53X-PU_S10_START53_V7A-v1/AODSIM/PAT_CMG_V5_16_0_1377467578/HTT_24Jul_newTES_manzoni_Up_Jobs/Job_8/LSFJOB_440972989/STDOUT.gz'
p399
sg122
S'SUSYBBHToTauTau_M-450_8TeV-pythia6-tauola/Summer12_DR53X-PU_S10_START53_V7A-v1/AODSIM/PAT_CMG_V5_16_0_1377467578/HTT_24Jul_newTES_manzoni_Up_Jobs/Job_9/LSFJOB_440973087/STDOUT.gz'
p400
sg123
S'SUSYBBHToTauTau_M-450_8TeV-pythia6-tauola/Summer12_DR53X-PU_S10_START53_V7A-v1/AODSIM/PAT_CMG_V5_16_0_1377467578/HTT_24Jul_newTES_manzoni_Up_Jobs/Job_18/LSFJOB_440973837/STDOUT.gz'
p401
sg124
S'SUSYBBHToTauTau_M-450_8TeV-pythia6-tauola/Summer12_DR53X-PU_S10_START53_V7A-v1/AODSIM/PAT_CMG_V5_16_0_1377467578/HTT_24Jul_newTES_manzoni_Up_Jobs/Job_19/LSFJOB_440973928/STDOUT.gz'
p402
sg125
S'SUSYBBHToTauTau_M-450_8TeV-pythia6-tauola/Summer12_DR53X-PU_S10_START53_V7A-v1/AODSIM/PAT_CMG_V5_16_0_1377467578/HTT_24Jul_newTES_manzoni_Up_Jobs/Job_10/LSFJOB_440973196/STDOUT.gz'
p403
sg126
S'SUSYBBHToTauTau_M-450_8TeV-pythia6-tauola/Summer12_DR53X-PU_S10_START53_V7A-v1/AODSIM/PAT_CMG_V5_16_0_1377467578/HTT_24Jul_newTES_manzoni_Up_Jobs/Job_11/LSFJOB_440973278/STDOUT.gz'
p404
sg127
S'SUSYBBHToTauTau_M-450_8TeV-pythia6-tauola/Summer12_DR53X-PU_S10_START53_V7A-v1/AODSIM/PAT_CMG_V5_16_0_1377467578/HTT_24Jul_newTES_manzoni_Up_Jobs/Job_12/LSFJOB_440973353/STDOUT.gz'
p405
sg128
S'SUSYBBHToTauTau_M-450_8TeV-pythia6-tauola/Summer12_DR53X-PU_S10_START53_V7A-v1/AODSIM/PAT_CMG_V5_16_0_1377467578/HTT_24Jul_newTES_manzoni_Up_Jobs/Job_13/LSFJOB_440973418/STDOUT.gz'
p406
sg134
S'SUSYBBHToTauTau_M-450_8TeV-pythia6-tauola/Summer12_DR53X-PU_S10_START53_V7A-v1/AODSIM/PAT_CMG_V5_16_0_1377467578/HTT_24Jul_newTES_manzoni_Up_Jobs/Job_32/LSFJOB_440974550/STDOUT.gz'
p407
sg130
S'SUSYBBHToTauTau_M-450_8TeV-pythia6-tauola/Summer12_DR53X-PU_S10_START53_V7A-v1/AODSIM/PAT_CMG_V5_16_0_1377467578/HTT_24Jul_newTES_manzoni_Up_Jobs/Job_15/LSFJOB_440973600/STDOUT.gz'
p408
sg131
S'SUSYBBHToTauTau_M-450_8TeV-pythia6-tauola/Summer12_DR53X-PU_S10_START53_V7A-v1/AODSIM/PAT_CMG_V5_16_0_1377467578/HTT_24Jul_newTES_manzoni_Up_Jobs/Job_30/LSFJOB_440974504/STDOUT.gz'
p409
sg132
S'SUSYBBHToTauTau_M-450_8TeV-pythia6-tauola/Summer12_DR53X-PU_S10_START53_V7A-v1/AODSIM/PAT_CMG_V5_16_0_1377467578/HTT_24Jul_newTES_manzoni_Up_Jobs/Job_17/LSFJOB_440973741/STDOUT.gz'
p410
sg129
S'SUSYBBHToTauTau_M-450_8TeV-pythia6-tauola/Summer12_DR53X-PU_S10_START53_V7A-v1/AODSIM/PAT_CMG_V5_16_0_1377467578/HTT_24Jul_newTES_manzoni_Up_Jobs/Job_14/LSFJOB_440973512/STDOUT.gz'
p411
sg135
S'SUSYBBHToTauTau_M-450_8TeV-pythia6-tauola/Summer12_DR53X-PU_S10_START53_V7A-v1/AODSIM/PAT_CMG_V5_16_0_1377467578/HTT_24Jul_newTES_manzoni_Up_Jobs/Job_21/LSFJOB_440974086/STDOUT.gz'
p412
sg136
S'SUSYBBHToTauTau_M-450_8TeV-pythia6-tauola/Summer12_DR53X-PU_S10_START53_V7A-v1/AODSIM/PAT_CMG_V5_16_0_1377467578/HTT_24Jul_newTES_manzoni_Up_Jobs/Job_20/LSFJOB_440974015/STDOUT.gz'
p413
sg137
S'SUSYBBHToTauTau_M-450_8TeV-pythia6-tauola/Summer12_DR53X-PU_S10_START53_V7A-v1/AODSIM/PAT_CMG_V5_16_0_1377467578/HTT_24Jul_newTES_manzoni_Up_Jobs/Job_23/LSFJOB_440974226/STDOUT.gz'
p414
sg138
S'SUSYBBHToTauTau_M-450_8TeV-pythia6-tauola/Summer12_DR53X-PU_S10_START53_V7A-v1/AODSIM/PAT_CMG_V5_16_0_1377467578/HTT_24Jul_newTES_manzoni_Up_Jobs/Job_22/LSFJOB_440974179/STDOUT.gz'
p415
sg139
S'SUSYBBHToTauTau_M-450_8TeV-pythia6-tauola/Summer12_DR53X-PU_S10_START53_V7A-v1/AODSIM/PAT_CMG_V5_16_0_1377467578/HTT_24Jul_newTES_manzoni_Up_Jobs/Job_25/LSFJOB_440974352/STDOUT.gz'
p416
sg145
S'SUSYBBHToTauTau_M-450_8TeV-pythia6-tauola/Summer12_DR53X-PU_S10_START53_V7A-v1/AODSIM/PAT_CMG_V5_16_0_1377467578/HTT_24Jul_newTES_manzoni_Up_Jobs/Job_16/LSFJOB_440973675/STDOUT.gz'
p417
sg141
S'SUSYBBHToTauTau_M-450_8TeV-pythia6-tauola/Summer12_DR53X-PU_S10_START53_V7A-v1/AODSIM/PAT_CMG_V5_16_0_1377467578/HTT_24Jul_newTES_manzoni_Up_Jobs/Job_27/LSFJOB_440974432/STDOUT.gz'
p418
sg142
S'SUSYBBHToTauTau_M-450_8TeV-pythia6-tauola/Summer12_DR53X-PU_S10_START53_V7A-v1/AODSIM/PAT_CMG_V5_16_0_1377467578/HTT_24Jul_newTES_manzoni_Up_Jobs/Job_26/LSFJOB_440974397/STDOUT.gz'
p419
sg143
S'SUSYBBHToTauTau_M-450_8TeV-pythia6-tauola/Summer12_DR53X-PU_S10_START53_V7A-v1/AODSIM/PAT_CMG_V5_16_0_1377467578/HTT_24Jul_newTES_manzoni_Up_Jobs/Job_29/LSFJOB_440974478/STDOUT.gz'
p420
sg144
S'SUSYBBHToTauTau_M-450_8TeV-pythia6-tauola/Summer12_DR53X-PU_S10_START53_V7A-v1/AODSIM/PAT_CMG_V5_16_0_1377467578/HTT_24Jul_newTES_manzoni_Up_Jobs/Job_28/LSFJOB_440974459/STDOUT.gz'
p421
sg133
S'SUSYBBHToTauTau_M-450_8TeV-pythia6-tauola/Summer12_DR53X-PU_S10_START53_V7A-v1/AODSIM/PAT_CMG_V5_16_0_1377467578/HTT_24Jul_newTES_manzoni_Up_Jobs/Job_31/LSFJOB_440974524/STDOUT.gz'
p422
ssS'LSFJobIDs'
p423
(dp424
g114
S'440972811'
p425
sg115
S'440972897'
p426
sg116
S'440972617'
p427
sg117
S'440972704'
p428
sg118
S'440972375'
p429
sg119
S'440972512'
p430
sg120
S'440972280'
p431
sg121
S'440972989'
p432
sg122
S'440973087'
p433
sg123
S'440973837'
p434
sg124
S'440973928'
p435
sg125
S'440973196'
p436
sg126
S'440973278'
p437
sg127
S'440973353'
p438
sg128
S'440973418'
p439
sg129
S'440973512'
p440
sg130
S'440973600'
p441
sg145
S'440973675'
p442
sg132
S'440973741'
p443
sg131
S'440974504'
p444
sg134
S'440974550'
p445
sg135
S'440974086'
p446
sg136
S'440974015'
p447
sg137
S'440974226'
p448
sg138
S'440974179'
p449
sg139
S'440974352'
p450
sg140
S'440974309'
p451
sg141
S'440974432'
p452
sg142
S'440974397'
p453
sg143
S'440974478'
p454
sg144
S'440974459'
p455
sg133
S'440974524'
p456
sssS'FindOnCastor'
p457
(dp458
g73
S'/eos/cms/store/cmst3/group/cmgtools/CMG'
p459
sS'Directory'
p460
S'/eos/cms/store/cmst3/group/cmgtools/CMG/SUSYBBHToTauTau_M-450_8TeV-pythia6-tauola/Summer12_DR53X-PU_S10_START53_V7A-v1/AODSIM/PAT_CMG_V5_16_0'
p461
ssS'CheckConfig'
p462
(dp463
g89
g90
ssS'FullCFG'
p464
(dp465
S'FullCFG'
p466
S'SUSYBBHToTauTau_M-450_8TeV-pythia6-tauola/Summer12_DR53X-PU_S10_START53_V7A-v1/AODSIM/PAT_CMG_V5_16_0_1377467578/full_cfg.py'
p467
ssS'WriteJobReport'
p468
(dp469
S'SummaryFile'
p470
S'SUSYBBHToTauTau_M-450_8TeV-pythia6-tauola/Summer12_DR53X-PU_S10_START53_V7A-v1/AODSIM/PAT_CMG_V5_16_0_1377467578/resubmit.sh'
p471
ssS'ExpandConfig'
p472
(dp473
S'ExpandedFullCFG'
p474
S'SUSYBBHToTauTau_M-450_8TeV-pythia6-tauola/Summer12_DR53X-PU_S10_START53_V7A-v1/AODSIM/PAT_CMG_V5_16_0_1377467578/Expandedfull_cfg.py'
p475
ssS'RunTestEvents'
p476
(dp477
g89
g90
sS'TestCFG'
p478
S'SUSYBBHToTauTau_M-450_8TeV-pythia6-tauola/Summer12_DR53X-PU_S10_START53_V7A-v1/AODSIM/PAT_CMG_V5_16_0_1377467578/test_cfg.py'
p479
ssS'SourceCFG'
p480
(dp481
S'SourceCFG'
p482
S'SUSYBBHToTauTau_M-450_8TeV-pythia6-tauola/Summer12_DR53X-PU_S10_START53_V7A-v1/AODSIM/PAT_CMG_V5_16_0_1377467578/source_cfg.py'
p483
ssS'CheckForWrite'
p484
(dp485
g460
g461
sS'WriteAccess'
p486
I01
ssS'WriteToDatasets'
p487
(dp488
S'Added'
p489
I00
sg71
S'/SUSYBBHToTauTau_M-450_8TeV-pythia6-tauola/Summer12_DR53X-PU_S10_START53_V7A-v1/AODSIM/PAT_CMG_V5_16_0/HTT_24Jul_newTES_manzoni_Up'
p490
sS'User'
p491
g104
ssS'RunCMSBatch'
p492
(dp493
S'BatchUser'
p494
g104
sS'SampleOutputDir'
p495
S'/store/cmst3/user/manzoni/CMG/SUSYBBHToTauTau_M-450_8TeV-pythia6-tauola/Summer12_DR53X-PU_S10_START53_V7A-v1/AODSIM/PAT_CMG_V5_16_0/HTT_24Jul_newTES_manzoni_Up'
p496
sS'SampleDataset'
p497
g72
sS'LSFJobsTopDir'
p498
S'SUSYBBHToTauTau_M-450_8TeV-pythia6-tauola/Summer12_DR53X-PU_S10_START53_V7A-v1/AODSIM/PAT_CMG_V5_16_0_1377467578/HTT_24Jul_newTES_manzoni_Up_Jobs'
p499
ssS'CreateJobDirectory'
p500
(dp501
S'JobDir'
p502
S'SUSYBBHToTauTau_M-450_8TeV-pythia6-tauola/Summer12_DR53X-PU_S10_START53_V7A-v1/AODSIM/PAT_CMG_V5_16_0_1377467578'
p503
sS'PWD'
p504
S'/afs/cern.ch/user/m/manzoni/summer13/CMGTools/CMSSW_5_3_9/src/CMGTools/H2TauTau/prod/25aug_corrMC/up/mc'
p505
ssS'CleanJobFiles'
p506
(dp507
S'Compressed'
p508
(dp509
S'CompressedFiles'
p510
(lp511
ssS'Cleaned'
p512
(dp513
S'CleanedFiles'
p514
(lp515
g475
ag479
aS'SUSYBBHToTauTau_M-450_8TeV-pythia6-tauola/Summer12_DR53X-PU_S10_START53_V7A-v1/AODSIM/PAT_CMG_V5_16_0_1377467578/diTau_fullsel_tree_CMG.root'
p516
aS'SUSYBBHToTauTau_M-450_8TeV-pythia6-tauola/Summer12_DR53X-PU_S10_START53_V7A-v1/AODSIM/PAT_CMG_V5_16_0_1377467578/source_cfg.pyc'
p517
aS'SUSYBBHToTauTau_M-450_8TeV-pythia6-tauola/Summer12_DR53X-PU_S10_START53_V7A-v1/AODSIM/PAT_CMG_V5_16_0_1377467578/Expandedfull_cfg.pyc'
p518
asssS'CheckForMask'
p519
(dp520
g3
g152
sg111
I01
ss.