(dp0
S'CheckJobStatus'
p1
(dp2
S'Report'
p3
(dp4
S'Files'
p5
(dp6
S'/store/cmst3/user/manzoni/CMG/WH_ZH_TTH_HToTauTau_M-120_8TeV-pythia6-tauola/Summer12_DR53X-PU_S10_START53_V7A-v1/AODSIM/PAT_CMG_V5_16_0/HTT_24Jul_newTES_manzoni_Up/diTau_fullsel_tree_CMG_3.root'
p7
(I01
I3211
tp8
sS'/store/cmst3/user/manzoni/CMG/WH_ZH_TTH_HToTauTau_M-120_8TeV-pythia6-tauola/Summer12_DR53X-PU_S10_START53_V7A-v1/AODSIM/PAT_CMG_V5_16_0/HTT_24Jul_newTES_manzoni_Up/diTau_fullsel_tree_CMG_5.root'
p9
(I01
I1479
tp10
sS'/store/cmst3/user/manzoni/CMG/WH_ZH_TTH_HToTauTau_M-120_8TeV-pythia6-tauola/Summer12_DR53X-PU_S10_START53_V7A-v1/AODSIM/PAT_CMG_V5_16_0/HTT_24Jul_newTES_manzoni_Up/diTau_fullsel_tree_CMG_2.root'
p11
(I01
I3680
tp12
sS'/store/cmst3/user/manzoni/CMG/WH_ZH_TTH_HToTauTau_M-120_8TeV-pythia6-tauola/Summer12_DR53X-PU_S10_START53_V7A-v1/AODSIM/PAT_CMG_V5_16_0/HTT_24Jul_newTES_manzoni_Up/diTau_fullsel_tree_CMG_4.root'
p13
(I01
I3483
tp14
sS'/store/cmst3/user/manzoni/CMG/WH_ZH_TTH_HToTauTau_M-120_8TeV-pythia6-tauola/Summer12_DR53X-PU_S10_START53_V7A-v1/AODSIM/PAT_CMG_V5_16_0/HTT_24Jul_newTES_manzoni_Up/diTau_fullsel_tree_CMG_1.root'
p15
(I01
I2710
tp16
ssS'Name'
p17
S'/WH_ZH_TTH_HToTauTau_M-120_8TeV-pythia6-tauola/Summer12_DR53X-PU_S10_START53_V7A-v1/AODSIM/PAT_CMG_V5_16_0/HTT_24Jul_newTES_manzoni_Up'
p18
sS'Topdir'
p19
S'/eos/cms/store/cmst3/user/manzoni/CMG'
p20
sS'RunList'
p21
(lp22
sS'PathList'
p23
(lp24
S'/store/cmst3/user/manzoni/CMG/WH_ZH_TTH_HToTauTau_M-120_8TeV-pythia6-tauola/Summer12_DR53X-PU_S10_START53_V7A-v1/AODSIM/PAT_CMG_V5_16_0/HTT_24Jul_newTES_manzoni_Up'
p25
asS'AlgoList'
p26
(lp27
sS'PrimaryDatasetFraction'
p28
F0.073331252014179824
sS'FilesGood'
p29
I5
sS'PrimaryDatasetEntries'
p30
I198592
sS'data'
p31
(dp32
sS'FilesBad'
p33
I0
sS'ReportVersion'
p34
I3
sS'Status'
p35
S'VALID'
p36
sS'MaxRun'
p37
I-1
sS'PhysicsGroup'
p38
S'CMG'
p39
sS'MinRun'
p40
I-1
sS'StageHost'
p41
S'castorcms'
p42
sS'FilesCount'
p43
I5
sS'FilesEntries'
p44
I14563
sS'TierList'
p45
(lp46
sS'DateCreated'
p47
S'1377472798'
p48
sS'CreatedBy'
p49
S'manzoni'
p50
sS'ValidDuplicates'
p51
(dp52
sS'PrimaryDataset'
p53
S'/WH_ZH_TTH_HToTauTau_M-120_8TeV-pythia6-tauola/Summer12_DR53X-PU_S10_START53_V7A-v1/AODSIM'
p54
sS'BadJobs'
p55
(lp56
ssS'MaskPresent'
p57
I01
sS'LSFJobStatusCheck'
p58
(dp59
S'WH_ZH_TTH_HToTauTau_M-120_8TeV-pythia6-tauola/Summer12_DR53X-PU_S10_START53_V7A-v1/AODSIM/PAT_CMG_V5_16_0_1377467556/HTT_24Jul_newTES_manzoni_Up_Jobs/Job_1'
p60
g36
sS'WH_ZH_TTH_HToTauTau_M-120_8TeV-pythia6-tauola/Summer12_DR53X-PU_S10_START53_V7A-v1/AODSIM/PAT_CMG_V5_16_0_1377467556/HTT_24Jul_newTES_manzoni_Up_Jobs/Job_2'
p61
g36
sS'WH_ZH_TTH_HToTauTau_M-120_8TeV-pythia6-tauola/Summer12_DR53X-PU_S10_START53_V7A-v1/AODSIM/PAT_CMG_V5_16_0_1377467556/HTT_24Jul_newTES_manzoni_Up_Jobs/Job_3'
p62
g36
sS'WH_ZH_TTH_HToTauTau_M-120_8TeV-pythia6-tauola/Summer12_DR53X-PU_S10_START53_V7A-v1/AODSIM/PAT_CMG_V5_16_0_1377467556/HTT_24Jul_newTES_manzoni_Up_Jobs/Job_4'
p63
g36
sS'WH_ZH_TTH_HToTauTau_M-120_8TeV-pythia6-tauola/Summer12_DR53X-PU_S10_START53_V7A-v1/AODSIM/PAT_CMG_V5_16_0_1377467556/HTT_24Jul_newTES_manzoni_Up_Jobs/Job_5'
p64
g36
sssS'CheckDatasetExists'
p65
(dp66
S'Dataset'
p67
S'/WH_ZH_TTH_HToTauTau_M-120_8TeV-pythia6-tauola/Summer12_DR53X-PU_S10_START53_V7A-v1/AODSIM/PAT_CMG_V5_16_0'
p68
ssS'GenerateMask'
p69
(dp70
g3
(dp71
VPathList
p72
(lp73
V/store/cmst3/group/cmgtools/CMG/WH_ZH_TTH_HToTauTau_M-120_8TeV-pythia6-tauola/Summer12_DR53X-PU_S10_START53_V7A-v1/AODSIM/PAT_CMG_V5_16_0
p74
asVStageHost
p75
Vcastorcms
p76
sVPrimaryDatasetFraction
p77
F1.0
sVFilesGood
p78
I22
sVPrimaryDatasetEntries
p79
I198592
sVReportVersion
p80
I3
sVFiles
p81
(dp82
V/store/cmst3/group/cmgtools/CMG/WH_ZH_TTH_HToTauTau_M-120_8TeV-pythia6-tauola/Summer12_DR53X-PU_S10_START53_V7A-v1/AODSIM/PAT_CMG_V5_16_0/cmgTuple_15_1_Zut.root
p83
(lp84
I01
aI10000
asV/store/cmst3/group/cmgtools/CMG/WH_ZH_TTH_HToTauTau_M-120_8TeV-pythia6-tauola/Summer12_DR53X-PU_S10_START53_V7A-v1/AODSIM/PAT_CMG_V5_16_0/cmgTuple_10_1_7Z6.root
p85
(lp86
I01
aI1248
asV/store/cmst3/group/cmgtools/CMG/WH_ZH_TTH_HToTauTau_M-120_8TeV-pythia6-tauola/Summer12_DR53X-PU_S10_START53_V7A-v1/AODSIM/PAT_CMG_V5_16_0/cmgTuple_5_1_EMI.root
p87
(lp88
I01
aI10000
asV/store/cmst3/group/cmgtools/CMG/WH_ZH_TTH_HToTauTau_M-120_8TeV-pythia6-tauola/Summer12_DR53X-PU_S10_START53_V7A-v1/AODSIM/PAT_CMG_V5_16_0/cmgTuple_22_1_U4X.root
p89
(lp90
I01
aI3008
asV/store/cmst3/group/cmgtools/CMG/WH_ZH_TTH_HToTauTau_M-120_8TeV-pythia6-tauola/Summer12_DR53X-PU_S10_START53_V7A-v1/AODSIM/PAT_CMG_V5_16_0/cmgTuple_8_1_a1S.root
p91
(lp92
I01
aI10000
asV/store/cmst3/group/cmgtools/CMG/WH_ZH_TTH_HToTauTau_M-120_8TeV-pythia6-tauola/Summer12_DR53X-PU_S10_START53_V7A-v1/AODSIM/PAT_CMG_V5_16_0/cmgTuple_14_1_yCR.root
p93
(lp94
I01
aI10000
asV/store/cmst3/group/cmgtools/CMG/WH_ZH_TTH_HToTauTau_M-120_8TeV-pythia6-tauola/Summer12_DR53X-PU_S10_START53_V7A-v1/AODSIM/PAT_CMG_V5_16_0/cmgTuple_19_1_Qrx.root
p95
(lp96
I01
aI10000
asV/store/cmst3/group/cmgtools/CMG/WH_ZH_TTH_HToTauTau_M-120_8TeV-pythia6-tauola/Summer12_DR53X-PU_S10_START53_V7A-v1/AODSIM/PAT_CMG_V5_16_0/cmgTuple_16_1_1vt.root
p97
(lp98
I01
aI10000
asV/store/cmst3/group/cmgtools/CMG/WH_ZH_TTH_HToTauTau_M-120_8TeV-pythia6-tauola/Summer12_DR53X-PU_S10_START53_V7A-v1/AODSIM/PAT_CMG_V5_16_0/cmgTuple_1_1_22w.root
p99
(lp100
I01
aI10000
asV/store/cmst3/group/cmgtools/CMG/WH_ZH_TTH_HToTauTau_M-120_8TeV-pythia6-tauola/Summer12_DR53X-PU_S10_START53_V7A-v1/AODSIM/PAT_CMG_V5_16_0/cmgTuple_12_1_Bia.root
p101
(lp102
I01
aI10000
asV/store/cmst3/group/cmgtools/CMG/WH_ZH_TTH_HToTauTau_M-120_8TeV-pythia6-tauola/Summer12_DR53X-PU_S10_START53_V7A-v1/AODSIM/PAT_CMG_V5_16_0/cmgTuple_18_1_ZH7.root
p103
(lp104
I01
aI10000
asV/store/cmst3/group/cmgtools/CMG/WH_ZH_TTH_HToTauTau_M-120_8TeV-pythia6-tauola/Summer12_DR53X-PU_S10_START53_V7A-v1/AODSIM/PAT_CMG_V5_16_0/cmgTuple_9_1_nrf.root
p105
(lp106
I01
aI10000
asV/store/cmst3/group/cmgtools/CMG/WH_ZH_TTH_HToTauTau_M-120_8TeV-pythia6-tauola/Summer12_DR53X-PU_S10_START53_V7A-v1/AODSIM/PAT_CMG_V5_16_0/cmgTuple_13_1_Vj1.root
p107
(lp108
I01
aI10000
asV/store/cmst3/group/cmgtools/CMG/WH_ZH_TTH_HToTauTau_M-120_8TeV-pythia6-tauola/Summer12_DR53X-PU_S10_START53_V7A-v1/AODSIM/PAT_CMG_V5_16_0/cmgTuple_7_1_ALF.root
p109
(lp110
I01
aI10000
asV/store/cmst3/group/cmgtools/CMG/WH_ZH_TTH_HToTauTau_M-120_8TeV-pythia6-tauola/Summer12_DR53X-PU_S10_START53_V7A-v1/AODSIM/PAT_CMG_V5_16_0/cmgTuple_4_1_EFZ.root
p111
(lp112
I01
aI10000
asV/store/cmst3/group/cmgtools/CMG/WH_ZH_TTH_HToTauTau_M-120_8TeV-pythia6-tauola/Summer12_DR53X-PU_S10_START53_V7A-v1/AODSIM/PAT_CMG_V5_16_0/cmgTuple_21_1_WMw.root
p113
(lp114
I01
aI10000
asV/store/cmst3/group/cmgtools/CMG/WH_ZH_TTH_HToTauTau_M-120_8TeV-pythia6-tauola/Summer12_DR53X-PU_S10_START53_V7A-v1/AODSIM/PAT_CMG_V5_16_0/cmgTuple_17_1_ESI.root
p115
(lp116
I01
aI10000
asV/store/cmst3/group/cmgtools/CMG/WH_ZH_TTH_HToTauTau_M-120_8TeV-pythia6-tauola/Summer12_DR53X-PU_S10_START53_V7A-v1/AODSIM/PAT_CMG_V5_16_0/cmgTuple_3_1_HHq.root
p117
(lp118
I01
aI8304
asV/store/cmst3/group/cmgtools/CMG/WH_ZH_TTH_HToTauTau_M-120_8TeV-pythia6-tauola/Summer12_DR53X-PU_S10_START53_V7A-v1/AODSIM/PAT_CMG_V5_16_0/cmgTuple_20_1_HYG.root
p119
(lp120
I01
aI10000
asV/store/cmst3/group/cmgtools/CMG/WH_ZH_TTH_HToTauTau_M-120_8TeV-pythia6-tauola/Summer12_DR53X-PU_S10_START53_V7A-v1/AODSIM/PAT_CMG_V5_16_0/cmgTuple_6_1_Q9H.root
p121
(lp122
I01
aI10000
asV/store/cmst3/group/cmgtools/CMG/WH_ZH_TTH_HToTauTau_M-120_8TeV-pythia6-tauola/Summer12_DR53X-PU_S10_START53_V7A-v1/AODSIM/PAT_CMG_V5_16_0/cmgTuple_2_1_VWd.root
p123
(lp124
I01
aI10000
asV/store/cmst3/group/cmgtools/CMG/WH_ZH_TTH_HToTauTau_M-120_8TeV-pythia6-tauola/Summer12_DR53X-PU_S10_START53_V7A-v1/AODSIM/PAT_CMG_V5_16_0/cmgTuple_11_1_9ik.root
p125
(lp126
I01
aI6032
assVPhysicsGroup
p127
VCMG
p128
sVFilesCount
p129
I22
sVFilesEntries
p130
I198592
sVRunList
p131
(lp132
sVValidDuplicates
p133
(dp134
sVPrimaryDataset
p135
V/WH_ZH_TTH_HToTauTau_M-120_8TeV-pythia6-tauola/Summer12_DR53X-PU_S10_START53_V7A-v1/AODSIM
p136
sVStatus
p137
VVALID
p138
sVName
p139
V/WH_ZH_TTH_HToTauTau_M-120_8TeV-pythia6-tauola/Summer12_DR53X-PU_S10_START53_V7A-v1/AODSIM/PAT_CMG_V5_16_0
p140
sVTopdir
p141
V/eos/cms/store/cmst3/group/cmgtools/CMG
p142
sVdata
p143
(dp144
sVFilesBad
p145
I0
sVMinRun
p146
I-1
sVAlgoList
p147
(lp148
sVTierList
p149
(lp150
sVDateCreated
p151
V1370942742
p152
sVCreatedBy
p153
Vcmgtools_group
p154
sVMaxRun
p155
I-1
sVBadJobs
p156
(lp157
ssg57
I01
ssS'MonitorJobs'
p158
(dp159
S'LSFJobStatus'
p160
(dp161
g60
S'WH_ZH_TTH_HToTauTau_M-120_8TeV-pythia6-tauola/Summer12_DR53X-PU_S10_START53_V7A-v1/AODSIM/PAT_CMG_V5_16_0_1377467556/HTT_24Jul_newTES_manzoni_Up_Jobs/Job_1/LSFJOB_440972412/STDOUT.gz'
p162
sg61
S'WH_ZH_TTH_HToTauTau_M-120_8TeV-pythia6-tauola/Summer12_DR53X-PU_S10_START53_V7A-v1/AODSIM/PAT_CMG_V5_16_0_1377467556/HTT_24Jul_newTES_manzoni_Up_Jobs/Job_2/LSFJOB_440972484/STDOUT.gz'
p163
sg62
S'WH_ZH_TTH_HToTauTau_M-120_8TeV-pythia6-tauola/Summer12_DR53X-PU_S10_START53_V7A-v1/AODSIM/PAT_CMG_V5_16_0_1377467556/HTT_24Jul_newTES_manzoni_Up_Jobs/Job_3/LSFJOB_440972581/STDOUT.gz'
p164
sg63
S'WH_ZH_TTH_HToTauTau_M-120_8TeV-pythia6-tauola/Summer12_DR53X-PU_S10_START53_V7A-v1/AODSIM/PAT_CMG_V5_16_0_1377467556/HTT_24Jul_newTES_manzoni_Up_Jobs/Job_4/LSFJOB_440972679/STDOUT.gz'
p165
sg64
S'WH_ZH_TTH_HToTauTau_M-120_8TeV-pythia6-tauola/Summer12_DR53X-PU_S10_START53_V7A-v1/AODSIM/PAT_CMG_V5_16_0_1377467556/HTT_24Jul_newTES_manzoni_Up_Jobs/Job_5/LSFJOB_440972750/STDOUT.gz'
p166
ssS'LSFJobIDs'
p167
(dp168
g60
S'440972412'
p169
sg61
S'440972484'
p170
sg62
S'440972581'
p171
sg63
S'440972679'
p172
sg64
S'440972750'
p173
sssS'FindOnCastor'
p174
(dp175
g19
S'/eos/cms/store/cmst3/group/cmgtools/CMG'
p176
sS'Directory'
p177
S'/eos/cms/store/cmst3/group/cmgtools/CMG/WH_ZH_TTH_HToTauTau_M-120_8TeV-pythia6-tauola/Summer12_DR53X-PU_S10_START53_V7A-v1/AODSIM/PAT_CMG_V5_16_0'
p178
ssS'CheckConfig'
p179
(dp180
g35
g36
ssS'FullCFG'
p181
(dp182
S'FullCFG'
p183
S'WH_ZH_TTH_HToTauTau_M-120_8TeV-pythia6-tauola/Summer12_DR53X-PU_S10_START53_V7A-v1/AODSIM/PAT_CMG_V5_16_0_1377467556/full_cfg.py'
p184
ssS'WriteJobReport'
p185
(dp186
S'SummaryFile'
p187
S'WH_ZH_TTH_HToTauTau_M-120_8TeV-pythia6-tauola/Summer12_DR53X-PU_S10_START53_V7A-v1/AODSIM/PAT_CMG_V5_16_0_1377467556/resubmit.sh'
p188
ssS'ExpandConfig'
p189
(dp190
S'ExpandedFullCFG'
p191
S'WH_ZH_TTH_HToTauTau_M-120_8TeV-pythia6-tauola/Summer12_DR53X-PU_S10_START53_V7A-v1/AODSIM/PAT_CMG_V5_16_0_1377467556/Expandedfull_cfg.py'
p192
ssS'RunTestEvents'
p193
(dp194
g35
g36
sS'TestCFG'
p195
S'WH_ZH_TTH_HToTauTau_M-120_8TeV-pythia6-tauola/Summer12_DR53X-PU_S10_START53_V7A-v1/AODSIM/PAT_CMG_V5_16_0_1377467556/test_cfg.py'
p196
ssS'SourceCFG'
p197
(dp198
S'SourceCFG'
p199
S'WH_ZH_TTH_HToTauTau_M-120_8TeV-pythia6-tauola/Summer12_DR53X-PU_S10_START53_V7A-v1/AODSIM/PAT_CMG_V5_16_0_1377467556/source_cfg.py'
p200
ssS'CheckForWrite'
p201
(dp202
g177
g178
sS'WriteAccess'
p203
I01
ssS'WriteToDatasets'
p204
(dp205
S'Added'
p206
I00
sg17
S'/WH_ZH_TTH_HToTauTau_M-120_8TeV-pythia6-tauola/Summer12_DR53X-PU_S10_START53_V7A-v1/AODSIM/PAT_CMG_V5_16_0/HTT_24Jul_newTES_manzoni_Up'
p207
sS'User'
p208
g50
ssS'RunCMSBatch'
p209
(dp210
S'BatchUser'
p211
g50
sS'SampleOutputDir'
p212
S'/store/cmst3/user/manzoni/CMG/WH_ZH_TTH_HToTauTau_M-120_8TeV-pythia6-tauola/Summer12_DR53X-PU_S10_START53_V7A-v1/AODSIM/PAT_CMG_V5_16_0/HTT_24Jul_newTES_manzoni_Up'
p213
sS'SampleDataset'
p214
g18
sS'LSFJobsTopDir'
p215
S'WH_ZH_TTH_HToTauTau_M-120_8TeV-pythia6-tauola/Summer12_DR53X-PU_S10_START53_V7A-v1/AODSIM/PAT_CMG_V5_16_0_1377467556/HTT_24Jul_newTES_manzoni_Up_Jobs'
p216
ssS'CreateJobDirectory'
p217
(dp218
S'JobDir'
p219
S'WH_ZH_TTH_HToTauTau_M-120_8TeV-pythia6-tauola/Summer12_DR53X-PU_S10_START53_V7A-v1/AODSIM/PAT_CMG_V5_16_0_1377467556'
p220
sS'PWD'
p221
S'/afs/cern.ch/user/m/manzoni/summer13/CMGTools/CMSSW_5_3_9/src/CMGTools/H2TauTau/prod/25aug_corrMC/up/mc'
p222
ssS'CleanJobFiles'
p223
(dp224
S'Compressed'
p225
(dp226
S'CompressedFiles'
p227
(lp228
ssS'Cleaned'
p229
(dp230
S'CleanedFiles'
p231
(lp232
g192
ag196
aS'WH_ZH_TTH_HToTauTau_M-120_8TeV-pythia6-tauola/Summer12_DR53X-PU_S10_START53_V7A-v1/AODSIM/PAT_CMG_V5_16_0_1377467556/diTau_fullsel_tree_CMG.root'
p233
aS'WH_ZH_TTH_HToTauTau_M-120_8TeV-pythia6-tauola/Summer12_DR53X-PU_S10_START53_V7A-v1/AODSIM/PAT_CMG_V5_16_0_1377467556/source_cfg.pyc'
p234
aS'WH_ZH_TTH_HToTauTau_M-120_8TeV-pythia6-tauola/Summer12_DR53X-PU_S10_START53_V7A-v1/AODSIM/PAT_CMG_V5_16_0_1377467556/Expandedfull_cfg.pyc'
p235
asssS'CheckForMask'
p236
(dp237
g3
g71
sg57
I01
ss.