(dp0
S'CheckJobStatus'
p1
(dp2
S'Report'
p3
(dp4
S'Files'
p5
(dp6
S'/store/cmst3/user/manzoni/CMG/VBF_HToTauTau_M-155_8TeV-powheg-pythia6/Summer12_DR53X-PU_S10_START53_V7A-v1/AODSIM/PAT_CMG_V5_16_0/HTT_24Jul_newTES_manzoni_Up/diTau_fullsel_tree_CMG_4.root'
p7
(I01
I3675
tp8
sS'/store/cmst3/user/manzoni/CMG/VBF_HToTauTau_M-155_8TeV-powheg-pythia6/Summer12_DR53X-PU_S10_START53_V7A-v1/AODSIM/PAT_CMG_V5_16_0/HTT_24Jul_newTES_manzoni_Up/diTau_fullsel_tree_CMG_3.root'
p9
(I01
I3798
tp10
sS'/store/cmst3/user/manzoni/CMG/VBF_HToTauTau_M-155_8TeV-powheg-pythia6/Summer12_DR53X-PU_S10_START53_V7A-v1/AODSIM/PAT_CMG_V5_16_0/HTT_24Jul_newTES_manzoni_Up/diTau_fullsel_tree_CMG_11.root'
p11
(I01
I758
tp12
sS'/store/cmst3/user/manzoni/CMG/VBF_HToTauTau_M-155_8TeV-powheg-pythia6/Summer12_DR53X-PU_S10_START53_V7A-v1/AODSIM/PAT_CMG_V5_16_0/HTT_24Jul_newTES_manzoni_Up/diTau_fullsel_tree_CMG_9.root'
p13
(I01
I2981
tp14
sS'/store/cmst3/user/manzoni/CMG/VBF_HToTauTau_M-155_8TeV-powheg-pythia6/Summer12_DR53X-PU_S10_START53_V7A-v1/AODSIM/PAT_CMG_V5_16_0/HTT_24Jul_newTES_manzoni_Up/diTau_fullsel_tree_CMG_6.root'
p15
(I01
I3825
tp16
sS'/store/cmst3/user/manzoni/CMG/VBF_HToTauTau_M-155_8TeV-powheg-pythia6/Summer12_DR53X-PU_S10_START53_V7A-v1/AODSIM/PAT_CMG_V5_16_0/HTT_24Jul_newTES_manzoni_Up/diTau_fullsel_tree_CMG_5.root'
p17
(I01
I3613
tp18
sS'/store/cmst3/user/manzoni/CMG/VBF_HToTauTau_M-155_8TeV-powheg-pythia6/Summer12_DR53X-PU_S10_START53_V7A-v1/AODSIM/PAT_CMG_V5_16_0/HTT_24Jul_newTES_manzoni_Up/diTau_fullsel_tree_CMG_10.root'
p19
(I01
I3792
tp20
sS'/store/cmst3/user/manzoni/CMG/VBF_HToTauTau_M-155_8TeV-powheg-pythia6/Summer12_DR53X-PU_S10_START53_V7A-v1/AODSIM/PAT_CMG_V5_16_0/HTT_24Jul_newTES_manzoni_Up/diTau_fullsel_tree_CMG_2.root'
p21
(I01
I3605
tp22
sS'/store/cmst3/user/manzoni/CMG/VBF_HToTauTau_M-155_8TeV-powheg-pythia6/Summer12_DR53X-PU_S10_START53_V7A-v1/AODSIM/PAT_CMG_V5_16_0/HTT_24Jul_newTES_manzoni_Up/diTau_fullsel_tree_CMG_8.root'
p23
(I01
I3718
tp24
sS'/store/cmst3/user/manzoni/CMG/VBF_HToTauTau_M-155_8TeV-powheg-pythia6/Summer12_DR53X-PU_S10_START53_V7A-v1/AODSIM/PAT_CMG_V5_16_0/HTT_24Jul_newTES_manzoni_Up/diTau_fullsel_tree_CMG_7.root'
p25
(I01
I3718
tp26
sS'/store/cmst3/user/manzoni/CMG/VBF_HToTauTau_M-155_8TeV-powheg-pythia6/Summer12_DR53X-PU_S10_START53_V7A-v1/AODSIM/PAT_CMG_V5_16_0/HTT_24Jul_newTES_manzoni_Up/diTau_fullsel_tree_CMG_1.root'
p27
(I01
I3715
tp28
ssS'Name'
p29
S'/VBF_HToTauTau_M-155_8TeV-powheg-pythia6/Summer12_DR53X-PU_S10_START53_V7A-v1/AODSIM/PAT_CMG_V5_16_0/HTT_24Jul_newTES_manzoni_Up'
p30
sS'Topdir'
p31
S'/eos/cms/store/cmst3/user/manzoni/CMG'
p32
sS'RunList'
p33
(lp34
sS'PathList'
p35
(lp36
S'/store/cmst3/user/manzoni/CMG/VBF_HToTauTau_M-155_8TeV-powheg-pythia6/Summer12_DR53X-PU_S10_START53_V7A-v1/AODSIM/PAT_CMG_V5_16_0/HTT_24Jul_newTES_manzoni_Up'
p37
asS'AlgoList'
p38
(lp39
sS'PrimaryDatasetFraction'
p40
F0.074475390766557154
sS'FilesGood'
p41
I11
sS'PrimaryDatasetEntries'
p42
I499467
sS'data'
p43
(dp44
sS'FilesBad'
p45
I0
sS'ReportVersion'
p46
I3
sS'Status'
p47
S'VALID'
p48
sS'MaxRun'
p49
I-1
sS'PhysicsGroup'
p50
S'CMG'
p51
sS'MinRun'
p52
I-1
sS'StageHost'
p53
S'castorcms'
p54
sS'FilesCount'
p55
I11
sS'FilesEntries'
p56
I37198
sS'TierList'
p57
(lp58
sS'DateCreated'
p59
S'1377474266'
p60
sS'CreatedBy'
p61
S'manzoni'
p62
sS'ValidDuplicates'
p63
(dp64
sS'PrimaryDataset'
p65
S'/VBF_HToTauTau_M-155_8TeV-powheg-pythia6/Summer12_DR53X-PU_S10_START53_V7A-v1/AODSIM'
p66
sS'BadJobs'
p67
(lp68
ssS'MaskPresent'
p69
I01
sS'LSFJobStatusCheck'
p70
(dp71
S'VBF_HToTauTau_M-155_8TeV-powheg-pythia6/Summer12_DR53X-PU_S10_START53_V7A-v1/AODSIM/PAT_CMG_V5_16_0_1377467464/HTT_24Jul_newTES_manzoni_Up_Jobs/Job_11'
p72
g48
sS'VBF_HToTauTau_M-155_8TeV-powheg-pythia6/Summer12_DR53X-PU_S10_START53_V7A-v1/AODSIM/PAT_CMG_V5_16_0_1377467464/HTT_24Jul_newTES_manzoni_Up_Jobs/Job_3'
p73
g48
sS'VBF_HToTauTau_M-155_8TeV-powheg-pythia6/Summer12_DR53X-PU_S10_START53_V7A-v1/AODSIM/PAT_CMG_V5_16_0_1377467464/HTT_24Jul_newTES_manzoni_Up_Jobs/Job_2'
p74
g48
sS'VBF_HToTauTau_M-155_8TeV-powheg-pythia6/Summer12_DR53X-PU_S10_START53_V7A-v1/AODSIM/PAT_CMG_V5_16_0_1377467464/HTT_24Jul_newTES_manzoni_Up_Jobs/Job_1'
p75
g48
sS'VBF_HToTauTau_M-155_8TeV-powheg-pythia6/Summer12_DR53X-PU_S10_START53_V7A-v1/AODSIM/PAT_CMG_V5_16_0_1377467464/HTT_24Jul_newTES_manzoni_Up_Jobs/Job_10'
p76
g48
sS'VBF_HToTauTau_M-155_8TeV-powheg-pythia6/Summer12_DR53X-PU_S10_START53_V7A-v1/AODSIM/PAT_CMG_V5_16_0_1377467464/HTT_24Jul_newTES_manzoni_Up_Jobs/Job_7'
p77
g48
sS'VBF_HToTauTau_M-155_8TeV-powheg-pythia6/Summer12_DR53X-PU_S10_START53_V7A-v1/AODSIM/PAT_CMG_V5_16_0_1377467464/HTT_24Jul_newTES_manzoni_Up_Jobs/Job_6'
p78
g48
sS'VBF_HToTauTau_M-155_8TeV-powheg-pythia6/Summer12_DR53X-PU_S10_START53_V7A-v1/AODSIM/PAT_CMG_V5_16_0_1377467464/HTT_24Jul_newTES_manzoni_Up_Jobs/Job_5'
p79
g48
sS'VBF_HToTauTau_M-155_8TeV-powheg-pythia6/Summer12_DR53X-PU_S10_START53_V7A-v1/AODSIM/PAT_CMG_V5_16_0_1377467464/HTT_24Jul_newTES_manzoni_Up_Jobs/Job_4'
p80
g48
sS'VBF_HToTauTau_M-155_8TeV-powheg-pythia6/Summer12_DR53X-PU_S10_START53_V7A-v1/AODSIM/PAT_CMG_V5_16_0_1377467464/HTT_24Jul_newTES_manzoni_Up_Jobs/Job_9'
p81
g48
sS'VBF_HToTauTau_M-155_8TeV-powheg-pythia6/Summer12_DR53X-PU_S10_START53_V7A-v1/AODSIM/PAT_CMG_V5_16_0_1377467464/HTT_24Jul_newTES_manzoni_Up_Jobs/Job_8'
p82
g48
sssS'CheckDatasetExists'
p83
(dp84
S'Dataset'
p85
S'/VBF_HToTauTau_M-155_8TeV-powheg-pythia6/Summer12_DR53X-PU_S10_START53_V7A-v1/AODSIM/PAT_CMG_V5_16_0'
p86
ssS'GenerateMask'
p87
(dp88
g3
(dp89
VPathList
p90
(lp91
V/store/cmst3/group/cmgtools/CMG/VBF_HToTauTau_M-155_8TeV-powheg-pythia6/Summer12_DR53X-PU_S10_START53_V7A-v1/AODSIM/PAT_CMG_V5_16_0
p92
asVStageHost
p93
Vcastorcms
p94
sVPrimaryDatasetFraction
p95
F1.0
sVFilesGood
p96
I51
sVPrimaryDatasetEntries
p97
I499467
sVReportVersion
p98
I3
sVFiles
p99
(dp100
V/store/cmst3/group/cmgtools/CMG/VBF_HToTauTau_M-155_8TeV-powheg-pythia6/Summer12_DR53X-PU_S10_START53_V7A-v1/AODSIM/PAT_CMG_V5_16_0/cmgTuple_49_1_CKi.root
p101
(lp102
I01
aI10000
asV/store/cmst3/group/cmgtools/CMG/VBF_HToTauTau_M-155_8TeV-powheg-pythia6/Summer12_DR53X-PU_S10_START53_V7A-v1/AODSIM/PAT_CMG_V5_16_0/cmgTuple_11_1_pnO.root
p103
(lp104
I01
aI10000
asV/store/cmst3/group/cmgtools/CMG/VBF_HToTauTau_M-155_8TeV-powheg-pythia6/Summer12_DR53X-PU_S10_START53_V7A-v1/AODSIM/PAT_CMG_V5_16_0/cmgTuple_15_1_Nnx.root
p105
(lp106
I01
aI10000
asV/store/cmst3/group/cmgtools/CMG/VBF_HToTauTau_M-155_8TeV-powheg-pythia6/Summer12_DR53X-PU_S10_START53_V7A-v1/AODSIM/PAT_CMG_V5_16_0/cmgTuple_32_1_cTK.root
p107
(lp108
I01
aI10000
asV/store/cmst3/group/cmgtools/CMG/VBF_HToTauTau_M-155_8TeV-powheg-pythia6/Summer12_DR53X-PU_S10_START53_V7A-v1/AODSIM/PAT_CMG_V5_16_0/cmgTuple_26_1_VGp.root
p109
(lp110
I01
aI10000
asV/store/cmst3/group/cmgtools/CMG/VBF_HToTauTau_M-155_8TeV-powheg-pythia6/Summer12_DR53X-PU_S10_START53_V7A-v1/AODSIM/PAT_CMG_V5_16_0/cmgTuple_29_1_AGu.root
p111
(lp112
I01
aI10000
asV/store/cmst3/group/cmgtools/CMG/VBF_HToTauTau_M-155_8TeV-powheg-pythia6/Summer12_DR53X-PU_S10_START53_V7A-v1/AODSIM/PAT_CMG_V5_16_0/cmgTuple_31_1_Wiq.root
p113
(lp114
I01
aI10000
asV/store/cmst3/group/cmgtools/CMG/VBF_HToTauTau_M-155_8TeV-powheg-pythia6/Summer12_DR53X-PU_S10_START53_V7A-v1/AODSIM/PAT_CMG_V5_16_0/cmgTuple_30_1_94b.root
p115
(lp116
I01
aI10000
asV/store/cmst3/group/cmgtools/CMG/VBF_HToTauTau_M-155_8TeV-powheg-pythia6/Summer12_DR53X-PU_S10_START53_V7A-v1/AODSIM/PAT_CMG_V5_16_0/cmgTuple_13_1_uQl.root
p117
(lp118
I01
aI10000
asV/store/cmst3/group/cmgtools/CMG/VBF_HToTauTau_M-155_8TeV-powheg-pythia6/Summer12_DR53X-PU_S10_START53_V7A-v1/AODSIM/PAT_CMG_V5_16_0/cmgTuple_43_1_27g.root
p119
(lp120
I01
aI10000
asV/store/cmst3/group/cmgtools/CMG/VBF_HToTauTau_M-155_8TeV-powheg-pythia6/Summer12_DR53X-PU_S10_START53_V7A-v1/AODSIM/PAT_CMG_V5_16_0/cmgTuple_6_1_yut.root
p121
(lp122
I01
aI10000
asV/store/cmst3/group/cmgtools/CMG/VBF_HToTauTau_M-155_8TeV-powheg-pythia6/Summer12_DR53X-PU_S10_START53_V7A-v1/AODSIM/PAT_CMG_V5_16_0/cmgTuple_18_1_qg5.root
p123
(lp124
I01
aI10000
asV/store/cmst3/group/cmgtools/CMG/VBF_HToTauTau_M-155_8TeV-powheg-pythia6/Summer12_DR53X-PU_S10_START53_V7A-v1/AODSIM/PAT_CMG_V5_16_0/cmgTuple_35_1_yuH.root
p125
(lp126
I01
aI10000
asV/store/cmst3/group/cmgtools/CMG/VBF_HToTauTau_M-155_8TeV-powheg-pythia6/Summer12_DR53X-PU_S10_START53_V7A-v1/AODSIM/PAT_CMG_V5_16_0/cmgTuple_14_1_zRn.root
p127
(lp128
I01
aI10000
asV/store/cmst3/group/cmgtools/CMG/VBF_HToTauTau_M-155_8TeV-powheg-pythia6/Summer12_DR53X-PU_S10_START53_V7A-v1/AODSIM/PAT_CMG_V5_16_0/cmgTuple_33_1_6Qd.root
p129
(lp130
I01
aI10000
asV/store/cmst3/group/cmgtools/CMG/VBF_HToTauTau_M-155_8TeV-powheg-pythia6/Summer12_DR53X-PU_S10_START53_V7A-v1/AODSIM/PAT_CMG_V5_16_0/cmgTuple_5_1_Ljn.root
p131
(lp132
I01
aI10000
asV/store/cmst3/group/cmgtools/CMG/VBF_HToTauTau_M-155_8TeV-powheg-pythia6/Summer12_DR53X-PU_S10_START53_V7A-v1/AODSIM/PAT_CMG_V5_16_0/cmgTuple_41_1_Eui.root
p133
(lp134
I01
aI10000
asV/store/cmst3/group/cmgtools/CMG/VBF_HToTauTau_M-155_8TeV-powheg-pythia6/Summer12_DR53X-PU_S10_START53_V7A-v1/AODSIM/PAT_CMG_V5_16_0/cmgTuple_23_1_jGe.root
p135
(lp136
I01
aI10000
asV/store/cmst3/group/cmgtools/CMG/VBF_HToTauTau_M-155_8TeV-powheg-pythia6/Summer12_DR53X-PU_S10_START53_V7A-v1/AODSIM/PAT_CMG_V5_16_0/cmgTuple_9_1_kvK.root
p137
(lp138
I01
aI10000
asV/store/cmst3/group/cmgtools/CMG/VBF_HToTauTau_M-155_8TeV-powheg-pythia6/Summer12_DR53X-PU_S10_START53_V7A-v1/AODSIM/PAT_CMG_V5_16_0/cmgTuple_20_1_OpA.root
p139
(lp140
I01
aI10000
asV/store/cmst3/group/cmgtools/CMG/VBF_HToTauTau_M-155_8TeV-powheg-pythia6/Summer12_DR53X-PU_S10_START53_V7A-v1/AODSIM/PAT_CMG_V5_16_0/cmgTuple_16_1_pBp.root
p141
(lp142
I01
aI10000
asV/store/cmst3/group/cmgtools/CMG/VBF_HToTauTau_M-155_8TeV-powheg-pythia6/Summer12_DR53X-PU_S10_START53_V7A-v1/AODSIM/PAT_CMG_V5_16_0/cmgTuple_45_1_xQq.root
p143
(lp144
I01
aI10000
asV/store/cmst3/group/cmgtools/CMG/VBF_HToTauTau_M-155_8TeV-powheg-pythia6/Summer12_DR53X-PU_S10_START53_V7A-v1/AODSIM/PAT_CMG_V5_16_0/cmgTuple_34_1_Kv5.root
p145
(lp146
I01
aI10000
asV/store/cmst3/group/cmgtools/CMG/VBF_HToTauTau_M-155_8TeV-powheg-pythia6/Summer12_DR53X-PU_S10_START53_V7A-v1/AODSIM/PAT_CMG_V5_16_0/cmgTuple_28_1_LCO.root
p147
(lp148
I01
aI10000
asV/store/cmst3/group/cmgtools/CMG/VBF_HToTauTau_M-155_8TeV-powheg-pythia6/Summer12_DR53X-PU_S10_START53_V7A-v1/AODSIM/PAT_CMG_V5_16_0/cmgTuple_22_1_bmw.root
p149
(lp150
I01
aI10000
asV/store/cmst3/group/cmgtools/CMG/VBF_HToTauTau_M-155_8TeV-powheg-pythia6/Summer12_DR53X-PU_S10_START53_V7A-v1/AODSIM/PAT_CMG_V5_16_0/cmgTuple_21_1_7GY.root
p151
(lp152
I01
aI10000
asV/store/cmst3/group/cmgtools/CMG/VBF_HToTauTau_M-155_8TeV-powheg-pythia6/Summer12_DR53X-PU_S10_START53_V7A-v1/AODSIM/PAT_CMG_V5_16_0/cmgTuple_25_1_T1A.root
p153
(lp154
I01
aI10000
asV/store/cmst3/group/cmgtools/CMG/VBF_HToTauTau_M-155_8TeV-powheg-pythia6/Summer12_DR53X-PU_S10_START53_V7A-v1/AODSIM/PAT_CMG_V5_16_0/cmgTuple_2_1_w5E.root
p155
(lp156
I01
aI10000
asV/store/cmst3/group/cmgtools/CMG/VBF_HToTauTau_M-155_8TeV-powheg-pythia6/Summer12_DR53X-PU_S10_START53_V7A-v1/AODSIM/PAT_CMG_V5_16_0/cmgTuple_40_1_D1x.root
p157
(lp158
I01
aI10000
asV/store/cmst3/group/cmgtools/CMG/VBF_HToTauTau_M-155_8TeV-powheg-pythia6/Summer12_DR53X-PU_S10_START53_V7A-v1/AODSIM/PAT_CMG_V5_16_0/cmgTuple_10_1_FYN.root
p159
(lp160
I01
aI10000
asV/store/cmst3/group/cmgtools/CMG/VBF_HToTauTau_M-155_8TeV-powheg-pythia6/Summer12_DR53X-PU_S10_START53_V7A-v1/AODSIM/PAT_CMG_V5_16_0/cmgTuple_48_1_ctW.root
p161
(lp162
I01
aI7089
asV/store/cmst3/group/cmgtools/CMG/VBF_HToTauTau_M-155_8TeV-powheg-pythia6/Summer12_DR53X-PU_S10_START53_V7A-v1/AODSIM/PAT_CMG_V5_16_0/cmgTuple_44_1_X6w.root
p163
(lp164
I01
aI10000
asV/store/cmst3/group/cmgtools/CMG/VBF_HToTauTau_M-155_8TeV-powheg-pythia6/Summer12_DR53X-PU_S10_START53_V7A-v1/AODSIM/PAT_CMG_V5_16_0/cmgTuple_39_1_WzP.root
p165
(lp166
I01
aI10000
asV/store/cmst3/group/cmgtools/CMG/VBF_HToTauTau_M-155_8TeV-powheg-pythia6/Summer12_DR53X-PU_S10_START53_V7A-v1/AODSIM/PAT_CMG_V5_16_0/cmgTuple_42_1_csG.root
p167
(lp168
I01
aI10000
asV/store/cmst3/group/cmgtools/CMG/VBF_HToTauTau_M-155_8TeV-powheg-pythia6/Summer12_DR53X-PU_S10_START53_V7A-v1/AODSIM/PAT_CMG_V5_16_0/cmgTuple_7_1_6Bz.root
p169
(lp170
I01
aI10000
asV/store/cmst3/group/cmgtools/CMG/VBF_HToTauTau_M-155_8TeV-powheg-pythia6/Summer12_DR53X-PU_S10_START53_V7A-v1/AODSIM/PAT_CMG_V5_16_0/cmgTuple_1_1_135.root
p171
(lp172
I01
aI10000
asV/store/cmst3/group/cmgtools/CMG/VBF_HToTauTau_M-155_8TeV-powheg-pythia6/Summer12_DR53X-PU_S10_START53_V7A-v1/AODSIM/PAT_CMG_V5_16_0/cmgTuple_36_1_8aO.root
p173
(lp174
I01
aI10000
asV/store/cmst3/group/cmgtools/CMG/VBF_HToTauTau_M-155_8TeV-powheg-pythia6/Summer12_DR53X-PU_S10_START53_V7A-v1/AODSIM/PAT_CMG_V5_16_0/cmgTuple_17_1_xyE.root
p175
(lp176
I01
aI10000
asV/store/cmst3/group/cmgtools/CMG/VBF_HToTauTau_M-155_8TeV-powheg-pythia6/Summer12_DR53X-PU_S10_START53_V7A-v1/AODSIM/PAT_CMG_V5_16_0/cmgTuple_46_1_2sQ.root
p177
(lp178
I01
aI10000
asV/store/cmst3/group/cmgtools/CMG/VBF_HToTauTau_M-155_8TeV-powheg-pythia6/Summer12_DR53X-PU_S10_START53_V7A-v1/AODSIM/PAT_CMG_V5_16_0/cmgTuple_50_1_suX.root
p179
(lp180
I01
aI2488
asV/store/cmst3/group/cmgtools/CMG/VBF_HToTauTau_M-155_8TeV-powheg-pythia6/Summer12_DR53X-PU_S10_START53_V7A-v1/AODSIM/PAT_CMG_V5_16_0/cmgTuple_37_1_x39.root
p181
(lp182
I01
aI10000
asV/store/cmst3/group/cmgtools/CMG/VBF_HToTauTau_M-155_8TeV-powheg-pythia6/Summer12_DR53X-PU_S10_START53_V7A-v1/AODSIM/PAT_CMG_V5_16_0/cmgTuple_47_1_viy.root
p183
(lp184
I01
aI10000
asV/store/cmst3/group/cmgtools/CMG/VBF_HToTauTau_M-155_8TeV-powheg-pythia6/Summer12_DR53X-PU_S10_START53_V7A-v1/AODSIM/PAT_CMG_V5_16_0/cmgTuple_12_1_bz0.root
p185
(lp186
I01
aI10000
asV/store/cmst3/group/cmgtools/CMG/VBF_HToTauTau_M-155_8TeV-powheg-pythia6/Summer12_DR53X-PU_S10_START53_V7A-v1/AODSIM/PAT_CMG_V5_16_0/cmgTuple_24_1_pwg.root
p187
(lp188
I01
aI10000
asV/store/cmst3/group/cmgtools/CMG/VBF_HToTauTau_M-155_8TeV-powheg-pythia6/Summer12_DR53X-PU_S10_START53_V7A-v1/AODSIM/PAT_CMG_V5_16_0/cmgTuple_51_1_vwC.root
p189
(lp190
I01
aI9890
asV/store/cmst3/group/cmgtools/CMG/VBF_HToTauTau_M-155_8TeV-powheg-pythia6/Summer12_DR53X-PU_S10_START53_V7A-v1/AODSIM/PAT_CMG_V5_16_0/cmgTuple_19_1_f9I.root
p191
(lp192
I01
aI10000
asV/store/cmst3/group/cmgtools/CMG/VBF_HToTauTau_M-155_8TeV-powheg-pythia6/Summer12_DR53X-PU_S10_START53_V7A-v1/AODSIM/PAT_CMG_V5_16_0/cmgTuple_27_1_vMb.root
p193
(lp194
I01
aI10000
asV/store/cmst3/group/cmgtools/CMG/VBF_HToTauTau_M-155_8TeV-powheg-pythia6/Summer12_DR53X-PU_S10_START53_V7A-v1/AODSIM/PAT_CMG_V5_16_0/cmgTuple_3_1_vjk.root
p195
(lp196
I01
aI10000
asV/store/cmst3/group/cmgtools/CMG/VBF_HToTauTau_M-155_8TeV-powheg-pythia6/Summer12_DR53X-PU_S10_START53_V7A-v1/AODSIM/PAT_CMG_V5_16_0/cmgTuple_4_1_I79.root
p197
(lp198
I01
aI10000
asV/store/cmst3/group/cmgtools/CMG/VBF_HToTauTau_M-155_8TeV-powheg-pythia6/Summer12_DR53X-PU_S10_START53_V7A-v1/AODSIM/PAT_CMG_V5_16_0/cmgTuple_38_1_4T0.root
p199
(lp200
I01
aI10000
asV/store/cmst3/group/cmgtools/CMG/VBF_HToTauTau_M-155_8TeV-powheg-pythia6/Summer12_DR53X-PU_S10_START53_V7A-v1/AODSIM/PAT_CMG_V5_16_0/cmgTuple_8_1_Cf1.root
p201
(lp202
I01
aI10000
assVPhysicsGroup
p203
VCMG
p204
sVFilesCount
p205
I51
sVFilesEntries
p206
I499467
sVRunList
p207
(lp208
sVValidDuplicates
p209
(dp210
sVPrimaryDataset
p211
V/VBF_HToTauTau_M-155_8TeV-powheg-pythia6/Summer12_DR53X-PU_S10_START53_V7A-v1/AODSIM
p212
sVStatus
p213
VVALID
p214
sVName
p215
V/VBF_HToTauTau_M-155_8TeV-powheg-pythia6/Summer12_DR53X-PU_S10_START53_V7A-v1/AODSIM/PAT_CMG_V5_16_0
p216
sVTopdir
p217
V/eos/cms/store/cmst3/group/cmgtools/CMG
p218
sVdata
p219
(dp220
sVFilesBad
p221
I0
sVMinRun
p222
I-1
sVAlgoList
p223
(lp224
sVTierList
p225
(lp226
sVDateCreated
p227
V1370942945
p228
sVCreatedBy
p229
Vcmgtools_group
p230
sVMaxRun
p231
I-1
sVBadJobs
p232
(lp233
ssg69
I01
ssS'MonitorJobs'
p234
(dp235
S'LSFJobStatus'
p236
(dp237
g75
S'VBF_HToTauTau_M-155_8TeV-powheg-pythia6/Summer12_DR53X-PU_S10_START53_V7A-v1/AODSIM/PAT_CMG_V5_16_0_1377467464/HTT_24Jul_newTES_manzoni_Up_Jobs/Job_1/LSFJOB_440970522/STDOUT.gz'
p238
sg73
S'VBF_HToTauTau_M-155_8TeV-powheg-pythia6/Summer12_DR53X-PU_S10_START53_V7A-v1/AODSIM/PAT_CMG_V5_16_0_1377467464/HTT_24Jul_newTES_manzoni_Up_Jobs/Job_3/LSFJOB_440970794/STDOUT.gz'
p239
sg74
S'VBF_HToTauTau_M-155_8TeV-powheg-pythia6/Summer12_DR53X-PU_S10_START53_V7A-v1/AODSIM/PAT_CMG_V5_16_0_1377467464/HTT_24Jul_newTES_manzoni_Up_Jobs/Job_2/LSFJOB_440970673/STDOUT.gz'
p240
sg72
S'VBF_HToTauTau_M-155_8TeV-powheg-pythia6/Summer12_DR53X-PU_S10_START53_V7A-v1/AODSIM/PAT_CMG_V5_16_0_1377467464/HTT_24Jul_newTES_manzoni_Up_Jobs/Job_11/LSFJOB_440971587/STDOUT.gz'
p241
sg76
S'VBF_HToTauTau_M-155_8TeV-powheg-pythia6/Summer12_DR53X-PU_S10_START53_V7A-v1/AODSIM/PAT_CMG_V5_16_0_1377467464/HTT_24Jul_newTES_manzoni_Up_Jobs/Job_10/LSFJOB_440971482/STDOUT.gz'
p242
sg77
S'VBF_HToTauTau_M-155_8TeV-powheg-pythia6/Summer12_DR53X-PU_S10_START53_V7A-v1/AODSIM/PAT_CMG_V5_16_0_1377467464/HTT_24Jul_newTES_manzoni_Up_Jobs/Job_7/LSFJOB_440971211/STDOUT.gz'
p243
sg78
S'VBF_HToTauTau_M-155_8TeV-powheg-pythia6/Summer12_DR53X-PU_S10_START53_V7A-v1/AODSIM/PAT_CMG_V5_16_0_1377467464/HTT_24Jul_newTES_manzoni_Up_Jobs/Job_6/LSFJOB_440971097/STDOUT.gz'
p244
sg79
S'VBF_HToTauTau_M-155_8TeV-powheg-pythia6/Summer12_DR53X-PU_S10_START53_V7A-v1/AODSIM/PAT_CMG_V5_16_0_1377467464/HTT_24Jul_newTES_manzoni_Up_Jobs/Job_5/LSFJOB_440971007/STDOUT.gz'
p245
sg80
S'VBF_HToTauTau_M-155_8TeV-powheg-pythia6/Summer12_DR53X-PU_S10_START53_V7A-v1/AODSIM/PAT_CMG_V5_16_0_1377467464/HTT_24Jul_newTES_manzoni_Up_Jobs/Job_4/LSFJOB_440970903/STDOUT.gz'
p246
sg81
S'VBF_HToTauTau_M-155_8TeV-powheg-pythia6/Summer12_DR53X-PU_S10_START53_V7A-v1/AODSIM/PAT_CMG_V5_16_0_1377467464/HTT_24Jul_newTES_manzoni_Up_Jobs/Job_9/LSFJOB_440971405/STDOUT.gz'
p247
sg82
S'VBF_HToTauTau_M-155_8TeV-powheg-pythia6/Summer12_DR53X-PU_S10_START53_V7A-v1/AODSIM/PAT_CMG_V5_16_0_1377467464/HTT_24Jul_newTES_manzoni_Up_Jobs/Job_8/LSFJOB_440971331/STDOUT.gz'
p248
ssS'LSFJobIDs'
p249
(dp250
g72
S'440971587'
p251
sg73
S'440970794'
p252
sg74
S'440970673'
p253
sg75
S'440970522'
p254
sg76
S'440971482'
p255
sg77
S'440971211'
p256
sg78
S'440971097'
p257
sg79
S'440971007'
p258
sg80
S'440970903'
p259
sg81
S'440971405'
p260
sg82
S'440971331'
p261
sssS'FindOnCastor'
p262
(dp263
g31
S'/eos/cms/store/cmst3/group/cmgtools/CMG'
p264
sS'Directory'
p265
S'/eos/cms/store/cmst3/group/cmgtools/CMG/VBF_HToTauTau_M-155_8TeV-powheg-pythia6/Summer12_DR53X-PU_S10_START53_V7A-v1/AODSIM/PAT_CMG_V5_16_0'
p266
ssS'CheckConfig'
p267
(dp268
g47
g48
ssS'FullCFG'
p269
(dp270
S'FullCFG'
p271
S'VBF_HToTauTau_M-155_8TeV-powheg-pythia6/Summer12_DR53X-PU_S10_START53_V7A-v1/AODSIM/PAT_CMG_V5_16_0_1377467464/full_cfg.py'
p272
ssS'WriteJobReport'
p273
(dp274
S'SummaryFile'
p275
S'VBF_HToTauTau_M-155_8TeV-powheg-pythia6/Summer12_DR53X-PU_S10_START53_V7A-v1/AODSIM/PAT_CMG_V5_16_0_1377467464/resubmit.sh'
p276
ssS'ExpandConfig'
p277
(dp278
S'ExpandedFullCFG'
p279
S'VBF_HToTauTau_M-155_8TeV-powheg-pythia6/Summer12_DR53X-PU_S10_START53_V7A-v1/AODSIM/PAT_CMG_V5_16_0_1377467464/Expandedfull_cfg.py'
p280
ssS'RunTestEvents'
p281
(dp282
g47
g48
sS'TestCFG'
p283
S'VBF_HToTauTau_M-155_8TeV-powheg-pythia6/Summer12_DR53X-PU_S10_START53_V7A-v1/AODSIM/PAT_CMG_V5_16_0_1377467464/test_cfg.py'
p284
ssS'SourceCFG'
p285
(dp286
S'SourceCFG'
p287
S'VBF_HToTauTau_M-155_8TeV-powheg-pythia6/Summer12_DR53X-PU_S10_START53_V7A-v1/AODSIM/PAT_CMG_V5_16_0_1377467464/source_cfg.py'
p288
ssS'CheckForWrite'
p289
(dp290
g265
g266
sS'WriteAccess'
p291
I01
ssS'WriteToDatasets'
p292
(dp293
S'Added'
p294
I00
sg29
S'/VBF_HToTauTau_M-155_8TeV-powheg-pythia6/Summer12_DR53X-PU_S10_START53_V7A-v1/AODSIM/PAT_CMG_V5_16_0/HTT_24Jul_newTES_manzoni_Up'
p295
sS'User'
p296
g62
ssS'RunCMSBatch'
p297
(dp298
S'BatchUser'
p299
g62
sS'SampleOutputDir'
p300
S'/store/cmst3/user/manzoni/CMG/VBF_HToTauTau_M-155_8TeV-powheg-pythia6/Summer12_DR53X-PU_S10_START53_V7A-v1/AODSIM/PAT_CMG_V5_16_0/HTT_24Jul_newTES_manzoni_Up'
p301
sS'SampleDataset'
p302
g30
sS'LSFJobsTopDir'
p303
S'VBF_HToTauTau_M-155_8TeV-powheg-pythia6/Summer12_DR53X-PU_S10_START53_V7A-v1/AODSIM/PAT_CMG_V5_16_0_1377467464/HTT_24Jul_newTES_manzoni_Up_Jobs'
p304
ssS'CreateJobDirectory'
p305
(dp306
S'JobDir'
p307
S'VBF_HToTauTau_M-155_8TeV-powheg-pythia6/Summer12_DR53X-PU_S10_START53_V7A-v1/AODSIM/PAT_CMG_V5_16_0_1377467464'
p308
sS'PWD'
p309
S'/afs/cern.ch/user/m/manzoni/summer13/CMGTools/CMSSW_5_3_9/src/CMGTools/H2TauTau/prod/25aug_corrMC/up/mc'
p310
ssS'CleanJobFiles'
p311
(dp312
S'Compressed'
p313
(dp314
S'CompressedFiles'
p315
(lp316
ssS'Cleaned'
p317
(dp318
S'CleanedFiles'
p319
(lp320
g280
ag284
aS'VBF_HToTauTau_M-155_8TeV-powheg-pythia6/Summer12_DR53X-PU_S10_START53_V7A-v1/AODSIM/PAT_CMG_V5_16_0_1377467464/diTau_fullsel_tree_CMG.root'
p321
aS'VBF_HToTauTau_M-155_8TeV-powheg-pythia6/Summer12_DR53X-PU_S10_START53_V7A-v1/AODSIM/PAT_CMG_V5_16_0_1377467464/source_cfg.pyc'
p322
aS'VBF_HToTauTau_M-155_8TeV-powheg-pythia6/Summer12_DR53X-PU_S10_START53_V7A-v1/AODSIM/PAT_CMG_V5_16_0_1377467464/Expandedfull_cfg.pyc'
p323
asssS'CheckForMask'
p324
(dp325
g3
g89
sg69
I01
ss.