(dp0
S'CheckJobStatus'
p1
(dp2
S'Report'
p3
(dp4
S'Files'
p5
(dp6
S'/store/cmst3/user/manzoni/CMG/WH_ZH_TTH_HToTauTau_M-135_8TeV-pythia6-tauola/Summer12_DR53X-PU_S10_START53_V7A-v2/AODSIM/PAT_CMG_V5_16_0/HTT_24Jul_newTES_manzoni_Up/diTau_fullsel_tree_CMG_2.root'
p7
(I01
I4485
tp8
sS'/store/cmst3/user/manzoni/CMG/WH_ZH_TTH_HToTauTau_M-135_8TeV-pythia6-tauola/Summer12_DR53X-PU_S10_START53_V7A-v2/AODSIM/PAT_CMG_V5_16_0/HTT_24Jul_newTES_manzoni_Up/diTau_fullsel_tree_CMG_1.root'
p9
(I01
I4666
tp10
sS'/store/cmst3/user/manzoni/CMG/WH_ZH_TTH_HToTauTau_M-135_8TeV-pythia6-tauola/Summer12_DR53X-PU_S10_START53_V7A-v2/AODSIM/PAT_CMG_V5_16_0/HTT_24Jul_newTES_manzoni_Up/diTau_fullsel_tree_CMG_4.root'
p11
(I01
I4559
tp12
sS'/store/cmst3/user/manzoni/CMG/WH_ZH_TTH_HToTauTau_M-135_8TeV-pythia6-tauola/Summer12_DR53X-PU_S10_START53_V7A-v2/AODSIM/PAT_CMG_V5_16_0/HTT_24Jul_newTES_manzoni_Up/diTau_fullsel_tree_CMG_3.root'
p13
(I01
I3716
tp14
sS'/store/cmst3/user/manzoni/CMG/WH_ZH_TTH_HToTauTau_M-135_8TeV-pythia6-tauola/Summer12_DR53X-PU_S10_START53_V7A-v2/AODSIM/PAT_CMG_V5_16_0/HTT_24Jul_newTES_manzoni_Up/diTau_fullsel_tree_CMG_5.root'
p15
(I01
I911
tp16
ssS'Name'
p17
S'/WH_ZH_TTH_HToTauTau_M-135_8TeV-pythia6-tauola/Summer12_DR53X-PU_S10_START53_V7A-v2/AODSIM/PAT_CMG_V5_16_0/HTT_24Jul_newTES_manzoni_Up'
p18
sS'Topdir'
p19
S'/eos/cms/store/cmst3/user/manzoni/CMG'
p20
sS'RunList'
p21
(lp22
sS'PathList'
p23
(lp24
S'/store/cmst3/user/manzoni/CMG/WH_ZH_TTH_HToTauTau_M-135_8TeV-pythia6-tauola/Summer12_DR53X-PU_S10_START53_V7A-v2/AODSIM/PAT_CMG_V5_16_0/HTT_24Jul_newTES_manzoni_Up'
p25
asS'AlgoList'
p26
(lp27
sS'PrimaryDatasetFraction'
p28
F0.091626359130156695
sS'FilesGood'
p29
I5
sS'PrimaryDatasetEntries'
p30
I200128
sS'data'
p31
(dp32
sS'FilesBad'
p33
I0
sS'ReportVersion'
p34
I3
sS'Status'
p35
S'VALID'
p36
sS'MaxRun'
p37
I-1
sS'PhysicsGroup'
p38
S'CMG'
p39
sS'MinRun'
p40
I-1
sS'StageHost'
p41
S'castorcms'
p42
sS'FilesCount'
p43
I5
sS'FilesEntries'
p44
I18337
sS'TierList'
p45
(lp46
sS'DateCreated'
p47
S'1377474742'
p48
sS'CreatedBy'
p49
S'manzoni'
p50
sS'ValidDuplicates'
p51
(dp52
sS'PrimaryDataset'
p53
S'/WH_ZH_TTH_HToTauTau_M-135_8TeV-pythia6-tauola/Summer12_DR53X-PU_S10_START53_V7A-v2/AODSIM'
p54
sS'BadJobs'
p55
(lp56
ssS'MaskPresent'
p57
I01
sS'LSFJobStatusCheck'
p58
(dp59
S'WH_ZH_TTH_HToTauTau_M-135_8TeV-pythia6-tauola/Summer12_DR53X-PU_S10_START53_V7A-v2/AODSIM/PAT_CMG_V5_16_0_1377467456/HTT_24Jul_newTES_manzoni_Up_Jobs/Job_4'
p60
g36
sS'WH_ZH_TTH_HToTauTau_M-135_8TeV-pythia6-tauola/Summer12_DR53X-PU_S10_START53_V7A-v2/AODSIM/PAT_CMG_V5_16_0_1377467456/HTT_24Jul_newTES_manzoni_Up_Jobs/Job_5'
p61
g36
sS'WH_ZH_TTH_HToTauTau_M-135_8TeV-pythia6-tauola/Summer12_DR53X-PU_S10_START53_V7A-v2/AODSIM/PAT_CMG_V5_16_0_1377467456/HTT_24Jul_newTES_manzoni_Up_Jobs/Job_1'
p62
g36
sS'WH_ZH_TTH_HToTauTau_M-135_8TeV-pythia6-tauola/Summer12_DR53X-PU_S10_START53_V7A-v2/AODSIM/PAT_CMG_V5_16_0_1377467456/HTT_24Jul_newTES_manzoni_Up_Jobs/Job_2'
p63
g36
sS'WH_ZH_TTH_HToTauTau_M-135_8TeV-pythia6-tauola/Summer12_DR53X-PU_S10_START53_V7A-v2/AODSIM/PAT_CMG_V5_16_0_1377467456/HTT_24Jul_newTES_manzoni_Up_Jobs/Job_3'
p64
g36
sssS'CheckDatasetExists'
p65
(dp66
S'Dataset'
p67
S'/WH_ZH_TTH_HToTauTau_M-135_8TeV-pythia6-tauola/Summer12_DR53X-PU_S10_START53_V7A-v2/AODSIM/PAT_CMG_V5_16_0'
p68
ssS'GenerateMask'
p69
(dp70
g3
(dp71
VPathList
p72
(lp73
V/store/cmst3/group/cmgtools/CMG/WH_ZH_TTH_HToTauTau_M-135_8TeV-pythia6-tauola/Summer12_DR53X-PU_S10_START53_V7A-v2/AODSIM/PAT_CMG_V5_16_0
p74
asVStageHost
p75
Vcastorcms
p76
sVPrimaryDatasetFraction
p77
F1.0
sVFilesGood
p78
I26
sVPrimaryDatasetEntries
p79
I200128
sVReportVersion
p80
I3
sVFiles
p81
(dp82
V/store/cmst3/group/cmgtools/CMG/WH_ZH_TTH_HToTauTau_M-135_8TeV-pythia6-tauola/Summer12_DR53X-PU_S10_START53_V7A-v2/AODSIM/PAT_CMG_V5_16_0/cmgTuple_21_1_F9B.root
p83
(lp84
I01
aI128
asV/store/cmst3/group/cmgtools/CMG/WH_ZH_TTH_HToTauTau_M-135_8TeV-pythia6-tauola/Summer12_DR53X-PU_S10_START53_V7A-v2/AODSIM/PAT_CMG_V5_16_0/cmgTuple_17_1_plr.root
p85
(lp86
I01
aI10000
asV/store/cmst3/group/cmgtools/CMG/WH_ZH_TTH_HToTauTau_M-135_8TeV-pythia6-tauola/Summer12_DR53X-PU_S10_START53_V7A-v2/AODSIM/PAT_CMG_V5_16_0/cmgTuple_4_1_zI5.root
p87
(lp88
I01
aI10000
asV/store/cmst3/group/cmgtools/CMG/WH_ZH_TTH_HToTauTau_M-135_8TeV-pythia6-tauola/Summer12_DR53X-PU_S10_START53_V7A-v2/AODSIM/PAT_CMG_V5_16_0/cmgTuple_2_1_5Ch.root
p89
(lp90
I01
aI10000
asV/store/cmst3/group/cmgtools/CMG/WH_ZH_TTH_HToTauTau_M-135_8TeV-pythia6-tauola/Summer12_DR53X-PU_S10_START53_V7A-v2/AODSIM/PAT_CMG_V5_16_0/cmgTuple_14_1_mry.root
p91
(lp92
I01
aI10000
asV/store/cmst3/group/cmgtools/CMG/WH_ZH_TTH_HToTauTau_M-135_8TeV-pythia6-tauola/Summer12_DR53X-PU_S10_START53_V7A-v2/AODSIM/PAT_CMG_V5_16_0/cmgTuple_7_2_nr6.root
p93
(lp94
I01
aI10000
asV/store/cmst3/group/cmgtools/CMG/WH_ZH_TTH_HToTauTau_M-135_8TeV-pythia6-tauola/Summer12_DR53X-PU_S10_START53_V7A-v2/AODSIM/PAT_CMG_V5_16_0/cmgTuple_1_2_rlM.root
p95
(lp96
I01
aI10000
asV/store/cmst3/group/cmgtools/CMG/WH_ZH_TTH_HToTauTau_M-135_8TeV-pythia6-tauola/Summer12_DR53X-PU_S10_START53_V7A-v2/AODSIM/PAT_CMG_V5_16_0/cmgTuple_10_1_OzU.root
p97
(lp98
I01
aI10000
asV/store/cmst3/group/cmgtools/CMG/WH_ZH_TTH_HToTauTau_M-135_8TeV-pythia6-tauola/Summer12_DR53X-PU_S10_START53_V7A-v2/AODSIM/PAT_CMG_V5_16_0/cmgTuple_19_1_ii6.root
p99
(lp100
I01
aI10000
asV/store/cmst3/group/cmgtools/CMG/WH_ZH_TTH_HToTauTau_M-135_8TeV-pythia6-tauola/Summer12_DR53X-PU_S10_START53_V7A-v2/AODSIM/PAT_CMG_V5_16_0/cmgTuple_10_2_E7z.root
p101
(lp102
I01
aI10000
asV/store/cmst3/group/cmgtools/CMG/WH_ZH_TTH_HToTauTau_M-135_8TeV-pythia6-tauola/Summer12_DR53X-PU_S10_START53_V7A-v2/AODSIM/PAT_CMG_V5_16_0/cmgTuple_19_2_PRt.root
p103
(lp104
I01
aI10000
asV/store/cmst3/group/cmgtools/CMG/WH_ZH_TTH_HToTauTau_M-135_8TeV-pythia6-tauola/Summer12_DR53X-PU_S10_START53_V7A-v2/AODSIM/PAT_CMG_V5_16_0/cmgTuple_18_1_Xe6.root
p105
(lp106
I01
aI10000
asV/store/cmst3/group/cmgtools/CMG/WH_ZH_TTH_HToTauTau_M-135_8TeV-pythia6-tauola/Summer12_DR53X-PU_S10_START53_V7A-v2/AODSIM/PAT_CMG_V5_16_0/cmgTuple_15_1_HrI.root
p107
(lp108
I01
aI10000
asV/store/cmst3/group/cmgtools/CMG/WH_ZH_TTH_HToTauTau_M-135_8TeV-pythia6-tauola/Summer12_DR53X-PU_S10_START53_V7A-v2/AODSIM/PAT_CMG_V5_16_0/cmgTuple_15_2_LdY.root
p109
(lp110
I01
aI10000
asV/store/cmst3/group/cmgtools/CMG/WH_ZH_TTH_HToTauTau_M-135_8TeV-pythia6-tauola/Summer12_DR53X-PU_S10_START53_V7A-v2/AODSIM/PAT_CMG_V5_16_0/cmgTuple_13_1_G8H.root
p111
(lp112
I01
aI10000
asV/store/cmst3/group/cmgtools/CMG/WH_ZH_TTH_HToTauTau_M-135_8TeV-pythia6-tauola/Summer12_DR53X-PU_S10_START53_V7A-v2/AODSIM/PAT_CMG_V5_16_0/cmgTuple_5_1_JRd.root
p113
(lp114
I01
aI10000
asV/store/cmst3/group/cmgtools/CMG/WH_ZH_TTH_HToTauTau_M-135_8TeV-pythia6-tauola/Summer12_DR53X-PU_S10_START53_V7A-v2/AODSIM/PAT_CMG_V5_16_0/cmgTuple_3_1_F6K.root
p115
(lp116
I01
aI10000
asV/store/cmst3/group/cmgtools/CMG/WH_ZH_TTH_HToTauTau_M-135_8TeV-pythia6-tauola/Summer12_DR53X-PU_S10_START53_V7A-v2/AODSIM/PAT_CMG_V5_16_0/cmgTuple_12_1_OGi.root
p117
(lp118
I01
aI10000
asV/store/cmst3/group/cmgtools/CMG/WH_ZH_TTH_HToTauTau_M-135_8TeV-pythia6-tauola/Summer12_DR53X-PU_S10_START53_V7A-v2/AODSIM/PAT_CMG_V5_16_0/cmgTuple_8_1_7MC.root
p119
(lp120
I01
aI10000
asV/store/cmst3/group/cmgtools/CMG/WH_ZH_TTH_HToTauTau_M-135_8TeV-pythia6-tauola/Summer12_DR53X-PU_S10_START53_V7A-v2/AODSIM/PAT_CMG_V5_16_0/cmgTuple_7_1_ck4.root
p121
(lp122
I01
aI10000
asV/store/cmst3/group/cmgtools/CMG/WH_ZH_TTH_HToTauTau_M-135_8TeV-pythia6-tauola/Summer12_DR53X-PU_S10_START53_V7A-v2/AODSIM/PAT_CMG_V5_16_0/cmgTuple_6_1_AgM.root
p123
(lp124
I01
aI10000
asV/store/cmst3/group/cmgtools/CMG/WH_ZH_TTH_HToTauTau_M-135_8TeV-pythia6-tauola/Summer12_DR53X-PU_S10_START53_V7A-v2/AODSIM/PAT_CMG_V5_16_0/cmgTuple_9_1_Z8z.root
p125
(lp126
I01
aI10000
asV/store/cmst3/group/cmgtools/CMG/WH_ZH_TTH_HToTauTau_M-135_8TeV-pythia6-tauola/Summer12_DR53X-PU_S10_START53_V7A-v2/AODSIM/PAT_CMG_V5_16_0/cmgTuple_11_1_Ya9.root
p127
(lp128
I01
aI10000
asV/store/cmst3/group/cmgtools/CMG/WH_ZH_TTH_HToTauTau_M-135_8TeV-pythia6-tauola/Summer12_DR53X-PU_S10_START53_V7A-v2/AODSIM/PAT_CMG_V5_16_0/cmgTuple_20_1_1Kw.root
p129
(lp130
I01
aI10000
asV/store/cmst3/group/cmgtools/CMG/WH_ZH_TTH_HToTauTau_M-135_8TeV-pythia6-tauola/Summer12_DR53X-PU_S10_START53_V7A-v2/AODSIM/PAT_CMG_V5_16_0/cmgTuple_1_1_W4F.root
p131
(lp132
I01
aI10000
asV/store/cmst3/group/cmgtools/CMG/WH_ZH_TTH_HToTauTau_M-135_8TeV-pythia6-tauola/Summer12_DR53X-PU_S10_START53_V7A-v2/AODSIM/PAT_CMG_V5_16_0/cmgTuple_16_1_Z7Y.root
p133
(lp134
I01
aI10000
assVPhysicsGroup
p135
VCMG
p136
sVFilesCount
p137
I26
sVFilesEntries
p138
I200128
sVRunList
p139
(lp140
sVValidDuplicates
p141
(dp142
V/store/cmst3/group/cmgtools/CMG/WH_ZH_TTH_HToTauTau_M-135_8TeV-pythia6-tauola/Summer12_DR53X-PU_S10_START53_V7A-v2/AODSIM/PAT_CMG_V5_16_0/cmgTuple_19_1_ii6.root
p143
I10000
sV/store/cmst3/group/cmgtools/CMG/WH_ZH_TTH_HToTauTau_M-135_8TeV-pythia6-tauola/Summer12_DR53X-PU_S10_START53_V7A-v2/AODSIM/PAT_CMG_V5_16_0/cmgTuple_1_1_W4F.root
p144
I10000
sV/store/cmst3/group/cmgtools/CMG/WH_ZH_TTH_HToTauTau_M-135_8TeV-pythia6-tauola/Summer12_DR53X-PU_S10_START53_V7A-v2/AODSIM/PAT_CMG_V5_16_0/cmgTuple_7_1_ck4.root
p145
I10000
sV/store/cmst3/group/cmgtools/CMG/WH_ZH_TTH_HToTauTau_M-135_8TeV-pythia6-tauola/Summer12_DR53X-PU_S10_START53_V7A-v2/AODSIM/PAT_CMG_V5_16_0/cmgTuple_15_1_HrI.root
p146
I10000
sV/store/cmst3/group/cmgtools/CMG/WH_ZH_TTH_HToTauTau_M-135_8TeV-pythia6-tauola/Summer12_DR53X-PU_S10_START53_V7A-v2/AODSIM/PAT_CMG_V5_16_0/cmgTuple_10_1_OzU.root
p147
I10000
ssVPrimaryDataset
p148
V/WH_ZH_TTH_HToTauTau_M-135_8TeV-pythia6-tauola/Summer12_DR53X-PU_S10_START53_V7A-v2/AODSIM
p149
sVStatus
p150
VVALID
p151
sVName
p152
V/WH_ZH_TTH_HToTauTau_M-135_8TeV-pythia6-tauola/Summer12_DR53X-PU_S10_START53_V7A-v2/AODSIM/PAT_CMG_V5_16_0
p153
sVTopdir
p154
V/eos/cms/store/cmst3/group/cmgtools/CMG
p155
sVdata
p156
(dp157
sVFilesBad
p158
I0
sVMinRun
p159
I-1
sVAlgoList
p160
(lp161
sVTierList
p162
(lp163
sVDateCreated
p164
V1370942795
p165
sVCreatedBy
p166
Vcmgtools_group
p167
sVMaxRun
p168
I-1
sVBadJobs
p169
(lp170
ssg57
I01
ssS'MonitorJobs'
p171
(dp172
S'LSFJobStatus'
p173
(dp174
g60
S'WH_ZH_TTH_HToTauTau_M-135_8TeV-pythia6-tauola/Summer12_DR53X-PU_S10_START53_V7A-v2/AODSIM/PAT_CMG_V5_16_0_1377467456/HTT_24Jul_newTES_manzoni_Up_Jobs/Job_4/LSFJOB_440971499/STDOUT.gz'
p175
sg61
S'WH_ZH_TTH_HToTauTau_M-135_8TeV-pythia6-tauola/Summer12_DR53X-PU_S10_START53_V7A-v2/AODSIM/PAT_CMG_V5_16_0_1377467456/HTT_24Jul_newTES_manzoni_Up_Jobs/Job_5/LSFJOB_440971605/STDOUT.gz'
p176
sg62
S'WH_ZH_TTH_HToTauTau_M-135_8TeV-pythia6-tauola/Summer12_DR53X-PU_S10_START53_V7A-v2/AODSIM/PAT_CMG_V5_16_0_1377467456/HTT_24Jul_newTES_manzoni_Up_Jobs/Job_1/LSFJOB_440971297/STDOUT.gz'
p177
sg63
S'WH_ZH_TTH_HToTauTau_M-135_8TeV-pythia6-tauola/Summer12_DR53X-PU_S10_START53_V7A-v2/AODSIM/PAT_CMG_V5_16_0_1377467456/HTT_24Jul_newTES_manzoni_Up_Jobs/Job_2/LSFJOB_440971368/STDOUT.gz'
p178
sg64
S'WH_ZH_TTH_HToTauTau_M-135_8TeV-pythia6-tauola/Summer12_DR53X-PU_S10_START53_V7A-v2/AODSIM/PAT_CMG_V5_16_0_1377467456/HTT_24Jul_newTES_manzoni_Up_Jobs/Job_3/LSFJOB_440971429/STDOUT.gz'
p179
ssS'LSFJobIDs'
p180
(dp181
g60
S'440971499'
p182
sg61
S'440971605'
p183
sg62
S'440971297'
p184
sg63
S'440971368'
p185
sg64
S'440971429'
p186
sssS'FindOnCastor'
p187
(dp188
g19
S'/eos/cms/store/cmst3/group/cmgtools/CMG'
p189
sS'Directory'
p190
S'/eos/cms/store/cmst3/group/cmgtools/CMG/WH_ZH_TTH_HToTauTau_M-135_8TeV-pythia6-tauola/Summer12_DR53X-PU_S10_START53_V7A-v2/AODSIM/PAT_CMG_V5_16_0'
p191
ssS'CheckConfig'
p192
(dp193
g35
g36
ssS'FullCFG'
p194
(dp195
S'FullCFG'
p196
S'WH_ZH_TTH_HToTauTau_M-135_8TeV-pythia6-tauola/Summer12_DR53X-PU_S10_START53_V7A-v2/AODSIM/PAT_CMG_V5_16_0_1377467456/full_cfg.py'
p197
ssS'WriteJobReport'
p198
(dp199
S'SummaryFile'
p200
S'WH_ZH_TTH_HToTauTau_M-135_8TeV-pythia6-tauola/Summer12_DR53X-PU_S10_START53_V7A-v2/AODSIM/PAT_CMG_V5_16_0_1377467456/resubmit.sh'
p201
ssS'ExpandConfig'
p202
(dp203
S'ExpandedFullCFG'
p204
S'WH_ZH_TTH_HToTauTau_M-135_8TeV-pythia6-tauola/Summer12_DR53X-PU_S10_START53_V7A-v2/AODSIM/PAT_CMG_V5_16_0_1377467456/Expandedfull_cfg.py'
p205
ssS'RunTestEvents'
p206
(dp207
g35
g36
sS'TestCFG'
p208
S'WH_ZH_TTH_HToTauTau_M-135_8TeV-pythia6-tauola/Summer12_DR53X-PU_S10_START53_V7A-v2/AODSIM/PAT_CMG_V5_16_0_1377467456/test_cfg.py'
p209
ssS'SourceCFG'
p210
(dp211
S'SourceCFG'
p212
S'WH_ZH_TTH_HToTauTau_M-135_8TeV-pythia6-tauola/Summer12_DR53X-PU_S10_START53_V7A-v2/AODSIM/PAT_CMG_V5_16_0_1377467456/source_cfg.py'
p213
ssS'CheckForWrite'
p214
(dp215
g190
g191
sS'WriteAccess'
p216
I01
ssS'WriteToDatasets'
p217
(dp218
S'Added'
p219
I00
sg17
S'/WH_ZH_TTH_HToTauTau_M-135_8TeV-pythia6-tauola/Summer12_DR53X-PU_S10_START53_V7A-v2/AODSIM/PAT_CMG_V5_16_0/HTT_24Jul_newTES_manzoni_Up'
p220
sS'User'
p221
g50
ssS'RunCMSBatch'
p222
(dp223
S'BatchUser'
p224
g50
sS'SampleOutputDir'
p225
S'/store/cmst3/user/manzoni/CMG/WH_ZH_TTH_HToTauTau_M-135_8TeV-pythia6-tauola/Summer12_DR53X-PU_S10_START53_V7A-v2/AODSIM/PAT_CMG_V5_16_0/HTT_24Jul_newTES_manzoni_Up'
p226
sS'SampleDataset'
p227
g18
sS'LSFJobsTopDir'
p228
S'WH_ZH_TTH_HToTauTau_M-135_8TeV-pythia6-tauola/Summer12_DR53X-PU_S10_START53_V7A-v2/AODSIM/PAT_CMG_V5_16_0_1377467456/HTT_24Jul_newTES_manzoni_Up_Jobs'
p229
ssS'CreateJobDirectory'
p230
(dp231
S'JobDir'
p232
S'WH_ZH_TTH_HToTauTau_M-135_8TeV-pythia6-tauola/Summer12_DR53X-PU_S10_START53_V7A-v2/AODSIM/PAT_CMG_V5_16_0_1377467456'
p233
sS'PWD'
p234
S'/afs/cern.ch/user/m/manzoni/summer13/CMGTools/CMSSW_5_3_9/src/CMGTools/H2TauTau/prod/25aug_corrMC/up/mc'
p235
ssS'CleanJobFiles'
p236
(dp237
S'Compressed'
p238
(dp239
S'CompressedFiles'
p240
(lp241
ssS'Cleaned'
p242
(dp243
S'CleanedFiles'
p244
(lp245
g205
ag209
aS'WH_ZH_TTH_HToTauTau_M-135_8TeV-pythia6-tauola/Summer12_DR53X-PU_S10_START53_V7A-v2/AODSIM/PAT_CMG_V5_16_0_1377467456/diTau_fullsel_tree_CMG.root'
p246
aS'WH_ZH_TTH_HToTauTau_M-135_8TeV-pythia6-tauola/Summer12_DR53X-PU_S10_START53_V7A-v2/AODSIM/PAT_CMG_V5_16_0_1377467456/source_cfg.pyc'
p247
aS'WH_ZH_TTH_HToTauTau_M-135_8TeV-pythia6-tauola/Summer12_DR53X-PU_S10_START53_V7A-v2/AODSIM/PAT_CMG_V5_16_0_1377467456/Expandedfull_cfg.pyc'
p248
asssS'CheckForMask'
p249
(dp250
g3
g71
sg57
I01
ss.