(dp0
S'CheckJobStatus'
p1
(dp2
S'Report'
p3
(dp4
S'Files'
p5
(dp6
S'/store/cmst3/user/manzoni/CMG/WH_ZH_TTH_HToTauTau_M-150_8TeV-pythia6-tauola/Summer12_DR53X-PU_S10_START53_V7A-v1/AODSIM/PAT_CMG_V5_16_0/HTT_24Jul_newTES_manzoni_Up/diTau_fullsel_tree_CMG_4.root'
p7
(I01
I5690
tp8
sS'/store/cmst3/user/manzoni/CMG/WH_ZH_TTH_HToTauTau_M-150_8TeV-pythia6-tauola/Summer12_DR53X-PU_S10_START53_V7A-v1/AODSIM/PAT_CMG_V5_16_0/HTT_24Jul_newTES_manzoni_Up/diTau_fullsel_tree_CMG_2.root'
p9
(I01
I5591
tp10
sS'/store/cmst3/user/manzoni/CMG/WH_ZH_TTH_HToTauTau_M-150_8TeV-pythia6-tauola/Summer12_DR53X-PU_S10_START53_V7A-v1/AODSIM/PAT_CMG_V5_16_0/HTT_24Jul_newTES_manzoni_Up/diTau_fullsel_tree_CMG_5.root'
p11
(I01
I1161
tp12
sS'/store/cmst3/user/manzoni/CMG/WH_ZH_TTH_HToTauTau_M-150_8TeV-pythia6-tauola/Summer12_DR53X-PU_S10_START53_V7A-v1/AODSIM/PAT_CMG_V5_16_0/HTT_24Jul_newTES_manzoni_Up/diTau_fullsel_tree_CMG_3.root'
p13
(I01
I4715
tp14
sS'/store/cmst3/user/manzoni/CMG/WH_ZH_TTH_HToTauTau_M-150_8TeV-pythia6-tauola/Summer12_DR53X-PU_S10_START53_V7A-v1/AODSIM/PAT_CMG_V5_16_0/HTT_24Jul_newTES_manzoni_Up/diTau_fullsel_tree_CMG_1.root'
p15
(I01
I5856
tp16
ssS'Name'
p17
S'/WH_ZH_TTH_HToTauTau_M-150_8TeV-pythia6-tauola/Summer12_DR53X-PU_S10_START53_V7A-v1/AODSIM/PAT_CMG_V5_16_0/HTT_24Jul_newTES_manzoni_Up'
p18
sS'Topdir'
p19
S'/eos/cms/store/cmst3/user/manzoni/CMG'
p20
sS'RunList'
p21
(lp22
sS'PathList'
p23
(lp24
S'/store/cmst3/user/manzoni/CMG/WH_ZH_TTH_HToTauTau_M-150_8TeV-pythia6-tauola/Summer12_DR53X-PU_S10_START53_V7A-v1/AODSIM/PAT_CMG_V5_16_0/HTT_24Jul_newTES_manzoni_Up'
p25
asS'AlgoList'
p26
(lp27
sS'PrimaryDatasetFraction'
p28
F0.11478664239219892
sS'FilesGood'
p29
I5
sS'PrimaryDatasetEntries'
p30
I200485
sS'data'
p31
(dp32
sS'FilesBad'
p33
I0
sS'ReportVersion'
p34
I3
sS'Status'
p35
S'VALID'
p36
sS'MaxRun'
p37
I-1
sS'PhysicsGroup'
p38
S'CMG'
p39
sS'MinRun'
p40
I-1
sS'StageHost'
p41
S'castorcms'
p42
sS'FilesCount'
p43
I5
sS'FilesEntries'
p44
I23013
sS'TierList'
p45
(lp46
sS'DateCreated'
p47
S'1377475801'
p48
sS'CreatedBy'
p49
S'manzoni'
p50
sS'ValidDuplicates'
p51
(dp52
sS'PrimaryDataset'
p53
S'/WH_ZH_TTH_HToTauTau_M-150_8TeV-pythia6-tauola/Summer12_DR53X-PU_S10_START53_V7A-v1/AODSIM'
p54
sS'BadJobs'
p55
(lp56
ssS'MaskPresent'
p57
I01
sS'LSFJobStatusCheck'
p58
(dp59
S'WH_ZH_TTH_HToTauTau_M-150_8TeV-pythia6-tauola/Summer12_DR53X-PU_S10_START53_V7A-v1/AODSIM/PAT_CMG_V5_16_0_1377467485/HTT_24Jul_newTES_manzoni_Up_Jobs/Job_4'
p60
g36
sS'WH_ZH_TTH_HToTauTau_M-150_8TeV-pythia6-tauola/Summer12_DR53X-PU_S10_START53_V7A-v1/AODSIM/PAT_CMG_V5_16_0_1377467485/HTT_24Jul_newTES_manzoni_Up_Jobs/Job_5'
p61
g36
sS'WH_ZH_TTH_HToTauTau_M-150_8TeV-pythia6-tauola/Summer12_DR53X-PU_S10_START53_V7A-v1/AODSIM/PAT_CMG_V5_16_0_1377467485/HTT_24Jul_newTES_manzoni_Up_Jobs/Job_2'
p62
g36
sS'WH_ZH_TTH_HToTauTau_M-150_8TeV-pythia6-tauola/Summer12_DR53X-PU_S10_START53_V7A-v1/AODSIM/PAT_CMG_V5_16_0_1377467485/HTT_24Jul_newTES_manzoni_Up_Jobs/Job_3'
p63
g36
sS'WH_ZH_TTH_HToTauTau_M-150_8TeV-pythia6-tauola/Summer12_DR53X-PU_S10_START53_V7A-v1/AODSIM/PAT_CMG_V5_16_0_1377467485/HTT_24Jul_newTES_manzoni_Up_Jobs/Job_1'
p64
g36
sssS'CheckDatasetExists'
p65
(dp66
S'Dataset'
p67
S'/WH_ZH_TTH_HToTauTau_M-150_8TeV-pythia6-tauola/Summer12_DR53X-PU_S10_START53_V7A-v1/AODSIM/PAT_CMG_V5_16_0'
p68
ssS'GenerateMask'
p69
(dp70
g3
(dp71
VPathList
p72
(lp73
V/store/cmst3/group/cmgtools/CMG/WH_ZH_TTH_HToTauTau_M-150_8TeV-pythia6-tauola/Summer12_DR53X-PU_S10_START53_V7A-v1/AODSIM/PAT_CMG_V5_16_0
p74
asVStageHost
p75
Vcastorcms
p76
sVPrimaryDatasetFraction
p77
F1.0
sVFilesGood
p78
I24
sVPrimaryDatasetEntries
p79
I200485
sVReportVersion
p80
I3
sVFiles
p81
(dp82
V/store/cmst3/group/cmgtools/CMG/WH_ZH_TTH_HToTauTau_M-150_8TeV-pythia6-tauola/Summer12_DR53X-PU_S10_START53_V7A-v1/AODSIM/PAT_CMG_V5_16_0/cmgTuple_5_1_I6f.root
p83
(lp84
I01
aI10000
asV/store/cmst3/group/cmgtools/CMG/WH_ZH_TTH_HToTauTau_M-150_8TeV-pythia6-tauola/Summer12_DR53X-PU_S10_START53_V7A-v1/AODSIM/PAT_CMG_V5_16_0/cmgTuple_17_1_9n2.root
p85
(lp86
I01
aI10000
asV/store/cmst3/group/cmgtools/CMG/WH_ZH_TTH_HToTauTau_M-150_8TeV-pythia6-tauola/Summer12_DR53X-PU_S10_START53_V7A-v1/AODSIM/PAT_CMG_V5_16_0/cmgTuple_21_1_dkV.root
p87
(lp88
I01
aI485
asV/store/cmst3/group/cmgtools/CMG/WH_ZH_TTH_HToTauTau_M-150_8TeV-pythia6-tauola/Summer12_DR53X-PU_S10_START53_V7A-v1/AODSIM/PAT_CMG_V5_16_0/cmgTuple_13_1_vBk.root
p89
(lp90
I01
aI10000
asV/store/cmst3/group/cmgtools/CMG/WH_ZH_TTH_HToTauTau_M-150_8TeV-pythia6-tauola/Summer12_DR53X-PU_S10_START53_V7A-v1/AODSIM/PAT_CMG_V5_16_0/cmgTuple_12_2_rKe.root
p91
(lp92
I01
aI10000
asV/store/cmst3/group/cmgtools/CMG/WH_ZH_TTH_HToTauTau_M-150_8TeV-pythia6-tauola/Summer12_DR53X-PU_S10_START53_V7A-v1/AODSIM/PAT_CMG_V5_16_0/cmgTuple_6_1_GSC.root
p93
(lp94
I01
aI10000
asV/store/cmst3/group/cmgtools/CMG/WH_ZH_TTH_HToTauTau_M-150_8TeV-pythia6-tauola/Summer12_DR53X-PU_S10_START53_V7A-v1/AODSIM/PAT_CMG_V5_16_0/cmgTuple_16_2_sle.root
p95
(lp96
I01
aI10000
asV/store/cmst3/group/cmgtools/CMG/WH_ZH_TTH_HToTauTau_M-150_8TeV-pythia6-tauola/Summer12_DR53X-PU_S10_START53_V7A-v1/AODSIM/PAT_CMG_V5_16_0/cmgTuple_10_1_IXh.root
p97
(lp98
I01
aI10000
asV/store/cmst3/group/cmgtools/CMG/WH_ZH_TTH_HToTauTau_M-150_8TeV-pythia6-tauola/Summer12_DR53X-PU_S10_START53_V7A-v1/AODSIM/PAT_CMG_V5_16_0/cmgTuple_14_1_JBp.root
p99
(lp100
I01
aI10000
asV/store/cmst3/group/cmgtools/CMG/WH_ZH_TTH_HToTauTau_M-150_8TeV-pythia6-tauola/Summer12_DR53X-PU_S10_START53_V7A-v1/AODSIM/PAT_CMG_V5_16_0/cmgTuple_11_2_dnh.root
p101
(lp102
I01
aI10000
asV/store/cmst3/group/cmgtools/CMG/WH_ZH_TTH_HToTauTau_M-150_8TeV-pythia6-tauola/Summer12_DR53X-PU_S10_START53_V7A-v1/AODSIM/PAT_CMG_V5_16_0/cmgTuple_9_1_Glw.root
p103
(lp104
I01
aI10000
asV/store/cmst3/group/cmgtools/CMG/WH_ZH_TTH_HToTauTau_M-150_8TeV-pythia6-tauola/Summer12_DR53X-PU_S10_START53_V7A-v1/AODSIM/PAT_CMG_V5_16_0/cmgTuple_12_1_S4s.root
p105
(lp106
I01
aI10000
asV/store/cmst3/group/cmgtools/CMG/WH_ZH_TTH_HToTauTau_M-150_8TeV-pythia6-tauola/Summer12_DR53X-PU_S10_START53_V7A-v1/AODSIM/PAT_CMG_V5_16_0/cmgTuple_18_1_4FA.root
p107
(lp108
I01
aI10000
asV/store/cmst3/group/cmgtools/CMG/WH_ZH_TTH_HToTauTau_M-150_8TeV-pythia6-tauola/Summer12_DR53X-PU_S10_START53_V7A-v1/AODSIM/PAT_CMG_V5_16_0/cmgTuple_7_1_BT9.root
p109
(lp110
I01
aI10000
asV/store/cmst3/group/cmgtools/CMG/WH_ZH_TTH_HToTauTau_M-150_8TeV-pythia6-tauola/Summer12_DR53X-PU_S10_START53_V7A-v1/AODSIM/PAT_CMG_V5_16_0/cmgTuple_1_1_7wL.root
p111
(lp112
I01
aI10000
asV/store/cmst3/group/cmgtools/CMG/WH_ZH_TTH_HToTauTau_M-150_8TeV-pythia6-tauola/Summer12_DR53X-PU_S10_START53_V7A-v1/AODSIM/PAT_CMG_V5_16_0/cmgTuple_15_1_mg7.root
p113
(lp114
I01
aI10000
asV/store/cmst3/group/cmgtools/CMG/WH_ZH_TTH_HToTauTau_M-150_8TeV-pythia6-tauola/Summer12_DR53X-PU_S10_START53_V7A-v1/AODSIM/PAT_CMG_V5_16_0/cmgTuple_3_1_lNa.root
p115
(lp116
I01
aI10000
asV/store/cmst3/group/cmgtools/CMG/WH_ZH_TTH_HToTauTau_M-150_8TeV-pythia6-tauola/Summer12_DR53X-PU_S10_START53_V7A-v1/AODSIM/PAT_CMG_V5_16_0/cmgTuple_19_1_O1H.root
p117
(lp118
I01
aI10000
asV/store/cmst3/group/cmgtools/CMG/WH_ZH_TTH_HToTauTau_M-150_8TeV-pythia6-tauola/Summer12_DR53X-PU_S10_START53_V7A-v1/AODSIM/PAT_CMG_V5_16_0/cmgTuple_4_1_jyG.root
p119
(lp120
I01
aI10000
asV/store/cmst3/group/cmgtools/CMG/WH_ZH_TTH_HToTauTau_M-150_8TeV-pythia6-tauola/Summer12_DR53X-PU_S10_START53_V7A-v1/AODSIM/PAT_CMG_V5_16_0/cmgTuple_7_2_g0E.root
p121
(lp122
I01
aI10000
asV/store/cmst3/group/cmgtools/CMG/WH_ZH_TTH_HToTauTau_M-150_8TeV-pythia6-tauola/Summer12_DR53X-PU_S10_START53_V7A-v1/AODSIM/PAT_CMG_V5_16_0/cmgTuple_16_1_dzq.root
p123
(lp124
I01
aI10000
asV/store/cmst3/group/cmgtools/CMG/WH_ZH_TTH_HToTauTau_M-150_8TeV-pythia6-tauola/Summer12_DR53X-PU_S10_START53_V7A-v1/AODSIM/PAT_CMG_V5_16_0/cmgTuple_8_1_ftz.root
p125
(lp126
I01
aI10000
asV/store/cmst3/group/cmgtools/CMG/WH_ZH_TTH_HToTauTau_M-150_8TeV-pythia6-tauola/Summer12_DR53X-PU_S10_START53_V7A-v1/AODSIM/PAT_CMG_V5_16_0/cmgTuple_20_1_FsB.root
p127
(lp128
I01
aI10000
asV/store/cmst3/group/cmgtools/CMG/WH_ZH_TTH_HToTauTau_M-150_8TeV-pythia6-tauola/Summer12_DR53X-PU_S10_START53_V7A-v1/AODSIM/PAT_CMG_V5_16_0/cmgTuple_2_1_QkH.root
p129
(lp130
I01
aI10000
assVPhysicsGroup
p131
VCMG
p132
sVFilesCount
p133
I24
sVFilesEntries
p134
I200485
sVRunList
p135
(lp136
sVValidDuplicates
p137
(dp138
V/store/cmst3/group/cmgtools/CMG/WH_ZH_TTH_HToTauTau_M-150_8TeV-pythia6-tauola/Summer12_DR53X-PU_S10_START53_V7A-v1/AODSIM/PAT_CMG_V5_16_0/cmgTuple_7_1_BT9.root
p139
I10000
sV/store/cmst3/group/cmgtools/CMG/WH_ZH_TTH_HToTauTau_M-150_8TeV-pythia6-tauola/Summer12_DR53X-PU_S10_START53_V7A-v1/AODSIM/PAT_CMG_V5_16_0/cmgTuple_16_1_dzq.root
p140
I10000
sV/store/cmst3/group/cmgtools/CMG/WH_ZH_TTH_HToTauTau_M-150_8TeV-pythia6-tauola/Summer12_DR53X-PU_S10_START53_V7A-v1/AODSIM/PAT_CMG_V5_16_0/cmgTuple_12_1_S4s.root
p141
I10000
ssVPrimaryDataset
p142
V/WH_ZH_TTH_HToTauTau_M-150_8TeV-pythia6-tauola/Summer12_DR53X-PU_S10_START53_V7A-v1/AODSIM
p143
sVStatus
p144
VVALID
p145
sVName
p146
V/WH_ZH_TTH_HToTauTau_M-150_8TeV-pythia6-tauola/Summer12_DR53X-PU_S10_START53_V7A-v1/AODSIM/PAT_CMG_V5_16_0
p147
sVTopdir
p148
V/eos/cms/store/cmst3/group/cmgtools/CMG
p149
sVdata
p150
(dp151
sVFilesBad
p152
I0
sVMinRun
p153
I-1
sVAlgoList
p154
(lp155
sVTierList
p156
(lp157
sVDateCreated
p158
V1370942768
p159
sVCreatedBy
p160
Vcmgtools_group
p161
sVMaxRun
p162
I-1
sVBadJobs
p163
(lp164
ssg57
I01
ssS'MonitorJobs'
p165
(dp166
S'LSFJobStatus'
p167
(dp168
g60
S'WH_ZH_TTH_HToTauTau_M-150_8TeV-pythia6-tauola/Summer12_DR53X-PU_S10_START53_V7A-v1/AODSIM/PAT_CMG_V5_16_0_1377467485/HTT_24Jul_newTES_manzoni_Up_Jobs/Job_4/LSFJOB_440970806/STDOUT.gz'
p169
sg61
S'WH_ZH_TTH_HToTauTau_M-150_8TeV-pythia6-tauola/Summer12_DR53X-PU_S10_START53_V7A-v1/AODSIM/PAT_CMG_V5_16_0_1377467485/HTT_24Jul_newTES_manzoni_Up_Jobs/Job_5/LSFJOB_440970900/STDOUT.gz'
p170
sg62
S'WH_ZH_TTH_HToTauTau_M-150_8TeV-pythia6-tauola/Summer12_DR53X-PU_S10_START53_V7A-v1/AODSIM/PAT_CMG_V5_16_0_1377467485/HTT_24Jul_newTES_manzoni_Up_Jobs/Job_2/LSFJOB_440970523/STDOUT.gz'
p171
sg63
S'WH_ZH_TTH_HToTauTau_M-150_8TeV-pythia6-tauola/Summer12_DR53X-PU_S10_START53_V7A-v1/AODSIM/PAT_CMG_V5_16_0_1377467485/HTT_24Jul_newTES_manzoni_Up_Jobs/Job_3/LSFJOB_440970687/STDOUT.gz'
p172
sg64
S'WH_ZH_TTH_HToTauTau_M-150_8TeV-pythia6-tauola/Summer12_DR53X-PU_S10_START53_V7A-v1/AODSIM/PAT_CMG_V5_16_0_1377467485/HTT_24Jul_newTES_manzoni_Up_Jobs/Job_1/LSFJOB_440970411/STDOUT.gz'
p173
ssS'LSFJobIDs'
p174
(dp175
g60
S'440970806'
p176
sg61
S'440970900'
p177
sg62
S'440970523'
p178
sg63
S'440970687'
p179
sg64
S'440970411'
p180
sssS'FindOnCastor'
p181
(dp182
g19
S'/eos/cms/store/cmst3/group/cmgtools/CMG'
p183
sS'Directory'
p184
S'/eos/cms/store/cmst3/group/cmgtools/CMG/WH_ZH_TTH_HToTauTau_M-150_8TeV-pythia6-tauola/Summer12_DR53X-PU_S10_START53_V7A-v1/AODSIM/PAT_CMG_V5_16_0'
p185
ssS'CheckConfig'
p186
(dp187
g35
g36
ssS'FullCFG'
p188
(dp189
S'FullCFG'
p190
S'WH_ZH_TTH_HToTauTau_M-150_8TeV-pythia6-tauola/Summer12_DR53X-PU_S10_START53_V7A-v1/AODSIM/PAT_CMG_V5_16_0_1377467485/full_cfg.py'
p191
ssS'WriteJobReport'
p192
(dp193
S'SummaryFile'
p194
S'WH_ZH_TTH_HToTauTau_M-150_8TeV-pythia6-tauola/Summer12_DR53X-PU_S10_START53_V7A-v1/AODSIM/PAT_CMG_V5_16_0_1377467485/resubmit.sh'
p195
ssS'ExpandConfig'
p196
(dp197
S'ExpandedFullCFG'
p198
S'WH_ZH_TTH_HToTauTau_M-150_8TeV-pythia6-tauola/Summer12_DR53X-PU_S10_START53_V7A-v1/AODSIM/PAT_CMG_V5_16_0_1377467485/Expandedfull_cfg.py'
p199
ssS'RunTestEvents'
p200
(dp201
g35
g36
sS'TestCFG'
p202
S'WH_ZH_TTH_HToTauTau_M-150_8TeV-pythia6-tauola/Summer12_DR53X-PU_S10_START53_V7A-v1/AODSIM/PAT_CMG_V5_16_0_1377467485/test_cfg.py'
p203
ssS'SourceCFG'
p204
(dp205
S'SourceCFG'
p206
S'WH_ZH_TTH_HToTauTau_M-150_8TeV-pythia6-tauola/Summer12_DR53X-PU_S10_START53_V7A-v1/AODSIM/PAT_CMG_V5_16_0_1377467485/source_cfg.py'
p207
ssS'CheckForWrite'
p208
(dp209
g184
g185
sS'WriteAccess'
p210
I01
ssS'WriteToDatasets'
p211
(dp212
S'Added'
p213
I00
sg17
S'/WH_ZH_TTH_HToTauTau_M-150_8TeV-pythia6-tauola/Summer12_DR53X-PU_S10_START53_V7A-v1/AODSIM/PAT_CMG_V5_16_0/HTT_24Jul_newTES_manzoni_Up'
p214
sS'User'
p215
g50
ssS'RunCMSBatch'
p216
(dp217
S'BatchUser'
p218
g50
sS'SampleOutputDir'
p219
S'/store/cmst3/user/manzoni/CMG/WH_ZH_TTH_HToTauTau_M-150_8TeV-pythia6-tauola/Summer12_DR53X-PU_S10_START53_V7A-v1/AODSIM/PAT_CMG_V5_16_0/HTT_24Jul_newTES_manzoni_Up'
p220
sS'SampleDataset'
p221
g18
sS'LSFJobsTopDir'
p222
S'WH_ZH_TTH_HToTauTau_M-150_8TeV-pythia6-tauola/Summer12_DR53X-PU_S10_START53_V7A-v1/AODSIM/PAT_CMG_V5_16_0_1377467485/HTT_24Jul_newTES_manzoni_Up_Jobs'
p223
ssS'CreateJobDirectory'
p224
(dp225
S'JobDir'
p226
S'WH_ZH_TTH_HToTauTau_M-150_8TeV-pythia6-tauola/Summer12_DR53X-PU_S10_START53_V7A-v1/AODSIM/PAT_CMG_V5_16_0_1377467485'
p227
sS'PWD'
p228
S'/afs/cern.ch/user/m/manzoni/summer13/CMGTools/CMSSW_5_3_9/src/CMGTools/H2TauTau/prod/25aug_corrMC/up/mc'
p229
ssS'CleanJobFiles'
p230
(dp231
S'Compressed'
p232
(dp233
S'CompressedFiles'
p234
(lp235
ssS'Cleaned'
p236
(dp237
S'CleanedFiles'
p238
(lp239
g199
ag203
aS'WH_ZH_TTH_HToTauTau_M-150_8TeV-pythia6-tauola/Summer12_DR53X-PU_S10_START53_V7A-v1/AODSIM/PAT_CMG_V5_16_0_1377467485/diTau_fullsel_tree_CMG.root'
p240
aS'WH_ZH_TTH_HToTauTau_M-150_8TeV-pythia6-tauola/Summer12_DR53X-PU_S10_START53_V7A-v1/AODSIM/PAT_CMG_V5_16_0_1377467485/source_cfg.pyc'
p241
aS'WH_ZH_TTH_HToTauTau_M-150_8TeV-pythia6-tauola/Summer12_DR53X-PU_S10_START53_V7A-v1/AODSIM/PAT_CMG_V5_16_0_1377467485/Expandedfull_cfg.pyc'
p242
asssS'CheckForMask'
p243
(dp244
g3
g71
sg57
I01
ss.