(dp0
S'CheckJobStatus'
p1
(dp2
S'Report'
p3
(dp4
S'Files'
p5
(dp6
S'/store/cmst3/user/manzoni/CMG/SUSYBBHToTauTau_M-90_8TeV-pythia6-tauola/Summer12_DR53X-PU_S10_START53_V7A-v1/AODSIM/PAT_CMG_V5_16_0/HTT_24Jul_newTES_manzoni_Up/diTau_fullsel_tree_CMG_33.root'
p7
(I01
I25
tp8
sS'/store/cmst3/user/manzoni/CMG/SUSYBBHToTauTau_M-90_8TeV-pythia6-tauola/Summer12_DR53X-PU_S10_START53_V7A-v1/AODSIM/PAT_CMG_V5_16_0/HTT_24Jul_newTES_manzoni_Up/diTau_fullsel_tree_CMG_7.root'
p9
(I01
I26
tp10
sS'/store/cmst3/user/manzoni/CMG/SUSYBBHToTauTau_M-90_8TeV-pythia6-tauola/Summer12_DR53X-PU_S10_START53_V7A-v1/AODSIM/PAT_CMG_V5_16_0/HTT_24Jul_newTES_manzoni_Up/diTau_fullsel_tree_CMG_3.root'
p11
(I01
I29
tp12
sS'/store/cmst3/user/manzoni/CMG/SUSYBBHToTauTau_M-90_8TeV-pythia6-tauola/Summer12_DR53X-PU_S10_START53_V7A-v1/AODSIM/PAT_CMG_V5_16_0/HTT_24Jul_newTES_manzoni_Up/diTau_fullsel_tree_CMG_25.root'
p13
(I01
I27
tp14
sS'/store/cmst3/user/manzoni/CMG/SUSYBBHToTauTau_M-90_8TeV-pythia6-tauola/Summer12_DR53X-PU_S10_START53_V7A-v1/AODSIM/PAT_CMG_V5_16_0/HTT_24Jul_newTES_manzoni_Up/diTau_fullsel_tree_CMG_26.root'
p15
(I01
I26
tp16
sS'/store/cmst3/user/manzoni/CMG/SUSYBBHToTauTau_M-90_8TeV-pythia6-tauola/Summer12_DR53X-PU_S10_START53_V7A-v1/AODSIM/PAT_CMG_V5_16_0/HTT_24Jul_newTES_manzoni_Up/diTau_fullsel_tree_CMG_30.root'
p17
(I01
I22
tp18
sS'/store/cmst3/user/manzoni/CMG/SUSYBBHToTauTau_M-90_8TeV-pythia6-tauola/Summer12_DR53X-PU_S10_START53_V7A-v1/AODSIM/PAT_CMG_V5_16_0/HTT_24Jul_newTES_manzoni_Up/diTau_fullsel_tree_CMG_2.root'
p19
(I01
I22
tp20
sS'/store/cmst3/user/manzoni/CMG/SUSYBBHToTauTau_M-90_8TeV-pythia6-tauola/Summer12_DR53X-PU_S10_START53_V7A-v1/AODSIM/PAT_CMG_V5_16_0/HTT_24Jul_newTES_manzoni_Up/diTau_fullsel_tree_CMG_24.root'
p21
(I01
I28
tp22
sS'/store/cmst3/user/manzoni/CMG/SUSYBBHToTauTau_M-90_8TeV-pythia6-tauola/Summer12_DR53X-PU_S10_START53_V7A-v1/AODSIM/PAT_CMG_V5_16_0/HTT_24Jul_newTES_manzoni_Up/diTau_fullsel_tree_CMG_18.root'
p23
(I01
I25
tp24
sS'/store/cmst3/user/manzoni/CMG/SUSYBBHToTauTau_M-90_8TeV-pythia6-tauola/Summer12_DR53X-PU_S10_START53_V7A-v1/AODSIM/PAT_CMG_V5_16_0/HTT_24Jul_newTES_manzoni_Up/diTau_fullsel_tree_CMG_9.root'
p25
(I01
I15
tp26
sS'/store/cmst3/user/manzoni/CMG/SUSYBBHToTauTau_M-90_8TeV-pythia6-tauola/Summer12_DR53X-PU_S10_START53_V7A-v1/AODSIM/PAT_CMG_V5_16_0/HTT_24Jul_newTES_manzoni_Up/diTau_fullsel_tree_CMG_32.root'
p27
(I01
I35
tp28
sS'/store/cmst3/user/manzoni/CMG/SUSYBBHToTauTau_M-90_8TeV-pythia6-tauola/Summer12_DR53X-PU_S10_START53_V7A-v1/AODSIM/PAT_CMG_V5_16_0/HTT_24Jul_newTES_manzoni_Up/diTau_fullsel_tree_CMG_29.root'
p29
(I01
I20
tp30
sS'/store/cmst3/user/manzoni/CMG/SUSYBBHToTauTau_M-90_8TeV-pythia6-tauola/Summer12_DR53X-PU_S10_START53_V7A-v1/AODSIM/PAT_CMG_V5_16_0/HTT_24Jul_newTES_manzoni_Up/diTau_fullsel_tree_CMG_31.root'
p31
(I01
I18
tp32
sS'/store/cmst3/user/manzoni/CMG/SUSYBBHToTauTau_M-90_8TeV-pythia6-tauola/Summer12_DR53X-PU_S10_START53_V7A-v1/AODSIM/PAT_CMG_V5_16_0/HTT_24Jul_newTES_manzoni_Up/diTau_fullsel_tree_CMG_16.root'
p33
(I01
I25
tp34
sS'/store/cmst3/user/manzoni/CMG/SUSYBBHToTauTau_M-90_8TeV-pythia6-tauola/Summer12_DR53X-PU_S10_START53_V7A-v1/AODSIM/PAT_CMG_V5_16_0/HTT_24Jul_newTES_manzoni_Up/diTau_fullsel_tree_CMG_20.root'
p35
(I01
I32
tp36
sS'/store/cmst3/user/manzoni/CMG/SUSYBBHToTauTau_M-90_8TeV-pythia6-tauola/Summer12_DR53X-PU_S10_START53_V7A-v1/AODSIM/PAT_CMG_V5_16_0/HTT_24Jul_newTES_manzoni_Up/diTau_fullsel_tree_CMG_8.root'
p37
(I01
I32
tp38
sS'/store/cmst3/user/manzoni/CMG/SUSYBBHToTauTau_M-90_8TeV-pythia6-tauola/Summer12_DR53X-PU_S10_START53_V7A-v1/AODSIM/PAT_CMG_V5_16_0/HTT_24Jul_newTES_manzoni_Up/diTau_fullsel_tree_CMG_4.root'
p39
(I01
I27
tp40
sS'/store/cmst3/user/manzoni/CMG/SUSYBBHToTauTau_M-90_8TeV-pythia6-tauola/Summer12_DR53X-PU_S10_START53_V7A-v1/AODSIM/PAT_CMG_V5_16_0/HTT_24Jul_newTES_manzoni_Up/diTau_fullsel_tree_CMG_28.root'
p41
(I01
I35
tp42
sS'/store/cmst3/user/manzoni/CMG/SUSYBBHToTauTau_M-90_8TeV-pythia6-tauola/Summer12_DR53X-PU_S10_START53_V7A-v1/AODSIM/PAT_CMG_V5_16_0/HTT_24Jul_newTES_manzoni_Up/diTau_fullsel_tree_CMG_12.root'
p43
(I01
I35
tp44
sS'/store/cmst3/user/manzoni/CMG/SUSYBBHToTauTau_M-90_8TeV-pythia6-tauola/Summer12_DR53X-PU_S10_START53_V7A-v1/AODSIM/PAT_CMG_V5_16_0/HTT_24Jul_newTES_manzoni_Up/diTau_fullsel_tree_CMG_23.root'
p45
(I01
I39
tp46
sS'/store/cmst3/user/manzoni/CMG/SUSYBBHToTauTau_M-90_8TeV-pythia6-tauola/Summer12_DR53X-PU_S10_START53_V7A-v1/AODSIM/PAT_CMG_V5_16_0/HTT_24Jul_newTES_manzoni_Up/diTau_fullsel_tree_CMG_15.root'
p47
(I01
I45
tp48
sS'/store/cmst3/user/manzoni/CMG/SUSYBBHToTauTau_M-90_8TeV-pythia6-tauola/Summer12_DR53X-PU_S10_START53_V7A-v1/AODSIM/PAT_CMG_V5_16_0/HTT_24Jul_newTES_manzoni_Up/diTau_fullsel_tree_CMG_5.root'
p49
(I01
I31
tp50
sS'/store/cmst3/user/manzoni/CMG/SUSYBBHToTauTau_M-90_8TeV-pythia6-tauola/Summer12_DR53X-PU_S10_START53_V7A-v1/AODSIM/PAT_CMG_V5_16_0/HTT_24Jul_newTES_manzoni_Up/diTau_fullsel_tree_CMG_27.root'
p51
(I01
I26
tp52
sS'/store/cmst3/user/manzoni/CMG/SUSYBBHToTauTau_M-90_8TeV-pythia6-tauola/Summer12_DR53X-PU_S10_START53_V7A-v1/AODSIM/PAT_CMG_V5_16_0/HTT_24Jul_newTES_manzoni_Up/diTau_fullsel_tree_CMG_14.root'
p53
(I01
I36
tp54
sS'/store/cmst3/user/manzoni/CMG/SUSYBBHToTauTau_M-90_8TeV-pythia6-tauola/Summer12_DR53X-PU_S10_START53_V7A-v1/AODSIM/PAT_CMG_V5_16_0/HTT_24Jul_newTES_manzoni_Up/diTau_fullsel_tree_CMG_10.root'
p55
(I01
I32
tp56
sS'/store/cmst3/user/manzoni/CMG/SUSYBBHToTauTau_M-90_8TeV-pythia6-tauola/Summer12_DR53X-PU_S10_START53_V7A-v1/AODSIM/PAT_CMG_V5_16_0/HTT_24Jul_newTES_manzoni_Up/diTau_fullsel_tree_CMG_17.root'
p57
(I01
I32
tp58
sS'/store/cmst3/user/manzoni/CMG/SUSYBBHToTauTau_M-90_8TeV-pythia6-tauola/Summer12_DR53X-PU_S10_START53_V7A-v1/AODSIM/PAT_CMG_V5_16_0/HTT_24Jul_newTES_manzoni_Up/diTau_fullsel_tree_CMG_1.root'
p59
(I01
I20
tp60
sS'/store/cmst3/user/manzoni/CMG/SUSYBBHToTauTau_M-90_8TeV-pythia6-tauola/Summer12_DR53X-PU_S10_START53_V7A-v1/AODSIM/PAT_CMG_V5_16_0/HTT_24Jul_newTES_manzoni_Up/diTau_fullsel_tree_CMG_21.root'
p61
(I01
I25
tp62
sS'/store/cmst3/user/manzoni/CMG/SUSYBBHToTauTau_M-90_8TeV-pythia6-tauola/Summer12_DR53X-PU_S10_START53_V7A-v1/AODSIM/PAT_CMG_V5_16_0/HTT_24Jul_newTES_manzoni_Up/diTau_fullsel_tree_CMG_13.root'
p63
(I01
I33
tp64
sS'/store/cmst3/user/manzoni/CMG/SUSYBBHToTauTau_M-90_8TeV-pythia6-tauola/Summer12_DR53X-PU_S10_START53_V7A-v1/AODSIM/PAT_CMG_V5_16_0/HTT_24Jul_newTES_manzoni_Up/diTau_fullsel_tree_CMG_19.root'
p65
(I01
I26
tp66
sS'/store/cmst3/user/manzoni/CMG/SUSYBBHToTauTau_M-90_8TeV-pythia6-tauola/Summer12_DR53X-PU_S10_START53_V7A-v1/AODSIM/PAT_CMG_V5_16_0/HTT_24Jul_newTES_manzoni_Up/diTau_fullsel_tree_CMG_6.root'
p67
(I01
I32
tp68
sS'/store/cmst3/user/manzoni/CMG/SUSYBBHToTauTau_M-90_8TeV-pythia6-tauola/Summer12_DR53X-PU_S10_START53_V7A-v1/AODSIM/PAT_CMG_V5_16_0/HTT_24Jul_newTES_manzoni_Up/diTau_fullsel_tree_CMG_22.root'
p69
(I01
I22
tp70
sS'/store/cmst3/user/manzoni/CMG/SUSYBBHToTauTau_M-90_8TeV-pythia6-tauola/Summer12_DR53X-PU_S10_START53_V7A-v1/AODSIM/PAT_CMG_V5_16_0/HTT_24Jul_newTES_manzoni_Up/diTau_fullsel_tree_CMG_11.root'
p71
(I01
I41
tp72
ssS'Name'
p73
S'/SUSYBBHToTauTau_M-90_8TeV-pythia6-tauola/Summer12_DR53X-PU_S10_START53_V7A-v1/AODSIM/PAT_CMG_V5_16_0/HTT_24Jul_newTES_manzoni_Up'
p74
sS'Topdir'
p75
S'/eos/cms/store/cmst3/user/manzoni/CMG'
p76
sS'RunList'
p77
(lp78
sS'PathList'
p79
(lp80
S'/store/cmst3/user/manzoni/CMG/SUSYBBHToTauTau_M-90_8TeV-pythia6-tauola/Summer12_DR53X-PU_S10_START53_V7A-v1/AODSIM/PAT_CMG_V5_16_0/HTT_24Jul_newTES_manzoni_Up'
p81
asS'AlgoList'
p82
(lp83
sS'PrimaryDatasetFraction'
p84
F0.00094794344473007712
sS'FilesGood'
p85
I33
sS'PrimaryDatasetEntries'
p86
I995840
sS'data'
p87
(dp88
sS'FilesBad'
p89
I0
sS'ReportVersion'
p90
I3
sS'Status'
p91
S'VALID'
p92
sS'MaxRun'
p93
I-1
sS'PhysicsGroup'
p94
S'CMG'
p95
sS'MinRun'
p96
I-1
sS'StageHost'
p97
S'castorcms'
p98
sS'FilesCount'
p99
I33
sS'FilesEntries'
p100
I944
sS'TierList'
p101
(lp102
sS'DateCreated'
p103
S'1377480074'
p104
sS'CreatedBy'
p105
S'manzoni'
p106
sS'ValidDuplicates'
p107
(dp108
sS'PrimaryDataset'
p109
S'/SUSYBBHToTauTau_M-90_8TeV-pythia6-tauola/Summer12_DR53X-PU_S10_START53_V7A-v1/AODSIM'
p110
sS'BadJobs'
p111
(lp112
ssS'MaskPresent'
p113
I01
sS'LSFJobStatusCheck'
p114
(dp115
S'SUSYBBHToTauTau_M-90_8TeV-pythia6-tauola/Summer12_DR53X-PU_S10_START53_V7A-v1/AODSIM/PAT_CMG_V5_16_0_1377467557/HTT_24Jul_newTES_manzoni_Up_Jobs/Job_1'
p116
g92
sS'SUSYBBHToTauTau_M-90_8TeV-pythia6-tauola/Summer12_DR53X-PU_S10_START53_V7A-v1/AODSIM/PAT_CMG_V5_16_0_1377467557/HTT_24Jul_newTES_manzoni_Up_Jobs/Job_2'
p117
g92
sS'SUSYBBHToTauTau_M-90_8TeV-pythia6-tauola/Summer12_DR53X-PU_S10_START53_V7A-v1/AODSIM/PAT_CMG_V5_16_0_1377467557/HTT_24Jul_newTES_manzoni_Up_Jobs/Job_3'
p118
g92
sS'SUSYBBHToTauTau_M-90_8TeV-pythia6-tauola/Summer12_DR53X-PU_S10_START53_V7A-v1/AODSIM/PAT_CMG_V5_16_0_1377467557/HTT_24Jul_newTES_manzoni_Up_Jobs/Job_4'
p119
g92
sS'SUSYBBHToTauTau_M-90_8TeV-pythia6-tauola/Summer12_DR53X-PU_S10_START53_V7A-v1/AODSIM/PAT_CMG_V5_16_0_1377467557/HTT_24Jul_newTES_manzoni_Up_Jobs/Job_5'
p120
g92
sS'SUSYBBHToTauTau_M-90_8TeV-pythia6-tauola/Summer12_DR53X-PU_S10_START53_V7A-v1/AODSIM/PAT_CMG_V5_16_0_1377467557/HTT_24Jul_newTES_manzoni_Up_Jobs/Job_6'
p121
g92
sS'SUSYBBHToTauTau_M-90_8TeV-pythia6-tauola/Summer12_DR53X-PU_S10_START53_V7A-v1/AODSIM/PAT_CMG_V5_16_0_1377467557/HTT_24Jul_newTES_manzoni_Up_Jobs/Job_7'
p122
g92
sS'SUSYBBHToTauTau_M-90_8TeV-pythia6-tauola/Summer12_DR53X-PU_S10_START53_V7A-v1/AODSIM/PAT_CMG_V5_16_0_1377467557/HTT_24Jul_newTES_manzoni_Up_Jobs/Job_8'
p123
g92
sS'SUSYBBHToTauTau_M-90_8TeV-pythia6-tauola/Summer12_DR53X-PU_S10_START53_V7A-v1/AODSIM/PAT_CMG_V5_16_0_1377467557/HTT_24Jul_newTES_manzoni_Up_Jobs/Job_9'
p124
g92
sS'SUSYBBHToTauTau_M-90_8TeV-pythia6-tauola/Summer12_DR53X-PU_S10_START53_V7A-v1/AODSIM/PAT_CMG_V5_16_0_1377467557/HTT_24Jul_newTES_manzoni_Up_Jobs/Job_29'
p125
g92
sS'SUSYBBHToTauTau_M-90_8TeV-pythia6-tauola/Summer12_DR53X-PU_S10_START53_V7A-v1/AODSIM/PAT_CMG_V5_16_0_1377467557/HTT_24Jul_newTES_manzoni_Up_Jobs/Job_28'
p126
g92
sS'SUSYBBHToTauTau_M-90_8TeV-pythia6-tauola/Summer12_DR53X-PU_S10_START53_V7A-v1/AODSIM/PAT_CMG_V5_16_0_1377467557/HTT_24Jul_newTES_manzoni_Up_Jobs/Job_23'
p127
g92
sS'SUSYBBHToTauTau_M-90_8TeV-pythia6-tauola/Summer12_DR53X-PU_S10_START53_V7A-v1/AODSIM/PAT_CMG_V5_16_0_1377467557/HTT_24Jul_newTES_manzoni_Up_Jobs/Job_22'
p128
g92
sS'SUSYBBHToTauTau_M-90_8TeV-pythia6-tauola/Summer12_DR53X-PU_S10_START53_V7A-v1/AODSIM/PAT_CMG_V5_16_0_1377467557/HTT_24Jul_newTES_manzoni_Up_Jobs/Job_21'
p129
g92
sS'SUSYBBHToTauTau_M-90_8TeV-pythia6-tauola/Summer12_DR53X-PU_S10_START53_V7A-v1/AODSIM/PAT_CMG_V5_16_0_1377467557/HTT_24Jul_newTES_manzoni_Up_Jobs/Job_20'
p130
g92
sS'SUSYBBHToTauTau_M-90_8TeV-pythia6-tauola/Summer12_DR53X-PU_S10_START53_V7A-v1/AODSIM/PAT_CMG_V5_16_0_1377467557/HTT_24Jul_newTES_manzoni_Up_Jobs/Job_27'
p131
g92
sS'SUSYBBHToTauTau_M-90_8TeV-pythia6-tauola/Summer12_DR53X-PU_S10_START53_V7A-v1/AODSIM/PAT_CMG_V5_16_0_1377467557/HTT_24Jul_newTES_manzoni_Up_Jobs/Job_26'
p132
g92
sS'SUSYBBHToTauTau_M-90_8TeV-pythia6-tauola/Summer12_DR53X-PU_S10_START53_V7A-v1/AODSIM/PAT_CMG_V5_16_0_1377467557/HTT_24Jul_newTES_manzoni_Up_Jobs/Job_25'
p133
g92
sS'SUSYBBHToTauTau_M-90_8TeV-pythia6-tauola/Summer12_DR53X-PU_S10_START53_V7A-v1/AODSIM/PAT_CMG_V5_16_0_1377467557/HTT_24Jul_newTES_manzoni_Up_Jobs/Job_24'
p134
g92
sS'SUSYBBHToTauTau_M-90_8TeV-pythia6-tauola/Summer12_DR53X-PU_S10_START53_V7A-v1/AODSIM/PAT_CMG_V5_16_0_1377467557/HTT_24Jul_newTES_manzoni_Up_Jobs/Job_12'
p135
g92
sS'SUSYBBHToTauTau_M-90_8TeV-pythia6-tauola/Summer12_DR53X-PU_S10_START53_V7A-v1/AODSIM/PAT_CMG_V5_16_0_1377467557/HTT_24Jul_newTES_manzoni_Up_Jobs/Job_13'
p136
g92
sS'SUSYBBHToTauTau_M-90_8TeV-pythia6-tauola/Summer12_DR53X-PU_S10_START53_V7A-v1/AODSIM/PAT_CMG_V5_16_0_1377467557/HTT_24Jul_newTES_manzoni_Up_Jobs/Job_10'
p137
g92
sS'SUSYBBHToTauTau_M-90_8TeV-pythia6-tauola/Summer12_DR53X-PU_S10_START53_V7A-v1/AODSIM/PAT_CMG_V5_16_0_1377467557/HTT_24Jul_newTES_manzoni_Up_Jobs/Job_11'
p138
g92
sS'SUSYBBHToTauTau_M-90_8TeV-pythia6-tauola/Summer12_DR53X-PU_S10_START53_V7A-v1/AODSIM/PAT_CMG_V5_16_0_1377467557/HTT_24Jul_newTES_manzoni_Up_Jobs/Job_16'
p139
g92
sS'SUSYBBHToTauTau_M-90_8TeV-pythia6-tauola/Summer12_DR53X-PU_S10_START53_V7A-v1/AODSIM/PAT_CMG_V5_16_0_1377467557/HTT_24Jul_newTES_manzoni_Up_Jobs/Job_17'
p140
g92
sS'SUSYBBHToTauTau_M-90_8TeV-pythia6-tauola/Summer12_DR53X-PU_S10_START53_V7A-v1/AODSIM/PAT_CMG_V5_16_0_1377467557/HTT_24Jul_newTES_manzoni_Up_Jobs/Job_14'
p141
g92
sS'SUSYBBHToTauTau_M-90_8TeV-pythia6-tauola/Summer12_DR53X-PU_S10_START53_V7A-v1/AODSIM/PAT_CMG_V5_16_0_1377467557/HTT_24Jul_newTES_manzoni_Up_Jobs/Job_15'
p142
g92
sS'SUSYBBHToTauTau_M-90_8TeV-pythia6-tauola/Summer12_DR53X-PU_S10_START53_V7A-v1/AODSIM/PAT_CMG_V5_16_0_1377467557/HTT_24Jul_newTES_manzoni_Up_Jobs/Job_18'
p143
g92
sS'SUSYBBHToTauTau_M-90_8TeV-pythia6-tauola/Summer12_DR53X-PU_S10_START53_V7A-v1/AODSIM/PAT_CMG_V5_16_0_1377467557/HTT_24Jul_newTES_manzoni_Up_Jobs/Job_19'
p144
g92
sS'SUSYBBHToTauTau_M-90_8TeV-pythia6-tauola/Summer12_DR53X-PU_S10_START53_V7A-v1/AODSIM/PAT_CMG_V5_16_0_1377467557/HTT_24Jul_newTES_manzoni_Up_Jobs/Job_30'
p145
g92
sS'SUSYBBHToTauTau_M-90_8TeV-pythia6-tauola/Summer12_DR53X-PU_S10_START53_V7A-v1/AODSIM/PAT_CMG_V5_16_0_1377467557/HTT_24Jul_newTES_manzoni_Up_Jobs/Job_31'
p146
g92
sS'SUSYBBHToTauTau_M-90_8TeV-pythia6-tauola/Summer12_DR53X-PU_S10_START53_V7A-v1/AODSIM/PAT_CMG_V5_16_0_1377467557/HTT_24Jul_newTES_manzoni_Up_Jobs/Job_32'
p147
g92
sS'SUSYBBHToTauTau_M-90_8TeV-pythia6-tauola/Summer12_DR53X-PU_S10_START53_V7A-v1/AODSIM/PAT_CMG_V5_16_0_1377467557/HTT_24Jul_newTES_manzoni_Up_Jobs/Job_33'
p148
g92
sssS'CheckDatasetExists'
p149
(dp150
S'Dataset'
p151
S'/SUSYBBHToTauTau_M-90_8TeV-pythia6-tauola/Summer12_DR53X-PU_S10_START53_V7A-v1/AODSIM/PAT_CMG_V5_16_0'
p152
ssS'GenerateMask'
p153
(dp154
g3
(dp155
VPathList
p156
(lp157
V/store/cmst3/group/cmgtools/CMG/SUSYBBHToTauTau_M-90_8TeV-pythia6-tauola/Summer12_DR53X-PU_S10_START53_V7A-v1/AODSIM/PAT_CMG_V5_16_0
p158
asVStageHost
p159
Vcastorcms
p160
sVPrimaryDatasetFraction
p161
F0.97991645244215941
sVFilesGood
p162
I99
sVPrimaryDatasetEntries
p163
I995840
sVReportVersion
p164
I3
sVFiles
p165
(dp166
V/store/cmst3/group/cmgtools/CMG/SUSYBBHToTauTau_M-90_8TeV-pythia6-tauola/Summer12_DR53X-PU_S10_START53_V7A-v1/AODSIM/PAT_CMG_V5_16_0/cmgTuple_32_1_lCf.root
p167
(lp168
I01
aI10000
asV/store/cmst3/group/cmgtools/CMG/SUSYBBHToTauTau_M-90_8TeV-pythia6-tauola/Summer12_DR53X-PU_S10_START53_V7A-v1/AODSIM/PAT_CMG_V5_16_0/cmgTuple_38_1_V0a.root
p169
(lp170
I01
aI10000
asV/store/cmst3/group/cmgtools/CMG/SUSYBBHToTauTau_M-90_8TeV-pythia6-tauola/Summer12_DR53X-PU_S10_START53_V7A-v1/AODSIM/PAT_CMG_V5_16_0/cmgTuple_22_1_KQc.root
p171
(lp172
I01
aI10000
asV/store/cmst3/group/cmgtools/CMG/SUSYBBHToTauTau_M-90_8TeV-pythia6-tauola/Summer12_DR53X-PU_S10_START53_V7A-v1/AODSIM/PAT_CMG_V5_16_0/cmgTuple_98_1_KVz.root
p173
(lp174
I01
aI10000
asV/store/cmst3/group/cmgtools/CMG/SUSYBBHToTauTau_M-90_8TeV-pythia6-tauola/Summer12_DR53X-PU_S10_START53_V7A-v1/AODSIM/PAT_CMG_V5_16_0/cmgTuple_96_1_N9b.root
p175
(lp176
I01
aI10000
asV/store/cmst3/group/cmgtools/CMG/SUSYBBHToTauTau_M-90_8TeV-pythia6-tauola/Summer12_DR53X-PU_S10_START53_V7A-v1/AODSIM/PAT_CMG_V5_16_0/cmgTuple_15_1_MCw.root
p177
(lp178
I01
aI10000
asV/store/cmst3/group/cmgtools/CMG/SUSYBBHToTauTau_M-90_8TeV-pythia6-tauola/Summer12_DR53X-PU_S10_START53_V7A-v1/AODSIM/PAT_CMG_V5_16_0/cmgTuple_19_1_LQE.root
p179
(lp180
I01
aI10000
asV/store/cmst3/group/cmgtools/CMG/SUSYBBHToTauTau_M-90_8TeV-pythia6-tauola/Summer12_DR53X-PU_S10_START53_V7A-v1/AODSIM/PAT_CMG_V5_16_0/cmgTuple_78_1_b7i.root
p181
(lp182
I01
aI10000
asV/store/cmst3/group/cmgtools/CMG/SUSYBBHToTauTau_M-90_8TeV-pythia6-tauola/Summer12_DR53X-PU_S10_START53_V7A-v1/AODSIM/PAT_CMG_V5_16_0/cmgTuple_11_1_JTQ.root
p183
(lp184
I01
aI10000
asV/store/cmst3/group/cmgtools/CMG/SUSYBBHToTauTau_M-90_8TeV-pythia6-tauola/Summer12_DR53X-PU_S10_START53_V7A-v1/AODSIM/PAT_CMG_V5_16_0/cmgTuple_2_1_VON.root
p185
(lp186
I01
aI10000
asV/store/cmst3/group/cmgtools/CMG/SUSYBBHToTauTau_M-90_8TeV-pythia6-tauola/Summer12_DR53X-PU_S10_START53_V7A-v1/AODSIM/PAT_CMG_V5_16_0/cmgTuple_86_1_wY3.root
p187
(lp188
I01
aI10000
asV/store/cmst3/group/cmgtools/CMG/SUSYBBHToTauTau_M-90_8TeV-pythia6-tauola/Summer12_DR53X-PU_S10_START53_V7A-v1/AODSIM/PAT_CMG_V5_16_0/cmgTuple_43_1_eZC.root
p189
(lp190
I01
aI10000
asV/store/cmst3/group/cmgtools/CMG/SUSYBBHToTauTau_M-90_8TeV-pythia6-tauola/Summer12_DR53X-PU_S10_START53_V7A-v1/AODSIM/PAT_CMG_V5_16_0/cmgTuple_87_1_Ttk.root
p191
(lp192
I01
aI10000
asV/store/cmst3/group/cmgtools/CMG/SUSYBBHToTauTau_M-90_8TeV-pythia6-tauola/Summer12_DR53X-PU_S10_START53_V7A-v1/AODSIM/PAT_CMG_V5_16_0/cmgTuple_61_1_D1Q.root
p193
(lp194
I01
aI10000
asV/store/cmst3/group/cmgtools/CMG/SUSYBBHToTauTau_M-90_8TeV-pythia6-tauola/Summer12_DR53X-PU_S10_START53_V7A-v1/AODSIM/PAT_CMG_V5_16_0/cmgTuple_10_1_7JH.root
p195
(lp196
I01
aI10000
asV/store/cmst3/group/cmgtools/CMG/SUSYBBHToTauTau_M-90_8TeV-pythia6-tauola/Summer12_DR53X-PU_S10_START53_V7A-v1/AODSIM/PAT_CMG_V5_16_0/cmgTuple_95_1_usC.root
p197
(lp198
I01
aI10000
asV/store/cmst3/group/cmgtools/CMG/SUSYBBHToTauTau_M-90_8TeV-pythia6-tauola/Summer12_DR53X-PU_S10_START53_V7A-v1/AODSIM/PAT_CMG_V5_16_0/cmgTuple_26_1_uyZ.root
p199
(lp200
I01
aI10000
asV/store/cmst3/group/cmgtools/CMG/SUSYBBHToTauTau_M-90_8TeV-pythia6-tauola/Summer12_DR53X-PU_S10_START53_V7A-v1/AODSIM/PAT_CMG_V5_16_0/cmgTuple_51_1_YTx.root
p201
(lp202
I01
aI10000
asV/store/cmst3/group/cmgtools/CMG/SUSYBBHToTauTau_M-90_8TeV-pythia6-tauola/Summer12_DR53X-PU_S10_START53_V7A-v1/AODSIM/PAT_CMG_V5_16_0/cmgTuple_35_1_IcO.root
p203
(lp204
I01
aI10000
asV/store/cmst3/group/cmgtools/CMG/SUSYBBHToTauTau_M-90_8TeV-pythia6-tauola/Summer12_DR53X-PU_S10_START53_V7A-v1/AODSIM/PAT_CMG_V5_16_0/cmgTuple_65_1_lhY.root
p205
(lp206
I01
aI10000
asV/store/cmst3/group/cmgtools/CMG/SUSYBBHToTauTau_M-90_8TeV-pythia6-tauola/Summer12_DR53X-PU_S10_START53_V7A-v1/AODSIM/PAT_CMG_V5_16_0/cmgTuple_91_1_2RX.root
p207
(lp208
I01
aI10000
asV/store/cmst3/group/cmgtools/CMG/SUSYBBHToTauTau_M-90_8TeV-pythia6-tauola/Summer12_DR53X-PU_S10_START53_V7A-v1/AODSIM/PAT_CMG_V5_16_0/cmgTuple_54_1_W6T.root
p209
(lp210
I01
aI10000
asV/store/cmst3/group/cmgtools/CMG/SUSYBBHToTauTau_M-90_8TeV-pythia6-tauola/Summer12_DR53X-PU_S10_START53_V7A-v1/AODSIM/PAT_CMG_V5_16_0/cmgTuple_30_1_HTA.root
p211
(lp212
I01
aI10000
asV/store/cmst3/group/cmgtools/CMG/SUSYBBHToTauTau_M-90_8TeV-pythia6-tauola/Summer12_DR53X-PU_S10_START53_V7A-v1/AODSIM/PAT_CMG_V5_16_0/cmgTuple_80_1_KQi.root
p213
(lp214
I01
aI10000
asV/store/cmst3/group/cmgtools/CMG/SUSYBBHToTauTau_M-90_8TeV-pythia6-tauola/Summer12_DR53X-PU_S10_START53_V7A-v1/AODSIM/PAT_CMG_V5_16_0/cmgTuple_73_1_qDX.root
p215
(lp216
I01
aI10000
asV/store/cmst3/group/cmgtools/CMG/SUSYBBHToTauTau_M-90_8TeV-pythia6-tauola/Summer12_DR53X-PU_S10_START53_V7A-v1/AODSIM/PAT_CMG_V5_16_0/cmgTuple_17_1_rbv.root
p217
(lp218
I01
aI10000
asV/store/cmst3/group/cmgtools/CMG/SUSYBBHToTauTau_M-90_8TeV-pythia6-tauola/Summer12_DR53X-PU_S10_START53_V7A-v1/AODSIM/PAT_CMG_V5_16_0/cmgTuple_7_1_vxt.root
p219
(lp220
I01
aI10000
asV/store/cmst3/group/cmgtools/CMG/SUSYBBHToTauTau_M-90_8TeV-pythia6-tauola/Summer12_DR53X-PU_S10_START53_V7A-v1/AODSIM/PAT_CMG_V5_16_0/cmgTuple_42_1_8k3.root
p221
(lp222
I01
aI10000
asV/store/cmst3/group/cmgtools/CMG/SUSYBBHToTauTau_M-90_8TeV-pythia6-tauola/Summer12_DR53X-PU_S10_START53_V7A-v1/AODSIM/PAT_CMG_V5_16_0/cmgTuple_29_1_kE4.root
p223
(lp224
I01
aI10000
asV/store/cmst3/group/cmgtools/CMG/SUSYBBHToTauTau_M-90_8TeV-pythia6-tauola/Summer12_DR53X-PU_S10_START53_V7A-v1/AODSIM/PAT_CMG_V5_16_0/cmgTuple_67_1_uRB.root
p225
(lp226
I01
aI10000
asV/store/cmst3/group/cmgtools/CMG/SUSYBBHToTauTau_M-90_8TeV-pythia6-tauola/Summer12_DR53X-PU_S10_START53_V7A-v1/AODSIM/PAT_CMG_V5_16_0/cmgTuple_84_1_raW.root
p227
(lp228
I01
aI10000
asV/store/cmst3/group/cmgtools/CMG/SUSYBBHToTauTau_M-90_8TeV-pythia6-tauola/Summer12_DR53X-PU_S10_START53_V7A-v1/AODSIM/PAT_CMG_V5_16_0/cmgTuple_71_1_CXI.root
p229
(lp230
I01
aI10000
asV/store/cmst3/group/cmgtools/CMG/SUSYBBHToTauTau_M-90_8TeV-pythia6-tauola/Summer12_DR53X-PU_S10_START53_V7A-v1/AODSIM/PAT_CMG_V5_16_0/cmgTuple_14_1_Vzu.root
p231
(lp232
I01
aI10000
asV/store/cmst3/group/cmgtools/CMG/SUSYBBHToTauTau_M-90_8TeV-pythia6-tauola/Summer12_DR53X-PU_S10_START53_V7A-v1/AODSIM/PAT_CMG_V5_16_0/cmgTuple_49_1_Dxp.root
p233
(lp234
I01
aI10000
asV/store/cmst3/group/cmgtools/CMG/SUSYBBHToTauTau_M-90_8TeV-pythia6-tauola/Summer12_DR53X-PU_S10_START53_V7A-v1/AODSIM/PAT_CMG_V5_16_0/cmgTuple_47_1_puo.root
p235
(lp236
I01
aI10000
asV/store/cmst3/group/cmgtools/CMG/SUSYBBHToTauTau_M-90_8TeV-pythia6-tauola/Summer12_DR53X-PU_S10_START53_V7A-v1/AODSIM/PAT_CMG_V5_16_0/cmgTuple_8_1_uro.root
p237
(lp238
I01
aI10000
asV/store/cmst3/group/cmgtools/CMG/SUSYBBHToTauTau_M-90_8TeV-pythia6-tauola/Summer12_DR53X-PU_S10_START53_V7A-v1/AODSIM/PAT_CMG_V5_16_0/cmgTuple_81_1_BWi.root
p239
(lp240
I01
aI10000
asV/store/cmst3/group/cmgtools/CMG/SUSYBBHToTauTau_M-90_8TeV-pythia6-tauola/Summer12_DR53X-PU_S10_START53_V7A-v1/AODSIM/PAT_CMG_V5_16_0/cmgTuple_50_1_1Zc.root
p241
(lp242
I01
aI10000
asV/store/cmst3/group/cmgtools/CMG/SUSYBBHToTauTau_M-90_8TeV-pythia6-tauola/Summer12_DR53X-PU_S10_START53_V7A-v1/AODSIM/PAT_CMG_V5_16_0/cmgTuple_101_1_si8.root
p243
(lp244
I01
aI1920
asV/store/cmst3/group/cmgtools/CMG/SUSYBBHToTauTau_M-90_8TeV-pythia6-tauola/Summer12_DR53X-PU_S10_START53_V7A-v1/AODSIM/PAT_CMG_V5_16_0/cmgTuple_56_1_H2G.root
p245
(lp246
I01
aI10000
asV/store/cmst3/group/cmgtools/CMG/SUSYBBHToTauTau_M-90_8TeV-pythia6-tauola/Summer12_DR53X-PU_S10_START53_V7A-v1/AODSIM/PAT_CMG_V5_16_0/cmgTuple_41_1_h2d.root
p247
(lp248
I01
aI10000
asV/store/cmst3/group/cmgtools/CMG/SUSYBBHToTauTau_M-90_8TeV-pythia6-tauola/Summer12_DR53X-PU_S10_START53_V7A-v1/AODSIM/PAT_CMG_V5_16_0/cmgTuple_4_1_6C9.root
p249
(lp250
I01
aI10000
asV/store/cmst3/group/cmgtools/CMG/SUSYBBHToTauTau_M-90_8TeV-pythia6-tauola/Summer12_DR53X-PU_S10_START53_V7A-v1/AODSIM/PAT_CMG_V5_16_0/cmgTuple_58_1_SHf.root
p251
(lp252
I01
aI10000
asV/store/cmst3/group/cmgtools/CMG/SUSYBBHToTauTau_M-90_8TeV-pythia6-tauola/Summer12_DR53X-PU_S10_START53_V7A-v1/AODSIM/PAT_CMG_V5_16_0/cmgTuple_85_1_JZ2.root
p253
(lp254
I01
aI10000
asV/store/cmst3/group/cmgtools/CMG/SUSYBBHToTauTau_M-90_8TeV-pythia6-tauola/Summer12_DR53X-PU_S10_START53_V7A-v1/AODSIM/PAT_CMG_V5_16_0/cmgTuple_59_1_sZn.root
p255
(lp256
I01
aI10000
asV/store/cmst3/group/cmgtools/CMG/SUSYBBHToTauTau_M-90_8TeV-pythia6-tauola/Summer12_DR53X-PU_S10_START53_V7A-v1/AODSIM/PAT_CMG_V5_16_0/cmgTuple_62_1_V7N.root
p257
(lp258
I01
aI10000
asV/store/cmst3/group/cmgtools/CMG/SUSYBBHToTauTau_M-90_8TeV-pythia6-tauola/Summer12_DR53X-PU_S10_START53_V7A-v1/AODSIM/PAT_CMG_V5_16_0/cmgTuple_93_1_sO6.root
p259
(lp260
I01
aI10000
asV/store/cmst3/group/cmgtools/CMG/SUSYBBHToTauTau_M-90_8TeV-pythia6-tauola/Summer12_DR53X-PU_S10_START53_V7A-v1/AODSIM/PAT_CMG_V5_16_0/cmgTuple_9_1_wSu.root
p261
(lp262
I01
aI10000
asV/store/cmst3/group/cmgtools/CMG/SUSYBBHToTauTau_M-90_8TeV-pythia6-tauola/Summer12_DR53X-PU_S10_START53_V7A-v1/AODSIM/PAT_CMG_V5_16_0/cmgTuple_68_1_jDc.root
p263
(lp264
I01
aI10000
asV/store/cmst3/group/cmgtools/CMG/SUSYBBHToTauTau_M-90_8TeV-pythia6-tauola/Summer12_DR53X-PU_S10_START53_V7A-v1/AODSIM/PAT_CMG_V5_16_0/cmgTuple_18_1_a2O.root
p265
(lp266
I01
aI10000
asV/store/cmst3/group/cmgtools/CMG/SUSYBBHToTauTau_M-90_8TeV-pythia6-tauola/Summer12_DR53X-PU_S10_START53_V7A-v1/AODSIM/PAT_CMG_V5_16_0/cmgTuple_94_1_ctM.root
p267
(lp268
I01
aI10000
asV/store/cmst3/group/cmgtools/CMG/SUSYBBHToTauTau_M-90_8TeV-pythia6-tauola/Summer12_DR53X-PU_S10_START53_V7A-v1/AODSIM/PAT_CMG_V5_16_0/cmgTuple_69_1_UPv.root
p269
(lp270
I01
aI10000
asV/store/cmst3/group/cmgtools/CMG/SUSYBBHToTauTau_M-90_8TeV-pythia6-tauola/Summer12_DR53X-PU_S10_START53_V7A-v1/AODSIM/PAT_CMG_V5_16_0/cmgTuple_37_1_WgL.root
p271
(lp272
I01
aI10000
asV/store/cmst3/group/cmgtools/CMG/SUSYBBHToTauTau_M-90_8TeV-pythia6-tauola/Summer12_DR53X-PU_S10_START53_V7A-v1/AODSIM/PAT_CMG_V5_16_0/cmgTuple_89_1_zo3.root
p273
(lp274
I01
aI10000
asV/store/cmst3/group/cmgtools/CMG/SUSYBBHToTauTau_M-90_8TeV-pythia6-tauola/Summer12_DR53X-PU_S10_START53_V7A-v1/AODSIM/PAT_CMG_V5_16_0/cmgTuple_79_1_fLA.root
p275
(lp276
I01
aI10000
asV/store/cmst3/group/cmgtools/CMG/SUSYBBHToTauTau_M-90_8TeV-pythia6-tauola/Summer12_DR53X-PU_S10_START53_V7A-v1/AODSIM/PAT_CMG_V5_16_0/cmgTuple_72_1_hgW.root
p277
(lp278
I01
aI10000
asV/store/cmst3/group/cmgtools/CMG/SUSYBBHToTauTau_M-90_8TeV-pythia6-tauola/Summer12_DR53X-PU_S10_START53_V7A-v1/AODSIM/PAT_CMG_V5_16_0/cmgTuple_23_1_azc.root
p279
(lp280
I01
aI10000
asV/store/cmst3/group/cmgtools/CMG/SUSYBBHToTauTau_M-90_8TeV-pythia6-tauola/Summer12_DR53X-PU_S10_START53_V7A-v1/AODSIM/PAT_CMG_V5_16_0/cmgTuple_6_1_mre.root
p281
(lp282
I01
aI10000
asV/store/cmst3/group/cmgtools/CMG/SUSYBBHToTauTau_M-90_8TeV-pythia6-tauola/Summer12_DR53X-PU_S10_START53_V7A-v1/AODSIM/PAT_CMG_V5_16_0/cmgTuple_53_1_jnU.root
p283
(lp284
I01
aI10000
asV/store/cmst3/group/cmgtools/CMG/SUSYBBHToTauTau_M-90_8TeV-pythia6-tauola/Summer12_DR53X-PU_S10_START53_V7A-v1/AODSIM/PAT_CMG_V5_16_0/cmgTuple_74_1_kii.root
p285
(lp286
I01
aI10000
asV/store/cmst3/group/cmgtools/CMG/SUSYBBHToTauTau_M-90_8TeV-pythia6-tauola/Summer12_DR53X-PU_S10_START53_V7A-v1/AODSIM/PAT_CMG_V5_16_0/cmgTuple_82_1_34d.root
p287
(lp288
I01
aI10000
asV/store/cmst3/group/cmgtools/CMG/SUSYBBHToTauTau_M-90_8TeV-pythia6-tauola/Summer12_DR53X-PU_S10_START53_V7A-v1/AODSIM/PAT_CMG_V5_16_0/cmgTuple_52_1_Psw.root
p289
(lp290
I01
aI10000
asV/store/cmst3/group/cmgtools/CMG/SUSYBBHToTauTau_M-90_8TeV-pythia6-tauola/Summer12_DR53X-PU_S10_START53_V7A-v1/AODSIM/PAT_CMG_V5_16_0/cmgTuple_76_1_kdh.root
p291
(lp292
I01
aI10000
asV/store/cmst3/group/cmgtools/CMG/SUSYBBHToTauTau_M-90_8TeV-pythia6-tauola/Summer12_DR53X-PU_S10_START53_V7A-v1/AODSIM/PAT_CMG_V5_16_0/cmgTuple_27_1_B0X.root
p293
(lp294
I01
aI10000
asV/store/cmst3/group/cmgtools/CMG/SUSYBBHToTauTau_M-90_8TeV-pythia6-tauola/Summer12_DR53X-PU_S10_START53_V7A-v1/AODSIM/PAT_CMG_V5_16_0/cmgTuple_75_1_w5q.root
p295
(lp296
I01
aI10000
asV/store/cmst3/group/cmgtools/CMG/SUSYBBHToTauTau_M-90_8TeV-pythia6-tauola/Summer12_DR53X-PU_S10_START53_V7A-v1/AODSIM/PAT_CMG_V5_16_0/cmgTuple_34_1_3q8.root
p297
(lp298
I01
aI10000
asV/store/cmst3/group/cmgtools/CMG/SUSYBBHToTauTau_M-90_8TeV-pythia6-tauola/Summer12_DR53X-PU_S10_START53_V7A-v1/AODSIM/PAT_CMG_V5_16_0/cmgTuple_99_1_0pI.root
p299
(lp300
I01
aI10000
asV/store/cmst3/group/cmgtools/CMG/SUSYBBHToTauTau_M-90_8TeV-pythia6-tauola/Summer12_DR53X-PU_S10_START53_V7A-v1/AODSIM/PAT_CMG_V5_16_0/cmgTuple_90_1_kKo.root
p301
(lp302
I01
aI10000
asV/store/cmst3/group/cmgtools/CMG/SUSYBBHToTauTau_M-90_8TeV-pythia6-tauola/Summer12_DR53X-PU_S10_START53_V7A-v1/AODSIM/PAT_CMG_V5_16_0/cmgTuple_1_1_PAi.root
p303
(lp304
I01
aI10000
asV/store/cmst3/group/cmgtools/CMG/SUSYBBHToTauTau_M-90_8TeV-pythia6-tauola/Summer12_DR53X-PU_S10_START53_V7A-v1/AODSIM/PAT_CMG_V5_16_0/cmgTuple_97_1_Ysg.root
p305
(lp306
I01
aI10000
asV/store/cmst3/group/cmgtools/CMG/SUSYBBHToTauTau_M-90_8TeV-pythia6-tauola/Summer12_DR53X-PU_S10_START53_V7A-v1/AODSIM/PAT_CMG_V5_16_0/cmgTuple_31_1_5MM.root
p307
(lp308
I01
aI10000
asV/store/cmst3/group/cmgtools/CMG/SUSYBBHToTauTau_M-90_8TeV-pythia6-tauola/Summer12_DR53X-PU_S10_START53_V7A-v1/AODSIM/PAT_CMG_V5_16_0/cmgTuple_44_1_oJN.root
p309
(lp310
I01
aI10000
asV/store/cmst3/group/cmgtools/CMG/SUSYBBHToTauTau_M-90_8TeV-pythia6-tauola/Summer12_DR53X-PU_S10_START53_V7A-v1/AODSIM/PAT_CMG_V5_16_0/cmgTuple_20_1_yIa.root
p311
(lp312
I01
aI10000
asV/store/cmst3/group/cmgtools/CMG/SUSYBBHToTauTau_M-90_8TeV-pythia6-tauola/Summer12_DR53X-PU_S10_START53_V7A-v1/AODSIM/PAT_CMG_V5_16_0/cmgTuple_55_1_Mmm.root
p313
(lp314
I01
aI10000
asV/store/cmst3/group/cmgtools/CMG/SUSYBBHToTauTau_M-90_8TeV-pythia6-tauola/Summer12_DR53X-PU_S10_START53_V7A-v1/AODSIM/PAT_CMG_V5_16_0/cmgTuple_28_1_DE0.root
p315
(lp316
I01
aI10000
asV/store/cmst3/group/cmgtools/CMG/SUSYBBHToTauTau_M-90_8TeV-pythia6-tauola/Summer12_DR53X-PU_S10_START53_V7A-v1/AODSIM/PAT_CMG_V5_16_0/cmgTuple_46_1_g2t.root
p317
(lp318
I01
aI10000
asV/store/cmst3/group/cmgtools/CMG/SUSYBBHToTauTau_M-90_8TeV-pythia6-tauola/Summer12_DR53X-PU_S10_START53_V7A-v1/AODSIM/PAT_CMG_V5_16_0/cmgTuple_3_1_B0H.root
p319
(lp320
I01
aI10000
asV/store/cmst3/group/cmgtools/CMG/SUSYBBHToTauTau_M-90_8TeV-pythia6-tauola/Summer12_DR53X-PU_S10_START53_V7A-v1/AODSIM/PAT_CMG_V5_16_0/cmgTuple_25_1_H58.root
p321
(lp322
I01
aI10000
asV/store/cmst3/group/cmgtools/CMG/SUSYBBHToTauTau_M-90_8TeV-pythia6-tauola/Summer12_DR53X-PU_S10_START53_V7A-v1/AODSIM/PAT_CMG_V5_16_0/cmgTuple_77_1_vVT.root
p323
(lp324
I01
aI10000
asV/store/cmst3/group/cmgtools/CMG/SUSYBBHToTauTau_M-90_8TeV-pythia6-tauola/Summer12_DR53X-PU_S10_START53_V7A-v1/AODSIM/PAT_CMG_V5_16_0/cmgTuple_83_1_3G8.root
p325
(lp326
I01
aI10000
asV/store/cmst3/group/cmgtools/CMG/SUSYBBHToTauTau_M-90_8TeV-pythia6-tauola/Summer12_DR53X-PU_S10_START53_V7A-v1/AODSIM/PAT_CMG_V5_16_0/cmgTuple_40_1_AlQ.root
p327
(lp328
I01
aI10000
asV/store/cmst3/group/cmgtools/CMG/SUSYBBHToTauTau_M-90_8TeV-pythia6-tauola/Summer12_DR53X-PU_S10_START53_V7A-v1/AODSIM/PAT_CMG_V5_16_0/cmgTuple_66_1_5vI.root
p329
(lp330
I01
aI10000
asV/store/cmst3/group/cmgtools/CMG/SUSYBBHToTauTau_M-90_8TeV-pythia6-tauola/Summer12_DR53X-PU_S10_START53_V7A-v1/AODSIM/PAT_CMG_V5_16_0/cmgTuple_16_1_FS3.root
p331
(lp332
I01
aI10000
asV/store/cmst3/group/cmgtools/CMG/SUSYBBHToTauTau_M-90_8TeV-pythia6-tauola/Summer12_DR53X-PU_S10_START53_V7A-v1/AODSIM/PAT_CMG_V5_16_0/cmgTuple_13_1_xe9.root
p333
(lp334
I01
aI10000
asV/store/cmst3/group/cmgtools/CMG/SUSYBBHToTauTau_M-90_8TeV-pythia6-tauola/Summer12_DR53X-PU_S10_START53_V7A-v1/AODSIM/PAT_CMG_V5_16_0/cmgTuple_33_1_b4W.root
p335
(lp336
I01
aI10000
asV/store/cmst3/group/cmgtools/CMG/SUSYBBHToTauTau_M-90_8TeV-pythia6-tauola/Summer12_DR53X-PU_S10_START53_V7A-v1/AODSIM/PAT_CMG_V5_16_0/cmgTuple_21_1_Nk4.root
p337
(lp338
I01
aI10000
asV/store/cmst3/group/cmgtools/CMG/SUSYBBHToTauTau_M-90_8TeV-pythia6-tauola/Summer12_DR53X-PU_S10_START53_V7A-v1/AODSIM/PAT_CMG_V5_16_0/cmgTuple_60_1_7N0.root
p339
(lp340
I01
aI10000
asV/store/cmst3/group/cmgtools/CMG/SUSYBBHToTauTau_M-90_8TeV-pythia6-tauola/Summer12_DR53X-PU_S10_START53_V7A-v1/AODSIM/PAT_CMG_V5_16_0/cmgTuple_5_1_pXZ.root
p341
(lp342
I01
aI10000
asV/store/cmst3/group/cmgtools/CMG/SUSYBBHToTauTau_M-90_8TeV-pythia6-tauola/Summer12_DR53X-PU_S10_START53_V7A-v1/AODSIM/PAT_CMG_V5_16_0/cmgTuple_100_1_zWJ.root
p343
(lp344
I01
aI3920
asV/store/cmst3/group/cmgtools/CMG/SUSYBBHToTauTau_M-90_8TeV-pythia6-tauola/Summer12_DR53X-PU_S10_START53_V7A-v1/AODSIM/PAT_CMG_V5_16_0/cmgTuple_92_1_zmK.root
p345
(lp346
I01
aI10000
asV/store/cmst3/group/cmgtools/CMG/SUSYBBHToTauTau_M-90_8TeV-pythia6-tauola/Summer12_DR53X-PU_S10_START53_V7A-v1/AODSIM/PAT_CMG_V5_16_0/cmgTuple_45_1_8Cm.root
p347
(lp348
I01
aI10000
asV/store/cmst3/group/cmgtools/CMG/SUSYBBHToTauTau_M-90_8TeV-pythia6-tauola/Summer12_DR53X-PU_S10_START53_V7A-v1/AODSIM/PAT_CMG_V5_16_0/cmgTuple_57_1_1aM.root
p349
(lp350
I01
aI10000
asV/store/cmst3/group/cmgtools/CMG/SUSYBBHToTauTau_M-90_8TeV-pythia6-tauola/Summer12_DR53X-PU_S10_START53_V7A-v1/AODSIM/PAT_CMG_V5_16_0/cmgTuple_12_1_Ymc.root
p351
(lp352
I01
aI10000
asV/store/cmst3/group/cmgtools/CMG/SUSYBBHToTauTau_M-90_8TeV-pythia6-tauola/Summer12_DR53X-PU_S10_START53_V7A-v1/AODSIM/PAT_CMG_V5_16_0/cmgTuple_64_1_hbV.root
p353
(lp354
I01
aI10000
asV/store/cmst3/group/cmgtools/CMG/SUSYBBHToTauTau_M-90_8TeV-pythia6-tauola/Summer12_DR53X-PU_S10_START53_V7A-v1/AODSIM/PAT_CMG_V5_16_0/cmgTuple_63_1_m7t.root
p355
(lp356
I01
aI10000
asV/store/cmst3/group/cmgtools/CMG/SUSYBBHToTauTau_M-90_8TeV-pythia6-tauola/Summer12_DR53X-PU_S10_START53_V7A-v1/AODSIM/PAT_CMG_V5_16_0/cmgTuple_70_1_ZSX.root
p357
(lp358
I01
aI10000
asV/store/cmst3/group/cmgtools/CMG/SUSYBBHToTauTau_M-90_8TeV-pythia6-tauola/Summer12_DR53X-PU_S10_START53_V7A-v1/AODSIM/PAT_CMG_V5_16_0/cmgTuple_88_1_guh.root
p359
(lp360
I01
aI10000
asV/store/cmst3/group/cmgtools/CMG/SUSYBBHToTauTau_M-90_8TeV-pythia6-tauola/Summer12_DR53X-PU_S10_START53_V7A-v1/AODSIM/PAT_CMG_V5_16_0/cmgTuple_36_1_0xT.root
p361
(lp362
I01
aI10000
asV/store/cmst3/group/cmgtools/CMG/SUSYBBHToTauTau_M-90_8TeV-pythia6-tauola/Summer12_DR53X-PU_S10_START53_V7A-v1/AODSIM/PAT_CMG_V5_16_0/cmgTuple_39_1_4Qf.root
p363
(lp364
I01
aI10000
assVPhysicsGroup
p365
VCMG
p366
sVFilesCount
p367
I99
sVFilesEntries
p368
I975840
sVRunList
p369
(lp370
sVValidDuplicates
p371
(dp372
sVPrimaryDataset
p373
V/SUSYBBHToTauTau_M-90_8TeV-pythia6-tauola/Summer12_DR53X-PU_S10_START53_V7A-v1/AODSIM
p374
sVStatus
p375
VVALID
p376
sVName
p377
V/SUSYBBHToTauTau_M-90_8TeV-pythia6-tauola/Summer12_DR53X-PU_S10_START53_V7A-v1/AODSIM/PAT_CMG_V5_16_0
p378
sVTopdir
p379
V/eos/cms/store/cmst3/group/cmgtools/CMG
p380
sVdata
p381
(dp382
sVFilesBad
p383
I0
sVMinRun
p384
I-1
sVAlgoList
p385
(lp386
sVTierList
p387
(lp388
sVDateCreated
p389
V1371077221
p390
sVCreatedBy
p391
Vcmgtools_group
p392
sVMaxRun
p393
I-1
sVBadJobs
p394
(lp395
I24
aI48
assg113
I01
ssS'MonitorJobs'
p396
(dp397
S'LSFJobStatus'
p398
(dp399
g116
S'SUSYBBHToTauTau_M-90_8TeV-pythia6-tauola/Summer12_DR53X-PU_S10_START53_V7A-v1/AODSIM/PAT_CMG_V5_16_0_1377467557/HTT_24Jul_newTES_manzoni_Up_Jobs/Job_1/LSFJOB_440971629/STDOUT.gz'
p400
sg117
S'SUSYBBHToTauTau_M-90_8TeV-pythia6-tauola/Summer12_DR53X-PU_S10_START53_V7A-v1/AODSIM/PAT_CMG_V5_16_0_1377467557/HTT_24Jul_newTES_manzoni_Up_Jobs/Job_2/LSFJOB_440971715/STDOUT.gz'
p401
sg118
S'SUSYBBHToTauTau_M-90_8TeV-pythia6-tauola/Summer12_DR53X-PU_S10_START53_V7A-v1/AODSIM/PAT_CMG_V5_16_0_1377467557/HTT_24Jul_newTES_manzoni_Up_Jobs/Job_3/LSFJOB_440971766/STDOUT.gz'
p402
sg119
S'SUSYBBHToTauTau_M-90_8TeV-pythia6-tauola/Summer12_DR53X-PU_S10_START53_V7A-v1/AODSIM/PAT_CMG_V5_16_0_1377467557/HTT_24Jul_newTES_manzoni_Up_Jobs/Job_4/LSFJOB_440971845/STDOUT.gz'
p403
sg120
S'SUSYBBHToTauTau_M-90_8TeV-pythia6-tauola/Summer12_DR53X-PU_S10_START53_V7A-v1/AODSIM/PAT_CMG_V5_16_0_1377467557/HTT_24Jul_newTES_manzoni_Up_Jobs/Job_5/LSFJOB_440971919/STDOUT.gz'
p404
sg121
S'SUSYBBHToTauTau_M-90_8TeV-pythia6-tauola/Summer12_DR53X-PU_S10_START53_V7A-v1/AODSIM/PAT_CMG_V5_16_0_1377467557/HTT_24Jul_newTES_manzoni_Up_Jobs/Job_6/LSFJOB_440972022/STDOUT.gz'
p405
sg122
S'SUSYBBHToTauTau_M-90_8TeV-pythia6-tauola/Summer12_DR53X-PU_S10_START53_V7A-v1/AODSIM/PAT_CMG_V5_16_0_1377467557/HTT_24Jul_newTES_manzoni_Up_Jobs/Job_7/LSFJOB_440972079/STDOUT.gz'
p406
sg123
S'SUSYBBHToTauTau_M-90_8TeV-pythia6-tauola/Summer12_DR53X-PU_S10_START53_V7A-v1/AODSIM/PAT_CMG_V5_16_0_1377467557/HTT_24Jul_newTES_manzoni_Up_Jobs/Job_8/LSFJOB_440972167/STDOUT.gz'
p407
sg124
S'SUSYBBHToTauTau_M-90_8TeV-pythia6-tauola/Summer12_DR53X-PU_S10_START53_V7A-v1/AODSIM/PAT_CMG_V5_16_0_1377467557/HTT_24Jul_newTES_manzoni_Up_Jobs/Job_9/LSFJOB_440972263/STDOUT.gz'
p408
sg125
S'SUSYBBHToTauTau_M-90_8TeV-pythia6-tauola/Summer12_DR53X-PU_S10_START53_V7A-v1/AODSIM/PAT_CMG_V5_16_0_1377467557/HTT_24Jul_newTES_manzoni_Up_Jobs/Job_29/LSFJOB_440974024/STDOUT.gz'
p409
sg126
S'SUSYBBHToTauTau_M-90_8TeV-pythia6-tauola/Summer12_DR53X-PU_S10_START53_V7A-v1/AODSIM/PAT_CMG_V5_16_0_1377467557/HTT_24Jul_newTES_manzoni_Up_Jobs/Job_28/LSFJOB_440973933/STDOUT.gz'
p410
sg127
S'SUSYBBHToTauTau_M-90_8TeV-pythia6-tauola/Summer12_DR53X-PU_S10_START53_V7A-v1/AODSIM/PAT_CMG_V5_16_0_1377467557/HTT_24Jul_newTES_manzoni_Up_Jobs/Job_23/LSFJOB_440973520/STDOUT.gz'
p411
sg128
S'SUSYBBHToTauTau_M-90_8TeV-pythia6-tauola/Summer12_DR53X-PU_S10_START53_V7A-v1/AODSIM/PAT_CMG_V5_16_0_1377467557/HTT_24Jul_newTES_manzoni_Up_Jobs/Job_22/LSFJOB_440973427/STDOUT.gz'
p412
sg129
S'SUSYBBHToTauTau_M-90_8TeV-pythia6-tauola/Summer12_DR53X-PU_S10_START53_V7A-v1/AODSIM/PAT_CMG_V5_16_0_1377467557/HTT_24Jul_newTES_manzoni_Up_Jobs/Job_21/LSFJOB_440973364/STDOUT.gz'
p413
sg130
S'SUSYBBHToTauTau_M-90_8TeV-pythia6-tauola/Summer12_DR53X-PU_S10_START53_V7A-v1/AODSIM/PAT_CMG_V5_16_0_1377467557/HTT_24Jul_newTES_manzoni_Up_Jobs/Job_20/LSFJOB_440973282/STDOUT.gz'
p414
sg131
S'SUSYBBHToTauTau_M-90_8TeV-pythia6-tauola/Summer12_DR53X-PU_S10_START53_V7A-v1/AODSIM/PAT_CMG_V5_16_0_1377467557/HTT_24Jul_newTES_manzoni_Up_Jobs/Job_27/LSFJOB_440973824/STDOUT.gz'
p415
sg132
S'SUSYBBHToTauTau_M-90_8TeV-pythia6-tauola/Summer12_DR53X-PU_S10_START53_V7A-v1/AODSIM/PAT_CMG_V5_16_0_1377467557/HTT_24Jul_newTES_manzoni_Up_Jobs/Job_26/LSFJOB_440973740/STDOUT.gz'
p416
sg133
S'SUSYBBHToTauTau_M-90_8TeV-pythia6-tauola/Summer12_DR53X-PU_S10_START53_V7A-v1/AODSIM/PAT_CMG_V5_16_0_1377467557/HTT_24Jul_newTES_manzoni_Up_Jobs/Job_25/LSFJOB_440973692/STDOUT.gz'
p417
sg134
S'SUSYBBHToTauTau_M-90_8TeV-pythia6-tauola/Summer12_DR53X-PU_S10_START53_V7A-v1/AODSIM/PAT_CMG_V5_16_0_1377467557/HTT_24Jul_newTES_manzoni_Up_Jobs/Job_24/LSFJOB_440973611/STDOUT.gz'
p418
sg135
S'SUSYBBHToTauTau_M-90_8TeV-pythia6-tauola/Summer12_DR53X-PU_S10_START53_V7A-v1/AODSIM/PAT_CMG_V5_16_0_1377467557/HTT_24Jul_newTES_manzoni_Up_Jobs/Job_12/LSFJOB_440972540/STDOUT.gz'
p419
sg136
S'SUSYBBHToTauTau_M-90_8TeV-pythia6-tauola/Summer12_DR53X-PU_S10_START53_V7A-v1/AODSIM/PAT_CMG_V5_16_0_1377467557/HTT_24Jul_newTES_manzoni_Up_Jobs/Job_13/LSFJOB_440972644/STDOUT.gz'
p420
sg137
S'SUSYBBHToTauTau_M-90_8TeV-pythia6-tauola/Summer12_DR53X-PU_S10_START53_V7A-v1/AODSIM/PAT_CMG_V5_16_0_1377467557/HTT_24Jul_newTES_manzoni_Up_Jobs/Job_10/LSFJOB_440972361/STDOUT.gz'
p421
sg138
S'SUSYBBHToTauTau_M-90_8TeV-pythia6-tauola/Summer12_DR53X-PU_S10_START53_V7A-v1/AODSIM/PAT_CMG_V5_16_0_1377467557/HTT_24Jul_newTES_manzoni_Up_Jobs/Job_11/LSFJOB_440972467/STDOUT.gz'
p422
sg139
S'SUSYBBHToTauTau_M-90_8TeV-pythia6-tauola/Summer12_DR53X-PU_S10_START53_V7A-v1/AODSIM/PAT_CMG_V5_16_0_1377467557/HTT_24Jul_newTES_manzoni_Up_Jobs/Job_16/LSFJOB_440972939/STDOUT.gz'
p423
sg140
S'SUSYBBHToTauTau_M-90_8TeV-pythia6-tauola/Summer12_DR53X-PU_S10_START53_V7A-v1/AODSIM/PAT_CMG_V5_16_0_1377467557/HTT_24Jul_newTES_manzoni_Up_Jobs/Job_17/LSFJOB_440973035/STDOUT.gz'
p424
sg141
S'SUSYBBHToTauTau_M-90_8TeV-pythia6-tauola/Summer12_DR53X-PU_S10_START53_V7A-v1/AODSIM/PAT_CMG_V5_16_0_1377467557/HTT_24Jul_newTES_manzoni_Up_Jobs/Job_14/LSFJOB_440972744/STDOUT.gz'
p425
sg142
S'SUSYBBHToTauTau_M-90_8TeV-pythia6-tauola/Summer12_DR53X-PU_S10_START53_V7A-v1/AODSIM/PAT_CMG_V5_16_0_1377467557/HTT_24Jul_newTES_manzoni_Up_Jobs/Job_15/LSFJOB_440972836/STDOUT.gz'
p426
sg143
S'SUSYBBHToTauTau_M-90_8TeV-pythia6-tauola/Summer12_DR53X-PU_S10_START53_V7A-v1/AODSIM/PAT_CMG_V5_16_0_1377467557/HTT_24Jul_newTES_manzoni_Up_Jobs/Job_18/LSFJOB_440973110/STDOUT.gz'
p427
sg144
S'SUSYBBHToTauTau_M-90_8TeV-pythia6-tauola/Summer12_DR53X-PU_S10_START53_V7A-v1/AODSIM/PAT_CMG_V5_16_0_1377467557/HTT_24Jul_newTES_manzoni_Up_Jobs/Job_19/LSFJOB_440973192/STDOUT.gz'
p428
sg145
S'SUSYBBHToTauTau_M-90_8TeV-pythia6-tauola/Summer12_DR53X-PU_S10_START53_V7A-v1/AODSIM/PAT_CMG_V5_16_0_1377467557/HTT_24Jul_newTES_manzoni_Up_Jobs/Job_30/LSFJOB_440974098/STDOUT.gz'
p429
sg146
S'SUSYBBHToTauTau_M-90_8TeV-pythia6-tauola/Summer12_DR53X-PU_S10_START53_V7A-v1/AODSIM/PAT_CMG_V5_16_0_1377467557/HTT_24Jul_newTES_manzoni_Up_Jobs/Job_31/LSFJOB_440974186/STDOUT.gz'
p430
sg147
S'SUSYBBHToTauTau_M-90_8TeV-pythia6-tauola/Summer12_DR53X-PU_S10_START53_V7A-v1/AODSIM/PAT_CMG_V5_16_0_1377467557/HTT_24Jul_newTES_manzoni_Up_Jobs/Job_32/LSFJOB_440974236/STDOUT.gz'
p431
sg148
S'SUSYBBHToTauTau_M-90_8TeV-pythia6-tauola/Summer12_DR53X-PU_S10_START53_V7A-v1/AODSIM/PAT_CMG_V5_16_0_1377467557/HTT_24Jul_newTES_manzoni_Up_Jobs/Job_33/LSFJOB_440974302/STDOUT.gz'
p432
ssS'LSFJobIDs'
p433
(dp434
g116
S'440971629'
p435
sg117
S'440971715'
p436
sg118
S'440971766'
p437
sg119
S'440971845'
p438
sg120
S'440971919'
p439
sg121
S'440972022'
p440
sg122
S'440972079'
p441
sg123
S'440972167'
p442
sg124
S'440972263'
p443
sg125
S'440974024'
p444
sg126
S'440973933'
p445
sg127
S'440973520'
p446
sg128
S'440973427'
p447
sg129
S'440973364'
p448
sg130
S'440973282'
p449
sg131
S'440973824'
p450
sg132
S'440973740'
p451
sg133
S'440973692'
p452
sg134
S'440973611'
p453
sg135
S'440972540'
p454
sg136
S'440972644'
p455
sg137
S'440972361'
p456
sg138
S'440972467'
p457
sg139
S'440972939'
p458
sg140
S'440973035'
p459
sg141
S'440972744'
p460
sg142
S'440972836'
p461
sg143
S'440973110'
p462
sg144
S'440973192'
p463
sg145
S'440974098'
p464
sg146
S'440974186'
p465
sg147
S'440974236'
p466
sg148
S'440974302'
p467
sssS'FindOnCastor'
p468
(dp469
g75
S'/eos/cms/store/cmst3/group/cmgtools/CMG'
p470
sS'Directory'
p471
S'/eos/cms/store/cmst3/group/cmgtools/CMG/SUSYBBHToTauTau_M-90_8TeV-pythia6-tauola/Summer12_DR53X-PU_S10_START53_V7A-v1/AODSIM/PAT_CMG_V5_16_0'
p472
ssS'CheckConfig'
p473
(dp474
g91
g92
ssS'FullCFG'
p475
(dp476
S'FullCFG'
p477
S'SUSYBBHToTauTau_M-90_8TeV-pythia6-tauola/Summer12_DR53X-PU_S10_START53_V7A-v1/AODSIM/PAT_CMG_V5_16_0_1377467557/full_cfg.py'
p478
ssS'WriteJobReport'
p479
(dp480
S'SummaryFile'
p481
S'SUSYBBHToTauTau_M-90_8TeV-pythia6-tauola/Summer12_DR53X-PU_S10_START53_V7A-v1/AODSIM/PAT_CMG_V5_16_0_1377467557/resubmit.sh'
p482
ssS'ExpandConfig'
p483
(dp484
S'ExpandedFullCFG'
p485
S'SUSYBBHToTauTau_M-90_8TeV-pythia6-tauola/Summer12_DR53X-PU_S10_START53_V7A-v1/AODSIM/PAT_CMG_V5_16_0_1377467557/Expandedfull_cfg.py'
p486
ssS'RunTestEvents'
p487
(dp488
g91
g92
sS'TestCFG'
p489
S'SUSYBBHToTauTau_M-90_8TeV-pythia6-tauola/Summer12_DR53X-PU_S10_START53_V7A-v1/AODSIM/PAT_CMG_V5_16_0_1377467557/test_cfg.py'
p490
ssS'SourceCFG'
p491
(dp492
S'SourceCFG'
p493
S'SUSYBBHToTauTau_M-90_8TeV-pythia6-tauola/Summer12_DR53X-PU_S10_START53_V7A-v1/AODSIM/PAT_CMG_V5_16_0_1377467557/source_cfg.py'
p494
ssS'CheckForWrite'
p495
(dp496
g471
g472
sS'WriteAccess'
p497
I01
ssS'WriteToDatasets'
p498
(dp499
S'Added'
p500
I00
sg73
S'/SUSYBBHToTauTau_M-90_8TeV-pythia6-tauola/Summer12_DR53X-PU_S10_START53_V7A-v1/AODSIM/PAT_CMG_V5_16_0/HTT_24Jul_newTES_manzoni_Up'
p501
sS'User'
p502
g106
ssS'RunCMSBatch'
p503
(dp504
S'BatchUser'
p505
g106
sS'SampleOutputDir'
p506
S'/store/cmst3/user/manzoni/CMG/SUSYBBHToTauTau_M-90_8TeV-pythia6-tauola/Summer12_DR53X-PU_S10_START53_V7A-v1/AODSIM/PAT_CMG_V5_16_0/HTT_24Jul_newTES_manzoni_Up'
p507
sS'SampleDataset'
p508
g74
sS'LSFJobsTopDir'
p509
S'SUSYBBHToTauTau_M-90_8TeV-pythia6-tauola/Summer12_DR53X-PU_S10_START53_V7A-v1/AODSIM/PAT_CMG_V5_16_0_1377467557/HTT_24Jul_newTES_manzoni_Up_Jobs'
p510
ssS'CreateJobDirectory'
p511
(dp512
S'JobDir'
p513
S'SUSYBBHToTauTau_M-90_8TeV-pythia6-tauola/Summer12_DR53X-PU_S10_START53_V7A-v1/AODSIM/PAT_CMG_V5_16_0_1377467557'
p514
sS'PWD'
p515
S'/afs/cern.ch/user/m/manzoni/summer13/CMGTools/CMSSW_5_3_9/src/CMGTools/H2TauTau/prod/25aug_corrMC/up/mc'
p516
ssS'CleanJobFiles'
p517
(dp518
S'Compressed'
p519
(dp520
S'CompressedFiles'
p521
(lp522
ssS'Cleaned'
p523
(dp524
S'CleanedFiles'
p525
(lp526
g486
ag490
aS'SUSYBBHToTauTau_M-90_8TeV-pythia6-tauola/Summer12_DR53X-PU_S10_START53_V7A-v1/AODSIM/PAT_CMG_V5_16_0_1377467557/diTau_fullsel_tree_CMG.root'
p527
aS'SUSYBBHToTauTau_M-90_8TeV-pythia6-tauola/Summer12_DR53X-PU_S10_START53_V7A-v1/AODSIM/PAT_CMG_V5_16_0_1377467557/source_cfg.pyc'
p528
aS'SUSYBBHToTauTau_M-90_8TeV-pythia6-tauola/Summer12_DR53X-PU_S10_START53_V7A-v1/AODSIM/PAT_CMG_V5_16_0_1377467557/Expandedfull_cfg.pyc'
p529
asssS'CheckForMask'
p530
(dp531
g3
g155
sg113
I01
ss.