(dp0
S'CheckDatasetExists'
p1
(dp2
S'Dataset'
p3
S'/SUSYBBHToTauTau_M-200_8TeV-pythia6-tauola/Summer12_DR53X-PU_S10_START53_V7A-v1/AODSIM/PAT_CMG_V5_16_0'
p4
ssS'GenerateMask'
p5
(dp6
S'Report'
p7
(dp8
VPathList
p9
(lp10
V/store/cmst3/group/cmgtools/CMG/SUSYBBHToTauTau_M-200_8TeV-pythia6-tauola/Summer12_DR53X-PU_S10_START53_V7A-v1/AODSIM/PAT_CMG_V5_16_0
p11
asVStageHost
p12
Vcastorcms
p13
sVPrimaryDatasetFraction
p14
F0.96998222947985202
sVFilesGood
p15
I97
sVPrimaryDatasetEntries
p16
I999408
sVReportVersion
p17
I3
sVFiles
p18
(dp19
V/store/cmst3/group/cmgtools/CMG/SUSYBBHToTauTau_M-200_8TeV-pythia6-tauola/Summer12_DR53X-PU_S10_START53_V7A-v1/AODSIM/PAT_CMG_V5_16_0/cmgTuple_66_1_234.root
p20
(lp21
I01
aI10000
asV/store/cmst3/group/cmgtools/CMG/SUSYBBHToTauTau_M-200_8TeV-pythia6-tauola/Summer12_DR53X-PU_S10_START53_V7A-v1/AODSIM/PAT_CMG_V5_16_0/cmgTuple_1_1_WtV.root
p22
(lp23
I01
aI10000
asV/store/cmst3/group/cmgtools/CMG/SUSYBBHToTauTau_M-200_8TeV-pythia6-tauola/Summer12_DR53X-PU_S10_START53_V7A-v1/AODSIM/PAT_CMG_V5_16_0/cmgTuple_46_1_Tg1.root
p24
(lp25
I01
aI10000
asV/store/cmst3/group/cmgtools/CMG/SUSYBBHToTauTau_M-200_8TeV-pythia6-tauola/Summer12_DR53X-PU_S10_START53_V7A-v1/AODSIM/PAT_CMG_V5_16_0/cmgTuple_88_1_V1F.root
p26
(lp27
I01
aI10000
asV/store/cmst3/group/cmgtools/CMG/SUSYBBHToTauTau_M-200_8TeV-pythia6-tauola/Summer12_DR53X-PU_S10_START53_V7A-v1/AODSIM/PAT_CMG_V5_16_0/cmgTuple_80_1_Bqf.root
p28
(lp29
I01
aI10000
asV/store/cmst3/group/cmgtools/CMG/SUSYBBHToTauTau_M-200_8TeV-pythia6-tauola/Summer12_DR53X-PU_S10_START53_V7A-v1/AODSIM/PAT_CMG_V5_16_0/cmgTuple_70_1_AWB.root
p30
(lp31
I01
aI10000
asV/store/cmst3/group/cmgtools/CMG/SUSYBBHToTauTau_M-200_8TeV-pythia6-tauola/Summer12_DR53X-PU_S10_START53_V7A-v1/AODSIM/PAT_CMG_V5_16_0/cmgTuple_10_1_60g.root
p32
(lp33
I01
aI10000
asV/store/cmst3/group/cmgtools/CMG/SUSYBBHToTauTau_M-200_8TeV-pythia6-tauola/Summer12_DR53X-PU_S10_START53_V7A-v1/AODSIM/PAT_CMG_V5_16_0/cmgTuple_21_1_vtD.root
p34
(lp35
I01
aI10000
asV/store/cmst3/group/cmgtools/CMG/SUSYBBHToTauTau_M-200_8TeV-pythia6-tauola/Summer12_DR53X-PU_S10_START53_V7A-v1/AODSIM/PAT_CMG_V5_16_0/cmgTuple_76_1_xVo.root
p36
(lp37
I01
aI10000
asV/store/cmst3/group/cmgtools/CMG/SUSYBBHToTauTau_M-200_8TeV-pythia6-tauola/Summer12_DR53X-PU_S10_START53_V7A-v1/AODSIM/PAT_CMG_V5_16_0/cmgTuple_57_1_JFI.root
p38
(lp39
I01
aI10000
asV/store/cmst3/group/cmgtools/CMG/SUSYBBHToTauTau_M-200_8TeV-pythia6-tauola/Summer12_DR53X-PU_S10_START53_V7A-v1/AODSIM/PAT_CMG_V5_16_0/cmgTuple_74_1_1Ke.root
p40
(lp41
I01
aI10000
asV/store/cmst3/group/cmgtools/CMG/SUSYBBHToTauTau_M-200_8TeV-pythia6-tauola/Summer12_DR53X-PU_S10_START53_V7A-v1/AODSIM/PAT_CMG_V5_16_0/cmgTuple_62_1_SNr.root
p42
(lp43
I01
aI10000
asV/store/cmst3/group/cmgtools/CMG/SUSYBBHToTauTau_M-200_8TeV-pythia6-tauola/Summer12_DR53X-PU_S10_START53_V7A-v1/AODSIM/PAT_CMG_V5_16_0/cmgTuple_98_1_BvF.root
p44
(lp45
I01
aI10000
asV/store/cmst3/group/cmgtools/CMG/SUSYBBHToTauTau_M-200_8TeV-pythia6-tauola/Summer12_DR53X-PU_S10_START53_V7A-v1/AODSIM/PAT_CMG_V5_16_0/cmgTuple_29_1_mSv.root
p46
(lp47
I01
aI10000
asV/store/cmst3/group/cmgtools/CMG/SUSYBBHToTauTau_M-200_8TeV-pythia6-tauola/Summer12_DR53X-PU_S10_START53_V7A-v1/AODSIM/PAT_CMG_V5_16_0/cmgTuple_20_1_mSF.root
p48
(lp49
I01
aI10000
asV/store/cmst3/group/cmgtools/CMG/SUSYBBHToTauTau_M-200_8TeV-pythia6-tauola/Summer12_DR53X-PU_S10_START53_V7A-v1/AODSIM/PAT_CMG_V5_16_0/cmgTuple_36_1_vj8.root
p50
(lp51
I01
aI10000
asV/store/cmst3/group/cmgtools/CMG/SUSYBBHToTauTau_M-200_8TeV-pythia6-tauola/Summer12_DR53X-PU_S10_START53_V7A-v1/AODSIM/PAT_CMG_V5_16_0/cmgTuple_83_1_eAL.root
p52
(lp53
I01
aI10000
asV/store/cmst3/group/cmgtools/CMG/SUSYBBHToTauTau_M-200_8TeV-pythia6-tauola/Summer12_DR53X-PU_S10_START53_V7A-v1/AODSIM/PAT_CMG_V5_16_0/cmgTuple_30_1_yut.root
p54
(lp55
I01
aI10000
asV/store/cmst3/group/cmgtools/CMG/SUSYBBHToTauTau_M-200_8TeV-pythia6-tauola/Summer12_DR53X-PU_S10_START53_V7A-v1/AODSIM/PAT_CMG_V5_16_0/cmgTuple_40_1_Xvf.root
p56
(lp57
I01
aI10000
asV/store/cmst3/group/cmgtools/CMG/SUSYBBHToTauTau_M-200_8TeV-pythia6-tauola/Summer12_DR53X-PU_S10_START53_V7A-v1/AODSIM/PAT_CMG_V5_16_0/cmgTuple_13_1_Ton.root
p58
(lp59
I01
aI10000
asV/store/cmst3/group/cmgtools/CMG/SUSYBBHToTauTau_M-200_8TeV-pythia6-tauola/Summer12_DR53X-PU_S10_START53_V7A-v1/AODSIM/PAT_CMG_V5_16_0/cmgTuple_54_1_AUP.root
p60
(lp61
I01
aI10000
asV/store/cmst3/group/cmgtools/CMG/SUSYBBHToTauTau_M-200_8TeV-pythia6-tauola/Summer12_DR53X-PU_S10_START53_V7A-v1/AODSIM/PAT_CMG_V5_16_0/cmgTuple_7_1_64b.root
p62
(lp63
I01
aI10000
asV/store/cmst3/group/cmgtools/CMG/SUSYBBHToTauTau_M-200_8TeV-pythia6-tauola/Summer12_DR53X-PU_S10_START53_V7A-v1/AODSIM/PAT_CMG_V5_16_0/cmgTuple_25_1_Pza.root
p64
(lp65
I01
aI10000
asV/store/cmst3/group/cmgtools/CMG/SUSYBBHToTauTau_M-200_8TeV-pythia6-tauola/Summer12_DR53X-PU_S10_START53_V7A-v1/AODSIM/PAT_CMG_V5_16_0/cmgTuple_47_1_IVi.root
p66
(lp67
I01
aI10000
asV/store/cmst3/group/cmgtools/CMG/SUSYBBHToTauTau_M-200_8TeV-pythia6-tauola/Summer12_DR53X-PU_S10_START53_V7A-v1/AODSIM/PAT_CMG_V5_16_0/cmgTuple_86_1_aYK.root
p68
(lp69
I01
aI10000
asV/store/cmst3/group/cmgtools/CMG/SUSYBBHToTauTau_M-200_8TeV-pythia6-tauola/Summer12_DR53X-PU_S10_START53_V7A-v1/AODSIM/PAT_CMG_V5_16_0/cmgTuple_9_1_q3T.root
p70
(lp71
I01
aI10000
asV/store/cmst3/group/cmgtools/CMG/SUSYBBHToTauTau_M-200_8TeV-pythia6-tauola/Summer12_DR53X-PU_S10_START53_V7A-v1/AODSIM/PAT_CMG_V5_16_0/cmgTuple_22_1_NjY.root
p72
(lp73
I01
aI10000
asV/store/cmst3/group/cmgtools/CMG/SUSYBBHToTauTau_M-200_8TeV-pythia6-tauola/Summer12_DR53X-PU_S10_START53_V7A-v1/AODSIM/PAT_CMG_V5_16_0/cmgTuple_23_1_ABF.root
p74
(lp75
I01
aI10000
asV/store/cmst3/group/cmgtools/CMG/SUSYBBHToTauTau_M-200_8TeV-pythia6-tauola/Summer12_DR53X-PU_S10_START53_V7A-v1/AODSIM/PAT_CMG_V5_16_0/cmgTuple_71_1_rhI.root
p76
(lp77
I01
aI10000
asV/store/cmst3/group/cmgtools/CMG/SUSYBBHToTauTau_M-200_8TeV-pythia6-tauola/Summer12_DR53X-PU_S10_START53_V7A-v1/AODSIM/PAT_CMG_V5_16_0/cmgTuple_64_1_fpN.root
p78
(lp79
I01
aI10000
asV/store/cmst3/group/cmgtools/CMG/SUSYBBHToTauTau_M-200_8TeV-pythia6-tauola/Summer12_DR53X-PU_S10_START53_V7A-v1/AODSIM/PAT_CMG_V5_16_0/cmgTuple_43_1_PSn.root
p80
(lp81
I01
aI10000
asV/store/cmst3/group/cmgtools/CMG/SUSYBBHToTauTau_M-200_8TeV-pythia6-tauola/Summer12_DR53X-PU_S10_START53_V7A-v1/AODSIM/PAT_CMG_V5_16_0/cmgTuple_100_1_i6D.root
p82
(lp83
I01
aI9408
asV/store/cmst3/group/cmgtools/CMG/SUSYBBHToTauTau_M-200_8TeV-pythia6-tauola/Summer12_DR53X-PU_S10_START53_V7A-v1/AODSIM/PAT_CMG_V5_16_0/cmgTuple_77_1_kx0.root
p84
(lp85
I01
aI10000
asV/store/cmst3/group/cmgtools/CMG/SUSYBBHToTauTau_M-200_8TeV-pythia6-tauola/Summer12_DR53X-PU_S10_START53_V7A-v1/AODSIM/PAT_CMG_V5_16_0/cmgTuple_6_1_4an.root
p86
(lp87
I01
aI10000
asV/store/cmst3/group/cmgtools/CMG/SUSYBBHToTauTau_M-200_8TeV-pythia6-tauola/Summer12_DR53X-PU_S10_START53_V7A-v1/AODSIM/PAT_CMG_V5_16_0/cmgTuple_12_1_W7E.root
p88
(lp89
I01
aI10000
asV/store/cmst3/group/cmgtools/CMG/SUSYBBHToTauTau_M-200_8TeV-pythia6-tauola/Summer12_DR53X-PU_S10_START53_V7A-v1/AODSIM/PAT_CMG_V5_16_0/cmgTuple_53_1_fGD.root
p90
(lp91
I01
aI10000
asV/store/cmst3/group/cmgtools/CMG/SUSYBBHToTauTau_M-200_8TeV-pythia6-tauola/Summer12_DR53X-PU_S10_START53_V7A-v1/AODSIM/PAT_CMG_V5_16_0/cmgTuple_44_1_Ri7.root
p92
(lp93
I01
aI10000
asV/store/cmst3/group/cmgtools/CMG/SUSYBBHToTauTau_M-200_8TeV-pythia6-tauola/Summer12_DR53X-PU_S10_START53_V7A-v1/AODSIM/PAT_CMG_V5_16_0/cmgTuple_84_1_9w1.root
p94
(lp95
I01
aI10000
asV/store/cmst3/group/cmgtools/CMG/SUSYBBHToTauTau_M-200_8TeV-pythia6-tauola/Summer12_DR53X-PU_S10_START53_V7A-v1/AODSIM/PAT_CMG_V5_16_0/cmgTuple_87_1_7Ul.root
p96
(lp97
I01
aI10000
asV/store/cmst3/group/cmgtools/CMG/SUSYBBHToTauTau_M-200_8TeV-pythia6-tauola/Summer12_DR53X-PU_S10_START53_V7A-v1/AODSIM/PAT_CMG_V5_16_0/cmgTuple_90_1_5si.root
p98
(lp99
I01
aI10000
asV/store/cmst3/group/cmgtools/CMG/SUSYBBHToTauTau_M-200_8TeV-pythia6-tauola/Summer12_DR53X-PU_S10_START53_V7A-v1/AODSIM/PAT_CMG_V5_16_0/cmgTuple_82_1_9dE.root
p100
(lp101
I01
aI10000
asV/store/cmst3/group/cmgtools/CMG/SUSYBBHToTauTau_M-200_8TeV-pythia6-tauola/Summer12_DR53X-PU_S10_START53_V7A-v1/AODSIM/PAT_CMG_V5_16_0/cmgTuple_27_1_ENy.root
p102
(lp103
I01
aI10000
asV/store/cmst3/group/cmgtools/CMG/SUSYBBHToTauTau_M-200_8TeV-pythia6-tauola/Summer12_DR53X-PU_S10_START53_V7A-v1/AODSIM/PAT_CMG_V5_16_0/cmgTuple_38_1_bgT.root
p104
(lp105
I01
aI10000
asV/store/cmst3/group/cmgtools/CMG/SUSYBBHToTauTau_M-200_8TeV-pythia6-tauola/Summer12_DR53X-PU_S10_START53_V7A-v1/AODSIM/PAT_CMG_V5_16_0/cmgTuple_97_1_AgW.root
p106
(lp107
I01
aI10000
asV/store/cmst3/group/cmgtools/CMG/SUSYBBHToTauTau_M-200_8TeV-pythia6-tauola/Summer12_DR53X-PU_S10_START53_V7A-v1/AODSIM/PAT_CMG_V5_16_0/cmgTuple_63_1_ThD.root
p108
(lp109
I01
aI10000
asV/store/cmst3/group/cmgtools/CMG/SUSYBBHToTauTau_M-200_8TeV-pythia6-tauola/Summer12_DR53X-PU_S10_START53_V7A-v1/AODSIM/PAT_CMG_V5_16_0/cmgTuple_67_1_twP.root
p110
(lp111
I01
aI10000
asV/store/cmst3/group/cmgtools/CMG/SUSYBBHToTauTau_M-200_8TeV-pythia6-tauola/Summer12_DR53X-PU_S10_START53_V7A-v1/AODSIM/PAT_CMG_V5_16_0/cmgTuple_58_1_Bpi.root
p112
(lp113
I01
aI10000
asV/store/cmst3/group/cmgtools/CMG/SUSYBBHToTauTau_M-200_8TeV-pythia6-tauola/Summer12_DR53X-PU_S10_START53_V7A-v1/AODSIM/PAT_CMG_V5_16_0/cmgTuple_59_1_Zz7.root
p114
(lp115
I01
aI10000
asV/store/cmst3/group/cmgtools/CMG/SUSYBBHToTauTau_M-200_8TeV-pythia6-tauola/Summer12_DR53X-PU_S10_START53_V7A-v1/AODSIM/PAT_CMG_V5_16_0/cmgTuple_16_1_MQB.root
p116
(lp117
I01
aI10000
asV/store/cmst3/group/cmgtools/CMG/SUSYBBHToTauTau_M-200_8TeV-pythia6-tauola/Summer12_DR53X-PU_S10_START53_V7A-v1/AODSIM/PAT_CMG_V5_16_0/cmgTuple_94_1_thq.root
p118
(lp119
I01
aI10000
asV/store/cmst3/group/cmgtools/CMG/SUSYBBHToTauTau_M-200_8TeV-pythia6-tauola/Summer12_DR53X-PU_S10_START53_V7A-v1/AODSIM/PAT_CMG_V5_16_0/cmgTuple_85_1_ATl.root
p120
(lp121
I01
aI10000
asV/store/cmst3/group/cmgtools/CMG/SUSYBBHToTauTau_M-200_8TeV-pythia6-tauola/Summer12_DR53X-PU_S10_START53_V7A-v1/AODSIM/PAT_CMG_V5_16_0/cmgTuple_95_1_uNc.root
p122
(lp123
I01
aI10000
asV/store/cmst3/group/cmgtools/CMG/SUSYBBHToTauTau_M-200_8TeV-pythia6-tauola/Summer12_DR53X-PU_S10_START53_V7A-v1/AODSIM/PAT_CMG_V5_16_0/cmgTuple_78_1_Dar.root
p124
(lp125
I01
aI10000
asV/store/cmst3/group/cmgtools/CMG/SUSYBBHToTauTau_M-200_8TeV-pythia6-tauola/Summer12_DR53X-PU_S10_START53_V7A-v1/AODSIM/PAT_CMG_V5_16_0/cmgTuple_17_1_39z.root
p126
(lp127
I01
aI10000
asV/store/cmst3/group/cmgtools/CMG/SUSYBBHToTauTau_M-200_8TeV-pythia6-tauola/Summer12_DR53X-PU_S10_START53_V7A-v1/AODSIM/PAT_CMG_V5_16_0/cmgTuple_24_1_upD.root
p128
(lp129
I01
aI10000
asV/store/cmst3/group/cmgtools/CMG/SUSYBBHToTauTau_M-200_8TeV-pythia6-tauola/Summer12_DR53X-PU_S10_START53_V7A-v1/AODSIM/PAT_CMG_V5_16_0/cmgTuple_41_1_5K3.root
p130
(lp131
I01
aI10000
asV/store/cmst3/group/cmgtools/CMG/SUSYBBHToTauTau_M-200_8TeV-pythia6-tauola/Summer12_DR53X-PU_S10_START53_V7A-v1/AODSIM/PAT_CMG_V5_16_0/cmgTuple_68_1_SuH.root
p132
(lp133
I01
aI10000
asV/store/cmst3/group/cmgtools/CMG/SUSYBBHToTauTau_M-200_8TeV-pythia6-tauola/Summer12_DR53X-PU_S10_START53_V7A-v1/AODSIM/PAT_CMG_V5_16_0/cmgTuple_5_1_WN6.root
p134
(lp135
I01
aI10000
asV/store/cmst3/group/cmgtools/CMG/SUSYBBHToTauTau_M-200_8TeV-pythia6-tauola/Summer12_DR53X-PU_S10_START53_V7A-v1/AODSIM/PAT_CMG_V5_16_0/cmgTuple_60_1_T7I.root
p136
(lp137
I01
aI10000
asV/store/cmst3/group/cmgtools/CMG/SUSYBBHToTauTau_M-200_8TeV-pythia6-tauola/Summer12_DR53X-PU_S10_START53_V7A-v1/AODSIM/PAT_CMG_V5_16_0/cmgTuple_4_1_JuH.root
p138
(lp139
I01
aI10000
asV/store/cmst3/group/cmgtools/CMG/SUSYBBHToTauTau_M-200_8TeV-pythia6-tauola/Summer12_DR53X-PU_S10_START53_V7A-v1/AODSIM/PAT_CMG_V5_16_0/cmgTuple_15_1_4vm.root
p140
(lp141
I01
aI10000
asV/store/cmst3/group/cmgtools/CMG/SUSYBBHToTauTau_M-200_8TeV-pythia6-tauola/Summer12_DR53X-PU_S10_START53_V7A-v1/AODSIM/PAT_CMG_V5_16_0/cmgTuple_50_1_fnP.root
p142
(lp143
I01
aI10000
asV/store/cmst3/group/cmgtools/CMG/SUSYBBHToTauTau_M-200_8TeV-pythia6-tauola/Summer12_DR53X-PU_S10_START53_V7A-v1/AODSIM/PAT_CMG_V5_16_0/cmgTuple_34_1_zD9.root
p144
(lp145
I01
aI10000
asV/store/cmst3/group/cmgtools/CMG/SUSYBBHToTauTau_M-200_8TeV-pythia6-tauola/Summer12_DR53X-PU_S10_START53_V7A-v1/AODSIM/PAT_CMG_V5_16_0/cmgTuple_61_1_aUP.root
p146
(lp147
I01
aI10000
asV/store/cmst3/group/cmgtools/CMG/SUSYBBHToTauTau_M-200_8TeV-pythia6-tauola/Summer12_DR53X-PU_S10_START53_V7A-v1/AODSIM/PAT_CMG_V5_16_0/cmgTuple_39_1_aMI.root
p148
(lp149
I01
aI10000
asV/store/cmst3/group/cmgtools/CMG/SUSYBBHToTauTau_M-200_8TeV-pythia6-tauola/Summer12_DR53X-PU_S10_START53_V7A-v1/AODSIM/PAT_CMG_V5_16_0/cmgTuple_19_1_DBR.root
p150
(lp151
I01
aI10000
asV/store/cmst3/group/cmgtools/CMG/SUSYBBHToTauTau_M-200_8TeV-pythia6-tauola/Summer12_DR53X-PU_S10_START53_V7A-v1/AODSIM/PAT_CMG_V5_16_0/cmgTuple_65_1_Kd4.root
p152
(lp153
I01
aI10000
asV/store/cmst3/group/cmgtools/CMG/SUSYBBHToTauTau_M-200_8TeV-pythia6-tauola/Summer12_DR53X-PU_S10_START53_V7A-v1/AODSIM/PAT_CMG_V5_16_0/cmgTuple_79_1_uBY.root
p154
(lp155
I01
aI10000
asV/store/cmst3/group/cmgtools/CMG/SUSYBBHToTauTau_M-200_8TeV-pythia6-tauola/Summer12_DR53X-PU_S10_START53_V7A-v1/AODSIM/PAT_CMG_V5_16_0/cmgTuple_55_1_0uZ.root
p156
(lp157
I01
aI10000
asV/store/cmst3/group/cmgtools/CMG/SUSYBBHToTauTau_M-200_8TeV-pythia6-tauola/Summer12_DR53X-PU_S10_START53_V7A-v1/AODSIM/PAT_CMG_V5_16_0/cmgTuple_99_1_dm9.root
p158
(lp159
I01
aI10000
asV/store/cmst3/group/cmgtools/CMG/SUSYBBHToTauTau_M-200_8TeV-pythia6-tauola/Summer12_DR53X-PU_S10_START53_V7A-v1/AODSIM/PAT_CMG_V5_16_0/cmgTuple_96_1_HzF.root
p160
(lp161
I01
aI10000
asV/store/cmst3/group/cmgtools/CMG/SUSYBBHToTauTau_M-200_8TeV-pythia6-tauola/Summer12_DR53X-PU_S10_START53_V7A-v1/AODSIM/PAT_CMG_V5_16_0/cmgTuple_49_1_QwC.root
p162
(lp163
I01
aI10000
asV/store/cmst3/group/cmgtools/CMG/SUSYBBHToTauTau_M-200_8TeV-pythia6-tauola/Summer12_DR53X-PU_S10_START53_V7A-v1/AODSIM/PAT_CMG_V5_16_0/cmgTuple_33_1_7X5.root
p164
(lp165
I01
aI10000
asV/store/cmst3/group/cmgtools/CMG/SUSYBBHToTauTau_M-200_8TeV-pythia6-tauola/Summer12_DR53X-PU_S10_START53_V7A-v1/AODSIM/PAT_CMG_V5_16_0/cmgTuple_14_1_Wd7.root
p166
(lp167
I01
aI10000
asV/store/cmst3/group/cmgtools/CMG/SUSYBBHToTauTau_M-200_8TeV-pythia6-tauola/Summer12_DR53X-PU_S10_START53_V7A-v1/AODSIM/PAT_CMG_V5_16_0/cmgTuple_31_1_jXv.root
p168
(lp169
I01
aI10000
asV/store/cmst3/group/cmgtools/CMG/SUSYBBHToTauTau_M-200_8TeV-pythia6-tauola/Summer12_DR53X-PU_S10_START53_V7A-v1/AODSIM/PAT_CMG_V5_16_0/cmgTuple_32_1_d5x.root
p170
(lp171
I01
aI10000
asV/store/cmst3/group/cmgtools/CMG/SUSYBBHToTauTau_M-200_8TeV-pythia6-tauola/Summer12_DR53X-PU_S10_START53_V7A-v1/AODSIM/PAT_CMG_V5_16_0/cmgTuple_72_1_wuk.root
p172
(lp173
I01
aI10000
asV/store/cmst3/group/cmgtools/CMG/SUSYBBHToTauTau_M-200_8TeV-pythia6-tauola/Summer12_DR53X-PU_S10_START53_V7A-v1/AODSIM/PAT_CMG_V5_16_0/cmgTuple_37_1_TLA.root
p174
(lp175
I01
aI10000
asV/store/cmst3/group/cmgtools/CMG/SUSYBBHToTauTau_M-200_8TeV-pythia6-tauola/Summer12_DR53X-PU_S10_START53_V7A-v1/AODSIM/PAT_CMG_V5_16_0/cmgTuple_48_1_sHA.root
p176
(lp177
I01
aI10000
asV/store/cmst3/group/cmgtools/CMG/SUSYBBHToTauTau_M-200_8TeV-pythia6-tauola/Summer12_DR53X-PU_S10_START53_V7A-v1/AODSIM/PAT_CMG_V5_16_0/cmgTuple_56_1_MMm.root
p178
(lp179
I01
aI10000
asV/store/cmst3/group/cmgtools/CMG/SUSYBBHToTauTau_M-200_8TeV-pythia6-tauola/Summer12_DR53X-PU_S10_START53_V7A-v1/AODSIM/PAT_CMG_V5_16_0/cmgTuple_2_1_j4e.root
p180
(lp181
I01
aI10000
asV/store/cmst3/group/cmgtools/CMG/SUSYBBHToTauTau_M-200_8TeV-pythia6-tauola/Summer12_DR53X-PU_S10_START53_V7A-v1/AODSIM/PAT_CMG_V5_16_0/cmgTuple_8_1_waa.root
p182
(lp183
I01
aI10000
asV/store/cmst3/group/cmgtools/CMG/SUSYBBHToTauTau_M-200_8TeV-pythia6-tauola/Summer12_DR53X-PU_S10_START53_V7A-v1/AODSIM/PAT_CMG_V5_16_0/cmgTuple_42_1_EvU.root
p184
(lp185
I01
aI10000
asV/store/cmst3/group/cmgtools/CMG/SUSYBBHToTauTau_M-200_8TeV-pythia6-tauola/Summer12_DR53X-PU_S10_START53_V7A-v1/AODSIM/PAT_CMG_V5_16_0/cmgTuple_51_1_byQ.root
p186
(lp187
I01
aI10000
asV/store/cmst3/group/cmgtools/CMG/SUSYBBHToTauTau_M-200_8TeV-pythia6-tauola/Summer12_DR53X-PU_S10_START53_V7A-v1/AODSIM/PAT_CMG_V5_16_0/cmgTuple_91_1_V7c.root
p188
(lp189
I01
aI10000
asV/store/cmst3/group/cmgtools/CMG/SUSYBBHToTauTau_M-200_8TeV-pythia6-tauola/Summer12_DR53X-PU_S10_START53_V7A-v1/AODSIM/PAT_CMG_V5_16_0/cmgTuple_93_1_4Nj.root
p190
(lp191
I01
aI10000
asV/store/cmst3/group/cmgtools/CMG/SUSYBBHToTauTau_M-200_8TeV-pythia6-tauola/Summer12_DR53X-PU_S10_START53_V7A-v1/AODSIM/PAT_CMG_V5_16_0/cmgTuple_75_1_rRD.root
p192
(lp193
I01
aI10000
asV/store/cmst3/group/cmgtools/CMG/SUSYBBHToTauTau_M-200_8TeV-pythia6-tauola/Summer12_DR53X-PU_S10_START53_V7A-v1/AODSIM/PAT_CMG_V5_16_0/cmgTuple_18_1_G1v.root
p194
(lp195
I01
aI10000
asV/store/cmst3/group/cmgtools/CMG/SUSYBBHToTauTau_M-200_8TeV-pythia6-tauola/Summer12_DR53X-PU_S10_START53_V7A-v1/AODSIM/PAT_CMG_V5_16_0/cmgTuple_26_1_MLJ.root
p196
(lp197
I01
aI10000
asV/store/cmst3/group/cmgtools/CMG/SUSYBBHToTauTau_M-200_8TeV-pythia6-tauola/Summer12_DR53X-PU_S10_START53_V7A-v1/AODSIM/PAT_CMG_V5_16_0/cmgTuple_92_1_LFE.root
p198
(lp199
I01
aI10000
asV/store/cmst3/group/cmgtools/CMG/SUSYBBHToTauTau_M-200_8TeV-pythia6-tauola/Summer12_DR53X-PU_S10_START53_V7A-v1/AODSIM/PAT_CMG_V5_16_0/cmgTuple_45_1_Uqc.root
p200
(lp201
I01
aI10000
asV/store/cmst3/group/cmgtools/CMG/SUSYBBHToTauTau_M-200_8TeV-pythia6-tauola/Summer12_DR53X-PU_S10_START53_V7A-v1/AODSIM/PAT_CMG_V5_16_0/cmgTuple_3_1_o7e.root
p202
(lp203
I01
aI10000
asV/store/cmst3/group/cmgtools/CMG/SUSYBBHToTauTau_M-200_8TeV-pythia6-tauola/Summer12_DR53X-PU_S10_START53_V7A-v1/AODSIM/PAT_CMG_V5_16_0/cmgTuple_69_1_1dK.root
p204
(lp205
I01
aI10000
asV/store/cmst3/group/cmgtools/CMG/SUSYBBHToTauTau_M-200_8TeV-pythia6-tauola/Summer12_DR53X-PU_S10_START53_V7A-v1/AODSIM/PAT_CMG_V5_16_0/cmgTuple_89_1_tdR.root
p206
(lp207
I01
aI10000
asV/store/cmst3/group/cmgtools/CMG/SUSYBBHToTauTau_M-200_8TeV-pythia6-tauola/Summer12_DR53X-PU_S10_START53_V7A-v1/AODSIM/PAT_CMG_V5_16_0/cmgTuple_73_1_1vC.root
p208
(lp209
I01
aI10000
asV/store/cmst3/group/cmgtools/CMG/SUSYBBHToTauTau_M-200_8TeV-pythia6-tauola/Summer12_DR53X-PU_S10_START53_V7A-v1/AODSIM/PAT_CMG_V5_16_0/cmgTuple_11_1_WV6.root
p210
(lp211
I01
aI10000
asV/store/cmst3/group/cmgtools/CMG/SUSYBBHToTauTau_M-200_8TeV-pythia6-tauola/Summer12_DR53X-PU_S10_START53_V7A-v1/AODSIM/PAT_CMG_V5_16_0/cmgTuple_52_1_FKM.root
p212
(lp213
I01
aI10000
assVPhysicsGroup
p214
VCMG
p215
sVFilesCount
p216
I97
sVFilesEntries
p217
I969408
sVRunList
p218
(lp219
sVValidDuplicates
p220
(dp221
sVPrimaryDataset
p222
V/SUSYBBHToTauTau_M-200_8TeV-pythia6-tauola/Summer12_DR53X-PU_S10_START53_V7A-v1/AODSIM
p223
sVStatus
p224
VVALID
p225
sVName
p226
V/SUSYBBHToTauTau_M-200_8TeV-pythia6-tauola/Summer12_DR53X-PU_S10_START53_V7A-v1/AODSIM/PAT_CMG_V5_16_0
p227
sVTopdir
p228
V/eos/cms/store/cmst3/group/cmgtools/CMG
p229
sVdata
p230
(dp231
sVFilesBad
p232
I0
sVMinRun
p233
I-1
sVAlgoList
p234
(lp235
sVTierList
p236
(lp237
sVDateCreated
p238
V1371077207
p239
sVCreatedBy
p240
Vcmgtools_group
p241
sVMaxRun
p242
I-1
sVBadJobs
p243
(lp244
I28
aI35
aI81
assS'MaskPresent'
p245
I01
ssS'MonitorJobs'
p246
(dp247
S'LSFJobStatus'
p248
(dp249
S'SUSYBBHToTauTau_M-200_8TeV-pythia6-tauola/Summer12_DR53X-PU_S10_START53_V7A-v1/AODSIM/PAT_CMG_V5_16_0_1377467580/HTT_24Jul_newTES_manzoni_Up_Jobs/Job_12'
p250
S'SUSYBBHToTauTau_M-200_8TeV-pythia6-tauola/Summer12_DR53X-PU_S10_START53_V7A-v1/AODSIM/PAT_CMG_V5_16_0_1377467580/HTT_24Jul_newTES_manzoni_Up_Jobs/Job_12/LSFJOB_440973368/STDOUT.gz'
p251
sS'SUSYBBHToTauTau_M-200_8TeV-pythia6-tauola/Summer12_DR53X-PU_S10_START53_V7A-v1/AODSIM/PAT_CMG_V5_16_0_1377467580/HTT_24Jul_newTES_manzoni_Up_Jobs/Job_13'
p252
S'SUSYBBHToTauTau_M-200_8TeV-pythia6-tauola/Summer12_DR53X-PU_S10_START53_V7A-v1/AODSIM/PAT_CMG_V5_16_0_1377467580/HTT_24Jul_newTES_manzoni_Up_Jobs/Job_13/LSFJOB_440973429/STDOUT.gz'
p253
sS'SUSYBBHToTauTau_M-200_8TeV-pythia6-tauola/Summer12_DR53X-PU_S10_START53_V7A-v1/AODSIM/PAT_CMG_V5_16_0_1377467580/HTT_24Jul_newTES_manzoni_Up_Jobs/Job_10'
p254
S'SUSYBBHToTauTau_M-200_8TeV-pythia6-tauola/Summer12_DR53X-PU_S10_START53_V7A-v1/AODSIM/PAT_CMG_V5_16_0_1377467580/HTT_24Jul_newTES_manzoni_Up_Jobs/Job_10/LSFJOB_440973207/STDOUT.gz'
p255
sS'SUSYBBHToTauTau_M-200_8TeV-pythia6-tauola/Summer12_DR53X-PU_S10_START53_V7A-v1/AODSIM/PAT_CMG_V5_16_0_1377467580/HTT_24Jul_newTES_manzoni_Up_Jobs/Job_11'
p256
S'SUSYBBHToTauTau_M-200_8TeV-pythia6-tauola/Summer12_DR53X-PU_S10_START53_V7A-v1/AODSIM/PAT_CMG_V5_16_0_1377467580/HTT_24Jul_newTES_manzoni_Up_Jobs/Job_11/LSFJOB_440973296/STDOUT.gz'
p257
sS'SUSYBBHToTauTau_M-200_8TeV-pythia6-tauola/Summer12_DR53X-PU_S10_START53_V7A-v1/AODSIM/PAT_CMG_V5_16_0_1377467580/HTT_24Jul_newTES_manzoni_Up_Jobs/Job_16'
p258
S'SUSYBBHToTauTau_M-200_8TeV-pythia6-tauola/Summer12_DR53X-PU_S10_START53_V7A-v1/AODSIM/PAT_CMG_V5_16_0_1377467580/HTT_24Jul_newTES_manzoni_Up_Jobs/Job_16/LSFJOB_440973664/STDOUT.gz'
p259
sS'SUSYBBHToTauTau_M-200_8TeV-pythia6-tauola/Summer12_DR53X-PU_S10_START53_V7A-v1/AODSIM/PAT_CMG_V5_16_0_1377467580/HTT_24Jul_newTES_manzoni_Up_Jobs/Job_17'
p260
S'SUSYBBHToTauTau_M-200_8TeV-pythia6-tauola/Summer12_DR53X-PU_S10_START53_V7A-v1/AODSIM/PAT_CMG_V5_16_0_1377467580/HTT_24Jul_newTES_manzoni_Up_Jobs/Job_17/LSFJOB_440973734/STDOUT.gz'
p261
sS'SUSYBBHToTauTau_M-200_8TeV-pythia6-tauola/Summer12_DR53X-PU_S10_START53_V7A-v1/AODSIM/PAT_CMG_V5_16_0_1377467580/HTT_24Jul_newTES_manzoni_Up_Jobs/Job_14'
p262
S'SUSYBBHToTauTau_M-200_8TeV-pythia6-tauola/Summer12_DR53X-PU_S10_START53_V7A-v1/AODSIM/PAT_CMG_V5_16_0_1377467580/HTT_24Jul_newTES_manzoni_Up_Jobs/Job_14/LSFJOB_440973506/STDOUT.gz'
p263
sS'SUSYBBHToTauTau_M-200_8TeV-pythia6-tauola/Summer12_DR53X-PU_S10_START53_V7A-v1/AODSIM/PAT_CMG_V5_16_0_1377467580/HTT_24Jul_newTES_manzoni_Up_Jobs/Job_15'
p264
S'SUSYBBHToTauTau_M-200_8TeV-pythia6-tauola/Summer12_DR53X-PU_S10_START53_V7A-v1/AODSIM/PAT_CMG_V5_16_0_1377467580/HTT_24Jul_newTES_manzoni_Up_Jobs/Job_15/LSFJOB_440973578/STDOUT.gz'
p265
sS'SUSYBBHToTauTau_M-200_8TeV-pythia6-tauola/Summer12_DR53X-PU_S10_START53_V7A-v1/AODSIM/PAT_CMG_V5_16_0_1377467580/HTT_24Jul_newTES_manzoni_Up_Jobs/Job_18'
p266
S'SUSYBBHToTauTau_M-200_8TeV-pythia6-tauola/Summer12_DR53X-PU_S10_START53_V7A-v1/AODSIM/PAT_CMG_V5_16_0_1377467580/HTT_24Jul_newTES_manzoni_Up_Jobs/Job_18/LSFJOB_440973823/STDOUT.gz'
p267
sS'SUSYBBHToTauTau_M-200_8TeV-pythia6-tauola/Summer12_DR53X-PU_S10_START53_V7A-v1/AODSIM/PAT_CMG_V5_16_0_1377467580/HTT_24Jul_newTES_manzoni_Up_Jobs/Job_19'
p268
S'SUSYBBHToTauTau_M-200_8TeV-pythia6-tauola/Summer12_DR53X-PU_S10_START53_V7A-v1/AODSIM/PAT_CMG_V5_16_0_1377467580/HTT_24Jul_newTES_manzoni_Up_Jobs/Job_19/LSFJOB_440973932/STDOUT.gz'
p269
sS'SUSYBBHToTauTau_M-200_8TeV-pythia6-tauola/Summer12_DR53X-PU_S10_START53_V7A-v1/AODSIM/PAT_CMG_V5_16_0_1377467580/HTT_24Jul_newTES_manzoni_Up_Jobs/Job_30'
p270
S'SUSYBBHToTauTau_M-200_8TeV-pythia6-tauola/Summer12_DR53X-PU_S10_START53_V7A-v1/AODSIM/PAT_CMG_V5_16_0_1377467580/HTT_24Jul_newTES_manzoni_Up_Jobs/Job_30/LSFJOB_440974506/STDOUT.gz'
p271
sS'SUSYBBHToTauTau_M-200_8TeV-pythia6-tauola/Summer12_DR53X-PU_S10_START53_V7A-v1/AODSIM/PAT_CMG_V5_16_0_1377467580/HTT_24Jul_newTES_manzoni_Up_Jobs/Job_31'
p272
S'SUSYBBHToTauTau_M-200_8TeV-pythia6-tauola/Summer12_DR53X-PU_S10_START53_V7A-v1/AODSIM/PAT_CMG_V5_16_0_1377467580/HTT_24Jul_newTES_manzoni_Up_Jobs/Job_31/LSFJOB_440974536/STDOUT.gz'
p273
sS'SUSYBBHToTauTau_M-200_8TeV-pythia6-tauola/Summer12_DR53X-PU_S10_START53_V7A-v1/AODSIM/PAT_CMG_V5_16_0_1377467580/HTT_24Jul_newTES_manzoni_Up_Jobs/Job_32'
p274
S'SUSYBBHToTauTau_M-200_8TeV-pythia6-tauola/Summer12_DR53X-PU_S10_START53_V7A-v1/AODSIM/PAT_CMG_V5_16_0_1377467580/HTT_24Jul_newTES_manzoni_Up_Jobs/Job_32/LSFJOB_440974563/STDOUT.gz'
p275
sS'SUSYBBHToTauTau_M-200_8TeV-pythia6-tauola/Summer12_DR53X-PU_S10_START53_V7A-v1/AODSIM/PAT_CMG_V5_16_0_1377467580/HTT_24Jul_newTES_manzoni_Up_Jobs/Job_33'
p276
S'SUSYBBHToTauTau_M-200_8TeV-pythia6-tauola/Summer12_DR53X-PU_S10_START53_V7A-v1/AODSIM/PAT_CMG_V5_16_0_1377467580/HTT_24Jul_newTES_manzoni_Up_Jobs/Job_33/LSFJOB_440974579/STDOUT.gz'
p277
sS'SUSYBBHToTauTau_M-200_8TeV-pythia6-tauola/Summer12_DR53X-PU_S10_START53_V7A-v1/AODSIM/PAT_CMG_V5_16_0_1377467580/HTT_24Jul_newTES_manzoni_Up_Jobs/Job_8'
p278
S'SUSYBBHToTauTau_M-200_8TeV-pythia6-tauola/Summer12_DR53X-PU_S10_START53_V7A-v1/AODSIM/PAT_CMG_V5_16_0_1377467580/HTT_24Jul_newTES_manzoni_Up_Jobs/Job_8/LSFJOB_440973059/STDOUT.gz'
p279
sS'SUSYBBHToTauTau_M-200_8TeV-pythia6-tauola/Summer12_DR53X-PU_S10_START53_V7A-v1/AODSIM/PAT_CMG_V5_16_0_1377467580/HTT_24Jul_newTES_manzoni_Up_Jobs/Job_9'
p280
S'SUSYBBHToTauTau_M-200_8TeV-pythia6-tauola/Summer12_DR53X-PU_S10_START53_V7A-v1/AODSIM/PAT_CMG_V5_16_0_1377467580/HTT_24Jul_newTES_manzoni_Up_Jobs/Job_9/LSFJOB_440973123/STDOUT.gz'
p281
sS'SUSYBBHToTauTau_M-200_8TeV-pythia6-tauola/Summer12_DR53X-PU_S10_START53_V7A-v1/AODSIM/PAT_CMG_V5_16_0_1377467580/HTT_24Jul_newTES_manzoni_Up_Jobs/Job_1'
p282
S'SUSYBBHToTauTau_M-200_8TeV-pythia6-tauola/Summer12_DR53X-PU_S10_START53_V7A-v1/AODSIM/PAT_CMG_V5_16_0_1377467580/HTT_24Jul_newTES_manzoni_Up_Jobs/Job_1/LSFJOB_440972284/STDOUT.gz'
p283
sS'SUSYBBHToTauTau_M-200_8TeV-pythia6-tauola/Summer12_DR53X-PU_S10_START53_V7A-v1/AODSIM/PAT_CMG_V5_16_0_1377467580/HTT_24Jul_newTES_manzoni_Up_Jobs/Job_2'
p284
S'SUSYBBHToTauTau_M-200_8TeV-pythia6-tauola/Summer12_DR53X-PU_S10_START53_V7A-v1/AODSIM/PAT_CMG_V5_16_0_1377467580/HTT_24Jul_newTES_manzoni_Up_Jobs/Job_2/LSFJOB_440972378/STDOUT.gz'
p285
sS'SUSYBBHToTauTau_M-200_8TeV-pythia6-tauola/Summer12_DR53X-PU_S10_START53_V7A-v1/AODSIM/PAT_CMG_V5_16_0_1377467580/HTT_24Jul_newTES_manzoni_Up_Jobs/Job_3'
p286
S'SUSYBBHToTauTau_M-200_8TeV-pythia6-tauola/Summer12_DR53X-PU_S10_START53_V7A-v1/AODSIM/PAT_CMG_V5_16_0_1377467580/HTT_24Jul_newTES_manzoni_Up_Jobs/Job_3/LSFJOB_440972521/STDOUT.gz'
p287
sS'SUSYBBHToTauTau_M-200_8TeV-pythia6-tauola/Summer12_DR53X-PU_S10_START53_V7A-v1/AODSIM/PAT_CMG_V5_16_0_1377467580/HTT_24Jul_newTES_manzoni_Up_Jobs/Job_4'
p288
S'SUSYBBHToTauTau_M-200_8TeV-pythia6-tauola/Summer12_DR53X-PU_S10_START53_V7A-v1/AODSIM/PAT_CMG_V5_16_0_1377467580/HTT_24Jul_newTES_manzoni_Up_Jobs/Job_4/LSFJOB_440972630/STDOUT.gz'
p289
sS'SUSYBBHToTauTau_M-200_8TeV-pythia6-tauola/Summer12_DR53X-PU_S10_START53_V7A-v1/AODSIM/PAT_CMG_V5_16_0_1377467580/HTT_24Jul_newTES_manzoni_Up_Jobs/Job_5'
p290
S'SUSYBBHToTauTau_M-200_8TeV-pythia6-tauola/Summer12_DR53X-PU_S10_START53_V7A-v1/AODSIM/PAT_CMG_V5_16_0_1377467580/HTT_24Jul_newTES_manzoni_Up_Jobs/Job_5/LSFJOB_440972738/STDOUT.gz'
p291
sS'SUSYBBHToTauTau_M-200_8TeV-pythia6-tauola/Summer12_DR53X-PU_S10_START53_V7A-v1/AODSIM/PAT_CMG_V5_16_0_1377467580/HTT_24Jul_newTES_manzoni_Up_Jobs/Job_6'
p292
S'SUSYBBHToTauTau_M-200_8TeV-pythia6-tauola/Summer12_DR53X-PU_S10_START53_V7A-v1/AODSIM/PAT_CMG_V5_16_0_1377467580/HTT_24Jul_newTES_manzoni_Up_Jobs/Job_6/LSFJOB_440972842/STDOUT.gz'
p293
sS'SUSYBBHToTauTau_M-200_8TeV-pythia6-tauola/Summer12_DR53X-PU_S10_START53_V7A-v1/AODSIM/PAT_CMG_V5_16_0_1377467580/HTT_24Jul_newTES_manzoni_Up_Jobs/Job_7'
p294
S'SUSYBBHToTauTau_M-200_8TeV-pythia6-tauola/Summer12_DR53X-PU_S10_START53_V7A-v1/AODSIM/PAT_CMG_V5_16_0_1377467580/HTT_24Jul_newTES_manzoni_Up_Jobs/Job_7/LSFJOB_440972957/STDOUT.gz'
p295
sS'SUSYBBHToTauTau_M-200_8TeV-pythia6-tauola/Summer12_DR53X-PU_S10_START53_V7A-v1/AODSIM/PAT_CMG_V5_16_0_1377467580/HTT_24Jul_newTES_manzoni_Up_Jobs/Job_29'
p296
S'SUSYBBHToTauTau_M-200_8TeV-pythia6-tauola/Summer12_DR53X-PU_S10_START53_V7A-v1/AODSIM/PAT_CMG_V5_16_0_1377467580/HTT_24Jul_newTES_manzoni_Up_Jobs/Job_29/LSFJOB_440974477/STDOUT.gz'
p297
sS'SUSYBBHToTauTau_M-200_8TeV-pythia6-tauola/Summer12_DR53X-PU_S10_START53_V7A-v1/AODSIM/PAT_CMG_V5_16_0_1377467580/HTT_24Jul_newTES_manzoni_Up_Jobs/Job_28'
p298
S'SUSYBBHToTauTau_M-200_8TeV-pythia6-tauola/Summer12_DR53X-PU_S10_START53_V7A-v1/AODSIM/PAT_CMG_V5_16_0_1377467580/HTT_24Jul_newTES_manzoni_Up_Jobs/Job_28/LSFJOB_440974451/STDOUT.gz'
p299
sS'SUSYBBHToTauTau_M-200_8TeV-pythia6-tauola/Summer12_DR53X-PU_S10_START53_V7A-v1/AODSIM/PAT_CMG_V5_16_0_1377467580/HTT_24Jul_newTES_manzoni_Up_Jobs/Job_27'
p300
S'SUSYBBHToTauTau_M-200_8TeV-pythia6-tauola/Summer12_DR53X-PU_S10_START53_V7A-v1/AODSIM/PAT_CMG_V5_16_0_1377467580/HTT_24Jul_newTES_manzoni_Up_Jobs/Job_27/LSFJOB_440974407/STDOUT.gz'
p301
sS'SUSYBBHToTauTau_M-200_8TeV-pythia6-tauola/Summer12_DR53X-PU_S10_START53_V7A-v1/AODSIM/PAT_CMG_V5_16_0_1377467580/HTT_24Jul_newTES_manzoni_Up_Jobs/Job_26'
p302
S'SUSYBBHToTauTau_M-200_8TeV-pythia6-tauola/Summer12_DR53X-PU_S10_START53_V7A-v1/AODSIM/PAT_CMG_V5_16_0_1377467580/HTT_24Jul_newTES_manzoni_Up_Jobs/Job_26/LSFJOB_440974374/STDOUT.gz'
p303
sS'SUSYBBHToTauTau_M-200_8TeV-pythia6-tauola/Summer12_DR53X-PU_S10_START53_V7A-v1/AODSIM/PAT_CMG_V5_16_0_1377467580/HTT_24Jul_newTES_manzoni_Up_Jobs/Job_25'
p304
S'SUSYBBHToTauTau_M-200_8TeV-pythia6-tauola/Summer12_DR53X-PU_S10_START53_V7A-v1/AODSIM/PAT_CMG_V5_16_0_1377467580/HTT_24Jul_newTES_manzoni_Up_Jobs/Job_25/LSFJOB_440974327/STDOUT.gz'
p305
sS'SUSYBBHToTauTau_M-200_8TeV-pythia6-tauola/Summer12_DR53X-PU_S10_START53_V7A-v1/AODSIM/PAT_CMG_V5_16_0_1377467580/HTT_24Jul_newTES_manzoni_Up_Jobs/Job_24'
p306
S'SUSYBBHToTauTau_M-200_8TeV-pythia6-tauola/Summer12_DR53X-PU_S10_START53_V7A-v1/AODSIM/PAT_CMG_V5_16_0_1377467580/HTT_24Jul_newTES_manzoni_Up_Jobs/Job_24/LSFJOB_440974259/STDOUT.gz'
p307
sS'SUSYBBHToTauTau_M-200_8TeV-pythia6-tauola/Summer12_DR53X-PU_S10_START53_V7A-v1/AODSIM/PAT_CMG_V5_16_0_1377467580/HTT_24Jul_newTES_manzoni_Up_Jobs/Job_23'
p308
S'SUSYBBHToTauTau_M-200_8TeV-pythia6-tauola/Summer12_DR53X-PU_S10_START53_V7A-v1/AODSIM/PAT_CMG_V5_16_0_1377467580/HTT_24Jul_newTES_manzoni_Up_Jobs/Job_23/LSFJOB_440974213/STDOUT.gz'
p309
sS'SUSYBBHToTauTau_M-200_8TeV-pythia6-tauola/Summer12_DR53X-PU_S10_START53_V7A-v1/AODSIM/PAT_CMG_V5_16_0_1377467580/HTT_24Jul_newTES_manzoni_Up_Jobs/Job_22'
p310
S'SUSYBBHToTauTau_M-200_8TeV-pythia6-tauola/Summer12_DR53X-PU_S10_START53_V7A-v1/AODSIM/PAT_CMG_V5_16_0_1377467580/HTT_24Jul_newTES_manzoni_Up_Jobs/Job_22/LSFJOB_440974161/STDOUT.gz'
p311
sS'SUSYBBHToTauTau_M-200_8TeV-pythia6-tauola/Summer12_DR53X-PU_S10_START53_V7A-v1/AODSIM/PAT_CMG_V5_16_0_1377467580/HTT_24Jul_newTES_manzoni_Up_Jobs/Job_21'
p312
S'SUSYBBHToTauTau_M-200_8TeV-pythia6-tauola/Summer12_DR53X-PU_S10_START53_V7A-v1/AODSIM/PAT_CMG_V5_16_0_1377467580/HTT_24Jul_newTES_manzoni_Up_Jobs/Job_21/LSFJOB_440974078/STDOUT.gz'
p313
sS'SUSYBBHToTauTau_M-200_8TeV-pythia6-tauola/Summer12_DR53X-PU_S10_START53_V7A-v1/AODSIM/PAT_CMG_V5_16_0_1377467580/HTT_24Jul_newTES_manzoni_Up_Jobs/Job_20'
p314
S'SUSYBBHToTauTau_M-200_8TeV-pythia6-tauola/Summer12_DR53X-PU_S10_START53_V7A-v1/AODSIM/PAT_CMG_V5_16_0_1377467580/HTT_24Jul_newTES_manzoni_Up_Jobs/Job_20/LSFJOB_440973989/STDOUT.gz'
p315
ssS'LSFJobIDs'
p316
(dp317
g250
S'440973368'
p318
sg252
S'440973429'
p319
sg254
S'440973207'
p320
sg256
S'440973296'
p321
sg258
S'440973664'
p322
sg260
S'440973734'
p323
sg262
S'440973506'
p324
sg264
S'440973578'
p325
sg266
S'440973823'
p326
sg268
S'440973932'
p327
sg270
S'440974506'
p328
sg272
S'440974536'
p329
sg274
S'440974563'
p330
sg276
S'440974579'
p331
sg278
S'440973059'
p332
sg280
S'440973123'
p333
sg282
S'440972284'
p334
sg284
S'440972378'
p335
sg286
S'440972521'
p336
sg288
S'440972630'
p337
sg290
S'440972738'
p338
sg292
S'440972842'
p339
sg294
S'440972957'
p340
sg296
S'440974477'
p341
sg298
S'440974451'
p342
sg300
S'440974407'
p343
sg302
S'440974374'
p344
sg304
S'440974327'
p345
sg306
S'440974259'
p346
sg308
S'440974213'
p347
sg310
S'440974161'
p348
sg312
S'440974078'
p349
sg314
S'440973989'
p350
sssS'FindOnCastor'
p351
(dp352
S'Topdir'
p353
S'/eos/cms/store/cmst3/group/cmgtools/CMG'
p354
sS'Directory'
p355
S'/eos/cms/store/cmst3/group/cmgtools/CMG/SUSYBBHToTauTau_M-200_8TeV-pythia6-tauola/Summer12_DR53X-PU_S10_START53_V7A-v1/AODSIM/PAT_CMG_V5_16_0'
p356
ssS'CheckConfig'
p357
(dp358
S'Status'
p359
S'VALID'
p360
ssS'FullCFG'
p361
(dp362
S'FullCFG'
p363
S'SUSYBBHToTauTau_M-200_8TeV-pythia6-tauola/Summer12_DR53X-PU_S10_START53_V7A-v1/AODSIM/PAT_CMG_V5_16_0_1377467580/full_cfg.py'
p364
ssS'ExpandConfig'
p365
(dp366
S'ExpandedFullCFG'
p367
S'SUSYBBHToTauTau_M-200_8TeV-pythia6-tauola/Summer12_DR53X-PU_S10_START53_V7A-v1/AODSIM/PAT_CMG_V5_16_0_1377467580/Expandedfull_cfg.py'
p368
ssS'RunTestEvents'
p369
(dp370
g359
g360
sS'TestCFG'
p371
S'SUSYBBHToTauTau_M-200_8TeV-pythia6-tauola/Summer12_DR53X-PU_S10_START53_V7A-v1/AODSIM/PAT_CMG_V5_16_0_1377467580/test_cfg.py'
p372
ssS'SourceCFG'
p373
(dp374
S'SourceCFG'
p375
S'SUSYBBHToTauTau_M-200_8TeV-pythia6-tauola/Summer12_DR53X-PU_S10_START53_V7A-v1/AODSIM/PAT_CMG_V5_16_0_1377467580/source_cfg.py'
p376
ssS'CheckForWrite'
p377
(dp378
g355
g356
sS'WriteAccess'
p379
I01
ssS'WriteToDatasets'
p380
(dp381
S'Added'
p382
I00
sS'Name'
p383
S'/SUSYBBHToTauTau_M-200_8TeV-pythia6-tauola/Summer12_DR53X-PU_S10_START53_V7A-v1/AODSIM/PAT_CMG_V5_16_0/HTT_24Jul_newTES_manzoni_Up'
p384
sS'User'
p385
S'manzoni'
p386
ssS'RunCMSBatch'
p387
(dp388
S'BatchUser'
p389
g386
sS'SampleOutputDir'
p390
S'/store/cmst3/user/manzoni/CMG/SUSYBBHToTauTau_M-200_8TeV-pythia6-tauola/Summer12_DR53X-PU_S10_START53_V7A-v1/AODSIM/PAT_CMG_V5_16_0/HTT_24Jul_newTES_manzoni_Up'
p391
sS'SampleDataset'
p392
S'/SUSYBBHToTauTau_M-200_8TeV-pythia6-tauola/Summer12_DR53X-PU_S10_START53_V7A-v1/AODSIM/PAT_CMG_V5_16_0/HTT_24Jul_newTES_manzoni_Up'
p393
sS'LSFJobsTopDir'
p394
S'SUSYBBHToTauTau_M-200_8TeV-pythia6-tauola/Summer12_DR53X-PU_S10_START53_V7A-v1/AODSIM/PAT_CMG_V5_16_0_1377467580/HTT_24Jul_newTES_manzoni_Up_Jobs'
p395
ssS'CreateJobDirectory'
p396
(dp397
S'JobDir'
p398
S'SUSYBBHToTauTau_M-200_8TeV-pythia6-tauola/Summer12_DR53X-PU_S10_START53_V7A-v1/AODSIM/PAT_CMG_V5_16_0_1377467580'
p399
sS'PWD'
p400
S'/afs/cern.ch/user/m/manzoni/summer13/CMGTools/CMSSW_5_3_9/src/CMGTools/H2TauTau/prod/25aug_corrMC/up/mc'
p401
ssS'CheckForMask'
p402
(dp403
g7
g8
sg245
I01
ss.