(dp0
S'CheckJobStatus'
p1
(dp2
S'Report'
p3
(dp4
S'Files'
p5
(dp6
S'/store/cmst3/user/manzoni/CMG/VBF_HToTauTau_M-125_8TeV-powheg-pythia6/Summer12_DR53X-PU_S10_START53_V7A-v1/AODSIM/V5_B/PAT_CMG_V5_16_0/HTT_24Jul_newTES_manzoni_Up/diTau_fullsel_tree_CMG_8.root'
p7
(I01
I2071
tp8
sS'/store/cmst3/user/manzoni/CMG/VBF_HToTauTau_M-125_8TeV-powheg-pythia6/Summer12_DR53X-PU_S10_START53_V7A-v1/AODSIM/V5_B/PAT_CMG_V5_16_0/HTT_24Jul_newTES_manzoni_Up/diTau_fullsel_tree_CMG_17.root'
p9
(I01
I2314
tp10
sS'/store/cmst3/user/manzoni/CMG/VBF_HToTauTau_M-125_8TeV-powheg-pythia6/Summer12_DR53X-PU_S10_START53_V7A-v1/AODSIM/V5_B/PAT_CMG_V5_16_0/HTT_24Jul_newTES_manzoni_Up/diTau_fullsel_tree_CMG_21.root'
p11
(I01
I1196
tp12
sS'/store/cmst3/user/manzoni/CMG/VBF_HToTauTau_M-125_8TeV-powheg-pythia6/Summer12_DR53X-PU_S10_START53_V7A-v1/AODSIM/V5_B/PAT_CMG_V5_16_0/HTT_24Jul_newTES_manzoni_Up/diTau_fullsel_tree_CMG_15.root'
p13
(I01
I1980
tp14
sS'/store/cmst3/user/manzoni/CMG/VBF_HToTauTau_M-125_8TeV-powheg-pythia6/Summer12_DR53X-PU_S10_START53_V7A-v1/AODSIM/V5_B/PAT_CMG_V5_16_0/HTT_24Jul_newTES_manzoni_Up/diTau_fullsel_tree_CMG_5.root'
p15
(I01
I1989
tp16
sS'/store/cmst3/user/manzoni/CMG/VBF_HToTauTau_M-125_8TeV-powheg-pythia6/Summer12_DR53X-PU_S10_START53_V7A-v1/AODSIM/V5_B/PAT_CMG_V5_16_0/HTT_24Jul_newTES_manzoni_Up/diTau_fullsel_tree_CMG_2.root'
p17
(I01
I1906
tp18
sS'/store/cmst3/user/manzoni/CMG/VBF_HToTauTau_M-125_8TeV-powheg-pythia6/Summer12_DR53X-PU_S10_START53_V7A-v1/AODSIM/V5_B/PAT_CMG_V5_16_0/HTT_24Jul_newTES_manzoni_Up/diTau_fullsel_tree_CMG_11.root'
p19
(I01
I2143
tp20
sS'/store/cmst3/user/manzoni/CMG/VBF_HToTauTau_M-125_8TeV-powheg-pythia6/Summer12_DR53X-PU_S10_START53_V7A-v1/AODSIM/V5_B/PAT_CMG_V5_16_0/HTT_24Jul_newTES_manzoni_Up/diTau_fullsel_tree_CMG_1.root'
p21
(I01
I2035
tp22
sS'/store/cmst3/user/manzoni/CMG/VBF_HToTauTau_M-125_8TeV-powheg-pythia6/Summer12_DR53X-PU_S10_START53_V7A-v1/AODSIM/V5_B/PAT_CMG_V5_16_0/HTT_24Jul_newTES_manzoni_Up/diTau_fullsel_tree_CMG_7.root'
p23
(I01
I2009
tp24
sS'/store/cmst3/user/manzoni/CMG/VBF_HToTauTau_M-125_8TeV-powheg-pythia6/Summer12_DR53X-PU_S10_START53_V7A-v1/AODSIM/V5_B/PAT_CMG_V5_16_0/HTT_24Jul_newTES_manzoni_Up/diTau_fullsel_tree_CMG_18.root'
p25
(I01
I1592
tp26
sS'/store/cmst3/user/manzoni/CMG/VBF_HToTauTau_M-125_8TeV-powheg-pythia6/Summer12_DR53X-PU_S10_START53_V7A-v1/AODSIM/V5_B/PAT_CMG_V5_16_0/HTT_24Jul_newTES_manzoni_Up/diTau_fullsel_tree_CMG_3.root'
p27
(I01
I2216
tp28
sS'/store/cmst3/user/manzoni/CMG/VBF_HToTauTau_M-125_8TeV-powheg-pythia6/Summer12_DR53X-PU_S10_START53_V7A-v1/AODSIM/V5_B/PAT_CMG_V5_16_0/HTT_24Jul_newTES_manzoni_Up/diTau_fullsel_tree_CMG_19.root'
p29
(I01
I2201
tp30
sS'/store/cmst3/user/manzoni/CMG/VBF_HToTauTau_M-125_8TeV-powheg-pythia6/Summer12_DR53X-PU_S10_START53_V7A-v1/AODSIM/V5_B/PAT_CMG_V5_16_0/HTT_24Jul_newTES_manzoni_Up/diTau_fullsel_tree_CMG_9.root'
p31
(I01
I1663
tp32
sS'/store/cmst3/user/manzoni/CMG/VBF_HToTauTau_M-125_8TeV-powheg-pythia6/Summer12_DR53X-PU_S10_START53_V7A-v1/AODSIM/V5_B/PAT_CMG_V5_16_0/HTT_24Jul_newTES_manzoni_Up/diTau_fullsel_tree_CMG_6.root'
p33
(I01
I2151
tp34
sS'/store/cmst3/user/manzoni/CMG/VBF_HToTauTau_M-125_8TeV-powheg-pythia6/Summer12_DR53X-PU_S10_START53_V7A-v1/AODSIM/V5_B/PAT_CMG_V5_16_0/HTT_24Jul_newTES_manzoni_Up/diTau_fullsel_tree_CMG_4.root'
p35
(I01
I2557
tp36
sS'/store/cmst3/user/manzoni/CMG/VBF_HToTauTau_M-125_8TeV-powheg-pythia6/Summer12_DR53X-PU_S10_START53_V7A-v1/AODSIM/V5_B/PAT_CMG_V5_16_0/HTT_24Jul_newTES_manzoni_Up/diTau_fullsel_tree_CMG_13.root'
p37
(I01
I1979
tp38
sS'/store/cmst3/user/manzoni/CMG/VBF_HToTauTau_M-125_8TeV-powheg-pythia6/Summer12_DR53X-PU_S10_START53_V7A-v1/AODSIM/V5_B/PAT_CMG_V5_16_0/HTT_24Jul_newTES_manzoni_Up/diTau_fullsel_tree_CMG_14.root'
p39
(I01
I2042
tp40
sS'/store/cmst3/user/manzoni/CMG/VBF_HToTauTau_M-125_8TeV-powheg-pythia6/Summer12_DR53X-PU_S10_START53_V7A-v1/AODSIM/V5_B/PAT_CMG_V5_16_0/HTT_24Jul_newTES_manzoni_Up/diTau_fullsel_tree_CMG_20.root'
p41
(I01
I2262
tp42
sS'/store/cmst3/user/manzoni/CMG/VBF_HToTauTau_M-125_8TeV-powheg-pythia6/Summer12_DR53X-PU_S10_START53_V7A-v1/AODSIM/V5_B/PAT_CMG_V5_16_0/HTT_24Jul_newTES_manzoni_Up/diTau_fullsel_tree_CMG_12.root'
p43
(I01
I2020
tp44
sS'/store/cmst3/user/manzoni/CMG/VBF_HToTauTau_M-125_8TeV-powheg-pythia6/Summer12_DR53X-PU_S10_START53_V7A-v1/AODSIM/V5_B/PAT_CMG_V5_16_0/HTT_24Jul_newTES_manzoni_Up/diTau_fullsel_tree_CMG_10.root'
p45
(I01
I2253
tp46
sS'/store/cmst3/user/manzoni/CMG/VBF_HToTauTau_M-125_8TeV-powheg-pythia6/Summer12_DR53X-PU_S10_START53_V7A-v1/AODSIM/V5_B/PAT_CMG_V5_16_0/HTT_24Jul_newTES_manzoni_Up/diTau_fullsel_tree_CMG_16.root'
p47
(I01
I2204
tp48
ssS'Name'
p49
S'/VBF_HToTauTau_M-125_8TeV-powheg-pythia6/Summer12_DR53X-PU_S10_START53_V7A-v1/AODSIM/V5_B/PAT_CMG_V5_16_0/HTT_24Jul_newTES_manzoni_Up'
p50
sS'Topdir'
p51
S'/eos/cms/store/cmst3/user/manzoni/CMG'
p52
sS'RunList'
p53
(lp54
sS'PathList'
p55
(lp56
S'/store/cmst3/user/manzoni/CMG/VBF_HToTauTau_M-125_8TeV-powheg-pythia6/Summer12_DR53X-PU_S10_START53_V7A-v1/AODSIM/V5_B/PAT_CMG_V5_16_0/HTT_24Jul_newTES_manzoni_Up'
p57
asS'AlgoList'
p58
(lp59
sS'PrimaryDatasetFraction'
p60
F0.04283285744606722
sS'FilesGood'
p61
I21
sS'PrimaryDatasetEntries'
p62
I998836
sS'data'
p63
(dp64
sS'FilesBad'
p65
I0
sS'ReportVersion'
p66
I3
sS'Status'
p67
S'VALID'
p68
sS'MaxRun'
p69
I-1
sS'PhysicsGroup'
p70
S'CMG'
p71
sS'MinRun'
p72
I-1
sS'StageHost'
p73
S'castorcms'
p74
sS'FilesCount'
p75
I21
sS'FilesEntries'
p76
I42783
sS'TierList'
p77
(lp78
sS'DateCreated'
p79
S'1377473385'
p80
sS'CreatedBy'
p81
S'manzoni'
p82
sS'ValidDuplicates'
p83
(dp84
sS'PrimaryDataset'
p85
S'/VBF_HToTauTau_M-125_8TeV-powheg-pythia6/Summer12_DR53X-PU_S10_START53_V7A-v1/AODSIM'
p86
sS'BadJobs'
p87
(lp88
ssS'MaskPresent'
p89
I01
sS'LSFJobStatusCheck'
p90
(dp91
S'VBF_HToTauTau_M-125_8TeV-powheg-pythia6/Summer12_DR53X-PU_S10_START53_V7A-v1/AODSIM/V5_B/PAT_CMG_V5_16_0_1377467453/HTT_24Jul_newTES_manzoni_Up_Jobs/Job_8'
p92
g68
sS'VBF_HToTauTau_M-125_8TeV-powheg-pythia6/Summer12_DR53X-PU_S10_START53_V7A-v1/AODSIM/V5_B/PAT_CMG_V5_16_0_1377467453/HTT_24Jul_newTES_manzoni_Up_Jobs/Job_9'
p93
g68
sS'VBF_HToTauTau_M-125_8TeV-powheg-pythia6/Summer12_DR53X-PU_S10_START53_V7A-v1/AODSIM/V5_B/PAT_CMG_V5_16_0_1377467453/HTT_24Jul_newTES_manzoni_Up_Jobs/Job_16'
p94
g68
sS'VBF_HToTauTau_M-125_8TeV-powheg-pythia6/Summer12_DR53X-PU_S10_START53_V7A-v1/AODSIM/V5_B/PAT_CMG_V5_16_0_1377467453/HTT_24Jul_newTES_manzoni_Up_Jobs/Job_2'
p95
g68
sS'VBF_HToTauTau_M-125_8TeV-powheg-pythia6/Summer12_DR53X-PU_S10_START53_V7A-v1/AODSIM/V5_B/PAT_CMG_V5_16_0_1377467453/HTT_24Jul_newTES_manzoni_Up_Jobs/Job_3'
p96
g68
sS'VBF_HToTauTau_M-125_8TeV-powheg-pythia6/Summer12_DR53X-PU_S10_START53_V7A-v1/AODSIM/V5_B/PAT_CMG_V5_16_0_1377467453/HTT_24Jul_newTES_manzoni_Up_Jobs/Job_1'
p97
g68
sS'VBF_HToTauTau_M-125_8TeV-powheg-pythia6/Summer12_DR53X-PU_S10_START53_V7A-v1/AODSIM/V5_B/PAT_CMG_V5_16_0_1377467453/HTT_24Jul_newTES_manzoni_Up_Jobs/Job_6'
p98
g68
sS'VBF_HToTauTau_M-125_8TeV-powheg-pythia6/Summer12_DR53X-PU_S10_START53_V7A-v1/AODSIM/V5_B/PAT_CMG_V5_16_0_1377467453/HTT_24Jul_newTES_manzoni_Up_Jobs/Job_7'
p99
g68
sS'VBF_HToTauTau_M-125_8TeV-powheg-pythia6/Summer12_DR53X-PU_S10_START53_V7A-v1/AODSIM/V5_B/PAT_CMG_V5_16_0_1377467453/HTT_24Jul_newTES_manzoni_Up_Jobs/Job_4'
p100
g68
sS'VBF_HToTauTau_M-125_8TeV-powheg-pythia6/Summer12_DR53X-PU_S10_START53_V7A-v1/AODSIM/V5_B/PAT_CMG_V5_16_0_1377467453/HTT_24Jul_newTES_manzoni_Up_Jobs/Job_5'
p101
g68
sS'VBF_HToTauTau_M-125_8TeV-powheg-pythia6/Summer12_DR53X-PU_S10_START53_V7A-v1/AODSIM/V5_B/PAT_CMG_V5_16_0_1377467453/HTT_24Jul_newTES_manzoni_Up_Jobs/Job_18'
p102
g68
sS'VBF_HToTauTau_M-125_8TeV-powheg-pythia6/Summer12_DR53X-PU_S10_START53_V7A-v1/AODSIM/V5_B/PAT_CMG_V5_16_0_1377467453/HTT_24Jul_newTES_manzoni_Up_Jobs/Job_19'
p103
g68
sS'VBF_HToTauTau_M-125_8TeV-powheg-pythia6/Summer12_DR53X-PU_S10_START53_V7A-v1/AODSIM/V5_B/PAT_CMG_V5_16_0_1377467453/HTT_24Jul_newTES_manzoni_Up_Jobs/Job_20'
p104
g68
sS'VBF_HToTauTau_M-125_8TeV-powheg-pythia6/Summer12_DR53X-PU_S10_START53_V7A-v1/AODSIM/V5_B/PAT_CMG_V5_16_0_1377467453/HTT_24Jul_newTES_manzoni_Up_Jobs/Job_10'
p105
g68
sS'VBF_HToTauTau_M-125_8TeV-powheg-pythia6/Summer12_DR53X-PU_S10_START53_V7A-v1/AODSIM/V5_B/PAT_CMG_V5_16_0_1377467453/HTT_24Jul_newTES_manzoni_Up_Jobs/Job_11'
p106
g68
sS'VBF_HToTauTau_M-125_8TeV-powheg-pythia6/Summer12_DR53X-PU_S10_START53_V7A-v1/AODSIM/V5_B/PAT_CMG_V5_16_0_1377467453/HTT_24Jul_newTES_manzoni_Up_Jobs/Job_12'
p107
g68
sS'VBF_HToTauTau_M-125_8TeV-powheg-pythia6/Summer12_DR53X-PU_S10_START53_V7A-v1/AODSIM/V5_B/PAT_CMG_V5_16_0_1377467453/HTT_24Jul_newTES_manzoni_Up_Jobs/Job_13'
p108
g68
sS'VBF_HToTauTau_M-125_8TeV-powheg-pythia6/Summer12_DR53X-PU_S10_START53_V7A-v1/AODSIM/V5_B/PAT_CMG_V5_16_0_1377467453/HTT_24Jul_newTES_manzoni_Up_Jobs/Job_14'
p109
g68
sS'VBF_HToTauTau_M-125_8TeV-powheg-pythia6/Summer12_DR53X-PU_S10_START53_V7A-v1/AODSIM/V5_B/PAT_CMG_V5_16_0_1377467453/HTT_24Jul_newTES_manzoni_Up_Jobs/Job_15'
p110
g68
sS'VBF_HToTauTau_M-125_8TeV-powheg-pythia6/Summer12_DR53X-PU_S10_START53_V7A-v1/AODSIM/V5_B/PAT_CMG_V5_16_0_1377467453/HTT_24Jul_newTES_manzoni_Up_Jobs/Job_21'
p111
g68
sS'VBF_HToTauTau_M-125_8TeV-powheg-pythia6/Summer12_DR53X-PU_S10_START53_V7A-v1/AODSIM/V5_B/PAT_CMG_V5_16_0_1377467453/HTT_24Jul_newTES_manzoni_Up_Jobs/Job_17'
p112
g68
sssS'CheckDatasetExists'
p113
(dp114
S'Dataset'
p115
S'/VBF_HToTauTau_M-125_8TeV-powheg-pythia6/Summer12_DR53X-PU_S10_START53_V7A-v1/AODSIM/V5_B/PAT_CMG_V5_16_0'
p116
ssS'GenerateMask'
p117
(dp118
g3
(dp119
VPathList
p120
(lp121
V/store/cmst3/user/cmgtools/CMG/VBF_HToTauTau_M-125_8TeV-powheg-pythia6/Summer12_DR53X-PU_S10_START53_V7A-v1/AODSIM/V5_B/PAT_CMG_V5_16_0
p122
asVStageHost
p123
Vcastorcms
p124
sVPrimaryDatasetFraction
p125
F1.0
sVFilesGood
p126
I103
sVPrimaryDatasetEntries
p127
I998836
sVReportVersion
p128
I3
sVFiles
p129
(dp130
V/store/cmst3/user/cmgtools/CMG/VBF_HToTauTau_M-125_8TeV-powheg-pythia6/Summer12_DR53X-PU_S10_START53_V7A-v1/AODSIM/V5_B/PAT_CMG_V5_16_0/cmgTuple_14.root
p131
(lp132
I01
aI8990
asV/store/cmst3/user/cmgtools/CMG/VBF_HToTauTau_M-125_8TeV-powheg-pythia6/Summer12_DR53X-PU_S10_START53_V7A-v1/AODSIM/V5_B/PAT_CMG_V5_16_0/cmgTuple_79.root
p133
(lp134
I01
aI11685
asV/store/cmst3/user/cmgtools/CMG/VBF_HToTauTau_M-125_8TeV-powheg-pythia6/Summer12_DR53X-PU_S10_START53_V7A-v1/AODSIM/V5_B/PAT_CMG_V5_16_0/cmgTuple_8.root
p135
(lp136
I01
aI11685
asV/store/cmst3/user/cmgtools/CMG/VBF_HToTauTau_M-125_8TeV-powheg-pythia6/Summer12_DR53X-PU_S10_START53_V7A-v1/AODSIM/V5_B/PAT_CMG_V5_16_0/cmgTuple_96.root
p137
(lp138
I01
aI11690
asV/store/cmst3/user/cmgtools/CMG/VBF_HToTauTau_M-125_8TeV-powheg-pythia6/Summer12_DR53X-PU_S10_START53_V7A-v1/AODSIM/V5_B/PAT_CMG_V5_16_0/cmgTuple_80.root
p139
(lp140
I01
aI9192
asV/store/cmst3/user/cmgtools/CMG/VBF_HToTauTau_M-125_8TeV-powheg-pythia6/Summer12_DR53X-PU_S10_START53_V7A-v1/AODSIM/V5_B/PAT_CMG_V5_16_0/cmgTuple_19.root
p141
(lp142
I01
aI11685
asV/store/cmst3/user/cmgtools/CMG/VBF_HToTauTau_M-125_8TeV-powheg-pythia6/Summer12_DR53X-PU_S10_START53_V7A-v1/AODSIM/V5_B/PAT_CMG_V5_16_0/cmgTuple_40.root
p143
(lp144
I01
aI8096
asV/store/cmst3/user/cmgtools/CMG/VBF_HToTauTau_M-125_8TeV-powheg-pythia6/Summer12_DR53X-PU_S10_START53_V7A-v1/AODSIM/V5_B/PAT_CMG_V5_16_0/cmgTuple_63.root
p145
(lp146
I01
aI11689
asV/store/cmst3/user/cmgtools/CMG/VBF_HToTauTau_M-125_8TeV-powheg-pythia6/Summer12_DR53X-PU_S10_START53_V7A-v1/AODSIM/V5_B/PAT_CMG_V5_16_0/cmgTuple_7.root
p147
(lp148
I01
aI11687
asV/store/cmst3/user/cmgtools/CMG/VBF_HToTauTau_M-125_8TeV-powheg-pythia6/Summer12_DR53X-PU_S10_START53_V7A-v1/AODSIM/V5_B/PAT_CMG_V5_16_0/cmgTuple_73.root
p149
(lp150
I01
aI6295
asV/store/cmst3/user/cmgtools/CMG/VBF_HToTauTau_M-125_8TeV-powheg-pythia6/Summer12_DR53X-PU_S10_START53_V7A-v1/AODSIM/V5_B/PAT_CMG_V5_16_0/cmgTuple_68.root
p151
(lp152
I01
aI11681
asV/store/cmst3/user/cmgtools/CMG/VBF_HToTauTau_M-125_8TeV-powheg-pythia6/Summer12_DR53X-PU_S10_START53_V7A-v1/AODSIM/V5_B/PAT_CMG_V5_16_0/cmgTuple_56.root
p153
(lp154
I01
aI11692
asV/store/cmst3/user/cmgtools/CMG/VBF_HToTauTau_M-125_8TeV-powheg-pythia6/Summer12_DR53X-PU_S10_START53_V7A-v1/AODSIM/V5_B/PAT_CMG_V5_16_0/cmgTuple_27.root
p155
(lp156
I01
aI9290
asV/store/cmst3/user/cmgtools/CMG/VBF_HToTauTau_M-125_8TeV-powheg-pythia6/Summer12_DR53X-PU_S10_START53_V7A-v1/AODSIM/V5_B/PAT_CMG_V5_16_0/cmgTuple_47.root
p157
(lp158
I01
aI11687
asV/store/cmst3/user/cmgtools/CMG/VBF_HToTauTau_M-125_8TeV-powheg-pythia6/Summer12_DR53X-PU_S10_START53_V7A-v1/AODSIM/V5_B/PAT_CMG_V5_16_0/cmgTuple_77.root
p159
(lp160
I01
aI8085
asV/store/cmst3/user/cmgtools/CMG/VBF_HToTauTau_M-125_8TeV-powheg-pythia6/Summer12_DR53X-PU_S10_START53_V7A-v1/AODSIM/V5_B/PAT_CMG_V5_16_0/cmgTuple_92.root
p161
(lp162
I01
aI11688
asV/store/cmst3/user/cmgtools/CMG/VBF_HToTauTau_M-125_8TeV-powheg-pythia6/Summer12_DR53X-PU_S10_START53_V7A-v1/AODSIM/V5_B/PAT_CMG_V5_16_0/cmgTuple_3.root
p163
(lp164
I01
aI7490
asV/store/cmst3/user/cmgtools/CMG/VBF_HToTauTau_M-125_8TeV-powheg-pythia6/Summer12_DR53X-PU_S10_START53_V7A-v1/AODSIM/V5_B/PAT_CMG_V5_16_0/cmgTuple_101.root
p165
(lp166
I01
aI7191
asV/store/cmst3/user/cmgtools/CMG/VBF_HToTauTau_M-125_8TeV-powheg-pythia6/Summer12_DR53X-PU_S10_START53_V7A-v1/AODSIM/V5_B/PAT_CMG_V5_16_0/cmgTuple_15.root
p167
(lp168
I01
aI8990
asV/store/cmst3/user/cmgtools/CMG/VBF_HToTauTau_M-125_8TeV-powheg-pythia6/Summer12_DR53X-PU_S10_START53_V7A-v1/AODSIM/V5_B/PAT_CMG_V5_16_0/cmgTuple_93.root
p169
(lp170
I01
aI8089
asV/store/cmst3/user/cmgtools/CMG/VBF_HToTauTau_M-125_8TeV-powheg-pythia6/Summer12_DR53X-PU_S10_START53_V7A-v1/AODSIM/V5_B/PAT_CMG_V5_16_0/cmgTuple_53.root
p171
(lp172
I01
aI11683
asV/store/cmst3/user/cmgtools/CMG/VBF_HToTauTau_M-125_8TeV-powheg-pythia6/Summer12_DR53X-PU_S10_START53_V7A-v1/AODSIM/V5_B/PAT_CMG_V5_16_0/cmgTuple_38.root
p173
(lp174
I01
aI8392
asV/store/cmst3/user/cmgtools/CMG/VBF_HToTauTau_M-125_8TeV-powheg-pythia6/Summer12_DR53X-PU_S10_START53_V7A-v1/AODSIM/V5_B/PAT_CMG_V5_16_0/cmgTuple_59.root
p175
(lp176
I01
aI11685
asV/store/cmst3/user/cmgtools/CMG/VBF_HToTauTau_M-125_8TeV-powheg-pythia6/Summer12_DR53X-PU_S10_START53_V7A-v1/AODSIM/V5_B/PAT_CMG_V5_16_0/cmgTuple_46.root
p177
(lp178
I01
aI7196
asV/store/cmst3/user/cmgtools/CMG/VBF_HToTauTau_M-125_8TeV-powheg-pythia6/Summer12_DR53X-PU_S10_START53_V7A-v1/AODSIM/V5_B/PAT_CMG_V5_16_0/cmgTuple_2.root
p179
(lp180
I01
aI11687
asV/store/cmst3/user/cmgtools/CMG/VBF_HToTauTau_M-125_8TeV-powheg-pythia6/Summer12_DR53X-PU_S10_START53_V7A-v1/AODSIM/V5_B/PAT_CMG_V5_16_0/cmgTuple_29.root
p181
(lp182
I01
aI8092
asV/store/cmst3/user/cmgtools/CMG/VBF_HToTauTau_M-125_8TeV-powheg-pythia6/Summer12_DR53X-PU_S10_START53_V7A-v1/AODSIM/V5_B/PAT_CMG_V5_16_0/cmgTuple_62.root
p183
(lp184
I01
aI7189
asV/store/cmst3/user/cmgtools/CMG/VBF_HToTauTau_M-125_8TeV-powheg-pythia6/Summer12_DR53X-PU_S10_START53_V7A-v1/AODSIM/V5_B/PAT_CMG_V5_16_0/cmgTuple_30.root
p185
(lp186
I01
aI12287
asV/store/cmst3/user/cmgtools/CMG/VBF_HToTauTau_M-125_8TeV-powheg-pythia6/Summer12_DR53X-PU_S10_START53_V7A-v1/AODSIM/V5_B/PAT_CMG_V5_16_0/cmgTuple_42.root
p187
(lp188
I01
aI8091
asV/store/cmst3/user/cmgtools/CMG/VBF_HToTauTau_M-125_8TeV-powheg-pythia6/Summer12_DR53X-PU_S10_START53_V7A-v1/AODSIM/V5_B/PAT_CMG_V5_16_0/cmgTuple_99.root
p189
(lp190
I01
aI7196
asV/store/cmst3/user/cmgtools/CMG/VBF_HToTauTau_M-125_8TeV-powheg-pythia6/Summer12_DR53X-PU_S10_START53_V7A-v1/AODSIM/V5_B/PAT_CMG_V5_16_0/cmgTuple_48.root
p191
(lp192
I01
aI10793
asV/store/cmst3/user/cmgtools/CMG/VBF_HToTauTau_M-125_8TeV-powheg-pythia6/Summer12_DR53X-PU_S10_START53_V7A-v1/AODSIM/V5_B/PAT_CMG_V5_16_0/cmgTuple_52.root
p193
(lp194
I01
aI11690
asV/store/cmst3/user/cmgtools/CMG/VBF_HToTauTau_M-125_8TeV-powheg-pythia6/Summer12_DR53X-PU_S10_START53_V7A-v1/AODSIM/V5_B/PAT_CMG_V5_16_0/cmgTuple_43.root
p195
(lp196
I01
aI7189
asV/store/cmst3/user/cmgtools/CMG/VBF_HToTauTau_M-125_8TeV-powheg-pythia6/Summer12_DR53X-PU_S10_START53_V7A-v1/AODSIM/V5_B/PAT_CMG_V5_16_0/cmgTuple_60.root
p197
(lp198
I01
aI4498
asV/store/cmst3/user/cmgtools/CMG/VBF_HToTauTau_M-125_8TeV-powheg-pythia6/Summer12_DR53X-PU_S10_START53_V7A-v1/AODSIM/V5_B/PAT_CMG_V5_16_0/cmgTuple_37.root
p199
(lp200
I01
aI11684
asV/store/cmst3/user/cmgtools/CMG/VBF_HToTauTau_M-125_8TeV-powheg-pythia6/Summer12_DR53X-PU_S10_START53_V7A-v1/AODSIM/V5_B/PAT_CMG_V5_16_0/cmgTuple_28.root
p201
(lp202
I01
aI8988
asV/store/cmst3/user/cmgtools/CMG/VBF_HToTauTau_M-125_8TeV-powheg-pythia6/Summer12_DR53X-PU_S10_START53_V7A-v1/AODSIM/V5_B/PAT_CMG_V5_16_0/cmgTuple_49.root
p203
(lp204
I01
aI8089
asV/store/cmst3/user/cmgtools/CMG/VBF_HToTauTau_M-125_8TeV-powheg-pythia6/Summer12_DR53X-PU_S10_START53_V7A-v1/AODSIM/V5_B/PAT_CMG_V5_16_0/cmgTuple_70.root
p205
(lp206
I01
aI10487
asV/store/cmst3/user/cmgtools/CMG/VBF_HToTauTau_M-125_8TeV-powheg-pythia6/Summer12_DR53X-PU_S10_START53_V7A-v1/AODSIM/V5_B/PAT_CMG_V5_16_0/cmgTuple_25.root
p207
(lp208
I01
aI11684
asV/store/cmst3/user/cmgtools/CMG/VBF_HToTauTau_M-125_8TeV-powheg-pythia6/Summer12_DR53X-PU_S10_START53_V7A-v1/AODSIM/V5_B/PAT_CMG_V5_16_0/cmgTuple_90.root
p209
(lp210
I01
aI10784
asV/store/cmst3/user/cmgtools/CMG/VBF_HToTauTau_M-125_8TeV-powheg-pythia6/Summer12_DR53X-PU_S10_START53_V7A-v1/AODSIM/V5_B/PAT_CMG_V5_16_0/cmgTuple_86.root
p211
(lp212
I01
aI6587
asV/store/cmst3/user/cmgtools/CMG/VBF_HToTauTau_M-125_8TeV-powheg-pythia6/Summer12_DR53X-PU_S10_START53_V7A-v1/AODSIM/V5_B/PAT_CMG_V5_16_0/cmgTuple_50.root
p213
(lp214
I01
aI11686
asV/store/cmst3/user/cmgtools/CMG/VBF_HToTauTau_M-125_8TeV-powheg-pythia6/Summer12_DR53X-PU_S10_START53_V7A-v1/AODSIM/V5_B/PAT_CMG_V5_16_0/cmgTuple_75.root
p215
(lp216
I01
aI6290
asV/store/cmst3/user/cmgtools/CMG/VBF_HToTauTau_M-125_8TeV-powheg-pythia6/Summer12_DR53X-PU_S10_START53_V7A-v1/AODSIM/V5_B/PAT_CMG_V5_16_0/cmgTuple_88.root
p217
(lp218
I01
aI11683
asV/store/cmst3/user/cmgtools/CMG/VBF_HToTauTau_M-125_8TeV-powheg-pythia6/Summer12_DR53X-PU_S10_START53_V7A-v1/AODSIM/V5_B/PAT_CMG_V5_16_0/cmgTuple_23.root
p219
(lp220
I01
aI11982
asV/store/cmst3/user/cmgtools/CMG/VBF_HToTauTau_M-125_8TeV-powheg-pythia6/Summer12_DR53X-PU_S10_START53_V7A-v1/AODSIM/V5_B/PAT_CMG_V5_16_0/cmgTuple_22.root
p221
(lp222
I01
aI11687
asV/store/cmst3/user/cmgtools/CMG/VBF_HToTauTau_M-125_8TeV-powheg-pythia6/Summer12_DR53X-PU_S10_START53_V7A-v1/AODSIM/V5_B/PAT_CMG_V5_16_0/cmgTuple_78.root
p223
(lp224
I01
aI11688
asV/store/cmst3/user/cmgtools/CMG/VBF_HToTauTau_M-125_8TeV-powheg-pythia6/Summer12_DR53X-PU_S10_START53_V7A-v1/AODSIM/V5_B/PAT_CMG_V5_16_0/cmgTuple_81.root
p225
(lp226
I01
aI11989
asV/store/cmst3/user/cmgtools/CMG/VBF_HToTauTau_M-125_8TeV-powheg-pythia6/Summer12_DR53X-PU_S10_START53_V7A-v1/AODSIM/V5_B/PAT_CMG_V5_16_0/cmgTuple_74.root
p227
(lp228
I01
aI11985
asV/store/cmst3/user/cmgtools/CMG/VBF_HToTauTau_M-125_8TeV-powheg-pythia6/Summer12_DR53X-PU_S10_START53_V7A-v1/AODSIM/V5_B/PAT_CMG_V5_16_0/cmgTuple_44.root
p229
(lp230
I01
aI8092
asV/store/cmst3/user/cmgtools/CMG/VBF_HToTauTau_M-125_8TeV-powheg-pythia6/Summer12_DR53X-PU_S10_START53_V7A-v1/AODSIM/V5_B/PAT_CMG_V5_16_0/cmgTuple_31.root
p231
(lp232
I01
aI10786
asV/store/cmst3/user/cmgtools/CMG/VBF_HToTauTau_M-125_8TeV-powheg-pythia6/Summer12_DR53X-PU_S10_START53_V7A-v1/AODSIM/V5_B/PAT_CMG_V5_16_0/cmgTuple_95.root
p233
(lp234
I01
aI9887
asV/store/cmst3/user/cmgtools/CMG/VBF_HToTauTau_M-125_8TeV-powheg-pythia6/Summer12_DR53X-PU_S10_START53_V7A-v1/AODSIM/V5_B/PAT_CMG_V5_16_0/cmgTuple_9.root
p235
(lp236
I01
aI11392
asV/store/cmst3/user/cmgtools/CMG/VBF_HToTauTau_M-125_8TeV-powheg-pythia6/Summer12_DR53X-PU_S10_START53_V7A-v1/AODSIM/V5_B/PAT_CMG_V5_16_0/cmgTuple_100.root
p237
(lp238
I01
aI8091
asV/store/cmst3/user/cmgtools/CMG/VBF_HToTauTau_M-125_8TeV-powheg-pythia6/Summer12_DR53X-PU_S10_START53_V7A-v1/AODSIM/V5_B/PAT_CMG_V5_16_0/cmgTuple_34.root
p239
(lp240
I01
aI8086
asV/store/cmst3/user/cmgtools/CMG/VBF_HToTauTau_M-125_8TeV-powheg-pythia6/Summer12_DR53X-PU_S10_START53_V7A-v1/AODSIM/V5_B/PAT_CMG_V5_16_0/cmgTuple_67.root
p241
(lp242
I01
aI7194
asV/store/cmst3/user/cmgtools/CMG/VBF_HToTauTau_M-125_8TeV-powheg-pythia6/Summer12_DR53X-PU_S10_START53_V7A-v1/AODSIM/V5_B/PAT_CMG_V5_16_0/cmgTuple_18.root
p243
(lp244
I01
aI10182
asV/store/cmst3/user/cmgtools/CMG/VBF_HToTauTau_M-125_8TeV-powheg-pythia6/Summer12_DR53X-PU_S10_START53_V7A-v1/AODSIM/V5_B/PAT_CMG_V5_16_0/cmgTuple_97.root
p245
(lp246
I01
aI11690
asV/store/cmst3/user/cmgtools/CMG/VBF_HToTauTau_M-125_8TeV-powheg-pythia6/Summer12_DR53X-PU_S10_START53_V7A-v1/AODSIM/V5_B/PAT_CMG_V5_16_0/cmgTuple_24.root
p247
(lp248
I01
aI10484
asV/store/cmst3/user/cmgtools/CMG/VBF_HToTauTau_M-125_8TeV-powheg-pythia6/Summer12_DR53X-PU_S10_START53_V7A-v1/AODSIM/V5_B/PAT_CMG_V5_16_0/cmgTuple_10.root
p249
(lp250
I01
aI9884
asV/store/cmst3/user/cmgtools/CMG/VBF_HToTauTau_M-125_8TeV-powheg-pythia6/Summer12_DR53X-PU_S10_START53_V7A-v1/AODSIM/V5_B/PAT_CMG_V5_16_0/cmgTuple_17.root
p251
(lp252
I01
aI7995
asV/store/cmst3/user/cmgtools/CMG/VBF_HToTauTau_M-125_8TeV-powheg-pythia6/Summer12_DR53X-PU_S10_START53_V7A-v1/AODSIM/V5_B/PAT_CMG_V5_16_0/cmgTuple_35.root
p253
(lp254
I01
aI8094
asV/store/cmst3/user/cmgtools/CMG/VBF_HToTauTau_M-125_8TeV-powheg-pythia6/Summer12_DR53X-PU_S10_START53_V7A-v1/AODSIM/V5_B/PAT_CMG_V5_16_0/cmgTuple_66.root
p255
(lp256
I01
aI6294
asV/store/cmst3/user/cmgtools/CMG/VBF_HToTauTau_M-125_8TeV-powheg-pythia6/Summer12_DR53X-PU_S10_START53_V7A-v1/AODSIM/V5_B/PAT_CMG_V5_16_0/cmgTuple_41.root
p257
(lp258
I01
aI7196
asV/store/cmst3/user/cmgtools/CMG/VBF_HToTauTau_M-125_8TeV-powheg-pythia6/Summer12_DR53X-PU_S10_START53_V7A-v1/AODSIM/V5_B/PAT_CMG_V5_16_0/cmgTuple_61.root
p259
(lp260
I01
aI12282
asV/store/cmst3/user/cmgtools/CMG/VBF_HToTauTau_M-125_8TeV-powheg-pythia6/Summer12_DR53X-PU_S10_START53_V7A-v1/AODSIM/V5_B/PAT_CMG_V5_16_0/cmgTuple_57.root
p261
(lp262
I01
aI6891
asV/store/cmst3/user/cmgtools/CMG/VBF_HToTauTau_M-125_8TeV-powheg-pythia6/Summer12_DR53X-PU_S10_START53_V7A-v1/AODSIM/V5_B/PAT_CMG_V5_16_0/cmgTuple_76.root
p263
(lp264
I01
aI11984
asV/store/cmst3/user/cmgtools/CMG/VBF_HToTauTau_M-125_8TeV-powheg-pythia6/Summer12_DR53X-PU_S10_START53_V7A-v1/AODSIM/V5_B/PAT_CMG_V5_16_0/cmgTuple_98.root
p265
(lp266
I01
aI9294
asV/store/cmst3/user/cmgtools/CMG/VBF_HToTauTau_M-125_8TeV-powheg-pythia6/Summer12_DR53X-PU_S10_START53_V7A-v1/AODSIM/V5_B/PAT_CMG_V5_16_0/cmgTuple_20.root
p267
(lp268
I01
aI10788
asV/store/cmst3/user/cmgtools/CMG/VBF_HToTauTau_M-125_8TeV-powheg-pythia6/Summer12_DR53X-PU_S10_START53_V7A-v1/AODSIM/V5_B/PAT_CMG_V5_16_0/cmgTuple_87.root
p269
(lp270
I01
aI6593
asV/store/cmst3/user/cmgtools/CMG/VBF_HToTauTau_M-125_8TeV-powheg-pythia6/Summer12_DR53X-PU_S10_START53_V7A-v1/AODSIM/V5_B/PAT_CMG_V5_16_0/cmgTuple_11.root
p271
(lp272
I01
aI11683
asV/store/cmst3/user/cmgtools/CMG/VBF_HToTauTau_M-125_8TeV-powheg-pythia6/Summer12_DR53X-PU_S10_START53_V7A-v1/AODSIM/V5_B/PAT_CMG_V5_16_0/cmgTuple_21.root
p273
(lp274
I01
aI11688
asV/store/cmst3/user/cmgtools/CMG/VBF_HToTauTau_M-125_8TeV-powheg-pythia6/Summer12_DR53X-PU_S10_START53_V7A-v1/AODSIM/V5_B/PAT_CMG_V5_16_0/cmgTuple_33.root
p275
(lp276
I01
aI8391
asV/store/cmst3/user/cmgtools/CMG/VBF_HToTauTau_M-125_8TeV-powheg-pythia6/Summer12_DR53X-PU_S10_START53_V7A-v1/AODSIM/V5_B/PAT_CMG_V5_16_0/cmgTuple_65.root
p277
(lp278
I01
aI11088
asV/store/cmst3/user/cmgtools/CMG/VBF_HToTauTau_M-125_8TeV-powheg-pythia6/Summer12_DR53X-PU_S10_START53_V7A-v1/AODSIM/V5_B/PAT_CMG_V5_16_0/cmgTuple_82.root
p279
(lp280
I01
aI11686
asV/store/cmst3/user/cmgtools/CMG/VBF_HToTauTau_M-125_8TeV-powheg-pythia6/Summer12_DR53X-PU_S10_START53_V7A-v1/AODSIM/V5_B/PAT_CMG_V5_16_0/cmgTuple_54.root
p281
(lp282
I01
aI6296
asV/store/cmst3/user/cmgtools/CMG/VBF_HToTauTau_M-125_8TeV-powheg-pythia6/Summer12_DR53X-PU_S10_START53_V7A-v1/AODSIM/V5_B/PAT_CMG_V5_16_0/cmgTuple_6.root
p283
(lp284
I01
aI7189
asV/store/cmst3/user/cmgtools/CMG/VBF_HToTauTau_M-125_8TeV-powheg-pythia6/Summer12_DR53X-PU_S10_START53_V7A-v1/AODSIM/V5_B/PAT_CMG_V5_16_0/cmgTuple_83.root
p285
(lp286
I01
aI6294
asV/store/cmst3/user/cmgtools/CMG/VBF_HToTauTau_M-125_8TeV-powheg-pythia6/Summer12_DR53X-PU_S10_START53_V7A-v1/AODSIM/V5_B/PAT_CMG_V5_16_0/cmgTuple_58.root
p287
(lp288
I01
aI10190
asV/store/cmst3/user/cmgtools/CMG/VBF_HToTauTau_M-125_8TeV-powheg-pythia6/Summer12_DR53X-PU_S10_START53_V7A-v1/AODSIM/V5_B/PAT_CMG_V5_16_0/cmgTuple_1.root
p289
(lp290
I01
aI10185
asV/store/cmst3/user/cmgtools/CMG/VBF_HToTauTau_M-125_8TeV-powheg-pythia6/Summer12_DR53X-PU_S10_START53_V7A-v1/AODSIM/V5_B/PAT_CMG_V5_16_0/cmgTuple_94.root
p291
(lp292
I01
aI11687
asV/store/cmst3/user/cmgtools/CMG/VBF_HToTauTau_M-125_8TeV-powheg-pythia6/Summer12_DR53X-PU_S10_START53_V7A-v1/AODSIM/V5_B/PAT_CMG_V5_16_0/cmgTuple_64.root
p293
(lp294
I01
aI9887
asV/store/cmst3/user/cmgtools/CMG/VBF_HToTauTau_M-125_8TeV-powheg-pythia6/Summer12_DR53X-PU_S10_START53_V7A-v1/AODSIM/V5_B/PAT_CMG_V5_16_0/cmgTuple_55.root
p295
(lp296
I01
aI10188
asV/store/cmst3/user/cmgtools/CMG/VBF_HToTauTau_M-125_8TeV-powheg-pythia6/Summer12_DR53X-PU_S10_START53_V7A-v1/AODSIM/V5_B/PAT_CMG_V5_16_0/cmgTuple_36.root
p297
(lp298
I01
aI11690
asV/store/cmst3/user/cmgtools/CMG/VBF_HToTauTau_M-125_8TeV-powheg-pythia6/Summer12_DR53X-PU_S10_START53_V7A-v1/AODSIM/V5_B/PAT_CMG_V5_16_0/cmgTuple_39.root
p299
(lp300
I01
aI11685
asV/store/cmst3/user/cmgtools/CMG/VBF_HToTauTau_M-125_8TeV-powheg-pythia6/Summer12_DR53X-PU_S10_START53_V7A-v1/AODSIM/V5_B/PAT_CMG_V5_16_0/cmgTuple_91.root
p301
(lp302
I01
aI7192
asV/store/cmst3/user/cmgtools/CMG/VBF_HToTauTau_M-125_8TeV-powheg-pythia6/Summer12_DR53X-PU_S10_START53_V7A-v1/AODSIM/V5_B/PAT_CMG_V5_16_0/cmgTuple_51.root
p303
(lp304
I01
aI9590
asV/store/cmst3/user/cmgtools/CMG/VBF_HToTauTau_M-125_8TeV-powheg-pythia6/Summer12_DR53X-PU_S10_START53_V7A-v1/AODSIM/V5_B/PAT_CMG_V5_16_0/cmgTuple_69.root
p305
(lp306
I01
aI11680
asV/store/cmst3/user/cmgtools/CMG/VBF_HToTauTau_M-125_8TeV-powheg-pythia6/Summer12_DR53X-PU_S10_START53_V7A-v1/AODSIM/V5_B/PAT_CMG_V5_16_0/cmgTuple_71.root
p307
(lp308
I01
aI11685
asV/store/cmst3/user/cmgtools/CMG/VBF_HToTauTau_M-125_8TeV-powheg-pythia6/Summer12_DR53X-PU_S10_START53_V7A-v1/AODSIM/V5_B/PAT_CMG_V5_16_0/cmgTuple_89.root
p309
(lp310
I01
aI11088
asV/store/cmst3/user/cmgtools/CMG/VBF_HToTauTau_M-125_8TeV-powheg-pythia6/Summer12_DR53X-PU_S10_START53_V7A-v1/AODSIM/V5_B/PAT_CMG_V5_16_0/cmgTuple_26.root
p311
(lp312
I01
aI6293
asV/store/cmst3/user/cmgtools/CMG/VBF_HToTauTau_M-125_8TeV-powheg-pythia6/Summer12_DR53X-PU_S10_START53_V7A-v1/AODSIM/V5_B/PAT_CMG_V5_16_0/cmgTuple_102.root
p313
(lp314
I01
aI11682
asV/store/cmst3/user/cmgtools/CMG/VBF_HToTauTau_M-125_8TeV-powheg-pythia6/Summer12_DR53X-PU_S10_START53_V7A-v1/AODSIM/V5_B/PAT_CMG_V5_16_0/cmgTuple_85.root
p315
(lp316
I01
aI11681
asV/store/cmst3/user/cmgtools/CMG/VBF_HToTauTau_M-125_8TeV-powheg-pythia6/Summer12_DR53X-PU_S10_START53_V7A-v1/AODSIM/V5_B/PAT_CMG_V5_16_0/cmgTuple_4.root
p317
(lp318
I01
aI12586
asV/store/cmst3/user/cmgtools/CMG/VBF_HToTauTau_M-125_8TeV-powheg-pythia6/Summer12_DR53X-PU_S10_START53_V7A-v1/AODSIM/V5_B/PAT_CMG_V5_16_0/cmgTuple_16.root
p319
(lp320
I01
aI11694
asV/store/cmst3/user/cmgtools/CMG/VBF_HToTauTau_M-125_8TeV-powheg-pythia6/Summer12_DR53X-PU_S10_START53_V7A-v1/AODSIM/V5_B/PAT_CMG_V5_16_0/cmgTuple_103.root
p321
(lp322
I01
aI9286
asV/store/cmst3/user/cmgtools/CMG/VBF_HToTauTau_M-125_8TeV-powheg-pythia6/Summer12_DR53X-PU_S10_START53_V7A-v1/AODSIM/V5_B/PAT_CMG_V5_16_0/cmgTuple_12.root
p323
(lp324
I01
aI8394
asV/store/cmst3/user/cmgtools/CMG/VBF_HToTauTau_M-125_8TeV-powheg-pythia6/Summer12_DR53X-PU_S10_START53_V7A-v1/AODSIM/V5_B/PAT_CMG_V5_16_0/cmgTuple_5.root
p325
(lp326
I01
aI11091
asV/store/cmst3/user/cmgtools/CMG/VBF_HToTauTau_M-125_8TeV-powheg-pythia6/Summer12_DR53X-PU_S10_START53_V7A-v1/AODSIM/V5_B/PAT_CMG_V5_16_0/cmgTuple_84.root
p327
(lp328
I01
aI6594
asV/store/cmst3/user/cmgtools/CMG/VBF_HToTauTau_M-125_8TeV-powheg-pythia6/Summer12_DR53X-PU_S10_START53_V7A-v1/AODSIM/V5_B/PAT_CMG_V5_16_0/cmgTuple_45.root
p329
(lp330
I01
aI6289
asV/store/cmst3/user/cmgtools/CMG/VBF_HToTauTau_M-125_8TeV-powheg-pythia6/Summer12_DR53X-PU_S10_START53_V7A-v1/AODSIM/V5_B/PAT_CMG_V5_16_0/cmgTuple_72.root
p331
(lp332
I01
aI7491
asV/store/cmst3/user/cmgtools/CMG/VBF_HToTauTau_M-125_8TeV-powheg-pythia6/Summer12_DR53X-PU_S10_START53_V7A-v1/AODSIM/V5_B/PAT_CMG_V5_16_0/cmgTuple_32.root
p333
(lp334
I01
aI11686
asV/store/cmst3/user/cmgtools/CMG/VBF_HToTauTau_M-125_8TeV-powheg-pythia6/Summer12_DR53X-PU_S10_START53_V7A-v1/AODSIM/V5_B/PAT_CMG_V5_16_0/cmgTuple_13.root
p335
(lp336
I01
aI6290
assVPhysicsGroup
p337
VCMG
p338
sVFilesCount
p339
I103
sVFilesEntries
p340
I998836
sVRunList
p341
(lp342
sVValidDuplicates
p343
(dp344
sVPrimaryDataset
p345
V/VBF_HToTauTau_M-125_8TeV-powheg-pythia6/Summer12_DR53X-PU_S10_START53_V7A-v1/AODSIM
p346
sVStatus
p347
VVALID
p348
sVName
p349
V/VBF_HToTauTau_M-125_8TeV-powheg-pythia6/Summer12_DR53X-PU_S10_START53_V7A-v1/AODSIM/V5_B/PAT_CMG_V5_16_0
p350
sVTopdir
p351
V/eos/cms/store/cmst3/user/cmgtools/CMG
p352
sVdata
p353
(dp354
sVFilesBad
p355
I0
sVMinRun
p356
I-1
sVAlgoList
p357
(lp358
sVTierList
p359
(lp360
sVDateCreated
p361
V1370574685
p362
sVCreatedBy
p363
Vcmgtools
p364
sVMaxRun
p365
I-1
sVBadJobs
p366
(lp367
ssg89
I01
ssS'MonitorJobs'
p368
(dp369
S'LSFJobStatus'
p370
(dp371
g92
S'VBF_HToTauTau_M-125_8TeV-powheg-pythia6/Summer12_DR53X-PU_S10_START53_V7A-v1/AODSIM/V5_B/PAT_CMG_V5_16_0_1377467453/HTT_24Jul_newTES_manzoni_Up_Jobs/Job_8/LSFJOB_440971344/STDOUT.gz'
p372
sg93
S'VBF_HToTauTau_M-125_8TeV-powheg-pythia6/Summer12_DR53X-PU_S10_START53_V7A-v1/AODSIM/V5_B/PAT_CMG_V5_16_0_1377467453/HTT_24Jul_newTES_manzoni_Up_Jobs/Job_9/LSFJOB_440971406/STDOUT.gz'
p373
sg95
S'VBF_HToTauTau_M-125_8TeV-powheg-pythia6/Summer12_DR53X-PU_S10_START53_V7A-v1/AODSIM/V5_B/PAT_CMG_V5_16_0_1377467453/HTT_24Jul_newTES_manzoni_Up_Jobs/Job_2/LSFJOB_440970689/STDOUT.gz'
p374
sg96
S'VBF_HToTauTau_M-125_8TeV-powheg-pythia6/Summer12_DR53X-PU_S10_START53_V7A-v1/AODSIM/V5_B/PAT_CMG_V5_16_0_1377467453/HTT_24Jul_newTES_manzoni_Up_Jobs/Job_3/LSFJOB_440970816/STDOUT.gz'
p375
sg97
S'VBF_HToTauTau_M-125_8TeV-powheg-pythia6/Summer12_DR53X-PU_S10_START53_V7A-v1/AODSIM/V5_B/PAT_CMG_V5_16_0_1377467453/HTT_24Jul_newTES_manzoni_Up_Jobs/Job_1/LSFJOB_440970542/STDOUT.gz'
p376
sg98
S'VBF_HToTauTau_M-125_8TeV-powheg-pythia6/Summer12_DR53X-PU_S10_START53_V7A-v1/AODSIM/V5_B/PAT_CMG_V5_16_0_1377467453/HTT_24Jul_newTES_manzoni_Up_Jobs/Job_6/LSFJOB_440971102/STDOUT.gz'
p377
sg99
S'VBF_HToTauTau_M-125_8TeV-powheg-pythia6/Summer12_DR53X-PU_S10_START53_V7A-v1/AODSIM/V5_B/PAT_CMG_V5_16_0_1377467453/HTT_24Jul_newTES_manzoni_Up_Jobs/Job_7/LSFJOB_440971215/STDOUT.gz'
p378
sg100
S'VBF_HToTauTau_M-125_8TeV-powheg-pythia6/Summer12_DR53X-PU_S10_START53_V7A-v1/AODSIM/V5_B/PAT_CMG_V5_16_0_1377467453/HTT_24Jul_newTES_manzoni_Up_Jobs/Job_4/LSFJOB_440970910/STDOUT.gz'
p379
sg101
S'VBF_HToTauTau_M-125_8TeV-powheg-pythia6/Summer12_DR53X-PU_S10_START53_V7A-v1/AODSIM/V5_B/PAT_CMG_V5_16_0_1377467453/HTT_24Jul_newTES_manzoni_Up_Jobs/Job_5/LSFJOB_440971010/STDOUT.gz'
p380
sg102
S'VBF_HToTauTau_M-125_8TeV-powheg-pythia6/Summer12_DR53X-PU_S10_START53_V7A-v1/AODSIM/V5_B/PAT_CMG_V5_16_0_1377467453/HTT_24Jul_newTES_manzoni_Up_Jobs/Job_18/LSFJOB_440972243/STDOUT.gz'
p381
sg103
S'VBF_HToTauTau_M-125_8TeV-powheg-pythia6/Summer12_DR53X-PU_S10_START53_V7A-v1/AODSIM/V5_B/PAT_CMG_V5_16_0_1377467453/HTT_24Jul_newTES_manzoni_Up_Jobs/Job_19/LSFJOB_440972346/STDOUT.gz'
p382
sg110
S'VBF_HToTauTau_M-125_8TeV-powheg-pythia6/Summer12_DR53X-PU_S10_START53_V7A-v1/AODSIM/V5_B/PAT_CMG_V5_16_0_1377467453/HTT_24Jul_newTES_manzoni_Up_Jobs/Job_15/LSFJOB_440971999/STDOUT.gz'
p383
sg109
S'VBF_HToTauTau_M-125_8TeV-powheg-pythia6/Summer12_DR53X-PU_S10_START53_V7A-v1/AODSIM/V5_B/PAT_CMG_V5_16_0_1377467453/HTT_24Jul_newTES_manzoni_Up_Jobs/Job_14/LSFJOB_440971885/STDOUT.gz'
p384
sg105
S'VBF_HToTauTau_M-125_8TeV-powheg-pythia6/Summer12_DR53X-PU_S10_START53_V7A-v1/AODSIM/V5_B/PAT_CMG_V5_16_0_1377467453/HTT_24Jul_newTES_manzoni_Up_Jobs/Job_10/LSFJOB_440971476/STDOUT.gz'
p385
sg106
S'VBF_HToTauTau_M-125_8TeV-powheg-pythia6/Summer12_DR53X-PU_S10_START53_V7A-v1/AODSIM/V5_B/PAT_CMG_V5_16_0_1377467453/HTT_24Jul_newTES_manzoni_Up_Jobs/Job_11/LSFJOB_440971589/STDOUT.gz'
p386
sg107
S'VBF_HToTauTau_M-125_8TeV-powheg-pythia6/Summer12_DR53X-PU_S10_START53_V7A-v1/AODSIM/V5_B/PAT_CMG_V5_16_0_1377467453/HTT_24Jul_newTES_manzoni_Up_Jobs/Job_12/LSFJOB_440971672/STDOUT.gz'
p387
sg108
S'VBF_HToTauTau_M-125_8TeV-powheg-pythia6/Summer12_DR53X-PU_S10_START53_V7A-v1/AODSIM/V5_B/PAT_CMG_V5_16_0_1377467453/HTT_24Jul_newTES_manzoni_Up_Jobs/Job_13/LSFJOB_440971791/STDOUT.gz'
p388
sg111
S'VBF_HToTauTau_M-125_8TeV-powheg-pythia6/Summer12_DR53X-PU_S10_START53_V7A-v1/AODSIM/V5_B/PAT_CMG_V5_16_0_1377467453/HTT_24Jul_newTES_manzoni_Up_Jobs/Job_21/LSFJOB_440972568/STDOUT.gz'
p389
sg104
S'VBF_HToTauTau_M-125_8TeV-powheg-pythia6/Summer12_DR53X-PU_S10_START53_V7A-v1/AODSIM/V5_B/PAT_CMG_V5_16_0_1377467453/HTT_24Jul_newTES_manzoni_Up_Jobs/Job_20/LSFJOB_440972463/STDOUT.gz'
p390
sg94
S'VBF_HToTauTau_M-125_8TeV-powheg-pythia6/Summer12_DR53X-PU_S10_START53_V7A-v1/AODSIM/V5_B/PAT_CMG_V5_16_0_1377467453/HTT_24Jul_newTES_manzoni_Up_Jobs/Job_16/LSFJOB_440972092/STDOUT.gz'
p391
sg112
S'VBF_HToTauTau_M-125_8TeV-powheg-pythia6/Summer12_DR53X-PU_S10_START53_V7A-v1/AODSIM/V5_B/PAT_CMG_V5_16_0_1377467453/HTT_24Jul_newTES_manzoni_Up_Jobs/Job_17/LSFJOB_440972169/STDOUT.gz'
p392
ssS'LSFJobIDs'
p393
(dp394
g111
S'440972568'
p395
sg92
S'440971344'
p396
sg93
S'440971406'
p397
sg95
S'440970689'
p398
sg96
S'440970816'
p399
sg97
S'440970542'
p400
sg98
S'440971102'
p401
sg99
S'440971215'
p402
sg100
S'440970910'
p403
sg101
S'440971010'
p404
sg102
S'440972243'
p405
sg103
S'440972346'
p406
sg104
S'440972463'
p407
sg105
S'440971476'
p408
sg106
S'440971589'
p409
sg107
S'440971672'
p410
sg108
S'440971791'
p411
sg109
S'440971885'
p412
sg110
S'440971999'
p413
sg94
S'440972092'
p414
sg112
S'440972169'
p415
sssS'FindOnCastor'
p416
(dp417
g51
S'/eos/cms/store/cmst3/user/cmgtools/CMG'
p418
sS'Directory'
p419
S'/eos/cms/store/cmst3/user/cmgtools/CMG/VBF_HToTauTau_M-125_8TeV-powheg-pythia6/Summer12_DR53X-PU_S10_START53_V7A-v1/AODSIM/V5_B/PAT_CMG_V5_16_0'
p420
ssS'CheckConfig'
p421
(dp422
g67
g68
ssS'FullCFG'
p423
(dp424
S'FullCFG'
p425
S'VBF_HToTauTau_M-125_8TeV-powheg-pythia6/Summer12_DR53X-PU_S10_START53_V7A-v1/AODSIM/V5_B/PAT_CMG_V5_16_0_1377467453/full_cfg.py'
p426
ssS'WriteJobReport'
p427
(dp428
S'SummaryFile'
p429
S'VBF_HToTauTau_M-125_8TeV-powheg-pythia6/Summer12_DR53X-PU_S10_START53_V7A-v1/AODSIM/V5_B/PAT_CMG_V5_16_0_1377467453/resubmit.sh'
p430
ssS'ExpandConfig'
p431
(dp432
S'ExpandedFullCFG'
p433
S'VBF_HToTauTau_M-125_8TeV-powheg-pythia6/Summer12_DR53X-PU_S10_START53_V7A-v1/AODSIM/V5_B/PAT_CMG_V5_16_0_1377467453/Expandedfull_cfg.py'
p434
ssS'RunTestEvents'
p435
(dp436
g67
g68
sS'TestCFG'
p437
S'VBF_HToTauTau_M-125_8TeV-powheg-pythia6/Summer12_DR53X-PU_S10_START53_V7A-v1/AODSIM/V5_B/PAT_CMG_V5_16_0_1377467453/test_cfg.py'
p438
ssS'SourceCFG'
p439
(dp440
S'SourceCFG'
p441
S'VBF_HToTauTau_M-125_8TeV-powheg-pythia6/Summer12_DR53X-PU_S10_START53_V7A-v1/AODSIM/V5_B/PAT_CMG_V5_16_0_1377467453/source_cfg.py'
p442
ssS'CheckForWrite'
p443
(dp444
g419
g420
sS'WriteAccess'
p445
I01
ssS'WriteToDatasets'
p446
(dp447
S'Added'
p448
I00
sg49
S'/VBF_HToTauTau_M-125_8TeV-powheg-pythia6/Summer12_DR53X-PU_S10_START53_V7A-v1/AODSIM/V5_B/PAT_CMG_V5_16_0/HTT_24Jul_newTES_manzoni_Up'
p449
sS'User'
p450
g82
ssS'RunCMSBatch'
p451
(dp452
S'BatchUser'
p453
g82
sS'SampleOutputDir'
p454
S'/store/cmst3/user/manzoni/CMG/VBF_HToTauTau_M-125_8TeV-powheg-pythia6/Summer12_DR53X-PU_S10_START53_V7A-v1/AODSIM/V5_B/PAT_CMG_V5_16_0/HTT_24Jul_newTES_manzoni_Up'
p455
sS'SampleDataset'
p456
g50
sS'LSFJobsTopDir'
p457
S'VBF_HToTauTau_M-125_8TeV-powheg-pythia6/Summer12_DR53X-PU_S10_START53_V7A-v1/AODSIM/V5_B/PAT_CMG_V5_16_0_1377467453/HTT_24Jul_newTES_manzoni_Up_Jobs'
p458
ssS'CreateJobDirectory'
p459
(dp460
S'JobDir'
p461
S'VBF_HToTauTau_M-125_8TeV-powheg-pythia6/Summer12_DR53X-PU_S10_START53_V7A-v1/AODSIM/V5_B/PAT_CMG_V5_16_0_1377467453'
p462
sS'PWD'
p463
S'/afs/cern.ch/user/m/manzoni/summer13/CMGTools/CMSSW_5_3_9/src/CMGTools/H2TauTau/prod/25aug_corrMC/up/mc'
p464
ssS'CleanJobFiles'
p465
(dp466
S'Compressed'
p467
(dp468
S'CompressedFiles'
p469
(lp470
ssS'Cleaned'
p471
(dp472
S'CleanedFiles'
p473
(lp474
g434
ag438
aS'VBF_HToTauTau_M-125_8TeV-powheg-pythia6/Summer12_DR53X-PU_S10_START53_V7A-v1/AODSIM/V5_B/PAT_CMG_V5_16_0_1377467453/diTau_fullsel_tree_CMG.root'
p475
aS'VBF_HToTauTau_M-125_8TeV-powheg-pythia6/Summer12_DR53X-PU_S10_START53_V7A-v1/AODSIM/V5_B/PAT_CMG_V5_16_0_1377467453/source_cfg.pyc'
p476
aS'VBF_HToTauTau_M-125_8TeV-powheg-pythia6/Summer12_DR53X-PU_S10_START53_V7A-v1/AODSIM/V5_B/PAT_CMG_V5_16_0_1377467453/Expandedfull_cfg.pyc'
p477
asssS'CheckForMask'
p478
(dp479
g3
g119
sg89
I01
ss.