(dp0
S'CheckJobStatus'
p1
(dp2
S'Report'
p3
(dp4
S'Files'
p5
(dp6
S'/store/cmst3/user/manzoni/CMG/VBFHToTauTau_M-90_8TeV-powheg-pythia6/Summer12_DR53X-PU_S10_START53_V7C-v1/AODSIM/PAT_CMG_V5_16_0/HTT_24Jul_newTES_manzoni_Up/diTau_fullsel_tree_CMG_12.root'
p7
(I01
I1198
tp8
sS'/store/cmst3/user/manzoni/CMG/VBFHToTauTau_M-90_8TeV-powheg-pythia6/Summer12_DR53X-PU_S10_START53_V7C-v1/AODSIM/PAT_CMG_V5_16_0/HTT_24Jul_newTES_manzoni_Up/diTau_fullsel_tree_CMG_17.root'
p9
(I01
I1189
tp10
sS'/store/cmst3/user/manzoni/CMG/VBFHToTauTau_M-90_8TeV-powheg-pythia6/Summer12_DR53X-PU_S10_START53_V7C-v1/AODSIM/PAT_CMG_V5_16_0/HTT_24Jul_newTES_manzoni_Up/diTau_fullsel_tree_CMG_14.root'
p11
(I01
I1190
tp12
sS'/store/cmst3/user/manzoni/CMG/VBFHToTauTau_M-90_8TeV-powheg-pythia6/Summer12_DR53X-PU_S10_START53_V7C-v1/AODSIM/PAT_CMG_V5_16_0/HTT_24Jul_newTES_manzoni_Up/diTau_fullsel_tree_CMG_8.root'
p13
(I01
I1229
tp14
sS'/store/cmst3/user/manzoni/CMG/VBFHToTauTau_M-90_8TeV-powheg-pythia6/Summer12_DR53X-PU_S10_START53_V7C-v1/AODSIM/PAT_CMG_V5_16_0/HTT_24Jul_newTES_manzoni_Up/diTau_fullsel_tree_CMG_5.root'
p15
(I01
I1223
tp16
sS'/store/cmst3/user/manzoni/CMG/VBFHToTauTau_M-90_8TeV-powheg-pythia6/Summer12_DR53X-PU_S10_START53_V7C-v1/AODSIM/PAT_CMG_V5_16_0/HTT_24Jul_newTES_manzoni_Up/diTau_fullsel_tree_CMG_2.root'
p17
(I01
I1189
tp18
sS'/store/cmst3/user/manzoni/CMG/VBFHToTauTau_M-90_8TeV-powheg-pythia6/Summer12_DR53X-PU_S10_START53_V7C-v1/AODSIM/PAT_CMG_V5_16_0/HTT_24Jul_newTES_manzoni_Up/diTau_fullsel_tree_CMG_15.root'
p19
(I01
I1171
tp20
sS'/store/cmst3/user/manzoni/CMG/VBFHToTauTau_M-90_8TeV-powheg-pythia6/Summer12_DR53X-PU_S10_START53_V7C-v1/AODSIM/PAT_CMG_V5_16_0/HTT_24Jul_newTES_manzoni_Up/diTau_fullsel_tree_CMG_20.root'
p21
(I01
I1194
tp22
sS'/store/cmst3/user/manzoni/CMG/VBFHToTauTau_M-90_8TeV-powheg-pythia6/Summer12_DR53X-PU_S10_START53_V7C-v1/AODSIM/PAT_CMG_V5_16_0/HTT_24Jul_newTES_manzoni_Up/diTau_fullsel_tree_CMG_10.root'
p23
(I01
I1169
tp24
sS'/store/cmst3/user/manzoni/CMG/VBFHToTauTau_M-90_8TeV-powheg-pythia6/Summer12_DR53X-PU_S10_START53_V7C-v1/AODSIM/PAT_CMG_V5_16_0/HTT_24Jul_newTES_manzoni_Up/diTau_fullsel_tree_CMG_7.root'
p25
(I01
I1236
tp26
sS'/store/cmst3/user/manzoni/CMG/VBFHToTauTau_M-90_8TeV-powheg-pythia6/Summer12_DR53X-PU_S10_START53_V7C-v1/AODSIM/PAT_CMG_V5_16_0/HTT_24Jul_newTES_manzoni_Up/diTau_fullsel_tree_CMG_13.root'
p27
(I01
I1210
tp28
sS'/store/cmst3/user/manzoni/CMG/VBFHToTauTau_M-90_8TeV-powheg-pythia6/Summer12_DR53X-PU_S10_START53_V7C-v1/AODSIM/PAT_CMG_V5_16_0/HTT_24Jul_newTES_manzoni_Up/diTau_fullsel_tree_CMG_21.root'
p29
(I01
I238
tp30
sS'/store/cmst3/user/manzoni/CMG/VBFHToTauTau_M-90_8TeV-powheg-pythia6/Summer12_DR53X-PU_S10_START53_V7C-v1/AODSIM/PAT_CMG_V5_16_0/HTT_24Jul_newTES_manzoni_Up/diTau_fullsel_tree_CMG_4.root'
p31
(I01
I1223
tp32
sS'/store/cmst3/user/manzoni/CMG/VBFHToTauTau_M-90_8TeV-powheg-pythia6/Summer12_DR53X-PU_S10_START53_V7C-v1/AODSIM/PAT_CMG_V5_16_0/HTT_24Jul_newTES_manzoni_Up/diTau_fullsel_tree_CMG_1.root'
p33
(I01
I1193
tp34
sS'/store/cmst3/user/manzoni/CMG/VBFHToTauTau_M-90_8TeV-powheg-pythia6/Summer12_DR53X-PU_S10_START53_V7C-v1/AODSIM/PAT_CMG_V5_16_0/HTT_24Jul_newTES_manzoni_Up/diTau_fullsel_tree_CMG_3.root'
p35
(I01
I1161
tp36
sS'/store/cmst3/user/manzoni/CMG/VBFHToTauTau_M-90_8TeV-powheg-pythia6/Summer12_DR53X-PU_S10_START53_V7C-v1/AODSIM/PAT_CMG_V5_16_0/HTT_24Jul_newTES_manzoni_Up/diTau_fullsel_tree_CMG_16.root'
p37
(I01
I1174
tp38
sS'/store/cmst3/user/manzoni/CMG/VBFHToTauTau_M-90_8TeV-powheg-pythia6/Summer12_DR53X-PU_S10_START53_V7C-v1/AODSIM/PAT_CMG_V5_16_0/HTT_24Jul_newTES_manzoni_Up/diTau_fullsel_tree_CMG_11.root'
p39
(I01
I1217
tp40
sS'/store/cmst3/user/manzoni/CMG/VBFHToTauTau_M-90_8TeV-powheg-pythia6/Summer12_DR53X-PU_S10_START53_V7C-v1/AODSIM/PAT_CMG_V5_16_0/HTT_24Jul_newTES_manzoni_Up/diTau_fullsel_tree_CMG_9.root'
p41
(I01
I1201
tp42
sS'/store/cmst3/user/manzoni/CMG/VBFHToTauTau_M-90_8TeV-powheg-pythia6/Summer12_DR53X-PU_S10_START53_V7C-v1/AODSIM/PAT_CMG_V5_16_0/HTT_24Jul_newTES_manzoni_Up/diTau_fullsel_tree_CMG_6.root'
p43
(I01
I1259
tp44
sS'/store/cmst3/user/manzoni/CMG/VBFHToTauTau_M-90_8TeV-powheg-pythia6/Summer12_DR53X-PU_S10_START53_V7C-v1/AODSIM/PAT_CMG_V5_16_0/HTT_24Jul_newTES_manzoni_Up/diTau_fullsel_tree_CMG_19.root'
p45
(I01
I1218
tp46
sS'/store/cmst3/user/manzoni/CMG/VBFHToTauTau_M-90_8TeV-powheg-pythia6/Summer12_DR53X-PU_S10_START53_V7C-v1/AODSIM/PAT_CMG_V5_16_0/HTT_24Jul_newTES_manzoni_Up/diTau_fullsel_tree_CMG_18.root'
p47
(I01
I1270
tp48
ssS'Name'
p49
S'/VBFHToTauTau_M-90_8TeV-powheg-pythia6/Summer12_DR53X-PU_S10_START53_V7C-v1/AODSIM/PAT_CMG_V5_16_0/HTT_24Jul_newTES_manzoni_Up'
p50
sS'Topdir'
p51
S'/eos/cms/store/cmst3/user/manzoni/CMG'
p52
sS'RunList'
p53
(lp54
sS'PathList'
p55
(lp56
S'/store/cmst3/user/manzoni/CMG/VBFHToTauTau_M-90_8TeV-powheg-pythia6/Summer12_DR53X-PU_S10_START53_V7C-v1/AODSIM/PAT_CMG_V5_16_0/HTT_24Jul_newTES_manzoni_Up'
p57
asS'AlgoList'
p58
(lp59
sS'PrimaryDatasetFraction'
p60
F0.024388485173820036
sS'FilesGood'
p61
I21
sS'PrimaryDatasetEntries'
p62
I998504
sS'data'
p63
(dp64
sS'FilesBad'
p65
I0
sS'ReportVersion'
p66
I3
sS'Status'
p67
S'VALID'
p68
sS'MaxRun'
p69
I-1
sS'PhysicsGroup'
p70
S'CMG'
p71
sS'MinRun'
p72
I-1
sS'StageHost'
p73
S'castorcms'
p74
sS'FilesCount'
p75
I21
sS'FilesEntries'
p76
I24352
sS'TierList'
p77
(lp78
sS'DateCreated'
p79
S'1377472008'
p80
sS'CreatedBy'
p81
S'manzoni'
p82
sS'ValidDuplicates'
p83
(dp84
sS'PrimaryDataset'
p85
S'/VBFHToTauTau_M-90_8TeV-powheg-pythia6/Summer12_DR53X-PU_S10_START53_V7C-v1/AODSIM'
p86
sS'BadJobs'
p87
(lp88
ssS'MaskPresent'
p89
I01
sS'LSFJobStatusCheck'
p90
(dp91
S'VBFHToTauTau_M-90_8TeV-powheg-pythia6/Summer12_DR53X-PU_S10_START53_V7C-v1/AODSIM/PAT_CMG_V5_16_0_1377467446/HTT_24Jul_newTES_manzoni_Up_Jobs/Job_20'
p92
g68
sS'VBFHToTauTau_M-90_8TeV-powheg-pythia6/Summer12_DR53X-PU_S10_START53_V7C-v1/AODSIM/PAT_CMG_V5_16_0_1377467446/HTT_24Jul_newTES_manzoni_Up_Jobs/Job_21'
p93
g68
sS'VBFHToTauTau_M-90_8TeV-powheg-pythia6/Summer12_DR53X-PU_S10_START53_V7C-v1/AODSIM/PAT_CMG_V5_16_0_1377467446/HTT_24Jul_newTES_manzoni_Up_Jobs/Job_8'
p94
g68
sS'VBFHToTauTau_M-90_8TeV-powheg-pythia6/Summer12_DR53X-PU_S10_START53_V7C-v1/AODSIM/PAT_CMG_V5_16_0_1377467446/HTT_24Jul_newTES_manzoni_Up_Jobs/Job_9'
p95
g68
sS'VBFHToTauTau_M-90_8TeV-powheg-pythia6/Summer12_DR53X-PU_S10_START53_V7C-v1/AODSIM/PAT_CMG_V5_16_0_1377467446/HTT_24Jul_newTES_manzoni_Up_Jobs/Job_6'
p96
g68
sS'VBFHToTauTau_M-90_8TeV-powheg-pythia6/Summer12_DR53X-PU_S10_START53_V7C-v1/AODSIM/PAT_CMG_V5_16_0_1377467446/HTT_24Jul_newTES_manzoni_Up_Jobs/Job_7'
p97
g68
sS'VBFHToTauTau_M-90_8TeV-powheg-pythia6/Summer12_DR53X-PU_S10_START53_V7C-v1/AODSIM/PAT_CMG_V5_16_0_1377467446/HTT_24Jul_newTES_manzoni_Up_Jobs/Job_4'
p98
g68
sS'VBFHToTauTau_M-90_8TeV-powheg-pythia6/Summer12_DR53X-PU_S10_START53_V7C-v1/AODSIM/PAT_CMG_V5_16_0_1377467446/HTT_24Jul_newTES_manzoni_Up_Jobs/Job_5'
p99
g68
sS'VBFHToTauTau_M-90_8TeV-powheg-pythia6/Summer12_DR53X-PU_S10_START53_V7C-v1/AODSIM/PAT_CMG_V5_16_0_1377467446/HTT_24Jul_newTES_manzoni_Up_Jobs/Job_2'
p100
g68
sS'VBFHToTauTau_M-90_8TeV-powheg-pythia6/Summer12_DR53X-PU_S10_START53_V7C-v1/AODSIM/PAT_CMG_V5_16_0_1377467446/HTT_24Jul_newTES_manzoni_Up_Jobs/Job_3'
p101
g68
sS'VBFHToTauTau_M-90_8TeV-powheg-pythia6/Summer12_DR53X-PU_S10_START53_V7C-v1/AODSIM/PAT_CMG_V5_16_0_1377467446/HTT_24Jul_newTES_manzoni_Up_Jobs/Job_1'
p102
g68
sS'VBFHToTauTau_M-90_8TeV-powheg-pythia6/Summer12_DR53X-PU_S10_START53_V7C-v1/AODSIM/PAT_CMG_V5_16_0_1377467446/HTT_24Jul_newTES_manzoni_Up_Jobs/Job_10'
p103
g68
sS'VBFHToTauTau_M-90_8TeV-powheg-pythia6/Summer12_DR53X-PU_S10_START53_V7C-v1/AODSIM/PAT_CMG_V5_16_0_1377467446/HTT_24Jul_newTES_manzoni_Up_Jobs/Job_11'
p104
g68
sS'VBFHToTauTau_M-90_8TeV-powheg-pythia6/Summer12_DR53X-PU_S10_START53_V7C-v1/AODSIM/PAT_CMG_V5_16_0_1377467446/HTT_24Jul_newTES_manzoni_Up_Jobs/Job_12'
p105
g68
sS'VBFHToTauTau_M-90_8TeV-powheg-pythia6/Summer12_DR53X-PU_S10_START53_V7C-v1/AODSIM/PAT_CMG_V5_16_0_1377467446/HTT_24Jul_newTES_manzoni_Up_Jobs/Job_13'
p106
g68
sS'VBFHToTauTau_M-90_8TeV-powheg-pythia6/Summer12_DR53X-PU_S10_START53_V7C-v1/AODSIM/PAT_CMG_V5_16_0_1377467446/HTT_24Jul_newTES_manzoni_Up_Jobs/Job_14'
p107
g68
sS'VBFHToTauTau_M-90_8TeV-powheg-pythia6/Summer12_DR53X-PU_S10_START53_V7C-v1/AODSIM/PAT_CMG_V5_16_0_1377467446/HTT_24Jul_newTES_manzoni_Up_Jobs/Job_15'
p108
g68
sS'VBFHToTauTau_M-90_8TeV-powheg-pythia6/Summer12_DR53X-PU_S10_START53_V7C-v1/AODSIM/PAT_CMG_V5_16_0_1377467446/HTT_24Jul_newTES_manzoni_Up_Jobs/Job_16'
p109
g68
sS'VBFHToTauTau_M-90_8TeV-powheg-pythia6/Summer12_DR53X-PU_S10_START53_V7C-v1/AODSIM/PAT_CMG_V5_16_0_1377467446/HTT_24Jul_newTES_manzoni_Up_Jobs/Job_17'
p110
g68
sS'VBFHToTauTau_M-90_8TeV-powheg-pythia6/Summer12_DR53X-PU_S10_START53_V7C-v1/AODSIM/PAT_CMG_V5_16_0_1377467446/HTT_24Jul_newTES_manzoni_Up_Jobs/Job_18'
p111
g68
sS'VBFHToTauTau_M-90_8TeV-powheg-pythia6/Summer12_DR53X-PU_S10_START53_V7C-v1/AODSIM/PAT_CMG_V5_16_0_1377467446/HTT_24Jul_newTES_manzoni_Up_Jobs/Job_19'
p112
g68
sssS'CheckDatasetExists'
p113
(dp114
S'Dataset'
p115
S'/VBFHToTauTau_M-90_8TeV-powheg-pythia6/Summer12_DR53X-PU_S10_START53_V7C-v1/AODSIM/PAT_CMG_V5_16_0'
p116
ssS'GenerateMask'
p117
(dp118
g3
(dp119
VPathList
p120
(lp121
V/store/cmst3/group/cmgtools/CMG/VBFHToTauTau_M-90_8TeV-powheg-pythia6/Summer12_DR53X-PU_S10_START53_V7C-v1/AODSIM/PAT_CMG_V5_16_0
p122
asVStageHost
p123
Vcastorcms
p124
sVPrimaryDatasetFraction
p125
F1.0
sVFilesGood
p126
I100
sVPrimaryDatasetEntries
p127
I998504
sVReportVersion
p128
I3
sVFiles
p129
(dp130
V/store/cmst3/group/cmgtools/CMG/VBFHToTauTau_M-90_8TeV-powheg-pythia6/Summer12_DR53X-PU_S10_START53_V7C-v1/AODSIM/PAT_CMG_V5_16_0/cmgTuple_19_1_5SG.root
p131
(lp132
I01
aI10000
asV/store/cmst3/group/cmgtools/CMG/VBFHToTauTau_M-90_8TeV-powheg-pythia6/Summer12_DR53X-PU_S10_START53_V7C-v1/AODSIM/PAT_CMG_V5_16_0/cmgTuple_65_1_XFC.root
p133
(lp134
I01
aI10000
asV/store/cmst3/group/cmgtools/CMG/VBFHToTauTau_M-90_8TeV-powheg-pythia6/Summer12_DR53X-PU_S10_START53_V7C-v1/AODSIM/PAT_CMG_V5_16_0/cmgTuple_61_1_UBT.root
p135
(lp136
I01
aI10000
asV/store/cmst3/group/cmgtools/CMG/VBFHToTauTau_M-90_8TeV-powheg-pythia6/Summer12_DR53X-PU_S10_START53_V7C-v1/AODSIM/PAT_CMG_V5_16_0/cmgTuple_29_1_JwE.root
p137
(lp138
I01
aI10000
asV/store/cmst3/group/cmgtools/CMG/VBFHToTauTau_M-90_8TeV-powheg-pythia6/Summer12_DR53X-PU_S10_START53_V7C-v1/AODSIM/PAT_CMG_V5_16_0/cmgTuple_68_1_fXQ.root
p139
(lp140
I01
aI10000
asV/store/cmst3/group/cmgtools/CMG/VBFHToTauTau_M-90_8TeV-powheg-pythia6/Summer12_DR53X-PU_S10_START53_V7C-v1/AODSIM/PAT_CMG_V5_16_0/cmgTuple_28_1_wa6.root
p141
(lp142
I01
aI10000
asV/store/cmst3/group/cmgtools/CMG/VBFHToTauTau_M-90_8TeV-powheg-pythia6/Summer12_DR53X-PU_S10_START53_V7C-v1/AODSIM/PAT_CMG_V5_16_0/cmgTuple_91_1_ePR.root
p143
(lp144
I01
aI10000
asV/store/cmst3/group/cmgtools/CMG/VBFHToTauTau_M-90_8TeV-powheg-pythia6/Summer12_DR53X-PU_S10_START53_V7C-v1/AODSIM/PAT_CMG_V5_16_0/cmgTuple_1_1_yiL.root
p145
(lp146
I01
aI10000
asV/store/cmst3/group/cmgtools/CMG/VBFHToTauTau_M-90_8TeV-powheg-pythia6/Summer12_DR53X-PU_S10_START53_V7C-v1/AODSIM/PAT_CMG_V5_16_0/cmgTuple_78_1_UKy.root
p147
(lp148
I01
aI10000
asV/store/cmst3/group/cmgtools/CMG/VBFHToTauTau_M-90_8TeV-powheg-pythia6/Summer12_DR53X-PU_S10_START53_V7C-v1/AODSIM/PAT_CMG_V5_16_0/cmgTuple_59_1_fVF.root
p149
(lp150
I01
aI10000
asV/store/cmst3/group/cmgtools/CMG/VBFHToTauTau_M-90_8TeV-powheg-pythia6/Summer12_DR53X-PU_S10_START53_V7C-v1/AODSIM/PAT_CMG_V5_16_0/cmgTuple_32_1_mMJ.root
p151
(lp152
I01
aI10000
asV/store/cmst3/group/cmgtools/CMG/VBFHToTauTau_M-90_8TeV-powheg-pythia6/Summer12_DR53X-PU_S10_START53_V7C-v1/AODSIM/PAT_CMG_V5_16_0/cmgTuple_53_1_x48.root
p153
(lp154
I01
aI10000
asV/store/cmst3/group/cmgtools/CMG/VBFHToTauTau_M-90_8TeV-powheg-pythia6/Summer12_DR53X-PU_S10_START53_V7C-v1/AODSIM/PAT_CMG_V5_16_0/cmgTuple_81_1_U6z.root
p155
(lp156
I01
aI10000
asV/store/cmst3/group/cmgtools/CMG/VBFHToTauTau_M-90_8TeV-powheg-pythia6/Summer12_DR53X-PU_S10_START53_V7C-v1/AODSIM/PAT_CMG_V5_16_0/cmgTuple_39_1_NnE.root
p157
(lp158
I01
aI10000
asV/store/cmst3/group/cmgtools/CMG/VBFHToTauTau_M-90_8TeV-powheg-pythia6/Summer12_DR53X-PU_S10_START53_V7C-v1/AODSIM/PAT_CMG_V5_16_0/cmgTuple_85_1_0Xo.root
p159
(lp160
I01
aI10000
asV/store/cmst3/group/cmgtools/CMG/VBFHToTauTau_M-90_8TeV-powheg-pythia6/Summer12_DR53X-PU_S10_START53_V7C-v1/AODSIM/PAT_CMG_V5_16_0/cmgTuple_25_1_UX4.root
p161
(lp162
I01
aI10000
asV/store/cmst3/group/cmgtools/CMG/VBFHToTauTau_M-90_8TeV-powheg-pythia6/Summer12_DR53X-PU_S10_START53_V7C-v1/AODSIM/PAT_CMG_V5_16_0/cmgTuple_82_1_ypU.root
p163
(lp164
I01
aI10000
asV/store/cmst3/group/cmgtools/CMG/VBFHToTauTau_M-90_8TeV-powheg-pythia6/Summer12_DR53X-PU_S10_START53_V7C-v1/AODSIM/PAT_CMG_V5_16_0/cmgTuple_11_1_vhF.root
p165
(lp166
I01
aI10000
asV/store/cmst3/group/cmgtools/CMG/VBFHToTauTau_M-90_8TeV-powheg-pythia6/Summer12_DR53X-PU_S10_START53_V7C-v1/AODSIM/PAT_CMG_V5_16_0/cmgTuple_86_1_TpK.root
p167
(lp168
I01
aI10000
asV/store/cmst3/group/cmgtools/CMG/VBFHToTauTau_M-90_8TeV-powheg-pythia6/Summer12_DR53X-PU_S10_START53_V7C-v1/AODSIM/PAT_CMG_V5_16_0/cmgTuple_98_1_7Ps.root
p169
(lp170
I01
aI10000
asV/store/cmst3/group/cmgtools/CMG/VBFHToTauTau_M-90_8TeV-powheg-pythia6/Summer12_DR53X-PU_S10_START53_V7C-v1/AODSIM/PAT_CMG_V5_16_0/cmgTuple_92_1_V8S.root
p171
(lp172
I01
aI10000
asV/store/cmst3/group/cmgtools/CMG/VBFHToTauTau_M-90_8TeV-powheg-pythia6/Summer12_DR53X-PU_S10_START53_V7C-v1/AODSIM/PAT_CMG_V5_16_0/cmgTuple_71_1_Nwz.root
p173
(lp174
I01
aI10000
asV/store/cmst3/group/cmgtools/CMG/VBFHToTauTau_M-90_8TeV-powheg-pythia6/Summer12_DR53X-PU_S10_START53_V7C-v1/AODSIM/PAT_CMG_V5_16_0/cmgTuple_9_1_3o5.root
p175
(lp176
I01
aI10000
asV/store/cmst3/group/cmgtools/CMG/VBFHToTauTau_M-90_8TeV-powheg-pythia6/Summer12_DR53X-PU_S10_START53_V7C-v1/AODSIM/PAT_CMG_V5_16_0/cmgTuple_66_1_mYj.root
p177
(lp178
I01
aI10000
asV/store/cmst3/group/cmgtools/CMG/VBFHToTauTau_M-90_8TeV-powheg-pythia6/Summer12_DR53X-PU_S10_START53_V7C-v1/AODSIM/PAT_CMG_V5_16_0/cmgTuple_16_1_0qy.root
p179
(lp180
I01
aI10000
asV/store/cmst3/group/cmgtools/CMG/VBFHToTauTau_M-90_8TeV-powheg-pythia6/Summer12_DR53X-PU_S10_START53_V7C-v1/AODSIM/PAT_CMG_V5_16_0/cmgTuple_47_1_brQ.root
p181
(lp182
I01
aI10000
asV/store/cmst3/group/cmgtools/CMG/VBFHToTauTau_M-90_8TeV-powheg-pythia6/Summer12_DR53X-PU_S10_START53_V7C-v1/AODSIM/PAT_CMG_V5_16_0/cmgTuple_99_1_8B1.root
p183
(lp184
I01
aI10000
asV/store/cmst3/group/cmgtools/CMG/VBFHToTauTau_M-90_8TeV-powheg-pythia6/Summer12_DR53X-PU_S10_START53_V7C-v1/AODSIM/PAT_CMG_V5_16_0/cmgTuple_14_1_hZg.root
p185
(lp186
I01
aI10000
asV/store/cmst3/group/cmgtools/CMG/VBFHToTauTau_M-90_8TeV-powheg-pythia6/Summer12_DR53X-PU_S10_START53_V7C-v1/AODSIM/PAT_CMG_V5_16_0/cmgTuple_96_1_GLQ.root
p187
(lp188
I01
aI10000
asV/store/cmst3/group/cmgtools/CMG/VBFHToTauTau_M-90_8TeV-powheg-pythia6/Summer12_DR53X-PU_S10_START53_V7C-v1/AODSIM/PAT_CMG_V5_16_0/cmgTuple_30_1_m26.root
p189
(lp190
I01
aI10000
asV/store/cmst3/group/cmgtools/CMG/VBFHToTauTau_M-90_8TeV-powheg-pythia6/Summer12_DR53X-PU_S10_START53_V7C-v1/AODSIM/PAT_CMG_V5_16_0/cmgTuple_2_1_Yfg.root
p191
(lp192
I01
aI10000
asV/store/cmst3/group/cmgtools/CMG/VBFHToTauTau_M-90_8TeV-powheg-pythia6/Summer12_DR53X-PU_S10_START53_V7C-v1/AODSIM/PAT_CMG_V5_16_0/cmgTuple_18_1_tA3.root
p193
(lp194
I01
aI10000
asV/store/cmst3/group/cmgtools/CMG/VBFHToTauTau_M-90_8TeV-powheg-pythia6/Summer12_DR53X-PU_S10_START53_V7C-v1/AODSIM/PAT_CMG_V5_16_0/cmgTuple_23_1_T2Q.root
p195
(lp196
I01
aI10000
asV/store/cmst3/group/cmgtools/CMG/VBFHToTauTau_M-90_8TeV-powheg-pythia6/Summer12_DR53X-PU_S10_START53_V7C-v1/AODSIM/PAT_CMG_V5_16_0/cmgTuple_54_1_54e.root
p197
(lp198
I01
aI10000
asV/store/cmst3/group/cmgtools/CMG/VBFHToTauTau_M-90_8TeV-powheg-pythia6/Summer12_DR53X-PU_S10_START53_V7C-v1/AODSIM/PAT_CMG_V5_16_0/cmgTuple_89_1_LkA.root
p199
(lp200
I01
aI10000
asV/store/cmst3/group/cmgtools/CMG/VBFHToTauTau_M-90_8TeV-powheg-pythia6/Summer12_DR53X-PU_S10_START53_V7C-v1/AODSIM/PAT_CMG_V5_16_0/cmgTuple_63_1_vaY.root
p201
(lp202
I01
aI10000
asV/store/cmst3/group/cmgtools/CMG/VBFHToTauTau_M-90_8TeV-powheg-pythia6/Summer12_DR53X-PU_S10_START53_V7C-v1/AODSIM/PAT_CMG_V5_16_0/cmgTuple_77_1_D2Z.root
p203
(lp204
I01
aI10000
asV/store/cmst3/group/cmgtools/CMG/VBFHToTauTau_M-90_8TeV-powheg-pythia6/Summer12_DR53X-PU_S10_START53_V7C-v1/AODSIM/PAT_CMG_V5_16_0/cmgTuple_70_1_wuz.root
p205
(lp206
I01
aI10000
asV/store/cmst3/group/cmgtools/CMG/VBFHToTauTau_M-90_8TeV-powheg-pythia6/Summer12_DR53X-PU_S10_START53_V7C-v1/AODSIM/PAT_CMG_V5_16_0/cmgTuple_24_1_ZjC.root
p207
(lp208
I01
aI10000
asV/store/cmst3/group/cmgtools/CMG/VBFHToTauTau_M-90_8TeV-powheg-pythia6/Summer12_DR53X-PU_S10_START53_V7C-v1/AODSIM/PAT_CMG_V5_16_0/cmgTuple_46_1_zjY.root
p209
(lp210
I01
aI10000
asV/store/cmst3/group/cmgtools/CMG/VBFHToTauTau_M-90_8TeV-powheg-pythia6/Summer12_DR53X-PU_S10_START53_V7C-v1/AODSIM/PAT_CMG_V5_16_0/cmgTuple_58_1_6sm.root
p211
(lp212
I01
aI10000
asV/store/cmst3/group/cmgtools/CMG/VBFHToTauTau_M-90_8TeV-powheg-pythia6/Summer12_DR53X-PU_S10_START53_V7C-v1/AODSIM/PAT_CMG_V5_16_0/cmgTuple_50_1_GJI.root
p213
(lp214
I01
aI10000
asV/store/cmst3/group/cmgtools/CMG/VBFHToTauTau_M-90_8TeV-powheg-pythia6/Summer12_DR53X-PU_S10_START53_V7C-v1/AODSIM/PAT_CMG_V5_16_0/cmgTuple_8_1_WPT.root
p215
(lp216
I01
aI10000
asV/store/cmst3/group/cmgtools/CMG/VBFHToTauTau_M-90_8TeV-powheg-pythia6/Summer12_DR53X-PU_S10_START53_V7C-v1/AODSIM/PAT_CMG_V5_16_0/cmgTuple_95_1_14p.root
p217
(lp218
I01
aI10000
asV/store/cmst3/group/cmgtools/CMG/VBFHToTauTau_M-90_8TeV-powheg-pythia6/Summer12_DR53X-PU_S10_START53_V7C-v1/AODSIM/PAT_CMG_V5_16_0/cmgTuple_15_1_q3r.root
p219
(lp220
I01
aI10000
asV/store/cmst3/group/cmgtools/CMG/VBFHToTauTau_M-90_8TeV-powheg-pythia6/Summer12_DR53X-PU_S10_START53_V7C-v1/AODSIM/PAT_CMG_V5_16_0/cmgTuple_20_1_C1Q.root
p221
(lp222
I01
aI10000
asV/store/cmst3/group/cmgtools/CMG/VBFHToTauTau_M-90_8TeV-powheg-pythia6/Summer12_DR53X-PU_S10_START53_V7C-v1/AODSIM/PAT_CMG_V5_16_0/cmgTuple_22_1_fAu.root
p223
(lp224
I01
aI10000
asV/store/cmst3/group/cmgtools/CMG/VBFHToTauTau_M-90_8TeV-powheg-pythia6/Summer12_DR53X-PU_S10_START53_V7C-v1/AODSIM/PAT_CMG_V5_16_0/cmgTuple_73_1_oQi.root
p225
(lp226
I01
aI10000
asV/store/cmst3/group/cmgtools/CMG/VBFHToTauTau_M-90_8TeV-powheg-pythia6/Summer12_DR53X-PU_S10_START53_V7C-v1/AODSIM/PAT_CMG_V5_16_0/cmgTuple_93_1_b7w.root
p227
(lp228
I01
aI10000
asV/store/cmst3/group/cmgtools/CMG/VBFHToTauTau_M-90_8TeV-powheg-pythia6/Summer12_DR53X-PU_S10_START53_V7C-v1/AODSIM/PAT_CMG_V5_16_0/cmgTuple_56_1_YVj.root
p229
(lp230
I01
aI10000
asV/store/cmst3/group/cmgtools/CMG/VBFHToTauTau_M-90_8TeV-powheg-pythia6/Summer12_DR53X-PU_S10_START53_V7C-v1/AODSIM/PAT_CMG_V5_16_0/cmgTuple_69_1_ReX.root
p231
(lp232
I01
aI10000
asV/store/cmst3/group/cmgtools/CMG/VBFHToTauTau_M-90_8TeV-powheg-pythia6/Summer12_DR53X-PU_S10_START53_V7C-v1/AODSIM/PAT_CMG_V5_16_0/cmgTuple_83_1_qgn.root
p233
(lp234
I01
aI10000
asV/store/cmst3/group/cmgtools/CMG/VBFHToTauTau_M-90_8TeV-powheg-pythia6/Summer12_DR53X-PU_S10_START53_V7C-v1/AODSIM/PAT_CMG_V5_16_0/cmgTuple_31_1_XNN.root
p235
(lp236
I01
aI10000
asV/store/cmst3/group/cmgtools/CMG/VBFHToTauTau_M-90_8TeV-powheg-pythia6/Summer12_DR53X-PU_S10_START53_V7C-v1/AODSIM/PAT_CMG_V5_16_0/cmgTuple_3_1_4mt.root
p237
(lp238
I01
aI10000
asV/store/cmst3/group/cmgtools/CMG/VBFHToTauTau_M-90_8TeV-powheg-pythia6/Summer12_DR53X-PU_S10_START53_V7C-v1/AODSIM/PAT_CMG_V5_16_0/cmgTuple_10_1_anb.root
p239
(lp240
I01
aI10000
asV/store/cmst3/group/cmgtools/CMG/VBFHToTauTau_M-90_8TeV-powheg-pythia6/Summer12_DR53X-PU_S10_START53_V7C-v1/AODSIM/PAT_CMG_V5_16_0/cmgTuple_5_1_v4w.root
p241
(lp242
I01
aI10000
asV/store/cmst3/group/cmgtools/CMG/VBFHToTauTau_M-90_8TeV-powheg-pythia6/Summer12_DR53X-PU_S10_START53_V7C-v1/AODSIM/PAT_CMG_V5_16_0/cmgTuple_48_1_yxy.root
p243
(lp244
I01
aI10000
asV/store/cmst3/group/cmgtools/CMG/VBFHToTauTau_M-90_8TeV-powheg-pythia6/Summer12_DR53X-PU_S10_START53_V7C-v1/AODSIM/PAT_CMG_V5_16_0/cmgTuple_12_1_Vom.root
p245
(lp246
I01
aI10000
asV/store/cmst3/group/cmgtools/CMG/VBFHToTauTau_M-90_8TeV-powheg-pythia6/Summer12_DR53X-PU_S10_START53_V7C-v1/AODSIM/PAT_CMG_V5_16_0/cmgTuple_74_1_NUM.root
p247
(lp248
I01
aI10000
asV/store/cmst3/group/cmgtools/CMG/VBFHToTauTau_M-90_8TeV-powheg-pythia6/Summer12_DR53X-PU_S10_START53_V7C-v1/AODSIM/PAT_CMG_V5_16_0/cmgTuple_7_1_cCd.root
p249
(lp250
I01
aI10000
asV/store/cmst3/group/cmgtools/CMG/VBFHToTauTau_M-90_8TeV-powheg-pythia6/Summer12_DR53X-PU_S10_START53_V7C-v1/AODSIM/PAT_CMG_V5_16_0/cmgTuple_51_1_UtR.root
p251
(lp252
I01
aI10000
asV/store/cmst3/group/cmgtools/CMG/VBFHToTauTau_M-90_8TeV-powheg-pythia6/Summer12_DR53X-PU_S10_START53_V7C-v1/AODSIM/PAT_CMG_V5_16_0/cmgTuple_41_1_XrZ.root
p253
(lp254
I01
aI10000
asV/store/cmst3/group/cmgtools/CMG/VBFHToTauTau_M-90_8TeV-powheg-pythia6/Summer12_DR53X-PU_S10_START53_V7C-v1/AODSIM/PAT_CMG_V5_16_0/cmgTuple_88_1_CDM.root
p255
(lp256
I01
aI10000
asV/store/cmst3/group/cmgtools/CMG/VBFHToTauTau_M-90_8TeV-powheg-pythia6/Summer12_DR53X-PU_S10_START53_V7C-v1/AODSIM/PAT_CMG_V5_16_0/cmgTuple_42_1_5Q7.root
p257
(lp258
I01
aI10000
asV/store/cmst3/group/cmgtools/CMG/VBFHToTauTau_M-90_8TeV-powheg-pythia6/Summer12_DR53X-PU_S10_START53_V7C-v1/AODSIM/PAT_CMG_V5_16_0/cmgTuple_67_1_T7U.root
p259
(lp260
I01
aI10000
asV/store/cmst3/group/cmgtools/CMG/VBFHToTauTau_M-90_8TeV-powheg-pythia6/Summer12_DR53X-PU_S10_START53_V7C-v1/AODSIM/PAT_CMG_V5_16_0/cmgTuple_43_1_3a1.root
p261
(lp262
I01
aI10000
asV/store/cmst3/group/cmgtools/CMG/VBFHToTauTau_M-90_8TeV-powheg-pythia6/Summer12_DR53X-PU_S10_START53_V7C-v1/AODSIM/PAT_CMG_V5_16_0/cmgTuple_55_1_c4B.root
p263
(lp264
I01
aI10000
asV/store/cmst3/group/cmgtools/CMG/VBFHToTauTau_M-90_8TeV-powheg-pythia6/Summer12_DR53X-PU_S10_START53_V7C-v1/AODSIM/PAT_CMG_V5_16_0/cmgTuple_80_1_haC.root
p265
(lp266
I01
aI10000
asV/store/cmst3/group/cmgtools/CMG/VBFHToTauTau_M-90_8TeV-powheg-pythia6/Summer12_DR53X-PU_S10_START53_V7C-v1/AODSIM/PAT_CMG_V5_16_0/cmgTuple_79_1_hXr.root
p267
(lp268
I01
aI10000
asV/store/cmst3/group/cmgtools/CMG/VBFHToTauTau_M-90_8TeV-powheg-pythia6/Summer12_DR53X-PU_S10_START53_V7C-v1/AODSIM/PAT_CMG_V5_16_0/cmgTuple_17_1_x8l.root
p269
(lp270
I01
aI10000
asV/store/cmst3/group/cmgtools/CMG/VBFHToTauTau_M-90_8TeV-powheg-pythia6/Summer12_DR53X-PU_S10_START53_V7C-v1/AODSIM/PAT_CMG_V5_16_0/cmgTuple_36_1_yWn.root
p271
(lp272
I01
aI10000
asV/store/cmst3/group/cmgtools/CMG/VBFHToTauTau_M-90_8TeV-powheg-pythia6/Summer12_DR53X-PU_S10_START53_V7C-v1/AODSIM/PAT_CMG_V5_16_0/cmgTuple_87_1_eLb.root
p273
(lp274
I01
aI10000
asV/store/cmst3/group/cmgtools/CMG/VBFHToTauTau_M-90_8TeV-powheg-pythia6/Summer12_DR53X-PU_S10_START53_V7C-v1/AODSIM/PAT_CMG_V5_16_0/cmgTuple_90_1_qhq.root
p275
(lp276
I01
aI10000
asV/store/cmst3/group/cmgtools/CMG/VBFHToTauTau_M-90_8TeV-powheg-pythia6/Summer12_DR53X-PU_S10_START53_V7C-v1/AODSIM/PAT_CMG_V5_16_0/cmgTuple_94_1_1C2.root
p277
(lp278
I01
aI10000
asV/store/cmst3/group/cmgtools/CMG/VBFHToTauTau_M-90_8TeV-powheg-pythia6/Summer12_DR53X-PU_S10_START53_V7C-v1/AODSIM/PAT_CMG_V5_16_0/cmgTuple_13_1_1vA.root
p279
(lp280
I01
aI10000
asV/store/cmst3/group/cmgtools/CMG/VBFHToTauTau_M-90_8TeV-powheg-pythia6/Summer12_DR53X-PU_S10_START53_V7C-v1/AODSIM/PAT_CMG_V5_16_0/cmgTuple_6_1_9zt.root
p281
(lp282
I01
aI10000
asV/store/cmst3/group/cmgtools/CMG/VBFHToTauTau_M-90_8TeV-powheg-pythia6/Summer12_DR53X-PU_S10_START53_V7C-v1/AODSIM/PAT_CMG_V5_16_0/cmgTuple_76_1_MqF.root
p283
(lp284
I01
aI10000
asV/store/cmst3/group/cmgtools/CMG/VBFHToTauTau_M-90_8TeV-powheg-pythia6/Summer12_DR53X-PU_S10_START53_V7C-v1/AODSIM/PAT_CMG_V5_16_0/cmgTuple_21_1_KMb.root
p285
(lp286
I01
aI10000
asV/store/cmst3/group/cmgtools/CMG/VBFHToTauTau_M-90_8TeV-powheg-pythia6/Summer12_DR53X-PU_S10_START53_V7C-v1/AODSIM/PAT_CMG_V5_16_0/cmgTuple_35_1_tzb.root
p287
(lp288
I01
aI10000
asV/store/cmst3/group/cmgtools/CMG/VBFHToTauTau_M-90_8TeV-powheg-pythia6/Summer12_DR53X-PU_S10_START53_V7C-v1/AODSIM/PAT_CMG_V5_16_0/cmgTuple_45_1_A6E.root
p289
(lp290
I01
aI10000
asV/store/cmst3/group/cmgtools/CMG/VBFHToTauTau_M-90_8TeV-powheg-pythia6/Summer12_DR53X-PU_S10_START53_V7C-v1/AODSIM/PAT_CMG_V5_16_0/cmgTuple_38_1_LSZ.root
p291
(lp292
I01
aI10000
asV/store/cmst3/group/cmgtools/CMG/VBFHToTauTau_M-90_8TeV-powheg-pythia6/Summer12_DR53X-PU_S10_START53_V7C-v1/AODSIM/PAT_CMG_V5_16_0/cmgTuple_57_1_WmP.root
p293
(lp294
I01
aI10000
asV/store/cmst3/group/cmgtools/CMG/VBFHToTauTau_M-90_8TeV-powheg-pythia6/Summer12_DR53X-PU_S10_START53_V7C-v1/AODSIM/PAT_CMG_V5_16_0/cmgTuple_33_1_aCx.root
p295
(lp296
I01
aI10000
asV/store/cmst3/group/cmgtools/CMG/VBFHToTauTau_M-90_8TeV-powheg-pythia6/Summer12_DR53X-PU_S10_START53_V7C-v1/AODSIM/PAT_CMG_V5_16_0/cmgTuple_34_1_X48.root
p297
(lp298
I01
aI10000
asV/store/cmst3/group/cmgtools/CMG/VBFHToTauTau_M-90_8TeV-powheg-pythia6/Summer12_DR53X-PU_S10_START53_V7C-v1/AODSIM/PAT_CMG_V5_16_0/cmgTuple_4_1_ILv.root
p299
(lp300
I01
aI10000
asV/store/cmst3/group/cmgtools/CMG/VBFHToTauTau_M-90_8TeV-powheg-pythia6/Summer12_DR53X-PU_S10_START53_V7C-v1/AODSIM/PAT_CMG_V5_16_0/cmgTuple_44_1_Ysp.root
p301
(lp302
I01
aI10000
asV/store/cmst3/group/cmgtools/CMG/VBFHToTauTau_M-90_8TeV-powheg-pythia6/Summer12_DR53X-PU_S10_START53_V7C-v1/AODSIM/PAT_CMG_V5_16_0/cmgTuple_100_1_X8b.root
p303
(lp304
I01
aI8504
asV/store/cmst3/group/cmgtools/CMG/VBFHToTauTau_M-90_8TeV-powheg-pythia6/Summer12_DR53X-PU_S10_START53_V7C-v1/AODSIM/PAT_CMG_V5_16_0/cmgTuple_64_1_ZKE.root
p305
(lp306
I01
aI10000
asV/store/cmst3/group/cmgtools/CMG/VBFHToTauTau_M-90_8TeV-powheg-pythia6/Summer12_DR53X-PU_S10_START53_V7C-v1/AODSIM/PAT_CMG_V5_16_0/cmgTuple_49_1_RJ0.root
p307
(lp308
I01
aI10000
asV/store/cmst3/group/cmgtools/CMG/VBFHToTauTau_M-90_8TeV-powheg-pythia6/Summer12_DR53X-PU_S10_START53_V7C-v1/AODSIM/PAT_CMG_V5_16_0/cmgTuple_97_1_bDj.root
p309
(lp310
I01
aI10000
asV/store/cmst3/group/cmgtools/CMG/VBFHToTauTau_M-90_8TeV-powheg-pythia6/Summer12_DR53X-PU_S10_START53_V7C-v1/AODSIM/PAT_CMG_V5_16_0/cmgTuple_52_1_qnR.root
p311
(lp312
I01
aI10000
asV/store/cmst3/group/cmgtools/CMG/VBFHToTauTau_M-90_8TeV-powheg-pythia6/Summer12_DR53X-PU_S10_START53_V7C-v1/AODSIM/PAT_CMG_V5_16_0/cmgTuple_40_1_VIB.root
p313
(lp314
I01
aI10000
asV/store/cmst3/group/cmgtools/CMG/VBFHToTauTau_M-90_8TeV-powheg-pythia6/Summer12_DR53X-PU_S10_START53_V7C-v1/AODSIM/PAT_CMG_V5_16_0/cmgTuple_72_1_BDV.root
p315
(lp316
I01
aI10000
asV/store/cmst3/group/cmgtools/CMG/VBFHToTauTau_M-90_8TeV-powheg-pythia6/Summer12_DR53X-PU_S10_START53_V7C-v1/AODSIM/PAT_CMG_V5_16_0/cmgTuple_62_1_vn4.root
p317
(lp318
I01
aI10000
asV/store/cmst3/group/cmgtools/CMG/VBFHToTauTau_M-90_8TeV-powheg-pythia6/Summer12_DR53X-PU_S10_START53_V7C-v1/AODSIM/PAT_CMG_V5_16_0/cmgTuple_75_1_KyQ.root
p319
(lp320
I01
aI10000
asV/store/cmst3/group/cmgtools/CMG/VBFHToTauTau_M-90_8TeV-powheg-pythia6/Summer12_DR53X-PU_S10_START53_V7C-v1/AODSIM/PAT_CMG_V5_16_0/cmgTuple_60_1_S9x.root
p321
(lp322
I01
aI10000
asV/store/cmst3/group/cmgtools/CMG/VBFHToTauTau_M-90_8TeV-powheg-pythia6/Summer12_DR53X-PU_S10_START53_V7C-v1/AODSIM/PAT_CMG_V5_16_0/cmgTuple_27_1_fJL.root
p323
(lp324
I01
aI10000
asV/store/cmst3/group/cmgtools/CMG/VBFHToTauTau_M-90_8TeV-powheg-pythia6/Summer12_DR53X-PU_S10_START53_V7C-v1/AODSIM/PAT_CMG_V5_16_0/cmgTuple_26_1_5Rb.root
p325
(lp326
I01
aI10000
asV/store/cmst3/group/cmgtools/CMG/VBFHToTauTau_M-90_8TeV-powheg-pythia6/Summer12_DR53X-PU_S10_START53_V7C-v1/AODSIM/PAT_CMG_V5_16_0/cmgTuple_37_1_fBK.root
p327
(lp328
I01
aI10000
asV/store/cmst3/group/cmgtools/CMG/VBFHToTauTau_M-90_8TeV-powheg-pythia6/Summer12_DR53X-PU_S10_START53_V7C-v1/AODSIM/PAT_CMG_V5_16_0/cmgTuple_84_1_zQ3.root
p329
(lp330
I01
aI10000
assVPhysicsGroup
p331
VCMG
p332
sVFilesCount
p333
I100
sVFilesEntries
p334
I998504
sVRunList
p335
(lp336
sVValidDuplicates
p337
(dp338
sVPrimaryDataset
p339
V/VBFHToTauTau_M-90_8TeV-powheg-pythia6/Summer12_DR53X-PU_S10_START53_V7C-v1/AODSIM
p340
sVStatus
p341
VVALID
p342
sVName
p343
V/VBFHToTauTau_M-90_8TeV-powheg-pythia6/Summer12_DR53X-PU_S10_START53_V7C-v1/AODSIM/PAT_CMG_V5_16_0
p344
sVTopdir
p345
V/eos/cms/store/cmst3/group/cmgtools/CMG
p346
sVdata
p347
(dp348
sVFilesBad
p349
I0
sVMinRun
p350
I-1
sVAlgoList
p351
(lp352
sVTierList
p353
(lp354
sVDateCreated
p355
V1370943239
p356
sVCreatedBy
p357
Vcmgtools_group
p358
sVMaxRun
p359
I-1
sVBadJobs
p360
(lp361
ssg89
I01
ssS'MonitorJobs'
p362
(dp363
S'LSFJobStatus'
p364
(dp365
g111
S'VBFHToTauTau_M-90_8TeV-powheg-pythia6/Summer12_DR53X-PU_S10_START53_V7C-v1/AODSIM/PAT_CMG_V5_16_0_1377467446/HTT_24Jul_newTES_manzoni_Up_Jobs/Job_18/LSFJOB_440972585/STDOUT.gz'
p366
sg112
S'VBFHToTauTau_M-90_8TeV-powheg-pythia6/Summer12_DR53X-PU_S10_START53_V7C-v1/AODSIM/PAT_CMG_V5_16_0_1377467446/HTT_24Jul_newTES_manzoni_Up_Jobs/Job_19/LSFJOB_440972681/STDOUT.gz'
p367
sg94
S'VBFHToTauTau_M-90_8TeV-powheg-pythia6/Summer12_DR53X-PU_S10_START53_V7C-v1/AODSIM/PAT_CMG_V5_16_0_1377467446/HTT_24Jul_newTES_manzoni_Up_Jobs/Job_8/LSFJOB_440971596/STDOUT.gz'
p368
sg95
S'VBFHToTauTau_M-90_8TeV-powheg-pythia6/Summer12_DR53X-PU_S10_START53_V7C-v1/AODSIM/PAT_CMG_V5_16_0_1377467446/HTT_24Jul_newTES_manzoni_Up_Jobs/Job_9/LSFJOB_440971670/STDOUT.gz'
p369
sg96
S'VBFHToTauTau_M-90_8TeV-powheg-pythia6/Summer12_DR53X-PU_S10_START53_V7C-v1/AODSIM/PAT_CMG_V5_16_0_1377467446/HTT_24Jul_newTES_manzoni_Up_Jobs/Job_6/LSFJOB_440971410/STDOUT.gz'
p370
sg97
S'VBFHToTauTau_M-90_8TeV-powheg-pythia6/Summer12_DR53X-PU_S10_START53_V7C-v1/AODSIM/PAT_CMG_V5_16_0_1377467446/HTT_24Jul_newTES_manzoni_Up_Jobs/Job_7/LSFJOB_440971481/STDOUT.gz'
p371
sg98
S'VBFHToTauTau_M-90_8TeV-powheg-pythia6/Summer12_DR53X-PU_S10_START53_V7C-v1/AODSIM/PAT_CMG_V5_16_0_1377467446/HTT_24Jul_newTES_manzoni_Up_Jobs/Job_4/LSFJOB_440971222/STDOUT.gz'
p372
sg99
S'VBFHToTauTau_M-90_8TeV-powheg-pythia6/Summer12_DR53X-PU_S10_START53_V7C-v1/AODSIM/PAT_CMG_V5_16_0_1377467446/HTT_24Jul_newTES_manzoni_Up_Jobs/Job_5/LSFJOB_440971337/STDOUT.gz'
p373
sg100
S'VBFHToTauTau_M-90_8TeV-powheg-pythia6/Summer12_DR53X-PU_S10_START53_V7C-v1/AODSIM/PAT_CMG_V5_16_0_1377467446/HTT_24Jul_newTES_manzoni_Up_Jobs/Job_2/LSFJOB_440971001/STDOUT.gz'
p374
sg101
S'VBFHToTauTau_M-90_8TeV-powheg-pythia6/Summer12_DR53X-PU_S10_START53_V7C-v1/AODSIM/PAT_CMG_V5_16_0_1377467446/HTT_24Jul_newTES_manzoni_Up_Jobs/Job_3/LSFJOB_440971090/STDOUT.gz'
p375
sg102
S'VBFHToTauTau_M-90_8TeV-powheg-pythia6/Summer12_DR53X-PU_S10_START53_V7C-v1/AODSIM/PAT_CMG_V5_16_0_1377467446/HTT_24Jul_newTES_manzoni_Up_Jobs/Job_1/LSFJOB_440970895/STDOUT.gz'
p376
sg103
S'VBFHToTauTau_M-90_8TeV-powheg-pythia6/Summer12_DR53X-PU_S10_START53_V7C-v1/AODSIM/PAT_CMG_V5_16_0_1377467446/HTT_24Jul_newTES_manzoni_Up_Jobs/Job_10/LSFJOB_440971799/STDOUT.gz'
p377
sg104
S'VBFHToTauTau_M-90_8TeV-powheg-pythia6/Summer12_DR53X-PU_S10_START53_V7C-v1/AODSIM/PAT_CMG_V5_16_0_1377467446/HTT_24Jul_newTES_manzoni_Up_Jobs/Job_11/LSFJOB_440971900/STDOUT.gz'
p378
sg105
S'VBFHToTauTau_M-90_8TeV-powheg-pythia6/Summer12_DR53X-PU_S10_START53_V7C-v1/AODSIM/PAT_CMG_V5_16_0_1377467446/HTT_24Jul_newTES_manzoni_Up_Jobs/Job_12/LSFJOB_440972046/STDOUT.gz'
p379
sg106
S'VBFHToTauTau_M-90_8TeV-powheg-pythia6/Summer12_DR53X-PU_S10_START53_V7C-v1/AODSIM/PAT_CMG_V5_16_0_1377467446/HTT_24Jul_newTES_manzoni_Up_Jobs/Job_13/LSFJOB_440972130/STDOUT.gz'
p380
sg107
S'VBFHToTauTau_M-90_8TeV-powheg-pythia6/Summer12_DR53X-PU_S10_START53_V7C-v1/AODSIM/PAT_CMG_V5_16_0_1377467446/HTT_24Jul_newTES_manzoni_Up_Jobs/Job_14/LSFJOB_440972223/STDOUT.gz'
p381
sg108
S'VBFHToTauTau_M-90_8TeV-powheg-pythia6/Summer12_DR53X-PU_S10_START53_V7C-v1/AODSIM/PAT_CMG_V5_16_0_1377467446/HTT_24Jul_newTES_manzoni_Up_Jobs/Job_15/LSFJOB_440972318/STDOUT.gz'
p382
sg109
S'VBFHToTauTau_M-90_8TeV-powheg-pythia6/Summer12_DR53X-PU_S10_START53_V7C-v1/AODSIM/PAT_CMG_V5_16_0_1377467446/HTT_24Jul_newTES_manzoni_Up_Jobs/Job_16/LSFJOB_440972406/STDOUT.gz'
p383
sg110
S'VBFHToTauTau_M-90_8TeV-powheg-pythia6/Summer12_DR53X-PU_S10_START53_V7C-v1/AODSIM/PAT_CMG_V5_16_0_1377467446/HTT_24Jul_newTES_manzoni_Up_Jobs/Job_17/LSFJOB_440972481/STDOUT.gz'
p384
sg93
S'VBFHToTauTau_M-90_8TeV-powheg-pythia6/Summer12_DR53X-PU_S10_START53_V7C-v1/AODSIM/PAT_CMG_V5_16_0_1377467446/HTT_24Jul_newTES_manzoni_Up_Jobs/Job_21/LSFJOB_440972918/STDOUT.gz'
p385
sg92
S'VBFHToTauTau_M-90_8TeV-powheg-pythia6/Summer12_DR53X-PU_S10_START53_V7C-v1/AODSIM/PAT_CMG_V5_16_0_1377467446/HTT_24Jul_newTES_manzoni_Up_Jobs/Job_20/LSFJOB_440972792/STDOUT.gz'
p386
ssS'LSFJobIDs'
p387
(dp388
g92
S'440972792'
p389
sg93
S'440972918'
p390
sg94
S'440971596'
p391
sg95
S'440971670'
p392
sg96
S'440971410'
p393
sg97
S'440971481'
p394
sg98
S'440971222'
p395
sg99
S'440971337'
p396
sg100
S'440971001'
p397
sg101
S'440971090'
p398
sg102
S'440970895'
p399
sg103
S'440971799'
p400
sg104
S'440971900'
p401
sg105
S'440972046'
p402
sg106
S'440972130'
p403
sg107
S'440972223'
p404
sg108
S'440972318'
p405
sg109
S'440972406'
p406
sg110
S'440972481'
p407
sg111
S'440972585'
p408
sg112
S'440972681'
p409
sssS'FindOnCastor'
p410
(dp411
g51
S'/eos/cms/store/cmst3/group/cmgtools/CMG'
p412
sS'Directory'
p413
S'/eos/cms/store/cmst3/group/cmgtools/CMG/VBFHToTauTau_M-90_8TeV-powheg-pythia6/Summer12_DR53X-PU_S10_START53_V7C-v1/AODSIM/PAT_CMG_V5_16_0'
p414
ssS'CheckConfig'
p415
(dp416
g67
g68
ssS'FullCFG'
p417
(dp418
S'FullCFG'
p419
S'VBFHToTauTau_M-90_8TeV-powheg-pythia6/Summer12_DR53X-PU_S10_START53_V7C-v1/AODSIM/PAT_CMG_V5_16_0_1377467446/full_cfg.py'
p420
ssS'WriteJobReport'
p421
(dp422
S'SummaryFile'
p423
S'VBFHToTauTau_M-90_8TeV-powheg-pythia6/Summer12_DR53X-PU_S10_START53_V7C-v1/AODSIM/PAT_CMG_V5_16_0_1377467446/resubmit.sh'
p424
ssS'ExpandConfig'
p425
(dp426
S'ExpandedFullCFG'
p427
S'VBFHToTauTau_M-90_8TeV-powheg-pythia6/Summer12_DR53X-PU_S10_START53_V7C-v1/AODSIM/PAT_CMG_V5_16_0_1377467446/Expandedfull_cfg.py'
p428
ssS'RunTestEvents'
p429
(dp430
g67
g68
sS'TestCFG'
p431
S'VBFHToTauTau_M-90_8TeV-powheg-pythia6/Summer12_DR53X-PU_S10_START53_V7C-v1/AODSIM/PAT_CMG_V5_16_0_1377467446/test_cfg.py'
p432
ssS'SourceCFG'
p433
(dp434
S'SourceCFG'
p435
S'VBFHToTauTau_M-90_8TeV-powheg-pythia6/Summer12_DR53X-PU_S10_START53_V7C-v1/AODSIM/PAT_CMG_V5_16_0_1377467446/source_cfg.py'
p436
ssS'CheckForWrite'
p437
(dp438
g413
g414
sS'WriteAccess'
p439
I01
ssS'WriteToDatasets'
p440
(dp441
S'Added'
p442
I00
sg49
S'/VBFHToTauTau_M-90_8TeV-powheg-pythia6/Summer12_DR53X-PU_S10_START53_V7C-v1/AODSIM/PAT_CMG_V5_16_0/HTT_24Jul_newTES_manzoni_Up'
p443
sS'User'
p444
g82
ssS'RunCMSBatch'
p445
(dp446
S'BatchUser'
p447
g82
sS'SampleOutputDir'
p448
S'/store/cmst3/user/manzoni/CMG/VBFHToTauTau_M-90_8TeV-powheg-pythia6/Summer12_DR53X-PU_S10_START53_V7C-v1/AODSIM/PAT_CMG_V5_16_0/HTT_24Jul_newTES_manzoni_Up'
p449
sS'SampleDataset'
p450
g50
sS'LSFJobsTopDir'
p451
S'VBFHToTauTau_M-90_8TeV-powheg-pythia6/Summer12_DR53X-PU_S10_START53_V7C-v1/AODSIM/PAT_CMG_V5_16_0_1377467446/HTT_24Jul_newTES_manzoni_Up_Jobs'
p452
ssS'CreateJobDirectory'
p453
(dp454
S'JobDir'
p455
S'VBFHToTauTau_M-90_8TeV-powheg-pythia6/Summer12_DR53X-PU_S10_START53_V7C-v1/AODSIM/PAT_CMG_V5_16_0_1377467446'
p456
sS'PWD'
p457
S'/afs/cern.ch/user/m/manzoni/summer13/CMGTools/CMSSW_5_3_9/src/CMGTools/H2TauTau/prod/25aug_corrMC/up/mc'
p458
ssS'CleanJobFiles'
p459
(dp460
S'Compressed'
p461
(dp462
S'CompressedFiles'
p463
(lp464
ssS'Cleaned'
p465
(dp466
S'CleanedFiles'
p467
(lp468
g428
ag432
aS'VBFHToTauTau_M-90_8TeV-powheg-pythia6/Summer12_DR53X-PU_S10_START53_V7C-v1/AODSIM/PAT_CMG_V5_16_0_1377467446/diTau_fullsel_tree_CMG.root'
p469
aS'VBFHToTauTau_M-90_8TeV-powheg-pythia6/Summer12_DR53X-PU_S10_START53_V7C-v1/AODSIM/PAT_CMG_V5_16_0_1377467446/source_cfg.pyc'
p470
aS'VBFHToTauTau_M-90_8TeV-powheg-pythia6/Summer12_DR53X-PU_S10_START53_V7C-v1/AODSIM/PAT_CMG_V5_16_0_1377467446/Expandedfull_cfg.pyc'
p471
asssS'CheckForMask'
p472
(dp473
g3
g119
sg89
I01
ss.