(dp0
S'CheckJobStatus'
p1
(dp2
S'Report'
p3
(dp4
S'Files'
p5
(dp6
S'/store/cmst3/user/manzoni/CMG/GluGluToHToTauTau_M-125_8TeV-powheg-pythia6/Summer12_DR53X-PU_S10_START53_V7A-v1/AODSIM/PAT_CMG_V5_16_0/HTT_24Jul_newTES_manzoni_Up/diTau_fullsel_tree_CMG_9.root'
p7
(I01
I913
tp8
sS'/store/cmst3/user/manzoni/CMG/GluGluToHToTauTau_M-125_8TeV-powheg-pythia6/Summer12_DR53X-PU_S10_START53_V7A-v1/AODSIM/PAT_CMG_V5_16_0/HTT_24Jul_newTES_manzoni_Up/diTau_fullsel_tree_CMG_7.root'
p9
(I01
I862
tp10
sS'/store/cmst3/user/manzoni/CMG/GluGluToHToTauTau_M-125_8TeV-powheg-pythia6/Summer12_DR53X-PU_S10_START53_V7A-v1/AODSIM/PAT_CMG_V5_16_0/HTT_24Jul_newTES_manzoni_Up/diTau_fullsel_tree_CMG_11.root'
p11
(I01
I985
tp12
sS'/store/cmst3/user/manzoni/CMG/GluGluToHToTauTau_M-125_8TeV-powheg-pythia6/Summer12_DR53X-PU_S10_START53_V7A-v1/AODSIM/PAT_CMG_V5_16_0/HTT_24Jul_newTES_manzoni_Up/diTau_fullsel_tree_CMG_16.root'
p13
(I01
I906
tp14
sS'/store/cmst3/user/manzoni/CMG/GluGluToHToTauTau_M-125_8TeV-powheg-pythia6/Summer12_DR53X-PU_S10_START53_V7A-v1/AODSIM/PAT_CMG_V5_16_0/HTT_24Jul_newTES_manzoni_Up/diTau_fullsel_tree_CMG_13.root'
p15
(I01
I894
tp16
sS'/store/cmst3/user/manzoni/CMG/GluGluToHToTauTau_M-125_8TeV-powheg-pythia6/Summer12_DR53X-PU_S10_START53_V7A-v1/AODSIM/PAT_CMG_V5_16_0/HTT_24Jul_newTES_manzoni_Up/diTau_fullsel_tree_CMG_3.root'
p17
(I01
I916
tp18
sS'/store/cmst3/user/manzoni/CMG/GluGluToHToTauTau_M-125_8TeV-powheg-pythia6/Summer12_DR53X-PU_S10_START53_V7A-v1/AODSIM/PAT_CMG_V5_16_0/HTT_24Jul_newTES_manzoni_Up/diTau_fullsel_tree_CMG_8.root'
p19
(I01
I911
tp20
sS'/store/cmst3/user/manzoni/CMG/GluGluToHToTauTau_M-125_8TeV-powheg-pythia6/Summer12_DR53X-PU_S10_START53_V7A-v1/AODSIM/PAT_CMG_V5_16_0/HTT_24Jul_newTES_manzoni_Up/diTau_fullsel_tree_CMG_1.root'
p21
(I01
I896
tp22
sS'/store/cmst3/user/manzoni/CMG/GluGluToHToTauTau_M-125_8TeV-powheg-pythia6/Summer12_DR53X-PU_S10_START53_V7A-v1/AODSIM/PAT_CMG_V5_16_0/HTT_24Jul_newTES_manzoni_Up/diTau_fullsel_tree_CMG_19.root'
p23
(I01
I936
tp24
sS'/store/cmst3/user/manzoni/CMG/GluGluToHToTauTau_M-125_8TeV-powheg-pythia6/Summer12_DR53X-PU_S10_START53_V7A-v1/AODSIM/PAT_CMG_V5_16_0/HTT_24Jul_newTES_manzoni_Up/diTau_fullsel_tree_CMG_4.root'
p25
(I01
I888
tp26
sS'/store/cmst3/user/manzoni/CMG/GluGluToHToTauTau_M-125_8TeV-powheg-pythia6/Summer12_DR53X-PU_S10_START53_V7A-v1/AODSIM/PAT_CMG_V5_16_0/HTT_24Jul_newTES_manzoni_Up/diTau_fullsel_tree_CMG_17.root'
p27
(I01
I820
tp28
sS'/store/cmst3/user/manzoni/CMG/GluGluToHToTauTau_M-125_8TeV-powheg-pythia6/Summer12_DR53X-PU_S10_START53_V7A-v1/AODSIM/PAT_CMG_V5_16_0/HTT_24Jul_newTES_manzoni_Up/diTau_fullsel_tree_CMG_18.root'
p29
(I01
I868
tp30
sS'/store/cmst3/user/manzoni/CMG/GluGluToHToTauTau_M-125_8TeV-powheg-pythia6/Summer12_DR53X-PU_S10_START53_V7A-v1/AODSIM/PAT_CMG_V5_16_0/HTT_24Jul_newTES_manzoni_Up/diTau_fullsel_tree_CMG_12.root'
p31
(I01
I867
tp32
sS'/store/cmst3/user/manzoni/CMG/GluGluToHToTauTau_M-125_8TeV-powheg-pythia6/Summer12_DR53X-PU_S10_START53_V7A-v1/AODSIM/PAT_CMG_V5_16_0/HTT_24Jul_newTES_manzoni_Up/diTau_fullsel_tree_CMG_6.root'
p33
(I01
I826
tp34
sS'/store/cmst3/user/manzoni/CMG/GluGluToHToTauTau_M-125_8TeV-powheg-pythia6/Summer12_DR53X-PU_S10_START53_V7A-v1/AODSIM/PAT_CMG_V5_16_0/HTT_24Jul_newTES_manzoni_Up/diTau_fullsel_tree_CMG_14.root'
p35
(I01
I883
tp36
sS'/store/cmst3/user/manzoni/CMG/GluGluToHToTauTau_M-125_8TeV-powheg-pythia6/Summer12_DR53X-PU_S10_START53_V7A-v1/AODSIM/PAT_CMG_V5_16_0/HTT_24Jul_newTES_manzoni_Up/diTau_fullsel_tree_CMG_5.root'
p37
(I01
I871
tp38
sS'/store/cmst3/user/manzoni/CMG/GluGluToHToTauTau_M-125_8TeV-powheg-pythia6/Summer12_DR53X-PU_S10_START53_V7A-v1/AODSIM/PAT_CMG_V5_16_0/HTT_24Jul_newTES_manzoni_Up/diTau_fullsel_tree_CMG_2.root'
p39
(I01
I917
tp40
sS'/store/cmst3/user/manzoni/CMG/GluGluToHToTauTau_M-125_8TeV-powheg-pythia6/Summer12_DR53X-PU_S10_START53_V7A-v1/AODSIM/PAT_CMG_V5_16_0/HTT_24Jul_newTES_manzoni_Up/diTau_fullsel_tree_CMG_15.root'
p41
(I01
I882
tp42
sS'/store/cmst3/user/manzoni/CMG/GluGluToHToTauTau_M-125_8TeV-powheg-pythia6/Summer12_DR53X-PU_S10_START53_V7A-v1/AODSIM/PAT_CMG_V5_16_0/HTT_24Jul_newTES_manzoni_Up/diTau_fullsel_tree_CMG_20.root'
p43
(I01
I457
tp44
sS'/store/cmst3/user/manzoni/CMG/GluGluToHToTauTau_M-125_8TeV-powheg-pythia6/Summer12_DR53X-PU_S10_START53_V7A-v1/AODSIM/PAT_CMG_V5_16_0/HTT_24Jul_newTES_manzoni_Up/diTau_fullsel_tree_CMG_10.root'
p45
(I01
I985
tp46
ssS'Name'
p47
S'/GluGluToHToTauTau_M-125_8TeV-powheg-pythia6/Summer12_DR53X-PU_S10_START53_V7A-v1/AODSIM/PAT_CMG_V5_16_0/HTT_24Jul_newTES_manzoni_Up'
p48
sS'Topdir'
p49
S'/eos/cms/store/cmst3/user/manzoni/CMG'
p50
sS'RunList'
p51
(lp52
sS'PathList'
p53
(lp54
S'/store/cmst3/user/manzoni/CMG/GluGluToHToTauTau_M-125_8TeV-powheg-pythia6/Summer12_DR53X-PU_S10_START53_V7A-v1/AODSIM/PAT_CMG_V5_16_0/HTT_24Jul_newTES_manzoni_Up'
p55
asS'AlgoList'
p56
(lp57
sS'PrimaryDatasetFraction'
p58
F0.01805845058638577
sS'FilesGood'
p59
I20
sS'PrimaryDatasetEntries'
p60
I968134
sS'data'
p61
(dp62
sS'FilesBad'
p63
I0
sS'ReportVersion'
p64
I3
sS'Status'
p65
S'VALID'
p66
sS'MaxRun'
p67
I-1
sS'PhysicsGroup'
p68
S'CMG'
p69
sS'MinRun'
p70
I-1
sS'StageHost'
p71
S'castorcms'
p72
sS'FilesCount'
p73
I20
sS'FilesEntries'
p74
I17483
sS'TierList'
p75
(lp76
sS'DateCreated'
p77
S'1377471691'
p78
sS'CreatedBy'
p79
S'manzoni'
p80
sS'ValidDuplicates'
p81
(dp82
sS'PrimaryDataset'
p83
S'/GluGluToHToTauTau_M-125_8TeV-powheg-pythia6/Summer12_DR53X-PU_S10_START53_V7A-v1/AODSIM'
p84
sS'BadJobs'
p85
(lp86
ssS'MaskPresent'
p87
I01
sS'LSFJobStatusCheck'
p88
(dp89
S'GluGluToHToTauTau_M-125_8TeV-powheg-pythia6/Summer12_DR53X-PU_S10_START53_V7A-v1/AODSIM/PAT_CMG_V5_16_0_1377467487/HTT_24Jul_newTES_manzoni_Up_Jobs/Job_17'
p90
g66
sS'GluGluToHToTauTau_M-125_8TeV-powheg-pythia6/Summer12_DR53X-PU_S10_START53_V7A-v1/AODSIM/PAT_CMG_V5_16_0_1377467487/HTT_24Jul_newTES_manzoni_Up_Jobs/Job_16'
p91
g66
sS'GluGluToHToTauTau_M-125_8TeV-powheg-pythia6/Summer12_DR53X-PU_S10_START53_V7A-v1/AODSIM/PAT_CMG_V5_16_0_1377467487/HTT_24Jul_newTES_manzoni_Up_Jobs/Job_15'
p92
g66
sS'GluGluToHToTauTau_M-125_8TeV-powheg-pythia6/Summer12_DR53X-PU_S10_START53_V7A-v1/AODSIM/PAT_CMG_V5_16_0_1377467487/HTT_24Jul_newTES_manzoni_Up_Jobs/Job_14'
p93
g66
sS'GluGluToHToTauTau_M-125_8TeV-powheg-pythia6/Summer12_DR53X-PU_S10_START53_V7A-v1/AODSIM/PAT_CMG_V5_16_0_1377467487/HTT_24Jul_newTES_manzoni_Up_Jobs/Job_13'
p94
g66
sS'GluGluToHToTauTau_M-125_8TeV-powheg-pythia6/Summer12_DR53X-PU_S10_START53_V7A-v1/AODSIM/PAT_CMG_V5_16_0_1377467487/HTT_24Jul_newTES_manzoni_Up_Jobs/Job_12'
p95
g66
sS'GluGluToHToTauTau_M-125_8TeV-powheg-pythia6/Summer12_DR53X-PU_S10_START53_V7A-v1/AODSIM/PAT_CMG_V5_16_0_1377467487/HTT_24Jul_newTES_manzoni_Up_Jobs/Job_11'
p96
g66
sS'GluGluToHToTauTau_M-125_8TeV-powheg-pythia6/Summer12_DR53X-PU_S10_START53_V7A-v1/AODSIM/PAT_CMG_V5_16_0_1377467487/HTT_24Jul_newTES_manzoni_Up_Jobs/Job_10'
p97
g66
sS'GluGluToHToTauTau_M-125_8TeV-powheg-pythia6/Summer12_DR53X-PU_S10_START53_V7A-v1/AODSIM/PAT_CMG_V5_16_0_1377467487/HTT_24Jul_newTES_manzoni_Up_Jobs/Job_19'
p98
g66
sS'GluGluToHToTauTau_M-125_8TeV-powheg-pythia6/Summer12_DR53X-PU_S10_START53_V7A-v1/AODSIM/PAT_CMG_V5_16_0_1377467487/HTT_24Jul_newTES_manzoni_Up_Jobs/Job_18'
p99
g66
sS'GluGluToHToTauTau_M-125_8TeV-powheg-pythia6/Summer12_DR53X-PU_S10_START53_V7A-v1/AODSIM/PAT_CMG_V5_16_0_1377467487/HTT_24Jul_newTES_manzoni_Up_Jobs/Job_7'
p100
g66
sS'GluGluToHToTauTau_M-125_8TeV-powheg-pythia6/Summer12_DR53X-PU_S10_START53_V7A-v1/AODSIM/PAT_CMG_V5_16_0_1377467487/HTT_24Jul_newTES_manzoni_Up_Jobs/Job_6'
p101
g66
sS'GluGluToHToTauTau_M-125_8TeV-powheg-pythia6/Summer12_DR53X-PU_S10_START53_V7A-v1/AODSIM/PAT_CMG_V5_16_0_1377467487/HTT_24Jul_newTES_manzoni_Up_Jobs/Job_5'
p102
g66
sS'GluGluToHToTauTau_M-125_8TeV-powheg-pythia6/Summer12_DR53X-PU_S10_START53_V7A-v1/AODSIM/PAT_CMG_V5_16_0_1377467487/HTT_24Jul_newTES_manzoni_Up_Jobs/Job_4'
p103
g66
sS'GluGluToHToTauTau_M-125_8TeV-powheg-pythia6/Summer12_DR53X-PU_S10_START53_V7A-v1/AODSIM/PAT_CMG_V5_16_0_1377467487/HTT_24Jul_newTES_manzoni_Up_Jobs/Job_3'
p104
g66
sS'GluGluToHToTauTau_M-125_8TeV-powheg-pythia6/Summer12_DR53X-PU_S10_START53_V7A-v1/AODSIM/PAT_CMG_V5_16_0_1377467487/HTT_24Jul_newTES_manzoni_Up_Jobs/Job_2'
p105
g66
sS'GluGluToHToTauTau_M-125_8TeV-powheg-pythia6/Summer12_DR53X-PU_S10_START53_V7A-v1/AODSIM/PAT_CMG_V5_16_0_1377467487/HTT_24Jul_newTES_manzoni_Up_Jobs/Job_1'
p106
g66
sS'GluGluToHToTauTau_M-125_8TeV-powheg-pythia6/Summer12_DR53X-PU_S10_START53_V7A-v1/AODSIM/PAT_CMG_V5_16_0_1377467487/HTT_24Jul_newTES_manzoni_Up_Jobs/Job_20'
p107
g66
sS'GluGluToHToTauTau_M-125_8TeV-powheg-pythia6/Summer12_DR53X-PU_S10_START53_V7A-v1/AODSIM/PAT_CMG_V5_16_0_1377467487/HTT_24Jul_newTES_manzoni_Up_Jobs/Job_9'
p108
g66
sS'GluGluToHToTauTau_M-125_8TeV-powheg-pythia6/Summer12_DR53X-PU_S10_START53_V7A-v1/AODSIM/PAT_CMG_V5_16_0_1377467487/HTT_24Jul_newTES_manzoni_Up_Jobs/Job_8'
p109
g66
sssS'CheckDatasetExists'
p110
(dp111
S'Dataset'
p112
S'/GluGluToHToTauTau_M-125_8TeV-powheg-pythia6/Summer12_DR53X-PU_S10_START53_V7A-v1/AODSIM/PAT_CMG_V5_16_0'
p113
ssS'GenerateMask'
p114
(dp115
g3
(dp116
VPathList
p117
(lp118
V/store/cmst3/group/cmgtools/CMG/GluGluToHToTauTau_M-125_8TeV-powheg-pythia6/Summer12_DR53X-PU_S10_START53_V7A-v1/AODSIM/PAT_CMG_V5_16_0
p119
asVStageHost
p120
Vcastorcms
p121
sVPrimaryDatasetFraction
p122
F1.0
sVFilesGood
p123
I99
sVPrimaryDatasetEntries
p124
I968134
sVReportVersion
p125
I3
sVFiles
p126
(dp127
V/store/cmst3/group/cmgtools/CMG/GluGluToHToTauTau_M-125_8TeV-powheg-pythia6/Summer12_DR53X-PU_S10_START53_V7A-v1/AODSIM/PAT_CMG_V5_16_0/cmgTuple_61_2_qxI.root
p128
(lp129
I01
aI10000
asV/store/cmst3/group/cmgtools/CMG/GluGluToHToTauTau_M-125_8TeV-powheg-pythia6/Summer12_DR53X-PU_S10_START53_V7A-v1/AODSIM/PAT_CMG_V5_16_0/cmgTuple_28_1_zgR.root
p130
(lp131
I01
aI10000
asV/store/cmst3/group/cmgtools/CMG/GluGluToHToTauTau_M-125_8TeV-powheg-pythia6/Summer12_DR53X-PU_S10_START53_V7A-v1/AODSIM/PAT_CMG_V5_16_0/cmgTuple_27_1_hDe.root
p132
(lp133
I01
aI10000
asV/store/cmst3/group/cmgtools/CMG/GluGluToHToTauTau_M-125_8TeV-powheg-pythia6/Summer12_DR53X-PU_S10_START53_V7A-v1/AODSIM/PAT_CMG_V5_16_0/cmgTuple_98_1_Az7.root
p134
(lp135
I01
aI4592
asV/store/cmst3/group/cmgtools/CMG/GluGluToHToTauTau_M-125_8TeV-powheg-pythia6/Summer12_DR53X-PU_S10_START53_V7A-v1/AODSIM/PAT_CMG_V5_16_0/cmgTuple_22_1_Oo5.root
p136
(lp137
I01
aI10000
asV/store/cmst3/group/cmgtools/CMG/GluGluToHToTauTau_M-125_8TeV-powheg-pythia6/Summer12_DR53X-PU_S10_START53_V7A-v1/AODSIM/PAT_CMG_V5_16_0/cmgTuple_41_1_sWr.root
p138
(lp139
I01
aI10000
asV/store/cmst3/group/cmgtools/CMG/GluGluToHToTauTau_M-125_8TeV-powheg-pythia6/Summer12_DR53X-PU_S10_START53_V7A-v1/AODSIM/PAT_CMG_V5_16_0/cmgTuple_54_1_rtj.root
p140
(lp141
I01
aI10000
asV/store/cmst3/group/cmgtools/CMG/GluGluToHToTauTau_M-125_8TeV-powheg-pythia6/Summer12_DR53X-PU_S10_START53_V7A-v1/AODSIM/PAT_CMG_V5_16_0/cmgTuple_20_1_dda.root
p142
(lp143
I01
aI10000
asV/store/cmst3/group/cmgtools/CMG/GluGluToHToTauTau_M-125_8TeV-powheg-pythia6/Summer12_DR53X-PU_S10_START53_V7A-v1/AODSIM/PAT_CMG_V5_16_0/cmgTuple_49_1_Qy2.root
p144
(lp145
I01
aI10000
asV/store/cmst3/group/cmgtools/CMG/GluGluToHToTauTau_M-125_8TeV-powheg-pythia6/Summer12_DR53X-PU_S10_START53_V7A-v1/AODSIM/PAT_CMG_V5_16_0/cmgTuple_69_1_eel.root
p146
(lp147
I01
aI10000
asV/store/cmst3/group/cmgtools/CMG/GluGluToHToTauTau_M-125_8TeV-powheg-pythia6/Summer12_DR53X-PU_S10_START53_V7A-v1/AODSIM/PAT_CMG_V5_16_0/cmgTuple_70_1_7M5.root
p148
(lp149
I01
aI10000
asV/store/cmst3/group/cmgtools/CMG/GluGluToHToTauTau_M-125_8TeV-powheg-pythia6/Summer12_DR53X-PU_S10_START53_V7A-v1/AODSIM/PAT_CMG_V5_16_0/cmgTuple_12_1_xnB.root
p150
(lp151
I01
aI10000
asV/store/cmst3/group/cmgtools/CMG/GluGluToHToTauTau_M-125_8TeV-powheg-pythia6/Summer12_DR53X-PU_S10_START53_V7A-v1/AODSIM/PAT_CMG_V5_16_0/cmgTuple_79_1_xqa.root
p152
(lp153
I01
aI10000
asV/store/cmst3/group/cmgtools/CMG/GluGluToHToTauTau_M-125_8TeV-powheg-pythia6/Summer12_DR53X-PU_S10_START53_V7A-v1/AODSIM/PAT_CMG_V5_16_0/cmgTuple_88_1_PSP.root
p154
(lp155
I01
aI10000
asV/store/cmst3/group/cmgtools/CMG/GluGluToHToTauTau_M-125_8TeV-powheg-pythia6/Summer12_DR53X-PU_S10_START53_V7A-v1/AODSIM/PAT_CMG_V5_16_0/cmgTuple_90_1_6Gf.root
p156
(lp157
I01
aI10000
asV/store/cmst3/group/cmgtools/CMG/GluGluToHToTauTau_M-125_8TeV-powheg-pythia6/Summer12_DR53X-PU_S10_START53_V7A-v1/AODSIM/PAT_CMG_V5_16_0/cmgTuple_51_1_GgA.root
p158
(lp159
I01
aI10000
asV/store/cmst3/group/cmgtools/CMG/GluGluToHToTauTau_M-125_8TeV-powheg-pythia6/Summer12_DR53X-PU_S10_START53_V7A-v1/AODSIM/PAT_CMG_V5_16_0/cmgTuple_19_1_HVl.root
p160
(lp161
I01
aI10000
asV/store/cmst3/group/cmgtools/CMG/GluGluToHToTauTau_M-125_8TeV-powheg-pythia6/Summer12_DR53X-PU_S10_START53_V7A-v1/AODSIM/PAT_CMG_V5_16_0/cmgTuple_80_1_avg.root
p162
(lp163
I01
aI10000
asV/store/cmst3/group/cmgtools/CMG/GluGluToHToTauTau_M-125_8TeV-powheg-pythia6/Summer12_DR53X-PU_S10_START53_V7A-v1/AODSIM/PAT_CMG_V5_16_0/cmgTuple_17_1_jtd.root
p164
(lp165
I01
aI10000
asV/store/cmst3/group/cmgtools/CMG/GluGluToHToTauTau_M-125_8TeV-powheg-pythia6/Summer12_DR53X-PU_S10_START53_V7A-v1/AODSIM/PAT_CMG_V5_16_0/cmgTuple_97_1_W8P.root
p166
(lp167
I01
aI10000
asV/store/cmst3/group/cmgtools/CMG/GluGluToHToTauTau_M-125_8TeV-powheg-pythia6/Summer12_DR53X-PU_S10_START53_V7A-v1/AODSIM/PAT_CMG_V5_16_0/cmgTuple_40_1_mnp.root
p168
(lp169
I01
aI10000
asV/store/cmst3/group/cmgtools/CMG/GluGluToHToTauTau_M-125_8TeV-powheg-pythia6/Summer12_DR53X-PU_S10_START53_V7A-v1/AODSIM/PAT_CMG_V5_16_0/cmgTuple_45_1_Oa3.root
p170
(lp171
I01
aI10000
asV/store/cmst3/group/cmgtools/CMG/GluGluToHToTauTau_M-125_8TeV-powheg-pythia6/Summer12_DR53X-PU_S10_START53_V7A-v1/AODSIM/PAT_CMG_V5_16_0/cmgTuple_74_1_n3w.root
p172
(lp173
I01
aI10000
asV/store/cmst3/group/cmgtools/CMG/GluGluToHToTauTau_M-125_8TeV-powheg-pythia6/Summer12_DR53X-PU_S10_START53_V7A-v1/AODSIM/PAT_CMG_V5_16_0/cmgTuple_65_1_UpW.root
p174
(lp175
I01
aI10000
asV/store/cmst3/group/cmgtools/CMG/GluGluToHToTauTau_M-125_8TeV-powheg-pythia6/Summer12_DR53X-PU_S10_START53_V7A-v1/AODSIM/PAT_CMG_V5_16_0/cmgTuple_81_1_Ses.root
p176
(lp177
I01
aI10000
asV/store/cmst3/group/cmgtools/CMG/GluGluToHToTauTau_M-125_8TeV-powheg-pythia6/Summer12_DR53X-PU_S10_START53_V7A-v1/AODSIM/PAT_CMG_V5_16_0/cmgTuple_26_1_Gi2.root
p178
(lp179
I01
aI10000
asV/store/cmst3/group/cmgtools/CMG/GluGluToHToTauTau_M-125_8TeV-powheg-pythia6/Summer12_DR53X-PU_S10_START53_V7A-v1/AODSIM/PAT_CMG_V5_16_0/cmgTuple_8_1_4EF.root
p180
(lp181
I01
aI10000
asV/store/cmst3/group/cmgtools/CMG/GluGluToHToTauTau_M-125_8TeV-powheg-pythia6/Summer12_DR53X-PU_S10_START53_V7A-v1/AODSIM/PAT_CMG_V5_16_0/cmgTuple_56_1_tlT.root
p182
(lp183
I01
aI10000
asV/store/cmst3/group/cmgtools/CMG/GluGluToHToTauTau_M-125_8TeV-powheg-pythia6/Summer12_DR53X-PU_S10_START53_V7A-v1/AODSIM/PAT_CMG_V5_16_0/cmgTuple_62_1_FA6.root
p184
(lp185
I01
aI10000
asV/store/cmst3/group/cmgtools/CMG/GluGluToHToTauTau_M-125_8TeV-powheg-pythia6/Summer12_DR53X-PU_S10_START53_V7A-v1/AODSIM/PAT_CMG_V5_16_0/cmgTuple_25_1_wEi.root
p186
(lp187
I01
aI10000
asV/store/cmst3/group/cmgtools/CMG/GluGluToHToTauTau_M-125_8TeV-powheg-pythia6/Summer12_DR53X-PU_S10_START53_V7A-v1/AODSIM/PAT_CMG_V5_16_0/cmgTuple_47_1_ntZ.root
p188
(lp189
I01
aI10000
asV/store/cmst3/group/cmgtools/CMG/GluGluToHToTauTau_M-125_8TeV-powheg-pythia6/Summer12_DR53X-PU_S10_START53_V7A-v1/AODSIM/PAT_CMG_V5_16_0/cmgTuple_24_1_pwS.root
p190
(lp191
I01
aI10000
asV/store/cmst3/group/cmgtools/CMG/GluGluToHToTauTau_M-125_8TeV-powheg-pythia6/Summer12_DR53X-PU_S10_START53_V7A-v1/AODSIM/PAT_CMG_V5_16_0/cmgTuple_84_1_MRp.root
p192
(lp193
I01
aI10000
asV/store/cmst3/group/cmgtools/CMG/GluGluToHToTauTau_M-125_8TeV-powheg-pythia6/Summer12_DR53X-PU_S10_START53_V7A-v1/AODSIM/PAT_CMG_V5_16_0/cmgTuple_44_1_16T.root
p194
(lp195
I01
aI10000
asV/store/cmst3/group/cmgtools/CMG/GluGluToHToTauTau_M-125_8TeV-powheg-pythia6/Summer12_DR53X-PU_S10_START53_V7A-v1/AODSIM/PAT_CMG_V5_16_0/cmgTuple_39_1_nT4.root
p196
(lp197
I01
aI10000
asV/store/cmst3/group/cmgtools/CMG/GluGluToHToTauTau_M-125_8TeV-powheg-pythia6/Summer12_DR53X-PU_S10_START53_V7A-v1/AODSIM/PAT_CMG_V5_16_0/cmgTuple_3_1_62K.root
p198
(lp199
I01
aI10000
asV/store/cmst3/group/cmgtools/CMG/GluGluToHToTauTau_M-125_8TeV-powheg-pythia6/Summer12_DR53X-PU_S10_START53_V7A-v1/AODSIM/PAT_CMG_V5_16_0/cmgTuple_35_1_OGL.root
p200
(lp201
I01
aI10000
asV/store/cmst3/group/cmgtools/CMG/GluGluToHToTauTau_M-125_8TeV-powheg-pythia6/Summer12_DR53X-PU_S10_START53_V7A-v1/AODSIM/PAT_CMG_V5_16_0/cmgTuple_42_1_0Uu.root
p202
(lp203
I01
aI10000
asV/store/cmst3/group/cmgtools/CMG/GluGluToHToTauTau_M-125_8TeV-powheg-pythia6/Summer12_DR53X-PU_S10_START53_V7A-v1/AODSIM/PAT_CMG_V5_16_0/cmgTuple_4_1_fCa.root
p204
(lp205
I01
aI10000
asV/store/cmst3/group/cmgtools/CMG/GluGluToHToTauTau_M-125_8TeV-powheg-pythia6/Summer12_DR53X-PU_S10_START53_V7A-v1/AODSIM/PAT_CMG_V5_16_0/cmgTuple_77_1_iV3.root
p206
(lp207
I01
aI10000
asV/store/cmst3/group/cmgtools/CMG/GluGluToHToTauTau_M-125_8TeV-powheg-pythia6/Summer12_DR53X-PU_S10_START53_V7A-v1/AODSIM/PAT_CMG_V5_16_0/cmgTuple_73_1_OCh.root
p208
(lp209
I01
aI10000
asV/store/cmst3/group/cmgtools/CMG/GluGluToHToTauTau_M-125_8TeV-powheg-pythia6/Summer12_DR53X-PU_S10_START53_V7A-v1/AODSIM/PAT_CMG_V5_16_0/cmgTuple_55_1_sx7.root
p210
(lp211
I01
aI10000
asV/store/cmst3/group/cmgtools/CMG/GluGluToHToTauTau_M-125_8TeV-powheg-pythia6/Summer12_DR53X-PU_S10_START53_V7A-v1/AODSIM/PAT_CMG_V5_16_0/cmgTuple_82_1_esk.root
p212
(lp213
I01
aI10000
asV/store/cmst3/group/cmgtools/CMG/GluGluToHToTauTau_M-125_8TeV-powheg-pythia6/Summer12_DR53X-PU_S10_START53_V7A-v1/AODSIM/PAT_CMG_V5_16_0/cmgTuple_57_1_qWp.root
p214
(lp215
I01
aI10000
asV/store/cmst3/group/cmgtools/CMG/GluGluToHToTauTau_M-125_8TeV-powheg-pythia6/Summer12_DR53X-PU_S10_START53_V7A-v1/AODSIM/PAT_CMG_V5_16_0/cmgTuple_48_1_A72.root
p216
(lp217
I01
aI10000
asV/store/cmst3/group/cmgtools/CMG/GluGluToHToTauTau_M-125_8TeV-powheg-pythia6/Summer12_DR53X-PU_S10_START53_V7A-v1/AODSIM/PAT_CMG_V5_16_0/cmgTuple_18_1_zkc.root
p218
(lp219
I01
aI10000
asV/store/cmst3/group/cmgtools/CMG/GluGluToHToTauTau_M-125_8TeV-powheg-pythia6/Summer12_DR53X-PU_S10_START53_V7A-v1/AODSIM/PAT_CMG_V5_16_0/cmgTuple_30_1_boY.root
p220
(lp221
I01
aI10000
asV/store/cmst3/group/cmgtools/CMG/GluGluToHToTauTau_M-125_8TeV-powheg-pythia6/Summer12_DR53X-PU_S10_START53_V7A-v1/AODSIM/PAT_CMG_V5_16_0/cmgTuple_10_1_GJG.root
p222
(lp223
I01
aI10000
asV/store/cmst3/group/cmgtools/CMG/GluGluToHToTauTau_M-125_8TeV-powheg-pythia6/Summer12_DR53X-PU_S10_START53_V7A-v1/AODSIM/PAT_CMG_V5_16_0/cmgTuple_9_1_fiV.root
p224
(lp225
I01
aI10000
asV/store/cmst3/group/cmgtools/CMG/GluGluToHToTauTau_M-125_8TeV-powheg-pythia6/Summer12_DR53X-PU_S10_START53_V7A-v1/AODSIM/PAT_CMG_V5_16_0/cmgTuple_33_1_gUS.root
p226
(lp227
I01
aI10000
asV/store/cmst3/group/cmgtools/CMG/GluGluToHToTauTau_M-125_8TeV-powheg-pythia6/Summer12_DR53X-PU_S10_START53_V7A-v1/AODSIM/PAT_CMG_V5_16_0/cmgTuple_1_1_Cuu.root
p228
(lp229
I01
aI10000
asV/store/cmst3/group/cmgtools/CMG/GluGluToHToTauTau_M-125_8TeV-powheg-pythia6/Summer12_DR53X-PU_S10_START53_V7A-v1/AODSIM/PAT_CMG_V5_16_0/cmgTuple_13_1_Cbr.root
p230
(lp231
I01
aI10000
asV/store/cmst3/group/cmgtools/CMG/GluGluToHToTauTau_M-125_8TeV-powheg-pythia6/Summer12_DR53X-PU_S10_START53_V7A-v1/AODSIM/PAT_CMG_V5_16_0/cmgTuple_37_1_yow.root
p232
(lp233
I01
aI10000
asV/store/cmst3/group/cmgtools/CMG/GluGluToHToTauTau_M-125_8TeV-powheg-pythia6/Summer12_DR53X-PU_S10_START53_V7A-v1/AODSIM/PAT_CMG_V5_16_0/cmgTuple_92_1_CIP.root
p234
(lp235
I01
aI10000
asV/store/cmst3/group/cmgtools/CMG/GluGluToHToTauTau_M-125_8TeV-powheg-pythia6/Summer12_DR53X-PU_S10_START53_V7A-v1/AODSIM/PAT_CMG_V5_16_0/cmgTuple_7_1_wvt.root
p236
(lp237
I01
aI10000
asV/store/cmst3/group/cmgtools/CMG/GluGluToHToTauTau_M-125_8TeV-powheg-pythia6/Summer12_DR53X-PU_S10_START53_V7A-v1/AODSIM/PAT_CMG_V5_16_0/cmgTuple_93_1_juR.root
p238
(lp239
I01
aI10000
asV/store/cmst3/group/cmgtools/CMG/GluGluToHToTauTau_M-125_8TeV-powheg-pythia6/Summer12_DR53X-PU_S10_START53_V7A-v1/AODSIM/PAT_CMG_V5_16_0/cmgTuple_16_2_QWj.root
p240
(lp241
I01
aI10000
asV/store/cmst3/group/cmgtools/CMG/GluGluToHToTauTau_M-125_8TeV-powheg-pythia6/Summer12_DR53X-PU_S10_START53_V7A-v1/AODSIM/PAT_CMG_V5_16_0/cmgTuple_52_1_UMa.root
p242
(lp243
I01
aI10000
asV/store/cmst3/group/cmgtools/CMG/GluGluToHToTauTau_M-125_8TeV-powheg-pythia6/Summer12_DR53X-PU_S10_START53_V7A-v1/AODSIM/PAT_CMG_V5_16_0/cmgTuple_83_1_SO3.root
p244
(lp245
I01
aI10000
asV/store/cmst3/group/cmgtools/CMG/GluGluToHToTauTau_M-125_8TeV-powheg-pythia6/Summer12_DR53X-PU_S10_START53_V7A-v1/AODSIM/PAT_CMG_V5_16_0/cmgTuple_15_1_Ht8.root
p246
(lp247
I01
aI10000
asV/store/cmst3/group/cmgtools/CMG/GluGluToHToTauTau_M-125_8TeV-powheg-pythia6/Summer12_DR53X-PU_S10_START53_V7A-v1/AODSIM/PAT_CMG_V5_16_0/cmgTuple_85_1_ueS.root
p248
(lp249
I01
aI10000
asV/store/cmst3/group/cmgtools/CMG/GluGluToHToTauTau_M-125_8TeV-powheg-pythia6/Summer12_DR53X-PU_S10_START53_V7A-v1/AODSIM/PAT_CMG_V5_16_0/cmgTuple_72_1_b3z.root
p250
(lp251
I01
aI10000
asV/store/cmst3/group/cmgtools/CMG/GluGluToHToTauTau_M-125_8TeV-powheg-pythia6/Summer12_DR53X-PU_S10_START53_V7A-v1/AODSIM/PAT_CMG_V5_16_0/cmgTuple_58_1_4G1.root
p252
(lp253
I01
aI10000
asV/store/cmst3/group/cmgtools/CMG/GluGluToHToTauTau_M-125_8TeV-powheg-pythia6/Summer12_DR53X-PU_S10_START53_V7A-v1/AODSIM/PAT_CMG_V5_16_0/cmgTuple_6_1_f4x.root
p254
(lp255
I01
aI10000
asV/store/cmst3/group/cmgtools/CMG/GluGluToHToTauTau_M-125_8TeV-powheg-pythia6/Summer12_DR53X-PU_S10_START53_V7A-v1/AODSIM/PAT_CMG_V5_16_0/cmgTuple_64_1_TXV.root
p256
(lp257
I01
aI10000
asV/store/cmst3/group/cmgtools/CMG/GluGluToHToTauTau_M-125_8TeV-powheg-pythia6/Summer12_DR53X-PU_S10_START53_V7A-v1/AODSIM/PAT_CMG_V5_16_0/cmgTuple_78_1_LH4.root
p258
(lp259
I01
aI10000
asV/store/cmst3/group/cmgtools/CMG/GluGluToHToTauTau_M-125_8TeV-powheg-pythia6/Summer12_DR53X-PU_S10_START53_V7A-v1/AODSIM/PAT_CMG_V5_16_0/cmgTuple_95_1_dV1.root
p260
(lp261
I01
aI10000
asV/store/cmst3/group/cmgtools/CMG/GluGluToHToTauTau_M-125_8TeV-powheg-pythia6/Summer12_DR53X-PU_S10_START53_V7A-v1/AODSIM/PAT_CMG_V5_16_0/cmgTuple_66_1_J3r.root
p262
(lp263
I01
aI10000
asV/store/cmst3/group/cmgtools/CMG/GluGluToHToTauTau_M-125_8TeV-powheg-pythia6/Summer12_DR53X-PU_S10_START53_V7A-v1/AODSIM/PAT_CMG_V5_16_0/cmgTuple_46_1_pZf.root
p264
(lp265
I01
aI10000
asV/store/cmst3/group/cmgtools/CMG/GluGluToHToTauTau_M-125_8TeV-powheg-pythia6/Summer12_DR53X-PU_S10_START53_V7A-v1/AODSIM/PAT_CMG_V5_16_0/cmgTuple_2_1_BhN.root
p266
(lp267
I01
aI10000
asV/store/cmst3/group/cmgtools/CMG/GluGluToHToTauTau_M-125_8TeV-powheg-pythia6/Summer12_DR53X-PU_S10_START53_V7A-v1/AODSIM/PAT_CMG_V5_16_0/cmgTuple_96_1_C85.root
p268
(lp269
I01
aI10000
asV/store/cmst3/group/cmgtools/CMG/GluGluToHToTauTau_M-125_8TeV-powheg-pythia6/Summer12_DR53X-PU_S10_START53_V7A-v1/AODSIM/PAT_CMG_V5_16_0/cmgTuple_91_1_TYB.root
p270
(lp271
I01
aI10000
asV/store/cmst3/group/cmgtools/CMG/GluGluToHToTauTau_M-125_8TeV-powheg-pythia6/Summer12_DR53X-PU_S10_START53_V7A-v1/AODSIM/PAT_CMG_V5_16_0/cmgTuple_61_1_ZdL.root
p272
(lp273
I01
aI10000
asV/store/cmst3/group/cmgtools/CMG/GluGluToHToTauTau_M-125_8TeV-powheg-pythia6/Summer12_DR53X-PU_S10_START53_V7A-v1/AODSIM/PAT_CMG_V5_16_0/cmgTuple_53_1_tef.root
p274
(lp275
I01
aI10000
asV/store/cmst3/group/cmgtools/CMG/GluGluToHToTauTau_M-125_8TeV-powheg-pythia6/Summer12_DR53X-PU_S10_START53_V7A-v1/AODSIM/PAT_CMG_V5_16_0/cmgTuple_87_1_ikT.root
p276
(lp277
I01
aI3542
asV/store/cmst3/group/cmgtools/CMG/GluGluToHToTauTau_M-125_8TeV-powheg-pythia6/Summer12_DR53X-PU_S10_START53_V7A-v1/AODSIM/PAT_CMG_V5_16_0/cmgTuple_71_1_TOM.root
p278
(lp279
I01
aI10000
asV/store/cmst3/group/cmgtools/CMG/GluGluToHToTauTau_M-125_8TeV-powheg-pythia6/Summer12_DR53X-PU_S10_START53_V7A-v1/AODSIM/PAT_CMG_V5_16_0/cmgTuple_76_1_pF6.root
p280
(lp281
I01
aI10000
asV/store/cmst3/group/cmgtools/CMG/GluGluToHToTauTau_M-125_8TeV-powheg-pythia6/Summer12_DR53X-PU_S10_START53_V7A-v1/AODSIM/PAT_CMG_V5_16_0/cmgTuple_59_1_JVb.root
p282
(lp283
I01
aI10000
asV/store/cmst3/group/cmgtools/CMG/GluGluToHToTauTau_M-125_8TeV-powheg-pythia6/Summer12_DR53X-PU_S10_START53_V7A-v1/AODSIM/PAT_CMG_V5_16_0/cmgTuple_5_1_ufF.root
p284
(lp285
I01
aI10000
asV/store/cmst3/group/cmgtools/CMG/GluGluToHToTauTau_M-125_8TeV-powheg-pythia6/Summer12_DR53X-PU_S10_START53_V7A-v1/AODSIM/PAT_CMG_V5_16_0/cmgTuple_75_1_NFa.root
p286
(lp287
I01
aI10000
asV/store/cmst3/group/cmgtools/CMG/GluGluToHToTauTau_M-125_8TeV-powheg-pythia6/Summer12_DR53X-PU_S10_START53_V7A-v1/AODSIM/PAT_CMG_V5_16_0/cmgTuple_38_1_DkE.root
p288
(lp289
I01
aI10000
asV/store/cmst3/group/cmgtools/CMG/GluGluToHToTauTau_M-125_8TeV-powheg-pythia6/Summer12_DR53X-PU_S10_START53_V7A-v1/AODSIM/PAT_CMG_V5_16_0/cmgTuple_31_1_VHZ.root
p290
(lp291
I01
aI10000
asV/store/cmst3/group/cmgtools/CMG/GluGluToHToTauTau_M-125_8TeV-powheg-pythia6/Summer12_DR53X-PU_S10_START53_V7A-v1/AODSIM/PAT_CMG_V5_16_0/cmgTuple_36_1_J1F.root
p292
(lp293
I01
aI10000
asV/store/cmst3/group/cmgtools/CMG/GluGluToHToTauTau_M-125_8TeV-powheg-pythia6/Summer12_DR53X-PU_S10_START53_V7A-v1/AODSIM/PAT_CMG_V5_16_0/cmgTuple_34_1_Ixl.root
p294
(lp295
I01
aI10000
asV/store/cmst3/group/cmgtools/CMG/GluGluToHToTauTau_M-125_8TeV-powheg-pythia6/Summer12_DR53X-PU_S10_START53_V7A-v1/AODSIM/PAT_CMG_V5_16_0/cmgTuple_23_1_7PJ.root
p296
(lp297
I01
aI10000
asV/store/cmst3/group/cmgtools/CMG/GluGluToHToTauTau_M-125_8TeV-powheg-pythia6/Summer12_DR53X-PU_S10_START53_V7A-v1/AODSIM/PAT_CMG_V5_16_0/cmgTuple_68_1_1Cd.root
p298
(lp299
I01
aI10000
asV/store/cmst3/group/cmgtools/CMG/GluGluToHToTauTau_M-125_8TeV-powheg-pythia6/Summer12_DR53X-PU_S10_START53_V7A-v1/AODSIM/PAT_CMG_V5_16_0/cmgTuple_63_1_1YZ.root
p300
(lp301
I01
aI10000
asV/store/cmst3/group/cmgtools/CMG/GluGluToHToTauTau_M-125_8TeV-powheg-pythia6/Summer12_DR53X-PU_S10_START53_V7A-v1/AODSIM/PAT_CMG_V5_16_0/cmgTuple_86_1_3Xl.root
p302
(lp303
I01
aI10000
asV/store/cmst3/group/cmgtools/CMG/GluGluToHToTauTau_M-125_8TeV-powheg-pythia6/Summer12_DR53X-PU_S10_START53_V7A-v1/AODSIM/PAT_CMG_V5_16_0/cmgTuple_89_1_7Cx.root
p304
(lp305
I01
aI10000
asV/store/cmst3/group/cmgtools/CMG/GluGluToHToTauTau_M-125_8TeV-powheg-pythia6/Summer12_DR53X-PU_S10_START53_V7A-v1/AODSIM/PAT_CMG_V5_16_0/cmgTuple_21_1_uWj.root
p306
(lp307
I01
aI10000
asV/store/cmst3/group/cmgtools/CMG/GluGluToHToTauTau_M-125_8TeV-powheg-pythia6/Summer12_DR53X-PU_S10_START53_V7A-v1/AODSIM/PAT_CMG_V5_16_0/cmgTuple_67_1_NXW.root
p308
(lp309
I01
aI10000
asV/store/cmst3/group/cmgtools/CMG/GluGluToHToTauTau_M-125_8TeV-powheg-pythia6/Summer12_DR53X-PU_S10_START53_V7A-v1/AODSIM/PAT_CMG_V5_16_0/cmgTuple_11_1_e4v.root
p310
(lp311
I01
aI10000
asV/store/cmst3/group/cmgtools/CMG/GluGluToHToTauTau_M-125_8TeV-powheg-pythia6/Summer12_DR53X-PU_S10_START53_V7A-v1/AODSIM/PAT_CMG_V5_16_0/cmgTuple_94_1_s1M.root
p312
(lp313
I01
aI10000
asV/store/cmst3/group/cmgtools/CMG/GluGluToHToTauTau_M-125_8TeV-powheg-pythia6/Summer12_DR53X-PU_S10_START53_V7A-v1/AODSIM/PAT_CMG_V5_16_0/cmgTuple_29_1_zmM.root
p314
(lp315
I01
aI10000
asV/store/cmst3/group/cmgtools/CMG/GluGluToHToTauTau_M-125_8TeV-powheg-pythia6/Summer12_DR53X-PU_S10_START53_V7A-v1/AODSIM/PAT_CMG_V5_16_0/cmgTuple_50_1_iz8.root
p316
(lp317
I01
aI10000
asV/store/cmst3/group/cmgtools/CMG/GluGluToHToTauTau_M-125_8TeV-powheg-pythia6/Summer12_DR53X-PU_S10_START53_V7A-v1/AODSIM/PAT_CMG_V5_16_0/cmgTuple_32_1_8lF.root
p318
(lp319
I01
aI10000
asV/store/cmst3/group/cmgtools/CMG/GluGluToHToTauTau_M-125_8TeV-powheg-pythia6/Summer12_DR53X-PU_S10_START53_V7A-v1/AODSIM/PAT_CMG_V5_16_0/cmgTuple_14_1_K6H.root
p320
(lp321
I01
aI10000
asV/store/cmst3/group/cmgtools/CMG/GluGluToHToTauTau_M-125_8TeV-powheg-pythia6/Summer12_DR53X-PU_S10_START53_V7A-v1/AODSIM/PAT_CMG_V5_16_0/cmgTuple_43_1_PEz.root
p322
(lp323
I01
aI10000
asV/store/cmst3/group/cmgtools/CMG/GluGluToHToTauTau_M-125_8TeV-powheg-pythia6/Summer12_DR53X-PU_S10_START53_V7A-v1/AODSIM/PAT_CMG_V5_16_0/cmgTuple_60_1_5ZO.root
p324
(lp325
I01
aI10000
assVPhysicsGroup
p326
VCMG
p327
sVFilesCount
p328
I99
sVFilesEntries
p329
I968134
sVRunList
p330
(lp331
sVValidDuplicates
p332
(dp333
V/store/cmst3/group/cmgtools/CMG/GluGluToHToTauTau_M-125_8TeV-powheg-pythia6/Summer12_DR53X-PU_S10_START53_V7A-v1/AODSIM/PAT_CMG_V5_16_0/cmgTuple_61_1_ZdL.root
p334
I10000
ssVPrimaryDataset
p335
V/GluGluToHToTauTau_M-125_8TeV-powheg-pythia6/Summer12_DR53X-PU_S10_START53_V7A-v1/AODSIM
p336
sVStatus
p337
VVALID
p338
sVName
p339
V/GluGluToHToTauTau_M-125_8TeV-powheg-pythia6/Summer12_DR53X-PU_S10_START53_V7A-v1/AODSIM/PAT_CMG_V5_16_0
p340
sVTopdir
p341
V/eos/cms/store/cmst3/group/cmgtools/CMG
p342
sVdata
p343
(dp344
sVFilesBad
p345
I0
sVMinRun
p346
I-1
sVAlgoList
p347
(lp348
sVTierList
p349
(lp350
sVDateCreated
p351
V1370943236
p352
sVCreatedBy
p353
Vcmgtools_group
p354
sVMaxRun
p355
I-1
sVBadJobs
p356
(lp357
ssg87
I01
ssS'MonitorJobs'
p358
(dp359
S'LSFJobStatus'
p360
(dp361
g90
S'GluGluToHToTauTau_M-125_8TeV-powheg-pythia6/Summer12_DR53X-PU_S10_START53_V7A-v1/AODSIM/PAT_CMG_V5_16_0_1377467487/HTT_24Jul_newTES_manzoni_Up_Jobs/Job_17/LSFJOB_440972304/STDOUT.gz'
p362
sg91
S'GluGluToHToTauTau_M-125_8TeV-powheg-pythia6/Summer12_DR53X-PU_S10_START53_V7A-v1/AODSIM/PAT_CMG_V5_16_0_1377467487/HTT_24Jul_newTES_manzoni_Up_Jobs/Job_16/LSFJOB_440972212/STDOUT.gz'
p363
sg92
S'GluGluToHToTauTau_M-125_8TeV-powheg-pythia6/Summer12_DR53X-PU_S10_START53_V7A-v1/AODSIM/PAT_CMG_V5_16_0_1377467487/HTT_24Jul_newTES_manzoni_Up_Jobs/Job_15/LSFJOB_440972123/STDOUT.gz'
p364
sg93
S'GluGluToHToTauTau_M-125_8TeV-powheg-pythia6/Summer12_DR53X-PU_S10_START53_V7A-v1/AODSIM/PAT_CMG_V5_16_0_1377467487/HTT_24Jul_newTES_manzoni_Up_Jobs/Job_14/LSFJOB_440972034/STDOUT.gz'
p365
sg94
S'GluGluToHToTauTau_M-125_8TeV-powheg-pythia6/Summer12_DR53X-PU_S10_START53_V7A-v1/AODSIM/PAT_CMG_V5_16_0_1377467487/HTT_24Jul_newTES_manzoni_Up_Jobs/Job_13/LSFJOB_440971898/STDOUT.gz'
p366
sg95
S'GluGluToHToTauTau_M-125_8TeV-powheg-pythia6/Summer12_DR53X-PU_S10_START53_V7A-v1/AODSIM/PAT_CMG_V5_16_0_1377467487/HTT_24Jul_newTES_manzoni_Up_Jobs/Job_12/LSFJOB_440971797/STDOUT.gz'
p367
sg96
S'GluGluToHToTauTau_M-125_8TeV-powheg-pythia6/Summer12_DR53X-PU_S10_START53_V7A-v1/AODSIM/PAT_CMG_V5_16_0_1377467487/HTT_24Jul_newTES_manzoni_Up_Jobs/Job_11/LSFJOB_440971664/STDOUT.gz'
p368
sg97
S'GluGluToHToTauTau_M-125_8TeV-powheg-pythia6/Summer12_DR53X-PU_S10_START53_V7A-v1/AODSIM/PAT_CMG_V5_16_0_1377467487/HTT_24Jul_newTES_manzoni_Up_Jobs/Job_10/LSFJOB_440971590/STDOUT.gz'
p369
sg98
S'GluGluToHToTauTau_M-125_8TeV-powheg-pythia6/Summer12_DR53X-PU_S10_START53_V7A-v1/AODSIM/PAT_CMG_V5_16_0_1377467487/HTT_24Jul_newTES_manzoni_Up_Jobs/Job_19/LSFJOB_440972474/STDOUT.gz'
p370
sg99
S'GluGluToHToTauTau_M-125_8TeV-powheg-pythia6/Summer12_DR53X-PU_S10_START53_V7A-v1/AODSIM/PAT_CMG_V5_16_0_1377467487/HTT_24Jul_newTES_manzoni_Up_Jobs/Job_18/LSFJOB_440972393/STDOUT.gz'
p371
sg100
S'GluGluToHToTauTau_M-125_8TeV-powheg-pythia6/Summer12_DR53X-PU_S10_START53_V7A-v1/AODSIM/PAT_CMG_V5_16_0_1377467487/HTT_24Jul_newTES_manzoni_Up_Jobs/Job_7/LSFJOB_440971347/STDOUT.gz'
p372
sg101
S'GluGluToHToTauTau_M-125_8TeV-powheg-pythia6/Summer12_DR53X-PU_S10_START53_V7A-v1/AODSIM/PAT_CMG_V5_16_0_1377467487/HTT_24Jul_newTES_manzoni_Up_Jobs/Job_6/LSFJOB_440971209/STDOUT.gz'
p373
sg102
S'GluGluToHToTauTau_M-125_8TeV-powheg-pythia6/Summer12_DR53X-PU_S10_START53_V7A-v1/AODSIM/PAT_CMG_V5_16_0_1377467487/HTT_24Jul_newTES_manzoni_Up_Jobs/Job_5/LSFJOB_440971107/STDOUT.gz'
p374
sg103
S'GluGluToHToTauTau_M-125_8TeV-powheg-pythia6/Summer12_DR53X-PU_S10_START53_V7A-v1/AODSIM/PAT_CMG_V5_16_0_1377467487/HTT_24Jul_newTES_manzoni_Up_Jobs/Job_4/LSFJOB_440971024/STDOUT.gz'
p375
sg104
S'GluGluToHToTauTau_M-125_8TeV-powheg-pythia6/Summer12_DR53X-PU_S10_START53_V7A-v1/AODSIM/PAT_CMG_V5_16_0_1377467487/HTT_24Jul_newTES_manzoni_Up_Jobs/Job_3/LSFJOB_440970931/STDOUT.gz'
p376
sg105
S'GluGluToHToTauTau_M-125_8TeV-powheg-pythia6/Summer12_DR53X-PU_S10_START53_V7A-v1/AODSIM/PAT_CMG_V5_16_0_1377467487/HTT_24Jul_newTES_manzoni_Up_Jobs/Job_2/LSFJOB_440970848/STDOUT.gz'
p377
sg106
S'GluGluToHToTauTau_M-125_8TeV-powheg-pythia6/Summer12_DR53X-PU_S10_START53_V7A-v1/AODSIM/PAT_CMG_V5_16_0_1377467487/HTT_24Jul_newTES_manzoni_Up_Jobs/Job_1/LSFJOB_440970722/STDOUT.gz'
p378
sg107
S'GluGluToHToTauTau_M-125_8TeV-powheg-pythia6/Summer12_DR53X-PU_S10_START53_V7A-v1/AODSIM/PAT_CMG_V5_16_0_1377467487/HTT_24Jul_newTES_manzoni_Up_Jobs/Job_20/LSFJOB_440972579/STDOUT.gz'
p379
sg108
S'GluGluToHToTauTau_M-125_8TeV-powheg-pythia6/Summer12_DR53X-PU_S10_START53_V7A-v1/AODSIM/PAT_CMG_V5_16_0_1377467487/HTT_24Jul_newTES_manzoni_Up_Jobs/Job_9/LSFJOB_440971477/STDOUT.gz'
p380
sg109
S'GluGluToHToTauTau_M-125_8TeV-powheg-pythia6/Summer12_DR53X-PU_S10_START53_V7A-v1/AODSIM/PAT_CMG_V5_16_0_1377467487/HTT_24Jul_newTES_manzoni_Up_Jobs/Job_8/LSFJOB_440971414/STDOUT.gz'
p381
ssS'LSFJobIDs'
p382
(dp383
g90
S'440972304'
p384
sg91
S'440972212'
p385
sg92
S'440972123'
p386
sg93
S'440972034'
p387
sg94
S'440971898'
p388
sg95
S'440971797'
p389
sg96
S'440971664'
p390
sg97
S'440971590'
p391
sg98
S'440972474'
p392
sg99
S'440972393'
p393
sg100
S'440971347'
p394
sg101
S'440971209'
p395
sg102
S'440971107'
p396
sg103
S'440971024'
p397
sg104
S'440970931'
p398
sg105
S'440970848'
p399
sg106
S'440970722'
p400
sg107
S'440972579'
p401
sg108
S'440971477'
p402
sg109
S'440971414'
p403
sssS'FindOnCastor'
p404
(dp405
g49
S'/eos/cms/store/cmst3/group/cmgtools/CMG'
p406
sS'Directory'
p407
S'/eos/cms/store/cmst3/group/cmgtools/CMG/GluGluToHToTauTau_M-125_8TeV-powheg-pythia6/Summer12_DR53X-PU_S10_START53_V7A-v1/AODSIM/PAT_CMG_V5_16_0'
p408
ssS'CheckConfig'
p409
(dp410
g65
g66
ssS'FullCFG'
p411
(dp412
S'FullCFG'
p413
S'GluGluToHToTauTau_M-125_8TeV-powheg-pythia6/Summer12_DR53X-PU_S10_START53_V7A-v1/AODSIM/PAT_CMG_V5_16_0_1377467487/full_cfg.py'
p414
ssS'WriteJobReport'
p415
(dp416
S'SummaryFile'
p417
S'GluGluToHToTauTau_M-125_8TeV-powheg-pythia6/Summer12_DR53X-PU_S10_START53_V7A-v1/AODSIM/PAT_CMG_V5_16_0_1377467487/resubmit.sh'
p418
ssS'ExpandConfig'
p419
(dp420
S'ExpandedFullCFG'
p421
S'GluGluToHToTauTau_M-125_8TeV-powheg-pythia6/Summer12_DR53X-PU_S10_START53_V7A-v1/AODSIM/PAT_CMG_V5_16_0_1377467487/Expandedfull_cfg.py'
p422
ssS'RunTestEvents'
p423
(dp424
g65
g66
sS'TestCFG'
p425
S'GluGluToHToTauTau_M-125_8TeV-powheg-pythia6/Summer12_DR53X-PU_S10_START53_V7A-v1/AODSIM/PAT_CMG_V5_16_0_1377467487/test_cfg.py'
p426
ssS'SourceCFG'
p427
(dp428
S'SourceCFG'
p429
S'GluGluToHToTauTau_M-125_8TeV-powheg-pythia6/Summer12_DR53X-PU_S10_START53_V7A-v1/AODSIM/PAT_CMG_V5_16_0_1377467487/source_cfg.py'
p430
ssS'CheckForWrite'
p431
(dp432
g407
g408
sS'WriteAccess'
p433
I01
ssS'WriteToDatasets'
p434
(dp435
S'Added'
p436
I00
sg47
S'/GluGluToHToTauTau_M-125_8TeV-powheg-pythia6/Summer12_DR53X-PU_S10_START53_V7A-v1/AODSIM/PAT_CMG_V5_16_0/HTT_24Jul_newTES_manzoni_Up'
p437
sS'User'
p438
g80
ssS'RunCMSBatch'
p439
(dp440
S'BatchUser'
p441
g80
sS'SampleOutputDir'
p442
S'/store/cmst3/user/manzoni/CMG/GluGluToHToTauTau_M-125_8TeV-powheg-pythia6/Summer12_DR53X-PU_S10_START53_V7A-v1/AODSIM/PAT_CMG_V5_16_0/HTT_24Jul_newTES_manzoni_Up'
p443
sS'SampleDataset'
p444
g48
sS'LSFJobsTopDir'
p445
S'GluGluToHToTauTau_M-125_8TeV-powheg-pythia6/Summer12_DR53X-PU_S10_START53_V7A-v1/AODSIM/PAT_CMG_V5_16_0_1377467487/HTT_24Jul_newTES_manzoni_Up_Jobs'
p446
ssS'CreateJobDirectory'
p447
(dp448
S'JobDir'
p449
S'GluGluToHToTauTau_M-125_8TeV-powheg-pythia6/Summer12_DR53X-PU_S10_START53_V7A-v1/AODSIM/PAT_CMG_V5_16_0_1377467487'
p450
sS'PWD'
p451
S'/afs/cern.ch/user/m/manzoni/summer13/CMGTools/CMSSW_5_3_9/src/CMGTools/H2TauTau/prod/25aug_corrMC/up/mc'
p452
ssS'CleanJobFiles'
p453
(dp454
S'Compressed'
p455
(dp456
S'CompressedFiles'
p457
(lp458
ssS'Cleaned'
p459
(dp460
S'CleanedFiles'
p461
(lp462
g422
ag426
aS'GluGluToHToTauTau_M-125_8TeV-powheg-pythia6/Summer12_DR53X-PU_S10_START53_V7A-v1/AODSIM/PAT_CMG_V5_16_0_1377467487/diTau_fullsel_tree_CMG.root'
p463
aS'GluGluToHToTauTau_M-125_8TeV-powheg-pythia6/Summer12_DR53X-PU_S10_START53_V7A-v1/AODSIM/PAT_CMG_V5_16_0_1377467487/source_cfg.pyc'
p464
aS'GluGluToHToTauTau_M-125_8TeV-powheg-pythia6/Summer12_DR53X-PU_S10_START53_V7A-v1/AODSIM/PAT_CMG_V5_16_0_1377467487/Expandedfull_cfg.pyc'
p465
asssS'CheckForMask'
p466
(dp467
g3
g116
sg87
I01
ss.