(dp0
S'CheckJobStatus'
p1
(dp2
S'Report'
p3
(dp4
S'Files'
p5
(dp6
S'/store/cmst3/user/manzoni/CMG/SUSYBBHToTauTau_M-500_8TeV-pythia6-tauola/Summer12_DR53X-PU_S10_START53_V7A-v1/AODSIM/PAT_CMG_V5_16_0/HTT_24Jul_newTES_manzoni_Up/diTau_fullsel_tree_CMG_5.root'
p7
(I01
I11451
tp8
sS'/store/cmst3/user/manzoni/CMG/SUSYBBHToTauTau_M-500_8TeV-pythia6-tauola/Summer12_DR53X-PU_S10_START53_V7A-v1/AODSIM/PAT_CMG_V5_16_0/HTT_24Jul_newTES_manzoni_Up/diTau_fullsel_tree_CMG_32.root'
p9
(I01
I7755
tp10
sS'/store/cmst3/user/manzoni/CMG/SUSYBBHToTauTau_M-500_8TeV-pythia6-tauola/Summer12_DR53X-PU_S10_START53_V7A-v1/AODSIM/PAT_CMG_V5_16_0/HTT_24Jul_newTES_manzoni_Up/diTau_fullsel_tree_CMG_12.root'
p11
(I01
I11518
tp12
sS'/store/cmst3/user/manzoni/CMG/SUSYBBHToTauTau_M-500_8TeV-pythia6-tauola/Summer12_DR53X-PU_S10_START53_V7A-v1/AODSIM/PAT_CMG_V5_16_0/HTT_24Jul_newTES_manzoni_Up/diTau_fullsel_tree_CMG_15.root'
p13
(I01
I11395
tp14
sS'/store/cmst3/user/manzoni/CMG/SUSYBBHToTauTau_M-500_8TeV-pythia6-tauola/Summer12_DR53X-PU_S10_START53_V7A-v1/AODSIM/PAT_CMG_V5_16_0/HTT_24Jul_newTES_manzoni_Up/diTau_fullsel_tree_CMG_23.root'
p15
(I01
I11554
tp16
sS'/store/cmst3/user/manzoni/CMG/SUSYBBHToTauTau_M-500_8TeV-pythia6-tauola/Summer12_DR53X-PU_S10_START53_V7A-v1/AODSIM/PAT_CMG_V5_16_0/HTT_24Jul_newTES_manzoni_Up/diTau_fullsel_tree_CMG_3.root'
p17
(I01
I11460
tp18
sS'/store/cmst3/user/manzoni/CMG/SUSYBBHToTauTau_M-500_8TeV-pythia6-tauola/Summer12_DR53X-PU_S10_START53_V7A-v1/AODSIM/PAT_CMG_V5_16_0/HTT_24Jul_newTES_manzoni_Up/diTau_fullsel_tree_CMG_16.root'
p19
(I01
I11540
tp20
sS'/store/cmst3/user/manzoni/CMG/SUSYBBHToTauTau_M-500_8TeV-pythia6-tauola/Summer12_DR53X-PU_S10_START53_V7A-v1/AODSIM/PAT_CMG_V5_16_0/HTT_24Jul_newTES_manzoni_Up/diTau_fullsel_tree_CMG_24.root'
p21
(I01
I11436
tp22
sS'/store/cmst3/user/manzoni/CMG/SUSYBBHToTauTau_M-500_8TeV-pythia6-tauola/Summer12_DR53X-PU_S10_START53_V7A-v1/AODSIM/PAT_CMG_V5_16_0/HTT_24Jul_newTES_manzoni_Up/diTau_fullsel_tree_CMG_8.root'
p23
(I01
I11472
tp24
sS'/store/cmst3/user/manzoni/CMG/SUSYBBHToTauTau_M-500_8TeV-pythia6-tauola/Summer12_DR53X-PU_S10_START53_V7A-v1/AODSIM/PAT_CMG_V5_16_0/HTT_24Jul_newTES_manzoni_Up/diTau_fullsel_tree_CMG_10.root'
p25
(I01
I11561
tp26
sS'/store/cmst3/user/manzoni/CMG/SUSYBBHToTauTau_M-500_8TeV-pythia6-tauola/Summer12_DR53X-PU_S10_START53_V7A-v1/AODSIM/PAT_CMG_V5_16_0/HTT_24Jul_newTES_manzoni_Up/diTau_fullsel_tree_CMG_25.root'
p27
(I01
I11473
tp28
sS'/store/cmst3/user/manzoni/CMG/SUSYBBHToTauTau_M-500_8TeV-pythia6-tauola/Summer12_DR53X-PU_S10_START53_V7A-v1/AODSIM/PAT_CMG_V5_16_0/HTT_24Jul_newTES_manzoni_Up/diTau_fullsel_tree_CMG_13.root'
p29
(I01
I11459
tp30
sS'/store/cmst3/user/manzoni/CMG/SUSYBBHToTauTau_M-500_8TeV-pythia6-tauola/Summer12_DR53X-PU_S10_START53_V7A-v1/AODSIM/PAT_CMG_V5_16_0/HTT_24Jul_newTES_manzoni_Up/diTau_fullsel_tree_CMG_21.root'
p31
(I01
I11486
tp32
sS'/store/cmst3/user/manzoni/CMG/SUSYBBHToTauTau_M-500_8TeV-pythia6-tauola/Summer12_DR53X-PU_S10_START53_V7A-v1/AODSIM/PAT_CMG_V5_16_0/HTT_24Jul_newTES_manzoni_Up/diTau_fullsel_tree_CMG_7.root'
p33
(I01
I11519
tp34
sS'/store/cmst3/user/manzoni/CMG/SUSYBBHToTauTau_M-500_8TeV-pythia6-tauola/Summer12_DR53X-PU_S10_START53_V7A-v1/AODSIM/PAT_CMG_V5_16_0/HTT_24Jul_newTES_manzoni_Up/diTau_fullsel_tree_CMG_26.root'
p35
(I01
I11478
tp36
sS'/store/cmst3/user/manzoni/CMG/SUSYBBHToTauTau_M-500_8TeV-pythia6-tauola/Summer12_DR53X-PU_S10_START53_V7A-v1/AODSIM/PAT_CMG_V5_16_0/HTT_24Jul_newTES_manzoni_Up/diTau_fullsel_tree_CMG_28.root'
p37
(I01
I11511
tp38
sS'/store/cmst3/user/manzoni/CMG/SUSYBBHToTauTau_M-500_8TeV-pythia6-tauola/Summer12_DR53X-PU_S10_START53_V7A-v1/AODSIM/PAT_CMG_V5_16_0/HTT_24Jul_newTES_manzoni_Up/diTau_fullsel_tree_CMG_22.root'
p39
(I01
I11408
tp40
sS'/store/cmst3/user/manzoni/CMG/SUSYBBHToTauTau_M-500_8TeV-pythia6-tauola/Summer12_DR53X-PU_S10_START53_V7A-v1/AODSIM/PAT_CMG_V5_16_0/HTT_24Jul_newTES_manzoni_Up/diTau_fullsel_tree_CMG_4.root'
p41
(I01
I11582
tp42
sS'/store/cmst3/user/manzoni/CMG/SUSYBBHToTauTau_M-500_8TeV-pythia6-tauola/Summer12_DR53X-PU_S10_START53_V7A-v1/AODSIM/PAT_CMG_V5_16_0/HTT_24Jul_newTES_manzoni_Up/diTau_fullsel_tree_CMG_20.root'
p43
(I01
I11449
tp44
sS'/store/cmst3/user/manzoni/CMG/SUSYBBHToTauTau_M-500_8TeV-pythia6-tauola/Summer12_DR53X-PU_S10_START53_V7A-v1/AODSIM/PAT_CMG_V5_16_0/HTT_24Jul_newTES_manzoni_Up/diTau_fullsel_tree_CMG_9.root'
p45
(I01
I11496
tp46
sS'/store/cmst3/user/manzoni/CMG/SUSYBBHToTauTau_M-500_8TeV-pythia6-tauola/Summer12_DR53X-PU_S10_START53_V7A-v1/AODSIM/PAT_CMG_V5_16_0/HTT_24Jul_newTES_manzoni_Up/diTau_fullsel_tree_CMG_6.root'
p47
(I01
I11498
tp48
sS'/store/cmst3/user/manzoni/CMG/SUSYBBHToTauTau_M-500_8TeV-pythia6-tauola/Summer12_DR53X-PU_S10_START53_V7A-v1/AODSIM/PAT_CMG_V5_16_0/HTT_24Jul_newTES_manzoni_Up/diTau_fullsel_tree_CMG_17.root'
p49
(I01
I11485
tp50
sS'/store/cmst3/user/manzoni/CMG/SUSYBBHToTauTau_M-500_8TeV-pythia6-tauola/Summer12_DR53X-PU_S10_START53_V7A-v1/AODSIM/PAT_CMG_V5_16_0/HTT_24Jul_newTES_manzoni_Up/diTau_fullsel_tree_CMG_30.root'
p51
(I01
I11635
tp52
sS'/store/cmst3/user/manzoni/CMG/SUSYBBHToTauTau_M-500_8TeV-pythia6-tauola/Summer12_DR53X-PU_S10_START53_V7A-v1/AODSIM/PAT_CMG_V5_16_0/HTT_24Jul_newTES_manzoni_Up/diTau_fullsel_tree_CMG_29.root'
p53
(I01
I11648
tp54
sS'/store/cmst3/user/manzoni/CMG/SUSYBBHToTauTau_M-500_8TeV-pythia6-tauola/Summer12_DR53X-PU_S10_START53_V7A-v1/AODSIM/PAT_CMG_V5_16_0/HTT_24Jul_newTES_manzoni_Up/diTau_fullsel_tree_CMG_2.root'
p55
(I01
I11523
tp56
sS'/store/cmst3/user/manzoni/CMG/SUSYBBHToTauTau_M-500_8TeV-pythia6-tauola/Summer12_DR53X-PU_S10_START53_V7A-v1/AODSIM/PAT_CMG_V5_16_0/HTT_24Jul_newTES_manzoni_Up/diTau_fullsel_tree_CMG_18.root'
p57
(I01
I11464
tp58
sS'/store/cmst3/user/manzoni/CMG/SUSYBBHToTauTau_M-500_8TeV-pythia6-tauola/Summer12_DR53X-PU_S10_START53_V7A-v1/AODSIM/PAT_CMG_V5_16_0/HTT_24Jul_newTES_manzoni_Up/diTau_fullsel_tree_CMG_11.root'
p59
(I01
I11443
tp60
sS'/store/cmst3/user/manzoni/CMG/SUSYBBHToTauTau_M-500_8TeV-pythia6-tauola/Summer12_DR53X-PU_S10_START53_V7A-v1/AODSIM/PAT_CMG_V5_16_0/HTT_24Jul_newTES_manzoni_Up/diTau_fullsel_tree_CMG_31.root'
p61
(I01
I11581
tp62
sS'/store/cmst3/user/manzoni/CMG/SUSYBBHToTauTau_M-500_8TeV-pythia6-tauola/Summer12_DR53X-PU_S10_START53_V7A-v1/AODSIM/PAT_CMG_V5_16_0/HTT_24Jul_newTES_manzoni_Up/diTau_fullsel_tree_CMG_1.root'
p63
(I01
I11531
tp64
sS'/store/cmst3/user/manzoni/CMG/SUSYBBHToTauTau_M-500_8TeV-pythia6-tauola/Summer12_DR53X-PU_S10_START53_V7A-v1/AODSIM/PAT_CMG_V5_16_0/HTT_24Jul_newTES_manzoni_Up/diTau_fullsel_tree_CMG_19.root'
p65
(I01
I11467
tp66
sS'/store/cmst3/user/manzoni/CMG/SUSYBBHToTauTau_M-500_8TeV-pythia6-tauola/Summer12_DR53X-PU_S10_START53_V7A-v1/AODSIM/PAT_CMG_V5_16_0/HTT_24Jul_newTES_manzoni_Up/diTau_fullsel_tree_CMG_27.root'
p67
(I01
I11469
tp68
sS'/store/cmst3/user/manzoni/CMG/SUSYBBHToTauTau_M-500_8TeV-pythia6-tauola/Summer12_DR53X-PU_S10_START53_V7A-v1/AODSIM/PAT_CMG_V5_16_0/HTT_24Jul_newTES_manzoni_Up/diTau_fullsel_tree_CMG_14.root'
p69
(I01
I11611
tp70
ssS'Name'
p71
S'/SUSYBBHToTauTau_M-500_8TeV-pythia6-tauola/Summer12_DR53X-PU_S10_START53_V7A-v1/AODSIM/PAT_CMG_V5_16_0/HTT_24Jul_newTES_manzoni_Up'
p72
sS'Topdir'
p73
S'/eos/cms/store/cmst3/user/manzoni/CMG'
p74
sS'RunList'
p75
(lp76
sS'PathList'
p77
(lp78
S'/store/cmst3/user/manzoni/CMG/SUSYBBHToTauTau_M-500_8TeV-pythia6-tauola/Summer12_DR53X-PU_S10_START53_V7A-v1/AODSIM/PAT_CMG_V5_16_0/HTT_24Jul_newTES_manzoni_Up'
p79
asS'AlgoList'
p80
(lp81
sS'PrimaryDatasetFraction'
p82
F0.36436674480187525
sS'FilesGood'
p83
I32
sS'PrimaryDatasetEntries'
p84
I999976
sS'data'
p85
(dp86
sS'FilesBad'
p87
I0
sS'ReportVersion'
p88
I3
sS'Status'
p89
S'VALID'
p90
sS'MaxRun'
p91
I-1
sS'PhysicsGroup'
p92
S'CMG'
p93
sS'MinRun'
p94
I-1
sS'StageHost'
p95
S'castorcms'
p96
sS'FilesCount'
p97
I32
sS'FilesEntries'
p98
I364358
sS'TierList'
p99
(lp100
sS'DateCreated'
p101
S'1377488388'
p102
sS'CreatedBy'
p103
S'manzoni'
p104
sS'ValidDuplicates'
p105
(dp106
sS'PrimaryDataset'
p107
S'/SUSYBBHToTauTau_M-500_8TeV-pythia6-tauola/Summer12_DR53X-PU_S10_START53_V7A-v1/AODSIM'
p108
sS'BadJobs'
p109
(lp110
ssS'MaskPresent'
p111
I01
sS'LSFJobStatusCheck'
p112
(dp113
S'SUSYBBHToTauTau_M-500_8TeV-pythia6-tauola/Summer12_DR53X-PU_S10_START53_V7A-v1/AODSIM/PAT_CMG_V5_16_0_1377467573/HTT_24Jul_newTES_manzoni_Up_Jobs/Job_20'
p114
g90
sS'SUSYBBHToTauTau_M-500_8TeV-pythia6-tauola/Summer12_DR53X-PU_S10_START53_V7A-v1/AODSIM/PAT_CMG_V5_16_0_1377467573/HTT_24Jul_newTES_manzoni_Up_Jobs/Job_21'
p115
g90
sS'SUSYBBHToTauTau_M-500_8TeV-pythia6-tauola/Summer12_DR53X-PU_S10_START53_V7A-v1/AODSIM/PAT_CMG_V5_16_0_1377467573/HTT_24Jul_newTES_manzoni_Up_Jobs/Job_22'
p116
g90
sS'SUSYBBHToTauTau_M-500_8TeV-pythia6-tauola/Summer12_DR53X-PU_S10_START53_V7A-v1/AODSIM/PAT_CMG_V5_16_0_1377467573/HTT_24Jul_newTES_manzoni_Up_Jobs/Job_23'
p117
g90
sS'SUSYBBHToTauTau_M-500_8TeV-pythia6-tauola/Summer12_DR53X-PU_S10_START53_V7A-v1/AODSIM/PAT_CMG_V5_16_0_1377467573/HTT_24Jul_newTES_manzoni_Up_Jobs/Job_24'
p118
g90
sS'SUSYBBHToTauTau_M-500_8TeV-pythia6-tauola/Summer12_DR53X-PU_S10_START53_V7A-v1/AODSIM/PAT_CMG_V5_16_0_1377467573/HTT_24Jul_newTES_manzoni_Up_Jobs/Job_25'
p119
g90
sS'SUSYBBHToTauTau_M-500_8TeV-pythia6-tauola/Summer12_DR53X-PU_S10_START53_V7A-v1/AODSIM/PAT_CMG_V5_16_0_1377467573/HTT_24Jul_newTES_manzoni_Up_Jobs/Job_26'
p120
g90
sS'SUSYBBHToTauTau_M-500_8TeV-pythia6-tauola/Summer12_DR53X-PU_S10_START53_V7A-v1/AODSIM/PAT_CMG_V5_16_0_1377467573/HTT_24Jul_newTES_manzoni_Up_Jobs/Job_27'
p121
g90
sS'SUSYBBHToTauTau_M-500_8TeV-pythia6-tauola/Summer12_DR53X-PU_S10_START53_V7A-v1/AODSIM/PAT_CMG_V5_16_0_1377467573/HTT_24Jul_newTES_manzoni_Up_Jobs/Job_28'
p122
g90
sS'SUSYBBHToTauTau_M-500_8TeV-pythia6-tauola/Summer12_DR53X-PU_S10_START53_V7A-v1/AODSIM/PAT_CMG_V5_16_0_1377467573/HTT_24Jul_newTES_manzoni_Up_Jobs/Job_29'
p123
g90
sS'SUSYBBHToTauTau_M-500_8TeV-pythia6-tauola/Summer12_DR53X-PU_S10_START53_V7A-v1/AODSIM/PAT_CMG_V5_16_0_1377467573/HTT_24Jul_newTES_manzoni_Up_Jobs/Job_9'
p124
g90
sS'SUSYBBHToTauTau_M-500_8TeV-pythia6-tauola/Summer12_DR53X-PU_S10_START53_V7A-v1/AODSIM/PAT_CMG_V5_16_0_1377467573/HTT_24Jul_newTES_manzoni_Up_Jobs/Job_8'
p125
g90
sS'SUSYBBHToTauTau_M-500_8TeV-pythia6-tauola/Summer12_DR53X-PU_S10_START53_V7A-v1/AODSIM/PAT_CMG_V5_16_0_1377467573/HTT_24Jul_newTES_manzoni_Up_Jobs/Job_5'
p126
g90
sS'SUSYBBHToTauTau_M-500_8TeV-pythia6-tauola/Summer12_DR53X-PU_S10_START53_V7A-v1/AODSIM/PAT_CMG_V5_16_0_1377467573/HTT_24Jul_newTES_manzoni_Up_Jobs/Job_4'
p127
g90
sS'SUSYBBHToTauTau_M-500_8TeV-pythia6-tauola/Summer12_DR53X-PU_S10_START53_V7A-v1/AODSIM/PAT_CMG_V5_16_0_1377467573/HTT_24Jul_newTES_manzoni_Up_Jobs/Job_7'
p128
g90
sS'SUSYBBHToTauTau_M-500_8TeV-pythia6-tauola/Summer12_DR53X-PU_S10_START53_V7A-v1/AODSIM/PAT_CMG_V5_16_0_1377467573/HTT_24Jul_newTES_manzoni_Up_Jobs/Job_6'
p129
g90
sS'SUSYBBHToTauTau_M-500_8TeV-pythia6-tauola/Summer12_DR53X-PU_S10_START53_V7A-v1/AODSIM/PAT_CMG_V5_16_0_1377467573/HTT_24Jul_newTES_manzoni_Up_Jobs/Job_1'
p130
g90
sS'SUSYBBHToTauTau_M-500_8TeV-pythia6-tauola/Summer12_DR53X-PU_S10_START53_V7A-v1/AODSIM/PAT_CMG_V5_16_0_1377467573/HTT_24Jul_newTES_manzoni_Up_Jobs/Job_3'
p131
g90
sS'SUSYBBHToTauTau_M-500_8TeV-pythia6-tauola/Summer12_DR53X-PU_S10_START53_V7A-v1/AODSIM/PAT_CMG_V5_16_0_1377467573/HTT_24Jul_newTES_manzoni_Up_Jobs/Job_2'
p132
g90
sS'SUSYBBHToTauTau_M-500_8TeV-pythia6-tauola/Summer12_DR53X-PU_S10_START53_V7A-v1/AODSIM/PAT_CMG_V5_16_0_1377467573/HTT_24Jul_newTES_manzoni_Up_Jobs/Job_32'
p133
g90
sS'SUSYBBHToTauTau_M-500_8TeV-pythia6-tauola/Summer12_DR53X-PU_S10_START53_V7A-v1/AODSIM/PAT_CMG_V5_16_0_1377467573/HTT_24Jul_newTES_manzoni_Up_Jobs/Job_31'
p134
g90
sS'SUSYBBHToTauTau_M-500_8TeV-pythia6-tauola/Summer12_DR53X-PU_S10_START53_V7A-v1/AODSIM/PAT_CMG_V5_16_0_1377467573/HTT_24Jul_newTES_manzoni_Up_Jobs/Job_30'
p135
g90
sS'SUSYBBHToTauTau_M-500_8TeV-pythia6-tauola/Summer12_DR53X-PU_S10_START53_V7A-v1/AODSIM/PAT_CMG_V5_16_0_1377467573/HTT_24Jul_newTES_manzoni_Up_Jobs/Job_19'
p136
g90
sS'SUSYBBHToTauTau_M-500_8TeV-pythia6-tauola/Summer12_DR53X-PU_S10_START53_V7A-v1/AODSIM/PAT_CMG_V5_16_0_1377467573/HTT_24Jul_newTES_manzoni_Up_Jobs/Job_18'
p137
g90
sS'SUSYBBHToTauTau_M-500_8TeV-pythia6-tauola/Summer12_DR53X-PU_S10_START53_V7A-v1/AODSIM/PAT_CMG_V5_16_0_1377467573/HTT_24Jul_newTES_manzoni_Up_Jobs/Job_11'
p138
g90
sS'SUSYBBHToTauTau_M-500_8TeV-pythia6-tauola/Summer12_DR53X-PU_S10_START53_V7A-v1/AODSIM/PAT_CMG_V5_16_0_1377467573/HTT_24Jul_newTES_manzoni_Up_Jobs/Job_10'
p139
g90
sS'SUSYBBHToTauTau_M-500_8TeV-pythia6-tauola/Summer12_DR53X-PU_S10_START53_V7A-v1/AODSIM/PAT_CMG_V5_16_0_1377467573/HTT_24Jul_newTES_manzoni_Up_Jobs/Job_13'
p140
g90
sS'SUSYBBHToTauTau_M-500_8TeV-pythia6-tauola/Summer12_DR53X-PU_S10_START53_V7A-v1/AODSIM/PAT_CMG_V5_16_0_1377467573/HTT_24Jul_newTES_manzoni_Up_Jobs/Job_12'
p141
g90
sS'SUSYBBHToTauTau_M-500_8TeV-pythia6-tauola/Summer12_DR53X-PU_S10_START53_V7A-v1/AODSIM/PAT_CMG_V5_16_0_1377467573/HTT_24Jul_newTES_manzoni_Up_Jobs/Job_15'
p142
g90
sS'SUSYBBHToTauTau_M-500_8TeV-pythia6-tauola/Summer12_DR53X-PU_S10_START53_V7A-v1/AODSIM/PAT_CMG_V5_16_0_1377467573/HTT_24Jul_newTES_manzoni_Up_Jobs/Job_14'
p143
g90
sS'SUSYBBHToTauTau_M-500_8TeV-pythia6-tauola/Summer12_DR53X-PU_S10_START53_V7A-v1/AODSIM/PAT_CMG_V5_16_0_1377467573/HTT_24Jul_newTES_manzoni_Up_Jobs/Job_17'
p144
g90
sS'SUSYBBHToTauTau_M-500_8TeV-pythia6-tauola/Summer12_DR53X-PU_S10_START53_V7A-v1/AODSIM/PAT_CMG_V5_16_0_1377467573/HTT_24Jul_newTES_manzoni_Up_Jobs/Job_16'
p145
g90
sssS'CheckDatasetExists'
p146
(dp147
S'Dataset'
p148
S'/SUSYBBHToTauTau_M-500_8TeV-pythia6-tauola/Summer12_DR53X-PU_S10_START53_V7A-v1/AODSIM/PAT_CMG_V5_16_0'
p149
ssS'GenerateMask'
p150
(dp151
g3
(dp152
VPathList
p153
(lp154
V/store/cmst3/group/cmgtools/CMG/SUSYBBHToTauTau_M-500_8TeV-pythia6-tauola/Summer12_DR53X-PU_S10_START53_V7A-v1/AODSIM/PAT_CMG_V5_16_0
p155
asVStageHost
p156
Vcastorcms
p157
sVPrimaryDatasetFraction
p158
F0.94999879997119929
sVFilesGood
p159
I95
sVPrimaryDatasetEntries
p160
I999976
sVReportVersion
p161
I3
sVFiles
p162
(dp163
V/store/cmst3/group/cmgtools/CMG/SUSYBBHToTauTau_M-500_8TeV-pythia6-tauola/Summer12_DR53X-PU_S10_START53_V7A-v1/AODSIM/PAT_CMG_V5_16_0/cmgTuple_16_1_RNU.root
p164
(lp165
I01
aI10000
asV/store/cmst3/group/cmgtools/CMG/SUSYBBHToTauTau_M-500_8TeV-pythia6-tauola/Summer12_DR53X-PU_S10_START53_V7A-v1/AODSIM/PAT_CMG_V5_16_0/cmgTuple_31_1_VMw.root
p166
(lp167
I01
aI10000
asV/store/cmst3/group/cmgtools/CMG/SUSYBBHToTauTau_M-500_8TeV-pythia6-tauola/Summer12_DR53X-PU_S10_START53_V7A-v1/AODSIM/PAT_CMG_V5_16_0/cmgTuple_72_1_l8y.root
p168
(lp169
I01
aI10000
asV/store/cmst3/group/cmgtools/CMG/SUSYBBHToTauTau_M-500_8TeV-pythia6-tauola/Summer12_DR53X-PU_S10_START53_V7A-v1/AODSIM/PAT_CMG_V5_16_0/cmgTuple_50_1_llq.root
p170
(lp171
I01
aI10000
asV/store/cmst3/group/cmgtools/CMG/SUSYBBHToTauTau_M-500_8TeV-pythia6-tauola/Summer12_DR53X-PU_S10_START53_V7A-v1/AODSIM/PAT_CMG_V5_16_0/cmgTuple_18_1_S9d.root
p172
(lp173
I01
aI10000
asV/store/cmst3/group/cmgtools/CMG/SUSYBBHToTauTau_M-500_8TeV-pythia6-tauola/Summer12_DR53X-PU_S10_START53_V7A-v1/AODSIM/PAT_CMG_V5_16_0/cmgTuple_62_1_vV4.root
p174
(lp175
I01
aI10000
asV/store/cmst3/group/cmgtools/CMG/SUSYBBHToTauTau_M-500_8TeV-pythia6-tauola/Summer12_DR53X-PU_S10_START53_V7A-v1/AODSIM/PAT_CMG_V5_16_0/cmgTuple_78_1_Zdg.root
p176
(lp177
I01
aI10000
asV/store/cmst3/group/cmgtools/CMG/SUSYBBHToTauTau_M-500_8TeV-pythia6-tauola/Summer12_DR53X-PU_S10_START53_V7A-v1/AODSIM/PAT_CMG_V5_16_0/cmgTuple_41_1_o23.root
p178
(lp179
I01
aI10000
asV/store/cmst3/group/cmgtools/CMG/SUSYBBHToTauTau_M-500_8TeV-pythia6-tauola/Summer12_DR53X-PU_S10_START53_V7A-v1/AODSIM/PAT_CMG_V5_16_0/cmgTuple_32_1_dQv.root
p180
(lp181
I01
aI10000
asV/store/cmst3/group/cmgtools/CMG/SUSYBBHToTauTau_M-500_8TeV-pythia6-tauola/Summer12_DR53X-PU_S10_START53_V7A-v1/AODSIM/PAT_CMG_V5_16_0/cmgTuple_100_1_5K2.root
p182
(lp183
I01
aI9976
asV/store/cmst3/group/cmgtools/CMG/SUSYBBHToTauTau_M-500_8TeV-pythia6-tauola/Summer12_DR53X-PU_S10_START53_V7A-v1/AODSIM/PAT_CMG_V5_16_0/cmgTuple_40_1_FrS.root
p184
(lp185
I01
aI10000
asV/store/cmst3/group/cmgtools/CMG/SUSYBBHToTauTau_M-500_8TeV-pythia6-tauola/Summer12_DR53X-PU_S10_START53_V7A-v1/AODSIM/PAT_CMG_V5_16_0/cmgTuple_3_1_skH.root
p186
(lp187
I01
aI10000
asV/store/cmst3/group/cmgtools/CMG/SUSYBBHToTauTau_M-500_8TeV-pythia6-tauola/Summer12_DR53X-PU_S10_START53_V7A-v1/AODSIM/PAT_CMG_V5_16_0/cmgTuple_5_1_a1r.root
p188
(lp189
I01
aI10000
asV/store/cmst3/group/cmgtools/CMG/SUSYBBHToTauTau_M-500_8TeV-pythia6-tauola/Summer12_DR53X-PU_S10_START53_V7A-v1/AODSIM/PAT_CMG_V5_16_0/cmgTuple_25_1_ju1.root
p190
(lp191
I01
aI10000
asV/store/cmst3/group/cmgtools/CMG/SUSYBBHToTauTau_M-500_8TeV-pythia6-tauola/Summer12_DR53X-PU_S10_START53_V7A-v1/AODSIM/PAT_CMG_V5_16_0/cmgTuple_93_1_ICt.root
p192
(lp193
I01
aI10000
asV/store/cmst3/group/cmgtools/CMG/SUSYBBHToTauTau_M-500_8TeV-pythia6-tauola/Summer12_DR53X-PU_S10_START53_V7A-v1/AODSIM/PAT_CMG_V5_16_0/cmgTuple_69_1_s4z.root
p194
(lp195
I01
aI10000
asV/store/cmst3/group/cmgtools/CMG/SUSYBBHToTauTau_M-500_8TeV-pythia6-tauola/Summer12_DR53X-PU_S10_START53_V7A-v1/AODSIM/PAT_CMG_V5_16_0/cmgTuple_54_1_CU3.root
p196
(lp197
I01
aI10000
asV/store/cmst3/group/cmgtools/CMG/SUSYBBHToTauTau_M-500_8TeV-pythia6-tauola/Summer12_DR53X-PU_S10_START53_V7A-v1/AODSIM/PAT_CMG_V5_16_0/cmgTuple_44_1_Okn.root
p198
(lp199
I01
aI10000
asV/store/cmst3/group/cmgtools/CMG/SUSYBBHToTauTau_M-500_8TeV-pythia6-tauola/Summer12_DR53X-PU_S10_START53_V7A-v1/AODSIM/PAT_CMG_V5_16_0/cmgTuple_38_1_4Dg.root
p200
(lp201
I01
aI10000
asV/store/cmst3/group/cmgtools/CMG/SUSYBBHToTauTau_M-500_8TeV-pythia6-tauola/Summer12_DR53X-PU_S10_START53_V7A-v1/AODSIM/PAT_CMG_V5_16_0/cmgTuple_86_1_Odh.root
p202
(lp203
I01
aI10000
asV/store/cmst3/group/cmgtools/CMG/SUSYBBHToTauTau_M-500_8TeV-pythia6-tauola/Summer12_DR53X-PU_S10_START53_V7A-v1/AODSIM/PAT_CMG_V5_16_0/cmgTuple_53_1_VHW.root
p204
(lp205
I01
aI10000
asV/store/cmst3/group/cmgtools/CMG/SUSYBBHToTauTau_M-500_8TeV-pythia6-tauola/Summer12_DR53X-PU_S10_START53_V7A-v1/AODSIM/PAT_CMG_V5_16_0/cmgTuple_61_1_CW2.root
p206
(lp207
I01
aI10000
asV/store/cmst3/group/cmgtools/CMG/SUSYBBHToTauTau_M-500_8TeV-pythia6-tauola/Summer12_DR53X-PU_S10_START53_V7A-v1/AODSIM/PAT_CMG_V5_16_0/cmgTuple_82_1_zB8.root
p208
(lp209
I01
aI10000
asV/store/cmst3/group/cmgtools/CMG/SUSYBBHToTauTau_M-500_8TeV-pythia6-tauola/Summer12_DR53X-PU_S10_START53_V7A-v1/AODSIM/PAT_CMG_V5_16_0/cmgTuple_14_1_XKP.root
p210
(lp211
I01
aI10000
asV/store/cmst3/group/cmgtools/CMG/SUSYBBHToTauTau_M-500_8TeV-pythia6-tauola/Summer12_DR53X-PU_S10_START53_V7A-v1/AODSIM/PAT_CMG_V5_16_0/cmgTuple_42_1_VF0.root
p212
(lp213
I01
aI10000
asV/store/cmst3/group/cmgtools/CMG/SUSYBBHToTauTau_M-500_8TeV-pythia6-tauola/Summer12_DR53X-PU_S10_START53_V7A-v1/AODSIM/PAT_CMG_V5_16_0/cmgTuple_70_1_mqb.root
p214
(lp215
I01
aI10000
asV/store/cmst3/group/cmgtools/CMG/SUSYBBHToTauTau_M-500_8TeV-pythia6-tauola/Summer12_DR53X-PU_S10_START53_V7A-v1/AODSIM/PAT_CMG_V5_16_0/cmgTuple_76_1_w9c.root
p216
(lp217
I01
aI10000
asV/store/cmst3/group/cmgtools/CMG/SUSYBBHToTauTau_M-500_8TeV-pythia6-tauola/Summer12_DR53X-PU_S10_START53_V7A-v1/AODSIM/PAT_CMG_V5_16_0/cmgTuple_34_1_4OE.root
p218
(lp219
I01
aI10000
asV/store/cmst3/group/cmgtools/CMG/SUSYBBHToTauTau_M-500_8TeV-pythia6-tauola/Summer12_DR53X-PU_S10_START53_V7A-v1/AODSIM/PAT_CMG_V5_16_0/cmgTuple_39_1_dWx.root
p220
(lp221
I01
aI10000
asV/store/cmst3/group/cmgtools/CMG/SUSYBBHToTauTau_M-500_8TeV-pythia6-tauola/Summer12_DR53X-PU_S10_START53_V7A-v1/AODSIM/PAT_CMG_V5_16_0/cmgTuple_15_1_LA8.root
p222
(lp223
I01
aI10000
asV/store/cmst3/group/cmgtools/CMG/SUSYBBHToTauTau_M-500_8TeV-pythia6-tauola/Summer12_DR53X-PU_S10_START53_V7A-v1/AODSIM/PAT_CMG_V5_16_0/cmgTuple_36_1_q9V.root
p224
(lp225
I01
aI10000
asV/store/cmst3/group/cmgtools/CMG/SUSYBBHToTauTau_M-500_8TeV-pythia6-tauola/Summer12_DR53X-PU_S10_START53_V7A-v1/AODSIM/PAT_CMG_V5_16_0/cmgTuple_56_1_u4N.root
p226
(lp227
I01
aI10000
asV/store/cmst3/group/cmgtools/CMG/SUSYBBHToTauTau_M-500_8TeV-pythia6-tauola/Summer12_DR53X-PU_S10_START53_V7A-v1/AODSIM/PAT_CMG_V5_16_0/cmgTuple_77_1_hNs.root
p228
(lp229
I01
aI10000
asV/store/cmst3/group/cmgtools/CMG/SUSYBBHToTauTau_M-500_8TeV-pythia6-tauola/Summer12_DR53X-PU_S10_START53_V7A-v1/AODSIM/PAT_CMG_V5_16_0/cmgTuple_95_1_EWN.root
p230
(lp231
I01
aI10000
asV/store/cmst3/group/cmgtools/CMG/SUSYBBHToTauTau_M-500_8TeV-pythia6-tauola/Summer12_DR53X-PU_S10_START53_V7A-v1/AODSIM/PAT_CMG_V5_16_0/cmgTuple_55_1_3vM.root
p232
(lp233
I01
aI10000
asV/store/cmst3/group/cmgtools/CMG/SUSYBBHToTauTau_M-500_8TeV-pythia6-tauola/Summer12_DR53X-PU_S10_START53_V7A-v1/AODSIM/PAT_CMG_V5_16_0/cmgTuple_79_1_544.root
p234
(lp235
I01
aI10000
asV/store/cmst3/group/cmgtools/CMG/SUSYBBHToTauTau_M-500_8TeV-pythia6-tauola/Summer12_DR53X-PU_S10_START53_V7A-v1/AODSIM/PAT_CMG_V5_16_0/cmgTuple_49_1_gIa.root
p236
(lp237
I01
aI10000
asV/store/cmst3/group/cmgtools/CMG/SUSYBBHToTauTau_M-500_8TeV-pythia6-tauola/Summer12_DR53X-PU_S10_START53_V7A-v1/AODSIM/PAT_CMG_V5_16_0/cmgTuple_35_1_rxz.root
p238
(lp239
I01
aI10000
asV/store/cmst3/group/cmgtools/CMG/SUSYBBHToTauTau_M-500_8TeV-pythia6-tauola/Summer12_DR53X-PU_S10_START53_V7A-v1/AODSIM/PAT_CMG_V5_16_0/cmgTuple_92_1_Sj1.root
p240
(lp241
I01
aI10000
asV/store/cmst3/group/cmgtools/CMG/SUSYBBHToTauTau_M-500_8TeV-pythia6-tauola/Summer12_DR53X-PU_S10_START53_V7A-v1/AODSIM/PAT_CMG_V5_16_0/cmgTuple_60_1_FEN.root
p242
(lp243
I01
aI10000
asV/store/cmst3/group/cmgtools/CMG/SUSYBBHToTauTau_M-500_8TeV-pythia6-tauola/Summer12_DR53X-PU_S10_START53_V7A-v1/AODSIM/PAT_CMG_V5_16_0/cmgTuple_19_1_mmb.root
p244
(lp245
I01
aI10000
asV/store/cmst3/group/cmgtools/CMG/SUSYBBHToTauTau_M-500_8TeV-pythia6-tauola/Summer12_DR53X-PU_S10_START53_V7A-v1/AODSIM/PAT_CMG_V5_16_0/cmgTuple_63_1_8jp.root
p246
(lp247
I01
aI10000
asV/store/cmst3/group/cmgtools/CMG/SUSYBBHToTauTau_M-500_8TeV-pythia6-tauola/Summer12_DR53X-PU_S10_START53_V7A-v1/AODSIM/PAT_CMG_V5_16_0/cmgTuple_47_1_8mW.root
p248
(lp249
I01
aI10000
asV/store/cmst3/group/cmgtools/CMG/SUSYBBHToTauTau_M-500_8TeV-pythia6-tauola/Summer12_DR53X-PU_S10_START53_V7A-v1/AODSIM/PAT_CMG_V5_16_0/cmgTuple_90_1_F5O.root
p250
(lp251
I01
aI10000
asV/store/cmst3/group/cmgtools/CMG/SUSYBBHToTauTau_M-500_8TeV-pythia6-tauola/Summer12_DR53X-PU_S10_START53_V7A-v1/AODSIM/PAT_CMG_V5_16_0/cmgTuple_51_1_xz7.root
p252
(lp253
I01
aI10000
asV/store/cmst3/group/cmgtools/CMG/SUSYBBHToTauTau_M-500_8TeV-pythia6-tauola/Summer12_DR53X-PU_S10_START53_V7A-v1/AODSIM/PAT_CMG_V5_16_0/cmgTuple_97_1_SVl.root
p254
(lp255
I01
aI10000
asV/store/cmst3/group/cmgtools/CMG/SUSYBBHToTauTau_M-500_8TeV-pythia6-tauola/Summer12_DR53X-PU_S10_START53_V7A-v1/AODSIM/PAT_CMG_V5_16_0/cmgTuple_68_1_Dc8.root
p256
(lp257
I01
aI10000
asV/store/cmst3/group/cmgtools/CMG/SUSYBBHToTauTau_M-500_8TeV-pythia6-tauola/Summer12_DR53X-PU_S10_START53_V7A-v1/AODSIM/PAT_CMG_V5_16_0/cmgTuple_91_1_any.root
p258
(lp259
I01
aI10000
asV/store/cmst3/group/cmgtools/CMG/SUSYBBHToTauTau_M-500_8TeV-pythia6-tauola/Summer12_DR53X-PU_S10_START53_V7A-v1/AODSIM/PAT_CMG_V5_16_0/cmgTuple_48_1_mMj.root
p260
(lp261
I01
aI10000
asV/store/cmst3/group/cmgtools/CMG/SUSYBBHToTauTau_M-500_8TeV-pythia6-tauola/Summer12_DR53X-PU_S10_START53_V7A-v1/AODSIM/PAT_CMG_V5_16_0/cmgTuple_27_1_UON.root
p262
(lp263
I01
aI10000
asV/store/cmst3/group/cmgtools/CMG/SUSYBBHToTauTau_M-500_8TeV-pythia6-tauola/Summer12_DR53X-PU_S10_START53_V7A-v1/AODSIM/PAT_CMG_V5_16_0/cmgTuple_52_1_F27.root
p264
(lp265
I01
aI10000
asV/store/cmst3/group/cmgtools/CMG/SUSYBBHToTauTau_M-500_8TeV-pythia6-tauola/Summer12_DR53X-PU_S10_START53_V7A-v1/AODSIM/PAT_CMG_V5_16_0/cmgTuple_67_1_LZG.root
p266
(lp267
I01
aI10000
asV/store/cmst3/group/cmgtools/CMG/SUSYBBHToTauTau_M-500_8TeV-pythia6-tauola/Summer12_DR53X-PU_S10_START53_V7A-v1/AODSIM/PAT_CMG_V5_16_0/cmgTuple_83_1_QAG.root
p268
(lp269
I01
aI10000
asV/store/cmst3/group/cmgtools/CMG/SUSYBBHToTauTau_M-500_8TeV-pythia6-tauola/Summer12_DR53X-PU_S10_START53_V7A-v1/AODSIM/PAT_CMG_V5_16_0/cmgTuple_17_1_GGr.root
p270
(lp271
I01
aI10000
asV/store/cmst3/group/cmgtools/CMG/SUSYBBHToTauTau_M-500_8TeV-pythia6-tauola/Summer12_DR53X-PU_S10_START53_V7A-v1/AODSIM/PAT_CMG_V5_16_0/cmgTuple_98_1_tc2.root
p272
(lp273
I01
aI10000
asV/store/cmst3/group/cmgtools/CMG/SUSYBBHToTauTau_M-500_8TeV-pythia6-tauola/Summer12_DR53X-PU_S10_START53_V7A-v1/AODSIM/PAT_CMG_V5_16_0/cmgTuple_59_1_67t.root
p274
(lp275
I01
aI10000
asV/store/cmst3/group/cmgtools/CMG/SUSYBBHToTauTau_M-500_8TeV-pythia6-tauola/Summer12_DR53X-PU_S10_START53_V7A-v1/AODSIM/PAT_CMG_V5_16_0/cmgTuple_21_1_jqV.root
p276
(lp277
I01
aI10000
asV/store/cmst3/group/cmgtools/CMG/SUSYBBHToTauTau_M-500_8TeV-pythia6-tauola/Summer12_DR53X-PU_S10_START53_V7A-v1/AODSIM/PAT_CMG_V5_16_0/cmgTuple_89_1_9Rr.root
p278
(lp279
I01
aI10000
asV/store/cmst3/group/cmgtools/CMG/SUSYBBHToTauTau_M-500_8TeV-pythia6-tauola/Summer12_DR53X-PU_S10_START53_V7A-v1/AODSIM/PAT_CMG_V5_16_0/cmgTuple_99_1_vgz.root
p280
(lp281
I01
aI10000
asV/store/cmst3/group/cmgtools/CMG/SUSYBBHToTauTau_M-500_8TeV-pythia6-tauola/Summer12_DR53X-PU_S10_START53_V7A-v1/AODSIM/PAT_CMG_V5_16_0/cmgTuple_74_1_Jzs.root
p282
(lp283
I01
aI10000
asV/store/cmst3/group/cmgtools/CMG/SUSYBBHToTauTau_M-500_8TeV-pythia6-tauola/Summer12_DR53X-PU_S10_START53_V7A-v1/AODSIM/PAT_CMG_V5_16_0/cmgTuple_75_1_Sks.root
p284
(lp285
I01
aI10000
asV/store/cmst3/group/cmgtools/CMG/SUSYBBHToTauTau_M-500_8TeV-pythia6-tauola/Summer12_DR53X-PU_S10_START53_V7A-v1/AODSIM/PAT_CMG_V5_16_0/cmgTuple_66_1_8Aq.root
p286
(lp287
I01
aI10000
asV/store/cmst3/group/cmgtools/CMG/SUSYBBHToTauTau_M-500_8TeV-pythia6-tauola/Summer12_DR53X-PU_S10_START53_V7A-v1/AODSIM/PAT_CMG_V5_16_0/cmgTuple_43_1_Irz.root
p288
(lp289
I01
aI10000
asV/store/cmst3/group/cmgtools/CMG/SUSYBBHToTauTau_M-500_8TeV-pythia6-tauola/Summer12_DR53X-PU_S10_START53_V7A-v1/AODSIM/PAT_CMG_V5_16_0/cmgTuple_96_1_2XE.root
p290
(lp291
I01
aI10000
asV/store/cmst3/group/cmgtools/CMG/SUSYBBHToTauTau_M-500_8TeV-pythia6-tauola/Summer12_DR53X-PU_S10_START53_V7A-v1/AODSIM/PAT_CMG_V5_16_0/cmgTuple_88_1_MkB.root
p292
(lp293
I01
aI10000
asV/store/cmst3/group/cmgtools/CMG/SUSYBBHToTauTau_M-500_8TeV-pythia6-tauola/Summer12_DR53X-PU_S10_START53_V7A-v1/AODSIM/PAT_CMG_V5_16_0/cmgTuple_6_1_PzB.root
p294
(lp295
I01
aI10000
asV/store/cmst3/group/cmgtools/CMG/SUSYBBHToTauTau_M-500_8TeV-pythia6-tauola/Summer12_DR53X-PU_S10_START53_V7A-v1/AODSIM/PAT_CMG_V5_16_0/cmgTuple_87_1_OrX.root
p296
(lp297
I01
aI10000
asV/store/cmst3/group/cmgtools/CMG/SUSYBBHToTauTau_M-500_8TeV-pythia6-tauola/Summer12_DR53X-PU_S10_START53_V7A-v1/AODSIM/PAT_CMG_V5_16_0/cmgTuple_57_1_BWH.root
p298
(lp299
I01
aI10000
asV/store/cmst3/group/cmgtools/CMG/SUSYBBHToTauTau_M-500_8TeV-pythia6-tauola/Summer12_DR53X-PU_S10_START53_V7A-v1/AODSIM/PAT_CMG_V5_16_0/cmgTuple_37_1_A7X.root
p300
(lp301
I01
aI10000
asV/store/cmst3/group/cmgtools/CMG/SUSYBBHToTauTau_M-500_8TeV-pythia6-tauola/Summer12_DR53X-PU_S10_START53_V7A-v1/AODSIM/PAT_CMG_V5_16_0/cmgTuple_26_1_7UW.root
p302
(lp303
I01
aI10000
asV/store/cmst3/group/cmgtools/CMG/SUSYBBHToTauTau_M-500_8TeV-pythia6-tauola/Summer12_DR53X-PU_S10_START53_V7A-v1/AODSIM/PAT_CMG_V5_16_0/cmgTuple_2_1_eow.root
p304
(lp305
I01
aI10000
asV/store/cmst3/group/cmgtools/CMG/SUSYBBHToTauTau_M-500_8TeV-pythia6-tauola/Summer12_DR53X-PU_S10_START53_V7A-v1/AODSIM/PAT_CMG_V5_16_0/cmgTuple_58_1_PTm.root
p306
(lp307
I01
aI10000
asV/store/cmst3/group/cmgtools/CMG/SUSYBBHToTauTau_M-500_8TeV-pythia6-tauola/Summer12_DR53X-PU_S10_START53_V7A-v1/AODSIM/PAT_CMG_V5_16_0/cmgTuple_45_1_niC.root
p308
(lp309
I01
aI10000
asV/store/cmst3/group/cmgtools/CMG/SUSYBBHToTauTau_M-500_8TeV-pythia6-tauola/Summer12_DR53X-PU_S10_START53_V7A-v1/AODSIM/PAT_CMG_V5_16_0/cmgTuple_7_1_QO6.root
p310
(lp311
I01
aI10000
asV/store/cmst3/group/cmgtools/CMG/SUSYBBHToTauTau_M-500_8TeV-pythia6-tauola/Summer12_DR53X-PU_S10_START53_V7A-v1/AODSIM/PAT_CMG_V5_16_0/cmgTuple_24_1_uIA.root
p312
(lp313
I01
aI10000
asV/store/cmst3/group/cmgtools/CMG/SUSYBBHToTauTau_M-500_8TeV-pythia6-tauola/Summer12_DR53X-PU_S10_START53_V7A-v1/AODSIM/PAT_CMG_V5_16_0/cmgTuple_80_1_8XB.root
p314
(lp315
I01
aI10000
asV/store/cmst3/group/cmgtools/CMG/SUSYBBHToTauTau_M-500_8TeV-pythia6-tauola/Summer12_DR53X-PU_S10_START53_V7A-v1/AODSIM/PAT_CMG_V5_16_0/cmgTuple_22_1_IFd.root
p316
(lp317
I01
aI10000
asV/store/cmst3/group/cmgtools/CMG/SUSYBBHToTauTau_M-500_8TeV-pythia6-tauola/Summer12_DR53X-PU_S10_START53_V7A-v1/AODSIM/PAT_CMG_V5_16_0/cmgTuple_8_1_v0R.root
p318
(lp319
I01
aI10000
asV/store/cmst3/group/cmgtools/CMG/SUSYBBHToTauTau_M-500_8TeV-pythia6-tauola/Summer12_DR53X-PU_S10_START53_V7A-v1/AODSIM/PAT_CMG_V5_16_0/cmgTuple_94_1_wH7.root
p320
(lp321
I01
aI10000
asV/store/cmst3/group/cmgtools/CMG/SUSYBBHToTauTau_M-500_8TeV-pythia6-tauola/Summer12_DR53X-PU_S10_START53_V7A-v1/AODSIM/PAT_CMG_V5_16_0/cmgTuple_12_1_NE6.root
p322
(lp323
I01
aI10000
asV/store/cmst3/group/cmgtools/CMG/SUSYBBHToTauTau_M-500_8TeV-pythia6-tauola/Summer12_DR53X-PU_S10_START53_V7A-v1/AODSIM/PAT_CMG_V5_16_0/cmgTuple_33_1_3FC.root
p324
(lp325
I01
aI10000
asV/store/cmst3/group/cmgtools/CMG/SUSYBBHToTauTau_M-500_8TeV-pythia6-tauola/Summer12_DR53X-PU_S10_START53_V7A-v1/AODSIM/PAT_CMG_V5_16_0/cmgTuple_84_1_V3E.root
p326
(lp327
I01
aI10000
asV/store/cmst3/group/cmgtools/CMG/SUSYBBHToTauTau_M-500_8TeV-pythia6-tauola/Summer12_DR53X-PU_S10_START53_V7A-v1/AODSIM/PAT_CMG_V5_16_0/cmgTuple_71_1_zuZ.root
p328
(lp329
I01
aI10000
asV/store/cmst3/group/cmgtools/CMG/SUSYBBHToTauTau_M-500_8TeV-pythia6-tauola/Summer12_DR53X-PU_S10_START53_V7A-v1/AODSIM/PAT_CMG_V5_16_0/cmgTuple_9_1_xii.root
p330
(lp331
I01
aI10000
asV/store/cmst3/group/cmgtools/CMG/SUSYBBHToTauTau_M-500_8TeV-pythia6-tauola/Summer12_DR53X-PU_S10_START53_V7A-v1/AODSIM/PAT_CMG_V5_16_0/cmgTuple_29_1_8Ba.root
p332
(lp333
I01
aI10000
asV/store/cmst3/group/cmgtools/CMG/SUSYBBHToTauTau_M-500_8TeV-pythia6-tauola/Summer12_DR53X-PU_S10_START53_V7A-v1/AODSIM/PAT_CMG_V5_16_0/cmgTuple_65_1_SWI.root
p334
(lp335
I01
aI10000
asV/store/cmst3/group/cmgtools/CMG/SUSYBBHToTauTau_M-500_8TeV-pythia6-tauola/Summer12_DR53X-PU_S10_START53_V7A-v1/AODSIM/PAT_CMG_V5_16_0/cmgTuple_73_1_sdQ.root
p336
(lp337
I01
aI10000
asV/store/cmst3/group/cmgtools/CMG/SUSYBBHToTauTau_M-500_8TeV-pythia6-tauola/Summer12_DR53X-PU_S10_START53_V7A-v1/AODSIM/PAT_CMG_V5_16_0/cmgTuple_4_1_tJt.root
p338
(lp339
I01
aI10000
asV/store/cmst3/group/cmgtools/CMG/SUSYBBHToTauTau_M-500_8TeV-pythia6-tauola/Summer12_DR53X-PU_S10_START53_V7A-v1/AODSIM/PAT_CMG_V5_16_0/cmgTuple_23_1_CVA.root
p340
(lp341
I01
aI10000
asV/store/cmst3/group/cmgtools/CMG/SUSYBBHToTauTau_M-500_8TeV-pythia6-tauola/Summer12_DR53X-PU_S10_START53_V7A-v1/AODSIM/PAT_CMG_V5_16_0/cmgTuple_13_1_Q9L.root
p342
(lp343
I01
aI10000
asV/store/cmst3/group/cmgtools/CMG/SUSYBBHToTauTau_M-500_8TeV-pythia6-tauola/Summer12_DR53X-PU_S10_START53_V7A-v1/AODSIM/PAT_CMG_V5_16_0/cmgTuple_10_1_Rd9.root
p344
(lp345
I01
aI10000
asV/store/cmst3/group/cmgtools/CMG/SUSYBBHToTauTau_M-500_8TeV-pythia6-tauola/Summer12_DR53X-PU_S10_START53_V7A-v1/AODSIM/PAT_CMG_V5_16_0/cmgTuple_81_1_gWj.root
p346
(lp347
I01
aI10000
asV/store/cmst3/group/cmgtools/CMG/SUSYBBHToTauTau_M-500_8TeV-pythia6-tauola/Summer12_DR53X-PU_S10_START53_V7A-v1/AODSIM/PAT_CMG_V5_16_0/cmgTuple_46_1_EZJ.root
p348
(lp349
I01
aI10000
asV/store/cmst3/group/cmgtools/CMG/SUSYBBHToTauTau_M-500_8TeV-pythia6-tauola/Summer12_DR53X-PU_S10_START53_V7A-v1/AODSIM/PAT_CMG_V5_16_0/cmgTuple_28_1_FhH.root
p350
(lp351
I01
aI10000
asV/store/cmst3/group/cmgtools/CMG/SUSYBBHToTauTau_M-500_8TeV-pythia6-tauola/Summer12_DR53X-PU_S10_START53_V7A-v1/AODSIM/PAT_CMG_V5_16_0/cmgTuple_85_1_Pse.root
p352
(lp353
I01
aI10000
assVPhysicsGroup
p354
VCMG
p355
sVFilesCount
p356
I95
sVFilesEntries
p357
I949976
sVRunList
p358
(lp359
sVValidDuplicates
p360
(dp361
sVPrimaryDataset
p362
V/SUSYBBHToTauTau_M-500_8TeV-pythia6-tauola/Summer12_DR53X-PU_S10_START53_V7A-v1/AODSIM
p363
sVStatus
p364
VVALID
p365
sVName
p366
V/SUSYBBHToTauTau_M-500_8TeV-pythia6-tauola/Summer12_DR53X-PU_S10_START53_V7A-v1/AODSIM/PAT_CMG_V5_16_0
p367
sVTopdir
p368
V/eos/cms/store/cmst3/group/cmgtools/CMG
p369
sVdata
p370
(dp371
sVFilesBad
p372
I0
sVMinRun
p373
I-1
sVAlgoList
p374
(lp375
sVTierList
p376
(lp377
sVDateCreated
p378
V1371077171
p379
sVCreatedBy
p380
Vcmgtools_group
p381
sVMaxRun
p382
I-1
sVBadJobs
p383
(lp384
I11
aI20
aI30
aI64
assg111
I01
ssS'MonitorJobs'
p385
(dp386
S'LSFJobStatus'
p387
(dp388
g114
S'SUSYBBHToTauTau_M-500_8TeV-pythia6-tauola/Summer12_DR53X-PU_S10_START53_V7A-v1/AODSIM/PAT_CMG_V5_16_0_1377467573/HTT_24Jul_newTES_manzoni_Up_Jobs/Job_20/LSFJOB_440973599/STDOUT.gz'
p389
sg115
S'SUSYBBHToTauTau_M-500_8TeV-pythia6-tauola/Summer12_DR53X-PU_S10_START53_V7A-v1/AODSIM/PAT_CMG_V5_16_0_1377467573/HTT_24Jul_newTES_manzoni_Up_Jobs/Job_21/LSFJOB_440973671/STDOUT.gz'
p390
sg116
S'SUSYBBHToTauTau_M-500_8TeV-pythia6-tauola/Summer12_DR53X-PU_S10_START53_V7A-v1/AODSIM/PAT_CMG_V5_16_0_1377467573/HTT_24Jul_newTES_manzoni_Up_Jobs/Job_22/LSFJOB_440973733/STDOUT.gz'
p391
sg117
S'SUSYBBHToTauTau_M-500_8TeV-pythia6-tauola/Summer12_DR53X-PU_S10_START53_V7A-v1/AODSIM/PAT_CMG_V5_16_0_1377467573/HTT_24Jul_newTES_manzoni_Up_Jobs/Job_23/LSFJOB_440973806/STDOUT.gz'
p392
sg118
S'SUSYBBHToTauTau_M-500_8TeV-pythia6-tauola/Summer12_DR53X-PU_S10_START53_V7A-v1/AODSIM/PAT_CMG_V5_16_0_1377467573/HTT_24Jul_newTES_manzoni_Up_Jobs/Job_24/LSFJOB_440973873/STDOUT.gz'
p393
sg119
S'SUSYBBHToTauTau_M-500_8TeV-pythia6-tauola/Summer12_DR53X-PU_S10_START53_V7A-v1/AODSIM/PAT_CMG_V5_16_0_1377467573/HTT_24Jul_newTES_manzoni_Up_Jobs/Job_25/LSFJOB_440973964/STDOUT.gz'
p394
sg120
S'SUSYBBHToTauTau_M-500_8TeV-pythia6-tauola/Summer12_DR53X-PU_S10_START53_V7A-v1/AODSIM/PAT_CMG_V5_16_0_1377467573/HTT_24Jul_newTES_manzoni_Up_Jobs/Job_26/LSFJOB_440974064/STDOUT.gz'
p395
sg121
S'SUSYBBHToTauTau_M-500_8TeV-pythia6-tauola/Summer12_DR53X-PU_S10_START53_V7A-v1/AODSIM/PAT_CMG_V5_16_0_1377467573/HTT_24Jul_newTES_manzoni_Up_Jobs/Job_27/LSFJOB_440974153/STDOUT.gz'
p396
sg122
S'SUSYBBHToTauTau_M-500_8TeV-pythia6-tauola/Summer12_DR53X-PU_S10_START53_V7A-v1/AODSIM/PAT_CMG_V5_16_0_1377467573/HTT_24Jul_newTES_manzoni_Up_Jobs/Job_28/LSFJOB_440974205/STDOUT.gz'
p397
sg123
S'SUSYBBHToTauTau_M-500_8TeV-pythia6-tauola/Summer12_DR53X-PU_S10_START53_V7A-v1/AODSIM/PAT_CMG_V5_16_0_1377467573/HTT_24Jul_newTES_manzoni_Up_Jobs/Job_29/LSFJOB_440974253/STDOUT.gz'
p398
sg124
S'SUSYBBHToTauTau_M-500_8TeV-pythia6-tauola/Summer12_DR53X-PU_S10_START53_V7A-v1/AODSIM/PAT_CMG_V5_16_0_1377467573/HTT_24Jul_newTES_manzoni_Up_Jobs/Job_9/LSFJOB_440972649/STDOUT.gz'
p399
sg125
S'SUSYBBHToTauTau_M-500_8TeV-pythia6-tauola/Summer12_DR53X-PU_S10_START53_V7A-v1/AODSIM/PAT_CMG_V5_16_0_1377467573/HTT_24Jul_newTES_manzoni_Up_Jobs/Job_8/LSFJOB_440972561/STDOUT.gz'
p400
sg126
S'SUSYBBHToTauTau_M-500_8TeV-pythia6-tauola/Summer12_DR53X-PU_S10_START53_V7A-v1/AODSIM/PAT_CMG_V5_16_0_1377467573/HTT_24Jul_newTES_manzoni_Up_Jobs/Job_5/LSFJOB_440972270/STDOUT.gz'
p401
sg127
S'SUSYBBHToTauTau_M-500_8TeV-pythia6-tauola/Summer12_DR53X-PU_S10_START53_V7A-v1/AODSIM/PAT_CMG_V5_16_0_1377467573/HTT_24Jul_newTES_manzoni_Up_Jobs/Job_4/LSFJOB_440972177/STDOUT.gz'
p402
sg128
S'SUSYBBHToTauTau_M-500_8TeV-pythia6-tauola/Summer12_DR53X-PU_S10_START53_V7A-v1/AODSIM/PAT_CMG_V5_16_0_1377467573/HTT_24Jul_newTES_manzoni_Up_Jobs/Job_7/LSFJOB_440972471/STDOUT.gz'
p403
sg129
S'SUSYBBHToTauTau_M-500_8TeV-pythia6-tauola/Summer12_DR53X-PU_S10_START53_V7A-v1/AODSIM/PAT_CMG_V5_16_0_1377467573/HTT_24Jul_newTES_manzoni_Up_Jobs/Job_6/LSFJOB_440972365/STDOUT.gz'
p404
sg130
S'SUSYBBHToTauTau_M-500_8TeV-pythia6-tauola/Summer12_DR53X-PU_S10_START53_V7A-v1/AODSIM/PAT_CMG_V5_16_0_1377467573/HTT_24Jul_newTES_manzoni_Up_Jobs/Job_1/LSFJOB_440971930/STDOUT.gz'
p405
sg131
S'SUSYBBHToTauTau_M-500_8TeV-pythia6-tauola/Summer12_DR53X-PU_S10_START53_V7A-v1/AODSIM/PAT_CMG_V5_16_0_1377467573/HTT_24Jul_newTES_manzoni_Up_Jobs/Job_3/LSFJOB_440972082/STDOUT.gz'
p406
sg132
S'SUSYBBHToTauTau_M-500_8TeV-pythia6-tauola/Summer12_DR53X-PU_S10_START53_V7A-v1/AODSIM/PAT_CMG_V5_16_0_1377467573/HTT_24Jul_newTES_manzoni_Up_Jobs/Job_2/LSFJOB_440972021/STDOUT.gz'
p407
sg133
S'SUSYBBHToTauTau_M-500_8TeV-pythia6-tauola/Summer12_DR53X-PU_S10_START53_V7A-v1/AODSIM/PAT_CMG_V5_16_0_1377467573/HTT_24Jul_newTES_manzoni_Up_Jobs/Job_32/LSFJOB_440974405/STDOUT.gz'
p408
sg134
S'SUSYBBHToTauTau_M-500_8TeV-pythia6-tauola/Summer12_DR53X-PU_S10_START53_V7A-v1/AODSIM/PAT_CMG_V5_16_0_1377467573/HTT_24Jul_newTES_manzoni_Up_Jobs/Job_31/LSFJOB_440974368/STDOUT.gz'
p409
sg135
S'SUSYBBHToTauTau_M-500_8TeV-pythia6-tauola/Summer12_DR53X-PU_S10_START53_V7A-v1/AODSIM/PAT_CMG_V5_16_0_1377467573/HTT_24Jul_newTES_manzoni_Up_Jobs/Job_30/LSFJOB_440974318/STDOUT.gz'
p410
sg136
S'SUSYBBHToTauTau_M-500_8TeV-pythia6-tauola/Summer12_DR53X-PU_S10_START53_V7A-v1/AODSIM/PAT_CMG_V5_16_0_1377467573/HTT_24Jul_newTES_manzoni_Up_Jobs/Job_19/LSFJOB_440973515/STDOUT.gz'
p411
sg137
S'SUSYBBHToTauTau_M-500_8TeV-pythia6-tauola/Summer12_DR53X-PU_S10_START53_V7A-v1/AODSIM/PAT_CMG_V5_16_0_1377467573/HTT_24Jul_newTES_manzoni_Up_Jobs/Job_18/LSFJOB_440973423/STDOUT.gz'
p412
sg138
S'SUSYBBHToTauTau_M-500_8TeV-pythia6-tauola/Summer12_DR53X-PU_S10_START53_V7A-v1/AODSIM/PAT_CMG_V5_16_0_1377467573/HTT_24Jul_newTES_manzoni_Up_Jobs/Job_11/LSFJOB_440972833/STDOUT.gz'
p413
sg139
S'SUSYBBHToTauTau_M-500_8TeV-pythia6-tauola/Summer12_DR53X-PU_S10_START53_V7A-v1/AODSIM/PAT_CMG_V5_16_0_1377467573/HTT_24Jul_newTES_manzoni_Up_Jobs/Job_10/LSFJOB_440972706/STDOUT.gz'
p414
sg140
S'SUSYBBHToTauTau_M-500_8TeV-pythia6-tauola/Summer12_DR53X-PU_S10_START53_V7A-v1/AODSIM/PAT_CMG_V5_16_0_1377467573/HTT_24Jul_newTES_manzoni_Up_Jobs/Job_13/LSFJOB_440973036/STDOUT.gz'
p415
sg141
S'SUSYBBHToTauTau_M-500_8TeV-pythia6-tauola/Summer12_DR53X-PU_S10_START53_V7A-v1/AODSIM/PAT_CMG_V5_16_0_1377467573/HTT_24Jul_newTES_manzoni_Up_Jobs/Job_12/LSFJOB_440972936/STDOUT.gz'
p416
sg142
S'SUSYBBHToTauTau_M-500_8TeV-pythia6-tauola/Summer12_DR53X-PU_S10_START53_V7A-v1/AODSIM/PAT_CMG_V5_16_0_1377467573/HTT_24Jul_newTES_manzoni_Up_Jobs/Job_15/LSFJOB_440973195/STDOUT.gz'
p417
sg143
S'SUSYBBHToTauTau_M-500_8TeV-pythia6-tauola/Summer12_DR53X-PU_S10_START53_V7A-v1/AODSIM/PAT_CMG_V5_16_0_1377467573/HTT_24Jul_newTES_manzoni_Up_Jobs/Job_14/LSFJOB_440973113/STDOUT.gz'
p418
sg144
S'SUSYBBHToTauTau_M-500_8TeV-pythia6-tauola/Summer12_DR53X-PU_S10_START53_V7A-v1/AODSIM/PAT_CMG_V5_16_0_1377467573/HTT_24Jul_newTES_manzoni_Up_Jobs/Job_17/LSFJOB_440973362/STDOUT.gz'
p419
sg145
S'SUSYBBHToTauTau_M-500_8TeV-pythia6-tauola/Summer12_DR53X-PU_S10_START53_V7A-v1/AODSIM/PAT_CMG_V5_16_0_1377467573/HTT_24Jul_newTES_manzoni_Up_Jobs/Job_16/LSFJOB_440973283/STDOUT.gz'
p420
ssS'LSFJobIDs'
p421
(dp422
g114
S'440973599'
p423
sg115
S'440973671'
p424
sg116
S'440973733'
p425
sg117
S'440973806'
p426
sg118
S'440973873'
p427
sg119
S'440973964'
p428
sg120
S'440974064'
p429
sg121
S'440974153'
p430
sg122
S'440974205'
p431
sg123
S'440974253'
p432
sg124
S'440972649'
p433
sg125
S'440972561'
p434
sg126
S'440972270'
p435
sg127
S'440972177'
p436
sg128
S'440972471'
p437
sg129
S'440972365'
p438
sg130
S'440971930'
p439
sg131
S'440972082'
p440
sg132
S'440972021'
p441
sg133
S'440974405'
p442
sg134
S'440974368'
p443
sg135
S'440974318'
p444
sg136
S'440973515'
p445
sg137
S'440973423'
p446
sg138
S'440972833'
p447
sg139
S'440972706'
p448
sg140
S'440973036'
p449
sg141
S'440972936'
p450
sg142
S'440973195'
p451
sg143
S'440973113'
p452
sg144
S'440973362'
p453
sg145
S'440973283'
p454
sssS'FindOnCastor'
p455
(dp456
g73
S'/eos/cms/store/cmst3/group/cmgtools/CMG'
p457
sS'Directory'
p458
S'/eos/cms/store/cmst3/group/cmgtools/CMG/SUSYBBHToTauTau_M-500_8TeV-pythia6-tauola/Summer12_DR53X-PU_S10_START53_V7A-v1/AODSIM/PAT_CMG_V5_16_0'
p459
ssS'CheckConfig'
p460
(dp461
g89
g90
ssS'FullCFG'
p462
(dp463
S'FullCFG'
p464
S'SUSYBBHToTauTau_M-500_8TeV-pythia6-tauola/Summer12_DR53X-PU_S10_START53_V7A-v1/AODSIM/PAT_CMG_V5_16_0_1377467573/full_cfg.py'
p465
ssS'WriteJobReport'
p466
(dp467
S'SummaryFile'
p468
S'SUSYBBHToTauTau_M-500_8TeV-pythia6-tauola/Summer12_DR53X-PU_S10_START53_V7A-v1/AODSIM/PAT_CMG_V5_16_0_1377467573/resubmit.sh'
p469
ssS'ExpandConfig'
p470
(dp471
S'ExpandedFullCFG'
p472
S'SUSYBBHToTauTau_M-500_8TeV-pythia6-tauola/Summer12_DR53X-PU_S10_START53_V7A-v1/AODSIM/PAT_CMG_V5_16_0_1377467573/Expandedfull_cfg.py'
p473
ssS'RunTestEvents'
p474
(dp475
g89
g90
sS'TestCFG'
p476
S'SUSYBBHToTauTau_M-500_8TeV-pythia6-tauola/Summer12_DR53X-PU_S10_START53_V7A-v1/AODSIM/PAT_CMG_V5_16_0_1377467573/test_cfg.py'
p477
ssS'SourceCFG'
p478
(dp479
S'SourceCFG'
p480
S'SUSYBBHToTauTau_M-500_8TeV-pythia6-tauola/Summer12_DR53X-PU_S10_START53_V7A-v1/AODSIM/PAT_CMG_V5_16_0_1377467573/source_cfg.py'
p481
ssS'CheckForWrite'
p482
(dp483
g458
g459
sS'WriteAccess'
p484
I01
ssS'WriteToDatasets'
p485
(dp486
S'Added'
p487
I00
sg71
S'/SUSYBBHToTauTau_M-500_8TeV-pythia6-tauola/Summer12_DR53X-PU_S10_START53_V7A-v1/AODSIM/PAT_CMG_V5_16_0/HTT_24Jul_newTES_manzoni_Up'
p488
sS'User'
p489
g104
ssS'RunCMSBatch'
p490
(dp491
S'BatchUser'
p492
g104
sS'SampleOutputDir'
p493
S'/store/cmst3/user/manzoni/CMG/SUSYBBHToTauTau_M-500_8TeV-pythia6-tauola/Summer12_DR53X-PU_S10_START53_V7A-v1/AODSIM/PAT_CMG_V5_16_0/HTT_24Jul_newTES_manzoni_Up'
p494
sS'SampleDataset'
p495
g72
sS'LSFJobsTopDir'
p496
S'SUSYBBHToTauTau_M-500_8TeV-pythia6-tauola/Summer12_DR53X-PU_S10_START53_V7A-v1/AODSIM/PAT_CMG_V5_16_0_1377467573/HTT_24Jul_newTES_manzoni_Up_Jobs'
p497
ssS'CreateJobDirectory'
p498
(dp499
S'JobDir'
p500
S'SUSYBBHToTauTau_M-500_8TeV-pythia6-tauola/Summer12_DR53X-PU_S10_START53_V7A-v1/AODSIM/PAT_CMG_V5_16_0_1377467573'
p501
sS'PWD'
p502
S'/afs/cern.ch/user/m/manzoni/summer13/CMGTools/CMSSW_5_3_9/src/CMGTools/H2TauTau/prod/25aug_corrMC/up/mc'
p503
ssS'CleanJobFiles'
p504
(dp505
S'Compressed'
p506
(dp507
S'CompressedFiles'
p508
(lp509
ssS'Cleaned'
p510
(dp511
S'CleanedFiles'
p512
(lp513
g473
ag477
aS'SUSYBBHToTauTau_M-500_8TeV-pythia6-tauola/Summer12_DR53X-PU_S10_START53_V7A-v1/AODSIM/PAT_CMG_V5_16_0_1377467573/diTau_fullsel_tree_CMG.root'
p514
aS'SUSYBBHToTauTau_M-500_8TeV-pythia6-tauola/Summer12_DR53X-PU_S10_START53_V7A-v1/AODSIM/PAT_CMG_V5_16_0_1377467573/source_cfg.pyc'
p515
aS'SUSYBBHToTauTau_M-500_8TeV-pythia6-tauola/Summer12_DR53X-PU_S10_START53_V7A-v1/AODSIM/PAT_CMG_V5_16_0_1377467573/Expandedfull_cfg.pyc'
p516
asssS'CheckForMask'
p517
(dp518
g3
g152
sg111
I01
ss.