(dp0
S'CheckJobStatus'
p1
(dp2
S'Report'
p3
(dp4
S'Files'
p5
(dp6
S'/store/cmst3/user/manzoni/CMG/GluGluToHToTauTau_M-135_8TeV-powheg-pythia6/Summer12_DR53X-PU_S10_START53_V7A-v1/AODSIM/PAT_CMG_V5_16_0/HTT_24Jul_newTES_manzoni_Up/diTau_fullsel_tree_CMG_7.root'
p7
(I01
I1355
tp8
sS'/store/cmst3/user/manzoni/CMG/GluGluToHToTauTau_M-135_8TeV-powheg-pythia6/Summer12_DR53X-PU_S10_START53_V7A-v1/AODSIM/PAT_CMG_V5_16_0/HTT_24Jul_newTES_manzoni_Up/diTau_fullsel_tree_CMG_16.root'
p9
(I01
I1185
tp10
sS'/store/cmst3/user/manzoni/CMG/GluGluToHToTauTau_M-135_8TeV-powheg-pythia6/Summer12_DR53X-PU_S10_START53_V7A-v1/AODSIM/PAT_CMG_V5_16_0/HTT_24Jul_newTES_manzoni_Up/diTau_fullsel_tree_CMG_10.root'
p11
(I01
I1370
tp12
sS'/store/cmst3/user/manzoni/CMG/GluGluToHToTauTau_M-135_8TeV-powheg-pythia6/Summer12_DR53X-PU_S10_START53_V7A-v1/AODSIM/PAT_CMG_V5_16_0/HTT_24Jul_newTES_manzoni_Up/diTau_fullsel_tree_CMG_15.root'
p13
(I01
I1349
tp14
sS'/store/cmst3/user/manzoni/CMG/GluGluToHToTauTau_M-135_8TeV-powheg-pythia6/Summer12_DR53X-PU_S10_START53_V7A-v1/AODSIM/PAT_CMG_V5_16_0/HTT_24Jul_newTES_manzoni_Up/diTau_fullsel_tree_CMG_14.root'
p15
(I01
I1356
tp16
sS'/store/cmst3/user/manzoni/CMG/GluGluToHToTauTau_M-135_8TeV-powheg-pythia6/Summer12_DR53X-PU_S10_START53_V7A-v1/AODSIM/PAT_CMG_V5_16_0/HTT_24Jul_newTES_manzoni_Up/diTau_fullsel_tree_CMG_8.root'
p17
(I01
I1419
tp18
sS'/store/cmst3/user/manzoni/CMG/GluGluToHToTauTau_M-135_8TeV-powheg-pythia6/Summer12_DR53X-PU_S10_START53_V7A-v1/AODSIM/PAT_CMG_V5_16_0/HTT_24Jul_newTES_manzoni_Up/diTau_fullsel_tree_CMG_11.root'
p19
(I01
I1375
tp20
sS'/store/cmst3/user/manzoni/CMG/GluGluToHToTauTau_M-135_8TeV-powheg-pythia6/Summer12_DR53X-PU_S10_START53_V7A-v1/AODSIM/PAT_CMG_V5_16_0/HTT_24Jul_newTES_manzoni_Up/diTau_fullsel_tree_CMG_13.root'
p21
(I01
I1368
tp22
sS'/store/cmst3/user/manzoni/CMG/GluGluToHToTauTau_M-135_8TeV-powheg-pythia6/Summer12_DR53X-PU_S10_START53_V7A-v1/AODSIM/PAT_CMG_V5_16_0/HTT_24Jul_newTES_manzoni_Up/diTau_fullsel_tree_CMG_2.root'
p23
(I01
I1395
tp24
sS'/store/cmst3/user/manzoni/CMG/GluGluToHToTauTau_M-135_8TeV-powheg-pythia6/Summer12_DR53X-PU_S10_START53_V7A-v1/AODSIM/PAT_CMG_V5_16_0/HTT_24Jul_newTES_manzoni_Up/diTau_fullsel_tree_CMG_17.root'
p25
(I01
I1288
tp26
sS'/store/cmst3/user/manzoni/CMG/GluGluToHToTauTau_M-135_8TeV-powheg-pythia6/Summer12_DR53X-PU_S10_START53_V7A-v1/AODSIM/PAT_CMG_V5_16_0/HTT_24Jul_newTES_manzoni_Up/diTau_fullsel_tree_CMG_6.root'
p27
(I01
I1422
tp28
sS'/store/cmst3/user/manzoni/CMG/GluGluToHToTauTau_M-135_8TeV-powheg-pythia6/Summer12_DR53X-PU_S10_START53_V7A-v1/AODSIM/PAT_CMG_V5_16_0/HTT_24Jul_newTES_manzoni_Up/diTau_fullsel_tree_CMG_4.root'
p29
(I01
I1377
tp30
sS'/store/cmst3/user/manzoni/CMG/GluGluToHToTauTau_M-135_8TeV-powheg-pythia6/Summer12_DR53X-PU_S10_START53_V7A-v1/AODSIM/PAT_CMG_V5_16_0/HTT_24Jul_newTES_manzoni_Up/diTau_fullsel_tree_CMG_1.root'
p31
(I01
I1362
tp32
sS'/store/cmst3/user/manzoni/CMG/GluGluToHToTauTau_M-135_8TeV-powheg-pythia6/Summer12_DR53X-PU_S10_START53_V7A-v1/AODSIM/PAT_CMG_V5_16_0/HTT_24Jul_newTES_manzoni_Up/diTau_fullsel_tree_CMG_5.root'
p33
(I01
I1373
tp34
sS'/store/cmst3/user/manzoni/CMG/GluGluToHToTauTau_M-135_8TeV-powheg-pythia6/Summer12_DR53X-PU_S10_START53_V7A-v1/AODSIM/PAT_CMG_V5_16_0/HTT_24Jul_newTES_manzoni_Up/diTau_fullsel_tree_CMG_18.root'
p35
(I01
I579
tp36
sS'/store/cmst3/user/manzoni/CMG/GluGluToHToTauTau_M-135_8TeV-powheg-pythia6/Summer12_DR53X-PU_S10_START53_V7A-v1/AODSIM/PAT_CMG_V5_16_0/HTT_24Jul_newTES_manzoni_Up/diTau_fullsel_tree_CMG_3.root'
p37
(I01
I1447
tp38
sS'/store/cmst3/user/manzoni/CMG/GluGluToHToTauTau_M-135_8TeV-powheg-pythia6/Summer12_DR53X-PU_S10_START53_V7A-v1/AODSIM/PAT_CMG_V5_16_0/HTT_24Jul_newTES_manzoni_Up/diTau_fullsel_tree_CMG_12.root'
p39
(I01
I1422
tp40
sS'/store/cmst3/user/manzoni/CMG/GluGluToHToTauTau_M-135_8TeV-powheg-pythia6/Summer12_DR53X-PU_S10_START53_V7A-v1/AODSIM/PAT_CMG_V5_16_0/HTT_24Jul_newTES_manzoni_Up/diTau_fullsel_tree_CMG_9.root'
p41
(I01
I1389
tp42
ssS'Name'
p43
S'/GluGluToHToTauTau_M-135_8TeV-powheg-pythia6/Summer12_DR53X-PU_S10_START53_V7A-v1/AODSIM/PAT_CMG_V5_16_0/HTT_24Jul_newTES_manzoni_Up'
p44
sS'Topdir'
p45
S'/eos/cms/store/cmst3/user/manzoni/CMG'
p46
sS'RunList'
p47
(lp48
sS'PathList'
p49
(lp50
S'/store/cmst3/user/manzoni/CMG/GluGluToHToTauTau_M-135_8TeV-powheg-pythia6/Summer12_DR53X-PU_S10_START53_V7A-v1/AODSIM/PAT_CMG_V5_16_0/HTT_24Jul_newTES_manzoni_Up'
p51
asS'AlgoList'
p52
(lp53
sS'PrimaryDatasetFraction'
p54
F0.02768699555841618
sS'FilesGood'
p55
I18
sS'PrimaryDatasetEntries'
p56
I860729
sS'data'
p57
(dp58
sS'FilesBad'
p59
I0
sS'ReportVersion'
p60
I3
sS'Status'
p61
S'VALID'
p62
sS'MaxRun'
p63
I-1
sS'PhysicsGroup'
p64
S'CMG'
p65
sS'MinRun'
p66
I-1
sS'StageHost'
p67
S'castorcms'
p68
sS'FilesCount'
p69
I18
sS'FilesEntries'
p70
I23831
sS'TierList'
p71
(lp72
sS'DateCreated'
p73
S'1377471861'
p74
sS'CreatedBy'
p75
S'manzoni'
p76
sS'ValidDuplicates'
p77
(dp78
sS'PrimaryDataset'
p79
S'/GluGluToHToTauTau_M-135_8TeV-powheg-pythia6/Summer12_DR53X-PU_S10_START53_V7A-v1/AODSIM'
p80
sS'BadJobs'
p81
(lp82
ssS'MaskPresent'
p83
I01
sS'LSFJobStatusCheck'
p84
(dp85
S'GluGluToHToTauTau_M-135_8TeV-powheg-pythia6/Summer12_DR53X-PU_S10_START53_V7A-v1/AODSIM/PAT_CMG_V5_16_0_1377467445/HTT_24Jul_newTES_manzoni_Up_Jobs/Job_18'
p86
g62
sS'GluGluToHToTauTau_M-135_8TeV-powheg-pythia6/Summer12_DR53X-PU_S10_START53_V7A-v1/AODSIM/PAT_CMG_V5_16_0_1377467445/HTT_24Jul_newTES_manzoni_Up_Jobs/Job_13'
p87
g62
sS'GluGluToHToTauTau_M-135_8TeV-powheg-pythia6/Summer12_DR53X-PU_S10_START53_V7A-v1/AODSIM/PAT_CMG_V5_16_0_1377467445/HTT_24Jul_newTES_manzoni_Up_Jobs/Job_8'
p88
g62
sS'GluGluToHToTauTau_M-135_8TeV-powheg-pythia6/Summer12_DR53X-PU_S10_START53_V7A-v1/AODSIM/PAT_CMG_V5_16_0_1377467445/HTT_24Jul_newTES_manzoni_Up_Jobs/Job_9'
p89
g62
sS'GluGluToHToTauTau_M-135_8TeV-powheg-pythia6/Summer12_DR53X-PU_S10_START53_V7A-v1/AODSIM/PAT_CMG_V5_16_0_1377467445/HTT_24Jul_newTES_manzoni_Up_Jobs/Job_6'
p90
g62
sS'GluGluToHToTauTau_M-135_8TeV-powheg-pythia6/Summer12_DR53X-PU_S10_START53_V7A-v1/AODSIM/PAT_CMG_V5_16_0_1377467445/HTT_24Jul_newTES_manzoni_Up_Jobs/Job_7'
p91
g62
sS'GluGluToHToTauTau_M-135_8TeV-powheg-pythia6/Summer12_DR53X-PU_S10_START53_V7A-v1/AODSIM/PAT_CMG_V5_16_0_1377467445/HTT_24Jul_newTES_manzoni_Up_Jobs/Job_4'
p92
g62
sS'GluGluToHToTauTau_M-135_8TeV-powheg-pythia6/Summer12_DR53X-PU_S10_START53_V7A-v1/AODSIM/PAT_CMG_V5_16_0_1377467445/HTT_24Jul_newTES_manzoni_Up_Jobs/Job_5'
p93
g62
sS'GluGluToHToTauTau_M-135_8TeV-powheg-pythia6/Summer12_DR53X-PU_S10_START53_V7A-v1/AODSIM/PAT_CMG_V5_16_0_1377467445/HTT_24Jul_newTES_manzoni_Up_Jobs/Job_2'
p94
g62
sS'GluGluToHToTauTau_M-135_8TeV-powheg-pythia6/Summer12_DR53X-PU_S10_START53_V7A-v1/AODSIM/PAT_CMG_V5_16_0_1377467445/HTT_24Jul_newTES_manzoni_Up_Jobs/Job_3'
p95
g62
sS'GluGluToHToTauTau_M-135_8TeV-powheg-pythia6/Summer12_DR53X-PU_S10_START53_V7A-v1/AODSIM/PAT_CMG_V5_16_0_1377467445/HTT_24Jul_newTES_manzoni_Up_Jobs/Job_16'
p96
g62
sS'GluGluToHToTauTau_M-135_8TeV-powheg-pythia6/Summer12_DR53X-PU_S10_START53_V7A-v1/AODSIM/PAT_CMG_V5_16_0_1377467445/HTT_24Jul_newTES_manzoni_Up_Jobs/Job_1'
p97
g62
sS'GluGluToHToTauTau_M-135_8TeV-powheg-pythia6/Summer12_DR53X-PU_S10_START53_V7A-v1/AODSIM/PAT_CMG_V5_16_0_1377467445/HTT_24Jul_newTES_manzoni_Up_Jobs/Job_10'
p98
g62
sS'GluGluToHToTauTau_M-135_8TeV-powheg-pythia6/Summer12_DR53X-PU_S10_START53_V7A-v1/AODSIM/PAT_CMG_V5_16_0_1377467445/HTT_24Jul_newTES_manzoni_Up_Jobs/Job_15'
p99
g62
sS'GluGluToHToTauTau_M-135_8TeV-powheg-pythia6/Summer12_DR53X-PU_S10_START53_V7A-v1/AODSIM/PAT_CMG_V5_16_0_1377467445/HTT_24Jul_newTES_manzoni_Up_Jobs/Job_14'
p100
g62
sS'GluGluToHToTauTau_M-135_8TeV-powheg-pythia6/Summer12_DR53X-PU_S10_START53_V7A-v1/AODSIM/PAT_CMG_V5_16_0_1377467445/HTT_24Jul_newTES_manzoni_Up_Jobs/Job_11'
p101
g62
sS'GluGluToHToTauTau_M-135_8TeV-powheg-pythia6/Summer12_DR53X-PU_S10_START53_V7A-v1/AODSIM/PAT_CMG_V5_16_0_1377467445/HTT_24Jul_newTES_manzoni_Up_Jobs/Job_17'
p102
g62
sS'GluGluToHToTauTau_M-135_8TeV-powheg-pythia6/Summer12_DR53X-PU_S10_START53_V7A-v1/AODSIM/PAT_CMG_V5_16_0_1377467445/HTT_24Jul_newTES_manzoni_Up_Jobs/Job_12'
p103
g62
sssS'CheckDatasetExists'
p104
(dp105
S'Dataset'
p106
S'/GluGluToHToTauTau_M-135_8TeV-powheg-pythia6/Summer12_DR53X-PU_S10_START53_V7A-v1/AODSIM/PAT_CMG_V5_16_0'
p107
ssS'GenerateMask'
p108
(dp109
g3
(dp110
VPathList
p111
(lp112
V/store/cmst3/group/cmgtools/CMG/GluGluToHToTauTau_M-135_8TeV-powheg-pythia6/Summer12_DR53X-PU_S10_START53_V7A-v1/AODSIM/PAT_CMG_V5_16_0
p113
asVStageHost
p114
Vcastorcms
p115
sVPrimaryDatasetFraction
p116
F1.0
sVFilesGood
p117
I88
sVPrimaryDatasetEntries
p118
I860729
sVReportVersion
p119
I3
sVFiles
p120
(dp121
V/store/cmst3/group/cmgtools/CMG/GluGluToHToTauTau_M-135_8TeV-powheg-pythia6/Summer12_DR53X-PU_S10_START53_V7A-v1/AODSIM/PAT_CMG_V5_16_0/cmgTuple_32_1_lYv.root
p122
(lp123
I01
aI10000
asV/store/cmst3/group/cmgtools/CMG/GluGluToHToTauTau_M-135_8TeV-powheg-pythia6/Summer12_DR53X-PU_S10_START53_V7A-v1/AODSIM/PAT_CMG_V5_16_0/cmgTuple_61_1_wJw.root
p124
(lp125
I01
aI10000
asV/store/cmst3/group/cmgtools/CMG/GluGluToHToTauTau_M-135_8TeV-powheg-pythia6/Summer12_DR53X-PU_S10_START53_V7A-v1/AODSIM/PAT_CMG_V5_16_0/cmgTuple_51_1_eVH.root
p126
(lp127
I01
aI10000
asV/store/cmst3/group/cmgtools/CMG/GluGluToHToTauTau_M-135_8TeV-powheg-pythia6/Summer12_DR53X-PU_S10_START53_V7A-v1/AODSIM/PAT_CMG_V5_16_0/cmgTuple_66_1_b31.root
p128
(lp129
I01
aI10000
asV/store/cmst3/group/cmgtools/CMG/GluGluToHToTauTau_M-135_8TeV-powheg-pythia6/Summer12_DR53X-PU_S10_START53_V7A-v1/AODSIM/PAT_CMG_V5_16_0/cmgTuple_6_1_rho.root
p130
(lp131
I01
aI10000
asV/store/cmst3/group/cmgtools/CMG/GluGluToHToTauTau_M-135_8TeV-powheg-pythia6/Summer12_DR53X-PU_S10_START53_V7A-v1/AODSIM/PAT_CMG_V5_16_0/cmgTuple_33_1_Ff4.root
p132
(lp133
I01
aI10000
asV/store/cmst3/group/cmgtools/CMG/GluGluToHToTauTau_M-135_8TeV-powheg-pythia6/Summer12_DR53X-PU_S10_START53_V7A-v1/AODSIM/PAT_CMG_V5_16_0/cmgTuple_22_1_NVs.root
p134
(lp135
I01
aI10000
asV/store/cmst3/group/cmgtools/CMG/GluGluToHToTauTau_M-135_8TeV-powheg-pythia6/Summer12_DR53X-PU_S10_START53_V7A-v1/AODSIM/PAT_CMG_V5_16_0/cmgTuple_27_1_yIa.root
p136
(lp137
I01
aI10000
asV/store/cmst3/group/cmgtools/CMG/GluGluToHToTauTau_M-135_8TeV-powheg-pythia6/Summer12_DR53X-PU_S10_START53_V7A-v1/AODSIM/PAT_CMG_V5_16_0/cmgTuple_54_1_1ht.root
p138
(lp139
I01
aI10000
asV/store/cmst3/group/cmgtools/CMG/GluGluToHToTauTau_M-135_8TeV-powheg-pythia6/Summer12_DR53X-PU_S10_START53_V7A-v1/AODSIM/PAT_CMG_V5_16_0/cmgTuple_48_1_D5R.root
p140
(lp141
I01
aI10000
asV/store/cmst3/group/cmgtools/CMG/GluGluToHToTauTau_M-135_8TeV-powheg-pythia6/Summer12_DR53X-PU_S10_START53_V7A-v1/AODSIM/PAT_CMG_V5_16_0/cmgTuple_42_1_Erq.root
p142
(lp143
I01
aI10000
asV/store/cmst3/group/cmgtools/CMG/GluGluToHToTauTau_M-135_8TeV-powheg-pythia6/Summer12_DR53X-PU_S10_START53_V7A-v1/AODSIM/PAT_CMG_V5_16_0/cmgTuple_52_1_nzK.root
p144
(lp145
I01
aI10000
asV/store/cmst3/group/cmgtools/CMG/GluGluToHToTauTau_M-135_8TeV-powheg-pythia6/Summer12_DR53X-PU_S10_START53_V7A-v1/AODSIM/PAT_CMG_V5_16_0/cmgTuple_59_1_vHD.root
p146
(lp147
I01
aI10000
asV/store/cmst3/group/cmgtools/CMG/GluGluToHToTauTau_M-135_8TeV-powheg-pythia6/Summer12_DR53X-PU_S10_START53_V7A-v1/AODSIM/PAT_CMG_V5_16_0/cmgTuple_74_1_9qw.root
p148
(lp149
I01
aI10000
asV/store/cmst3/group/cmgtools/CMG/GluGluToHToTauTau_M-135_8TeV-powheg-pythia6/Summer12_DR53X-PU_S10_START53_V7A-v1/AODSIM/PAT_CMG_V5_16_0/cmgTuple_7_1_wpt.root
p150
(lp151
I01
aI10000
asV/store/cmst3/group/cmgtools/CMG/GluGluToHToTauTau_M-135_8TeV-powheg-pythia6/Summer12_DR53X-PU_S10_START53_V7A-v1/AODSIM/PAT_CMG_V5_16_0/cmgTuple_57_1_dWx.root
p152
(lp153
I01
aI10000
asV/store/cmst3/group/cmgtools/CMG/GluGluToHToTauTau_M-135_8TeV-powheg-pythia6/Summer12_DR53X-PU_S10_START53_V7A-v1/AODSIM/PAT_CMG_V5_16_0/cmgTuple_15_1_oxV.root
p154
(lp155
I01
aI10000
asV/store/cmst3/group/cmgtools/CMG/GluGluToHToTauTau_M-135_8TeV-powheg-pythia6/Summer12_DR53X-PU_S10_START53_V7A-v1/AODSIM/PAT_CMG_V5_16_0/cmgTuple_58_1_cfR.root
p156
(lp157
I01
aI10000
asV/store/cmst3/group/cmgtools/CMG/GluGluToHToTauTau_M-135_8TeV-powheg-pythia6/Summer12_DR53X-PU_S10_START53_V7A-v1/AODSIM/PAT_CMG_V5_16_0/cmgTuple_43_1_rhl.root
p158
(lp159
I01
aI10000
asV/store/cmst3/group/cmgtools/CMG/GluGluToHToTauTau_M-135_8TeV-powheg-pythia6/Summer12_DR53X-PU_S10_START53_V7A-v1/AODSIM/PAT_CMG_V5_16_0/cmgTuple_26_1_lE9.root
p160
(lp161
I01
aI10000
asV/store/cmst3/group/cmgtools/CMG/GluGluToHToTauTau_M-135_8TeV-powheg-pythia6/Summer12_DR53X-PU_S10_START53_V7A-v1/AODSIM/PAT_CMG_V5_16_0/cmgTuple_41_1_WU2.root
p162
(lp163
I01
aI10000
asV/store/cmst3/group/cmgtools/CMG/GluGluToHToTauTau_M-135_8TeV-powheg-pythia6/Summer12_DR53X-PU_S10_START53_V7A-v1/AODSIM/PAT_CMG_V5_16_0/cmgTuple_69_1_Vdp.root
p164
(lp165
I01
aI10000
asV/store/cmst3/group/cmgtools/CMG/GluGluToHToTauTau_M-135_8TeV-powheg-pythia6/Summer12_DR53X-PU_S10_START53_V7A-v1/AODSIM/PAT_CMG_V5_16_0/cmgTuple_81_1_xdg.root
p166
(lp167
I01
aI3134
asV/store/cmst3/group/cmgtools/CMG/GluGluToHToTauTau_M-135_8TeV-powheg-pythia6/Summer12_DR53X-PU_S10_START53_V7A-v1/AODSIM/PAT_CMG_V5_16_0/cmgTuple_11_1_sjV.root
p168
(lp169
I01
aI10000
asV/store/cmst3/group/cmgtools/CMG/GluGluToHToTauTau_M-135_8TeV-powheg-pythia6/Summer12_DR53X-PU_S10_START53_V7A-v1/AODSIM/PAT_CMG_V5_16_0/cmgTuple_76_1_tHq.root
p170
(lp171
I01
aI10000
asV/store/cmst3/group/cmgtools/CMG/GluGluToHToTauTau_M-135_8TeV-powheg-pythia6/Summer12_DR53X-PU_S10_START53_V7A-v1/AODSIM/PAT_CMG_V5_16_0/cmgTuple_53_1_sQZ.root
p172
(lp173
I01
aI10000
asV/store/cmst3/group/cmgtools/CMG/GluGluToHToTauTau_M-135_8TeV-powheg-pythia6/Summer12_DR53X-PU_S10_START53_V7A-v1/AODSIM/PAT_CMG_V5_16_0/cmgTuple_18_1_dzn.root
p174
(lp175
I01
aI10000
asV/store/cmst3/group/cmgtools/CMG/GluGluToHToTauTau_M-135_8TeV-powheg-pythia6/Summer12_DR53X-PU_S10_START53_V7A-v1/AODSIM/PAT_CMG_V5_16_0/cmgTuple_12_1_J8V.root
p176
(lp177
I01
aI10000
asV/store/cmst3/group/cmgtools/CMG/GluGluToHToTauTau_M-135_8TeV-powheg-pythia6/Summer12_DR53X-PU_S10_START53_V7A-v1/AODSIM/PAT_CMG_V5_16_0/cmgTuple_17_1_g5N.root
p178
(lp179
I01
aI10000
asV/store/cmst3/group/cmgtools/CMG/GluGluToHToTauTau_M-135_8TeV-powheg-pythia6/Summer12_DR53X-PU_S10_START53_V7A-v1/AODSIM/PAT_CMG_V5_16_0/cmgTuple_73_1_zWT.root
p180
(lp181
I01
aI10000
asV/store/cmst3/group/cmgtools/CMG/GluGluToHToTauTau_M-135_8TeV-powheg-pythia6/Summer12_DR53X-PU_S10_START53_V7A-v1/AODSIM/PAT_CMG_V5_16_0/cmgTuple_31_1_Hv3.root
p182
(lp183
I01
aI10000
asV/store/cmst3/group/cmgtools/CMG/GluGluToHToTauTau_M-135_8TeV-powheg-pythia6/Summer12_DR53X-PU_S10_START53_V7A-v1/AODSIM/PAT_CMG_V5_16_0/cmgTuple_44_1_BU9.root
p184
(lp185
I01
aI10000
asV/store/cmst3/group/cmgtools/CMG/GluGluToHToTauTau_M-135_8TeV-powheg-pythia6/Summer12_DR53X-PU_S10_START53_V7A-v1/AODSIM/PAT_CMG_V5_16_0/cmgTuple_49_1_jVf.root
p186
(lp187
I01
aI10000
asV/store/cmst3/group/cmgtools/CMG/GluGluToHToTauTau_M-135_8TeV-powheg-pythia6/Summer12_DR53X-PU_S10_START53_V7A-v1/AODSIM/PAT_CMG_V5_16_0/cmgTuple_56_1_yng.root
p188
(lp189
I01
aI10000
asV/store/cmst3/group/cmgtools/CMG/GluGluToHToTauTau_M-135_8TeV-powheg-pythia6/Summer12_DR53X-PU_S10_START53_V7A-v1/AODSIM/PAT_CMG_V5_16_0/cmgTuple_28_1_MKm.root
p190
(lp191
I01
aI10000
asV/store/cmst3/group/cmgtools/CMG/GluGluToHToTauTau_M-135_8TeV-powheg-pythia6/Summer12_DR53X-PU_S10_START53_V7A-v1/AODSIM/PAT_CMG_V5_16_0/cmgTuple_25_1_wuR.root
p192
(lp193
I01
aI10000
asV/store/cmst3/group/cmgtools/CMG/GluGluToHToTauTau_M-135_8TeV-powheg-pythia6/Summer12_DR53X-PU_S10_START53_V7A-v1/AODSIM/PAT_CMG_V5_16_0/cmgTuple_39_1_AKY.root
p194
(lp195
I01
aI10000
asV/store/cmst3/group/cmgtools/CMG/GluGluToHToTauTau_M-135_8TeV-powheg-pythia6/Summer12_DR53X-PU_S10_START53_V7A-v1/AODSIM/PAT_CMG_V5_16_0/cmgTuple_8_1_eDM.root
p196
(lp197
I01
aI10000
asV/store/cmst3/group/cmgtools/CMG/GluGluToHToTauTau_M-135_8TeV-powheg-pythia6/Summer12_DR53X-PU_S10_START53_V7A-v1/AODSIM/PAT_CMG_V5_16_0/cmgTuple_82_1_FvX.root
p198
(lp199
I01
aI10000
asV/store/cmst3/group/cmgtools/CMG/GluGluToHToTauTau_M-135_8TeV-powheg-pythia6/Summer12_DR53X-PU_S10_START53_V7A-v1/AODSIM/PAT_CMG_V5_16_0/cmgTuple_60_1_nMy.root
p200
(lp201
I01
aI10000
asV/store/cmst3/group/cmgtools/CMG/GluGluToHToTauTau_M-135_8TeV-powheg-pythia6/Summer12_DR53X-PU_S10_START53_V7A-v1/AODSIM/PAT_CMG_V5_16_0/cmgTuple_9_1_85f.root
p202
(lp203
I01
aI10000
asV/store/cmst3/group/cmgtools/CMG/GluGluToHToTauTau_M-135_8TeV-powheg-pythia6/Summer12_DR53X-PU_S10_START53_V7A-v1/AODSIM/PAT_CMG_V5_16_0/cmgTuple_64_1_5jD.root
p204
(lp205
I01
aI10000
asV/store/cmst3/group/cmgtools/CMG/GluGluToHToTauTau_M-135_8TeV-powheg-pythia6/Summer12_DR53X-PU_S10_START53_V7A-v1/AODSIM/PAT_CMG_V5_16_0/cmgTuple_13_1_VSq.root
p206
(lp207
I01
aI10000
asV/store/cmst3/group/cmgtools/CMG/GluGluToHToTauTau_M-135_8TeV-powheg-pythia6/Summer12_DR53X-PU_S10_START53_V7A-v1/AODSIM/PAT_CMG_V5_16_0/cmgTuple_46_1_TpG.root
p208
(lp209
I01
aI10000
asV/store/cmst3/group/cmgtools/CMG/GluGluToHToTauTau_M-135_8TeV-powheg-pythia6/Summer12_DR53X-PU_S10_START53_V7A-v1/AODSIM/PAT_CMG_V5_16_0/cmgTuple_63_1_Lk1.root
p210
(lp211
I01
aI10000
asV/store/cmst3/group/cmgtools/CMG/GluGluToHToTauTau_M-135_8TeV-powheg-pythia6/Summer12_DR53X-PU_S10_START53_V7A-v1/AODSIM/PAT_CMG_V5_16_0/cmgTuple_71_1_gtW.root
p212
(lp213
I01
aI10000
asV/store/cmst3/group/cmgtools/CMG/GluGluToHToTauTau_M-135_8TeV-powheg-pythia6/Summer12_DR53X-PU_S10_START53_V7A-v1/AODSIM/PAT_CMG_V5_16_0/cmgTuple_45_1_b6b.root
p214
(lp215
I01
aI10000
asV/store/cmst3/group/cmgtools/CMG/GluGluToHToTauTau_M-135_8TeV-powheg-pythia6/Summer12_DR53X-PU_S10_START53_V7A-v1/AODSIM/PAT_CMG_V5_16_0/cmgTuple_40_1_ExX.root
p216
(lp217
I01
aI10000
asV/store/cmst3/group/cmgtools/CMG/GluGluToHToTauTau_M-135_8TeV-powheg-pythia6/Summer12_DR53X-PU_S10_START53_V7A-v1/AODSIM/PAT_CMG_V5_16_0/cmgTuple_19_1_3VD.root
p218
(lp219
I01
aI10000
asV/store/cmst3/group/cmgtools/CMG/GluGluToHToTauTau_M-135_8TeV-powheg-pythia6/Summer12_DR53X-PU_S10_START53_V7A-v1/AODSIM/PAT_CMG_V5_16_0/cmgTuple_24_1_ud3.root
p220
(lp221
I01
aI10000
asV/store/cmst3/group/cmgtools/CMG/GluGluToHToTauTau_M-135_8TeV-powheg-pythia6/Summer12_DR53X-PU_S10_START53_V7A-v1/AODSIM/PAT_CMG_V5_16_0/cmgTuple_68_2_kbJ.root
p222
(lp223
I01
aI10000
asV/store/cmst3/group/cmgtools/CMG/GluGluToHToTauTau_M-135_8TeV-powheg-pythia6/Summer12_DR53X-PU_S10_START53_V7A-v1/AODSIM/PAT_CMG_V5_16_0/cmgTuple_2_1_7Gd.root
p224
(lp225
I01
aI10000
asV/store/cmst3/group/cmgtools/CMG/GluGluToHToTauTau_M-135_8TeV-powheg-pythia6/Summer12_DR53X-PU_S10_START53_V7A-v1/AODSIM/PAT_CMG_V5_16_0/cmgTuple_1_1_k2p.root
p226
(lp227
I01
aI10000
asV/store/cmst3/group/cmgtools/CMG/GluGluToHToTauTau_M-135_8TeV-powheg-pythia6/Summer12_DR53X-PU_S10_START53_V7A-v1/AODSIM/PAT_CMG_V5_16_0/cmgTuple_14_1_rGf.root
p228
(lp229
I01
aI10000
asV/store/cmst3/group/cmgtools/CMG/GluGluToHToTauTau_M-135_8TeV-powheg-pythia6/Summer12_DR53X-PU_S10_START53_V7A-v1/AODSIM/PAT_CMG_V5_16_0/cmgTuple_65_1_kr7.root
p230
(lp231
I01
aI10000
asV/store/cmst3/group/cmgtools/CMG/GluGluToHToTauTau_M-135_8TeV-powheg-pythia6/Summer12_DR53X-PU_S10_START53_V7A-v1/AODSIM/PAT_CMG_V5_16_0/cmgTuple_78_1_o67.root
p232
(lp233
I01
aI10000
asV/store/cmst3/group/cmgtools/CMG/GluGluToHToTauTau_M-135_8TeV-powheg-pythia6/Summer12_DR53X-PU_S10_START53_V7A-v1/AODSIM/PAT_CMG_V5_16_0/cmgTuple_84_1_HCd.root
p234
(lp235
I01
aI10000
asV/store/cmst3/group/cmgtools/CMG/GluGluToHToTauTau_M-135_8TeV-powheg-pythia6/Summer12_DR53X-PU_S10_START53_V7A-v1/AODSIM/PAT_CMG_V5_16_0/cmgTuple_34_1_bcU.root
p236
(lp237
I01
aI10000
asV/store/cmst3/group/cmgtools/CMG/GluGluToHToTauTau_M-135_8TeV-powheg-pythia6/Summer12_DR53X-PU_S10_START53_V7A-v1/AODSIM/PAT_CMG_V5_16_0/cmgTuple_77_1_tji.root
p238
(lp239
I01
aI10000
asV/store/cmst3/group/cmgtools/CMG/GluGluToHToTauTau_M-135_8TeV-powheg-pythia6/Summer12_DR53X-PU_S10_START53_V7A-v1/AODSIM/PAT_CMG_V5_16_0/cmgTuple_29_1_A28.root
p240
(lp241
I01
aI10000
asV/store/cmst3/group/cmgtools/CMG/GluGluToHToTauTau_M-135_8TeV-powheg-pythia6/Summer12_DR53X-PU_S10_START53_V7A-v1/AODSIM/PAT_CMG_V5_16_0/cmgTuple_50_1_FiW.root
p242
(lp243
I01
aI10000
asV/store/cmst3/group/cmgtools/CMG/GluGluToHToTauTau_M-135_8TeV-powheg-pythia6/Summer12_DR53X-PU_S10_START53_V7A-v1/AODSIM/PAT_CMG_V5_16_0/cmgTuple_87_1_5tQ.root
p244
(lp245
I01
aI7595
asV/store/cmst3/group/cmgtools/CMG/GluGluToHToTauTau_M-135_8TeV-powheg-pythia6/Summer12_DR53X-PU_S10_START53_V7A-v1/AODSIM/PAT_CMG_V5_16_0/cmgTuple_79_1_2xl.root
p246
(lp247
I01
aI10000
asV/store/cmst3/group/cmgtools/CMG/GluGluToHToTauTau_M-135_8TeV-powheg-pythia6/Summer12_DR53X-PU_S10_START53_V7A-v1/AODSIM/PAT_CMG_V5_16_0/cmgTuple_55_1_NuI.root
p248
(lp249
I01
aI10000
asV/store/cmst3/group/cmgtools/CMG/GluGluToHToTauTau_M-135_8TeV-powheg-pythia6/Summer12_DR53X-PU_S10_START53_V7A-v1/AODSIM/PAT_CMG_V5_16_0/cmgTuple_16_1_DhR.root
p250
(lp251
I01
aI10000
asV/store/cmst3/group/cmgtools/CMG/GluGluToHToTauTau_M-135_8TeV-powheg-pythia6/Summer12_DR53X-PU_S10_START53_V7A-v1/AODSIM/PAT_CMG_V5_16_0/cmgTuple_85_1_ngH.root
p252
(lp253
I01
aI10000
asV/store/cmst3/group/cmgtools/CMG/GluGluToHToTauTau_M-135_8TeV-powheg-pythia6/Summer12_DR53X-PU_S10_START53_V7A-v1/AODSIM/PAT_CMG_V5_16_0/cmgTuple_38_1_RZK.root
p254
(lp255
I01
aI10000
asV/store/cmst3/group/cmgtools/CMG/GluGluToHToTauTau_M-135_8TeV-powheg-pythia6/Summer12_DR53X-PU_S10_START53_V7A-v1/AODSIM/PAT_CMG_V5_16_0/cmgTuple_67_1_Grq.root
p256
(lp257
I01
aI10000
asV/store/cmst3/group/cmgtools/CMG/GluGluToHToTauTau_M-135_8TeV-powheg-pythia6/Summer12_DR53X-PU_S10_START53_V7A-v1/AODSIM/PAT_CMG_V5_16_0/cmgTuple_5_1_a6a.root
p258
(lp259
I01
aI10000
asV/store/cmst3/group/cmgtools/CMG/GluGluToHToTauTau_M-135_8TeV-powheg-pythia6/Summer12_DR53X-PU_S10_START53_V7A-v1/AODSIM/PAT_CMG_V5_16_0/cmgTuple_70_1_WmJ.root
p260
(lp261
I01
aI10000
asV/store/cmst3/group/cmgtools/CMG/GluGluToHToTauTau_M-135_8TeV-powheg-pythia6/Summer12_DR53X-PU_S10_START53_V7A-v1/AODSIM/PAT_CMG_V5_16_0/cmgTuple_83_1_vUD.root
p262
(lp263
I01
aI10000
asV/store/cmst3/group/cmgtools/CMG/GluGluToHToTauTau_M-135_8TeV-powheg-pythia6/Summer12_DR53X-PU_S10_START53_V7A-v1/AODSIM/PAT_CMG_V5_16_0/cmgTuple_35_1_8Q4.root
p264
(lp265
I01
aI10000
asV/store/cmst3/group/cmgtools/CMG/GluGluToHToTauTau_M-135_8TeV-powheg-pythia6/Summer12_DR53X-PU_S10_START53_V7A-v1/AODSIM/PAT_CMG_V5_16_0/cmgTuple_68_1_UP5.root
p266
(lp267
I01
aI10000
asV/store/cmst3/group/cmgtools/CMG/GluGluToHToTauTau_M-135_8TeV-powheg-pythia6/Summer12_DR53X-PU_S10_START53_V7A-v1/AODSIM/PAT_CMG_V5_16_0/cmgTuple_10_1_Zau.root
p268
(lp269
I01
aI10000
asV/store/cmst3/group/cmgtools/CMG/GluGluToHToTauTau_M-135_8TeV-powheg-pythia6/Summer12_DR53X-PU_S10_START53_V7A-v1/AODSIM/PAT_CMG_V5_16_0/cmgTuple_62_1_dZ2.root
p270
(lp271
I01
aI10000
asV/store/cmst3/group/cmgtools/CMG/GluGluToHToTauTau_M-135_8TeV-powheg-pythia6/Summer12_DR53X-PU_S10_START53_V7A-v1/AODSIM/PAT_CMG_V5_16_0/cmgTuple_4_1_JtI.root
p272
(lp273
I01
aI10000
asV/store/cmst3/group/cmgtools/CMG/GluGluToHToTauTau_M-135_8TeV-powheg-pythia6/Summer12_DR53X-PU_S10_START53_V7A-v1/AODSIM/PAT_CMG_V5_16_0/cmgTuple_20_1_yvD.root
p274
(lp275
I01
aI10000
asV/store/cmst3/group/cmgtools/CMG/GluGluToHToTauTau_M-135_8TeV-powheg-pythia6/Summer12_DR53X-PU_S10_START53_V7A-v1/AODSIM/PAT_CMG_V5_16_0/cmgTuple_75_1_zkL.root
p276
(lp277
I01
aI10000
asV/store/cmst3/group/cmgtools/CMG/GluGluToHToTauTau_M-135_8TeV-powheg-pythia6/Summer12_DR53X-PU_S10_START53_V7A-v1/AODSIM/PAT_CMG_V5_16_0/cmgTuple_72_1_ddw.root
p278
(lp279
I01
aI10000
asV/store/cmst3/group/cmgtools/CMG/GluGluToHToTauTau_M-135_8TeV-powheg-pythia6/Summer12_DR53X-PU_S10_START53_V7A-v1/AODSIM/PAT_CMG_V5_16_0/cmgTuple_47_1_xxO.root
p280
(lp281
I01
aI10000
asV/store/cmst3/group/cmgtools/CMG/GluGluToHToTauTau_M-135_8TeV-powheg-pythia6/Summer12_DR53X-PU_S10_START53_V7A-v1/AODSIM/PAT_CMG_V5_16_0/cmgTuple_80_1_jOJ.root
p282
(lp283
I01
aI10000
asV/store/cmst3/group/cmgtools/CMG/GluGluToHToTauTau_M-135_8TeV-powheg-pythia6/Summer12_DR53X-PU_S10_START53_V7A-v1/AODSIM/PAT_CMG_V5_16_0/cmgTuple_23_1_3H3.root
p284
(lp285
I01
aI10000
asV/store/cmst3/group/cmgtools/CMG/GluGluToHToTauTau_M-135_8TeV-powheg-pythia6/Summer12_DR53X-PU_S10_START53_V7A-v1/AODSIM/PAT_CMG_V5_16_0/cmgTuple_21_1_QCI.root
p286
(lp287
I01
aI10000
asV/store/cmst3/group/cmgtools/CMG/GluGluToHToTauTau_M-135_8TeV-powheg-pythia6/Summer12_DR53X-PU_S10_START53_V7A-v1/AODSIM/PAT_CMG_V5_16_0/cmgTuple_3_1_xqa.root
p288
(lp289
I01
aI10000
asV/store/cmst3/group/cmgtools/CMG/GluGluToHToTauTau_M-135_8TeV-powheg-pythia6/Summer12_DR53X-PU_S10_START53_V7A-v1/AODSIM/PAT_CMG_V5_16_0/cmgTuple_30_1_Jho.root
p290
(lp291
I01
aI10000
asV/store/cmst3/group/cmgtools/CMG/GluGluToHToTauTau_M-135_8TeV-powheg-pythia6/Summer12_DR53X-PU_S10_START53_V7A-v1/AODSIM/PAT_CMG_V5_16_0/cmgTuple_86_1_N2F.root
p292
(lp293
I01
aI10000
asV/store/cmst3/group/cmgtools/CMG/GluGluToHToTauTau_M-135_8TeV-powheg-pythia6/Summer12_DR53X-PU_S10_START53_V7A-v1/AODSIM/PAT_CMG_V5_16_0/cmgTuple_37_1_I3d.root
p294
(lp295
I01
aI10000
asV/store/cmst3/group/cmgtools/CMG/GluGluToHToTauTau_M-135_8TeV-powheg-pythia6/Summer12_DR53X-PU_S10_START53_V7A-v1/AODSIM/PAT_CMG_V5_16_0/cmgTuple_36_1_faF.root
p296
(lp297
I01
aI10000
assVPhysicsGroup
p298
VCMG
p299
sVFilesCount
p300
I88
sVFilesEntries
p301
I860729
sVRunList
p302
(lp303
sVValidDuplicates
p304
(dp305
V/store/cmst3/group/cmgtools/CMG/GluGluToHToTauTau_M-135_8TeV-powheg-pythia6/Summer12_DR53X-PU_S10_START53_V7A-v1/AODSIM/PAT_CMG_V5_16_0/cmgTuple_68_1_UP5.root
p306
I10000
ssVPrimaryDataset
p307
V/GluGluToHToTauTau_M-135_8TeV-powheg-pythia6/Summer12_DR53X-PU_S10_START53_V7A-v1/AODSIM
p308
sVStatus
p309
VVALID
p310
sVName
p311
V/GluGluToHToTauTau_M-135_8TeV-powheg-pythia6/Summer12_DR53X-PU_S10_START53_V7A-v1/AODSIM/PAT_CMG_V5_16_0
p312
sVTopdir
p313
V/eos/cms/store/cmst3/group/cmgtools/CMG
p314
sVdata
p315
(dp316
sVFilesBad
p317
I0
sVMinRun
p318
I-1
sVAlgoList
p319
(lp320
sVTierList
p321
(lp322
sVDateCreated
p323
V1370943166
p324
sVCreatedBy
p325
Vcmgtools_group
p326
sVMaxRun
p327
I-1
sVBadJobs
p328
(lp329
ssg83
I01
ssS'MonitorJobs'
p330
(dp331
S'LSFJobStatus'
p332
(dp333
g86
S'GluGluToHToTauTau_M-135_8TeV-powheg-pythia6/Summer12_DR53X-PU_S10_START53_V7A-v1/AODSIM/PAT_CMG_V5_16_0_1377467445/HTT_24Jul_newTES_manzoni_Up_Jobs/Job_18/LSFJOB_440972339/STDOUT.gz'
p334
sg93
S'GluGluToHToTauTau_M-135_8TeV-powheg-pythia6/Summer12_DR53X-PU_S10_START53_V7A-v1/AODSIM/PAT_CMG_V5_16_0_1377467445/HTT_24Jul_newTES_manzoni_Up_Jobs/Job_5/LSFJOB_440971095/STDOUT.gz'
p335
sg88
S'GluGluToHToTauTau_M-135_8TeV-powheg-pythia6/Summer12_DR53X-PU_S10_START53_V7A-v1/AODSIM/PAT_CMG_V5_16_0_1377467445/HTT_24Jul_newTES_manzoni_Up_Jobs/Job_8/LSFJOB_440971395/STDOUT.gz'
p336
sg89
S'GluGluToHToTauTau_M-135_8TeV-powheg-pythia6/Summer12_DR53X-PU_S10_START53_V7A-v1/AODSIM/PAT_CMG_V5_16_0_1377467445/HTT_24Jul_newTES_manzoni_Up_Jobs/Job_9/LSFJOB_440971467/STDOUT.gz'
p337
sg90
S'GluGluToHToTauTau_M-135_8TeV-powheg-pythia6/Summer12_DR53X-PU_S10_START53_V7A-v1/AODSIM/PAT_CMG_V5_16_0_1377467445/HTT_24Jul_newTES_manzoni_Up_Jobs/Job_6/LSFJOB_440971212/STDOUT.gz'
p338
sg91
S'GluGluToHToTauTau_M-135_8TeV-powheg-pythia6/Summer12_DR53X-PU_S10_START53_V7A-v1/AODSIM/PAT_CMG_V5_16_0_1377467445/HTT_24Jul_newTES_manzoni_Up_Jobs/Job_7/LSFJOB_440971325/STDOUT.gz'
p339
sg92
S'GluGluToHToTauTau_M-135_8TeV-powheg-pythia6/Summer12_DR53X-PU_S10_START53_V7A-v1/AODSIM/PAT_CMG_V5_16_0_1377467445/HTT_24Jul_newTES_manzoni_Up_Jobs/Job_4/LSFJOB_440971008/STDOUT.gz'
p340
sg87
S'GluGluToHToTauTau_M-135_8TeV-powheg-pythia6/Summer12_DR53X-PU_S10_START53_V7A-v1/AODSIM/PAT_CMG_V5_16_0_1377467445/HTT_24Jul_newTES_manzoni_Up_Jobs/Job_13/LSFJOB_440971892/STDOUT.gz'
p341
sg94
S'GluGluToHToTauTau_M-135_8TeV-powheg-pythia6/Summer12_DR53X-PU_S10_START53_V7A-v1/AODSIM/PAT_CMG_V5_16_0_1377467445/HTT_24Jul_newTES_manzoni_Up_Jobs/Job_2/LSFJOB_440970790/STDOUT.gz'
p342
sg95
S'GluGluToHToTauTau_M-135_8TeV-powheg-pythia6/Summer12_DR53X-PU_S10_START53_V7A-v1/AODSIM/PAT_CMG_V5_16_0_1377467445/HTT_24Jul_newTES_manzoni_Up_Jobs/Job_3/LSFJOB_440970899/STDOUT.gz'
p343
sg96
S'GluGluToHToTauTau_M-135_8TeV-powheg-pythia6/Summer12_DR53X-PU_S10_START53_V7A-v1/AODSIM/PAT_CMG_V5_16_0_1377467445/HTT_24Jul_newTES_manzoni_Up_Jobs/Job_16/LSFJOB_440972180/STDOUT.gz'
p344
sg97
S'GluGluToHToTauTau_M-135_8TeV-powheg-pythia6/Summer12_DR53X-PU_S10_START53_V7A-v1/AODSIM/PAT_CMG_V5_16_0_1377467445/HTT_24Jul_newTES_manzoni_Up_Jobs/Job_1/LSFJOB_440970667/STDOUT.gz'
p345
sg98
S'GluGluToHToTauTau_M-135_8TeV-powheg-pythia6/Summer12_DR53X-PU_S10_START53_V7A-v1/AODSIM/PAT_CMG_V5_16_0_1377467445/HTT_24Jul_newTES_manzoni_Up_Jobs/Job_10/LSFJOB_440971572/STDOUT.gz'
p346
sg99
S'GluGluToHToTauTau_M-135_8TeV-powheg-pythia6/Summer12_DR53X-PU_S10_START53_V7A-v1/AODSIM/PAT_CMG_V5_16_0_1377467445/HTT_24Jul_newTES_manzoni_Up_Jobs/Job_15/LSFJOB_440972094/STDOUT.gz'
p347
sg100
S'GluGluToHToTauTau_M-135_8TeV-powheg-pythia6/Summer12_DR53X-PU_S10_START53_V7A-v1/AODSIM/PAT_CMG_V5_16_0_1377467445/HTT_24Jul_newTES_manzoni_Up_Jobs/Job_14/LSFJOB_440972018/STDOUT.gz'
p348
sg101
S'GluGluToHToTauTau_M-135_8TeV-powheg-pythia6/Summer12_DR53X-PU_S10_START53_V7A-v1/AODSIM/PAT_CMG_V5_16_0_1377467445/HTT_24Jul_newTES_manzoni_Up_Jobs/Job_11/LSFJOB_440971663/STDOUT.gz'
p349
sg102
S'GluGluToHToTauTau_M-135_8TeV-powheg-pythia6/Summer12_DR53X-PU_S10_START53_V7A-v1/AODSIM/PAT_CMG_V5_16_0_1377467445/HTT_24Jul_newTES_manzoni_Up_Jobs/Job_17/LSFJOB_440972259/STDOUT.gz'
p350
sg103
S'GluGluToHToTauTau_M-135_8TeV-powheg-pythia6/Summer12_DR53X-PU_S10_START53_V7A-v1/AODSIM/PAT_CMG_V5_16_0_1377467445/HTT_24Jul_newTES_manzoni_Up_Jobs/Job_12/LSFJOB_440971790/STDOUT.gz'
p351
ssS'LSFJobIDs'
p352
(dp353
g86
S'440972339'
p354
sg87
S'440971892'
p355
sg88
S'440971395'
p356
sg89
S'440971467'
p357
sg90
S'440971212'
p358
sg91
S'440971325'
p359
sg92
S'440971008'
p360
sg93
S'440971095'
p361
sg94
S'440970790'
p362
sg95
S'440970899'
p363
sg96
S'440972180'
p364
sg97
S'440970667'
p365
sg98
S'440971572'
p366
sg99
S'440972094'
p367
sg100
S'440972018'
p368
sg101
S'440971663'
p369
sg102
S'440972259'
p370
sg103
S'440971790'
p371
sssS'FindOnCastor'
p372
(dp373
g45
S'/eos/cms/store/cmst3/group/cmgtools/CMG'
p374
sS'Directory'
p375
S'/eos/cms/store/cmst3/group/cmgtools/CMG/GluGluToHToTauTau_M-135_8TeV-powheg-pythia6/Summer12_DR53X-PU_S10_START53_V7A-v1/AODSIM/PAT_CMG_V5_16_0'
p376
ssS'CheckConfig'
p377
(dp378
g61
g62
ssS'FullCFG'
p379
(dp380
S'FullCFG'
p381
S'GluGluToHToTauTau_M-135_8TeV-powheg-pythia6/Summer12_DR53X-PU_S10_START53_V7A-v1/AODSIM/PAT_CMG_V5_16_0_1377467445/full_cfg.py'
p382
ssS'WriteJobReport'
p383
(dp384
S'SummaryFile'
p385
S'GluGluToHToTauTau_M-135_8TeV-powheg-pythia6/Summer12_DR53X-PU_S10_START53_V7A-v1/AODSIM/PAT_CMG_V5_16_0_1377467445/resubmit.sh'
p386
ssS'ExpandConfig'
p387
(dp388
S'ExpandedFullCFG'
p389
S'GluGluToHToTauTau_M-135_8TeV-powheg-pythia6/Summer12_DR53X-PU_S10_START53_V7A-v1/AODSIM/PAT_CMG_V5_16_0_1377467445/Expandedfull_cfg.py'
p390
ssS'RunTestEvents'
p391
(dp392
g61
g62
sS'TestCFG'
p393
S'GluGluToHToTauTau_M-135_8TeV-powheg-pythia6/Summer12_DR53X-PU_S10_START53_V7A-v1/AODSIM/PAT_CMG_V5_16_0_1377467445/test_cfg.py'
p394
ssS'SourceCFG'
p395
(dp396
S'SourceCFG'
p397
S'GluGluToHToTauTau_M-135_8TeV-powheg-pythia6/Summer12_DR53X-PU_S10_START53_V7A-v1/AODSIM/PAT_CMG_V5_16_0_1377467445/source_cfg.py'
p398
ssS'CheckForWrite'
p399
(dp400
g375
g376
sS'WriteAccess'
p401
I01
ssS'WriteToDatasets'
p402
(dp403
S'Added'
p404
I00
sg43
S'/GluGluToHToTauTau_M-135_8TeV-powheg-pythia6/Summer12_DR53X-PU_S10_START53_V7A-v1/AODSIM/PAT_CMG_V5_16_0/HTT_24Jul_newTES_manzoni_Up'
p405
sS'User'
p406
g76
ssS'RunCMSBatch'
p407
(dp408
S'BatchUser'
p409
g76
sS'SampleOutputDir'
p410
S'/store/cmst3/user/manzoni/CMG/GluGluToHToTauTau_M-135_8TeV-powheg-pythia6/Summer12_DR53X-PU_S10_START53_V7A-v1/AODSIM/PAT_CMG_V5_16_0/HTT_24Jul_newTES_manzoni_Up'
p411
sS'SampleDataset'
p412
g44
sS'LSFJobsTopDir'
p413
S'GluGluToHToTauTau_M-135_8TeV-powheg-pythia6/Summer12_DR53X-PU_S10_START53_V7A-v1/AODSIM/PAT_CMG_V5_16_0_1377467445/HTT_24Jul_newTES_manzoni_Up_Jobs'
p414
ssS'CreateJobDirectory'
p415
(dp416
S'JobDir'
p417
S'GluGluToHToTauTau_M-135_8TeV-powheg-pythia6/Summer12_DR53X-PU_S10_START53_V7A-v1/AODSIM/PAT_CMG_V5_16_0_1377467445'
p418
sS'PWD'
p419
S'/afs/cern.ch/user/m/manzoni/summer13/CMGTools/CMSSW_5_3_9/src/CMGTools/H2TauTau/prod/25aug_corrMC/up/mc'
p420
ssS'CleanJobFiles'
p421
(dp422
S'Compressed'
p423
(dp424
S'CompressedFiles'
p425
(lp426
ssS'Cleaned'
p427
(dp428
S'CleanedFiles'
p429
(lp430
g390
ag394
aS'GluGluToHToTauTau_M-135_8TeV-powheg-pythia6/Summer12_DR53X-PU_S10_START53_V7A-v1/AODSIM/PAT_CMG_V5_16_0_1377467445/diTau_fullsel_tree_CMG.root'
p431
aS'GluGluToHToTauTau_M-135_8TeV-powheg-pythia6/Summer12_DR53X-PU_S10_START53_V7A-v1/AODSIM/PAT_CMG_V5_16_0_1377467445/source_cfg.pyc'
p432
aS'GluGluToHToTauTau_M-135_8TeV-powheg-pythia6/Summer12_DR53X-PU_S10_START53_V7A-v1/AODSIM/PAT_CMG_V5_16_0_1377467445/Expandedfull_cfg.pyc'
p433
asssS'CheckForMask'
p434
(dp435
g3
g110
sg83
I01
ss.