(dp0
S'CheckJobStatus'
p1
(dp2
S'Report'
p3
(dp4
S'Files'
p5
(dp6
S'/store/cmst3/user/manzoni/CMG/GluGluToHToTauTau_M-140_8TeV-powheg-pythia6/Summer12_DR53X-PU_S10_START53_V7A-v1/AODSIM/PAT_CMG_V5_16_0/HTT_24Jul_newTES_manzoni_Up/diTau_fullsel_tree_CMG_4.root'
p7
(I01
I1761
tp8
sS'/store/cmst3/user/manzoni/CMG/GluGluToHToTauTau_M-140_8TeV-powheg-pythia6/Summer12_DR53X-PU_S10_START53_V7A-v1/AODSIM/PAT_CMG_V5_16_0/HTT_24Jul_newTES_manzoni_Up/diTau_fullsel_tree_CMG_3.root'
p9
(I01
I1596
tp10
sS'/store/cmst3/user/manzoni/CMG/GluGluToHToTauTau_M-140_8TeV-powheg-pythia6/Summer12_DR53X-PU_S10_START53_V7A-v1/AODSIM/PAT_CMG_V5_16_0/HTT_24Jul_newTES_manzoni_Up/diTau_fullsel_tree_CMG_9.root'
p11
(I01
I1697
tp12
sS'/store/cmst3/user/manzoni/CMG/GluGluToHToTauTau_M-140_8TeV-powheg-pythia6/Summer12_DR53X-PU_S10_START53_V7A-v1/AODSIM/PAT_CMG_V5_16_0/HTT_24Jul_newTES_manzoni_Up/diTau_fullsel_tree_CMG_13.root'
p13
(I01
I1722
tp14
sS'/store/cmst3/user/manzoni/CMG/GluGluToHToTauTau_M-140_8TeV-powheg-pythia6/Summer12_DR53X-PU_S10_START53_V7A-v1/AODSIM/PAT_CMG_V5_16_0/HTT_24Jul_newTES_manzoni_Up/diTau_fullsel_tree_CMG_19.root'
p15
(I01
I1686
tp16
sS'/store/cmst3/user/manzoni/CMG/GluGluToHToTauTau_M-140_8TeV-powheg-pythia6/Summer12_DR53X-PU_S10_START53_V7A-v1/AODSIM/PAT_CMG_V5_16_0/HTT_24Jul_newTES_manzoni_Up/diTau_fullsel_tree_CMG_15.root'
p17
(I01
I1579
tp18
sS'/store/cmst3/user/manzoni/CMG/GluGluToHToTauTau_M-140_8TeV-powheg-pythia6/Summer12_DR53X-PU_S10_START53_V7A-v1/AODSIM/PAT_CMG_V5_16_0/HTT_24Jul_newTES_manzoni_Up/diTau_fullsel_tree_CMG_21.root'
p19
(I01
I338
tp20
sS'/store/cmst3/user/manzoni/CMG/GluGluToHToTauTau_M-140_8TeV-powheg-pythia6/Summer12_DR53X-PU_S10_START53_V7A-v1/AODSIM/PAT_CMG_V5_16_0/HTT_24Jul_newTES_manzoni_Up/diTau_fullsel_tree_CMG_12.root'
p21
(I01
I1549
tp22
sS'/store/cmst3/user/manzoni/CMG/GluGluToHToTauTau_M-140_8TeV-powheg-pythia6/Summer12_DR53X-PU_S10_START53_V7A-v1/AODSIM/PAT_CMG_V5_16_0/HTT_24Jul_newTES_manzoni_Up/diTau_fullsel_tree_CMG_6.root'
p23
(I01
I1711
tp24
sS'/store/cmst3/user/manzoni/CMG/GluGluToHToTauTau_M-140_8TeV-powheg-pythia6/Summer12_DR53X-PU_S10_START53_V7A-v1/AODSIM/PAT_CMG_V5_16_0/HTT_24Jul_newTES_manzoni_Up/diTau_fullsel_tree_CMG_11.root'
p25
(I01
I1675
tp26
sS'/store/cmst3/user/manzoni/CMG/GluGluToHToTauTau_M-140_8TeV-powheg-pythia6/Summer12_DR53X-PU_S10_START53_V7A-v1/AODSIM/PAT_CMG_V5_16_0/HTT_24Jul_newTES_manzoni_Up/diTau_fullsel_tree_CMG_18.root'
p27
(I01
I1658
tp28
sS'/store/cmst3/user/manzoni/CMG/GluGluToHToTauTau_M-140_8TeV-powheg-pythia6/Summer12_DR53X-PU_S10_START53_V7A-v1/AODSIM/PAT_CMG_V5_16_0/HTT_24Jul_newTES_manzoni_Up/diTau_fullsel_tree_CMG_7.root'
p29
(I01
I1734
tp30
sS'/store/cmst3/user/manzoni/CMG/GluGluToHToTauTau_M-140_8TeV-powheg-pythia6/Summer12_DR53X-PU_S10_START53_V7A-v1/AODSIM/PAT_CMG_V5_16_0/HTT_24Jul_newTES_manzoni_Up/diTau_fullsel_tree_CMG_2.root'
p31
(I01
I1715
tp32
sS'/store/cmst3/user/manzoni/CMG/GluGluToHToTauTau_M-140_8TeV-powheg-pythia6/Summer12_DR53X-PU_S10_START53_V7A-v1/AODSIM/PAT_CMG_V5_16_0/HTT_24Jul_newTES_manzoni_Up/diTau_fullsel_tree_CMG_20.root'
p33
(I01
I1695
tp34
sS'/store/cmst3/user/manzoni/CMG/GluGluToHToTauTau_M-140_8TeV-powheg-pythia6/Summer12_DR53X-PU_S10_START53_V7A-v1/AODSIM/PAT_CMG_V5_16_0/HTT_24Jul_newTES_manzoni_Up/diTau_fullsel_tree_CMG_14.root'
p35
(I01
I1749
tp36
sS'/store/cmst3/user/manzoni/CMG/GluGluToHToTauTau_M-140_8TeV-powheg-pythia6/Summer12_DR53X-PU_S10_START53_V7A-v1/AODSIM/PAT_CMG_V5_16_0/HTT_24Jul_newTES_manzoni_Up/diTau_fullsel_tree_CMG_16.root'
p37
(I01
I1655
tp38
sS'/store/cmst3/user/manzoni/CMG/GluGluToHToTauTau_M-140_8TeV-powheg-pythia6/Summer12_DR53X-PU_S10_START53_V7A-v1/AODSIM/PAT_CMG_V5_16_0/HTT_24Jul_newTES_manzoni_Up/diTau_fullsel_tree_CMG_5.root'
p39
(I01
I1631
tp40
sS'/store/cmst3/user/manzoni/CMG/GluGluToHToTauTau_M-140_8TeV-powheg-pythia6/Summer12_DR53X-PU_S10_START53_V7A-v1/AODSIM/PAT_CMG_V5_16_0/HTT_24Jul_newTES_manzoni_Up/diTau_fullsel_tree_CMG_10.root'
p41
(I01
I1786
tp42
sS'/store/cmst3/user/manzoni/CMG/GluGluToHToTauTau_M-140_8TeV-powheg-pythia6/Summer12_DR53X-PU_S10_START53_V7A-v1/AODSIM/PAT_CMG_V5_16_0/HTT_24Jul_newTES_manzoni_Up/diTau_fullsel_tree_CMG_1.root'
p43
(I01
I1550
tp44
sS'/store/cmst3/user/manzoni/CMG/GluGluToHToTauTau_M-140_8TeV-powheg-pythia6/Summer12_DR53X-PU_S10_START53_V7A-v1/AODSIM/PAT_CMG_V5_16_0/HTT_24Jul_newTES_manzoni_Up/diTau_fullsel_tree_CMG_8.root'
p45
(I01
I1699
tp46
sS'/store/cmst3/user/manzoni/CMG/GluGluToHToTauTau_M-140_8TeV-powheg-pythia6/Summer12_DR53X-PU_S10_START53_V7A-v1/AODSIM/PAT_CMG_V5_16_0/HTT_24Jul_newTES_manzoni_Up/diTau_fullsel_tree_CMG_17.root'
p47
(I01
I1702
tp48
ssS'Name'
p49
S'/GluGluToHToTauTau_M-140_8TeV-powheg-pythia6/Summer12_DR53X-PU_S10_START53_V7A-v1/AODSIM/PAT_CMG_V5_16_0/HTT_24Jul_newTES_manzoni_Up'
p50
sS'Topdir'
p51
S'/eos/cms/store/cmst3/user/manzoni/CMG'
p52
sS'RunList'
p53
(lp54
sS'PathList'
p55
(lp56
S'/store/cmst3/user/manzoni/CMG/GluGluToHToTauTau_M-140_8TeV-powheg-pythia6/Summer12_DR53X-PU_S10_START53_V7A-v1/AODSIM/PAT_CMG_V5_16_0/HTT_24Jul_newTES_manzoni_Up'
p57
asS'AlgoList'
p58
(lp59
sS'PrimaryDatasetFraction'
p60
F0.033890304540708766
sS'FilesGood'
p61
I21
sS'PrimaryDatasetEntries'
p62
I999932
sS'data'
p63
(dp64
sS'FilesBad'
p65
I0
sS'ReportVersion'
p66
I3
sS'Status'
p67
S'VALID'
p68
sS'MaxRun'
p69
I-1
sS'PhysicsGroup'
p70
S'CMG'
p71
sS'MinRun'
p72
I-1
sS'StageHost'
p73
S'castorcms'
p74
sS'FilesCount'
p75
I21
sS'FilesEntries'
p76
I33888
sS'TierList'
p77
(lp78
sS'DateCreated'
p79
S'1377478145'
p80
sS'CreatedBy'
p81
S'manzoni'
p82
sS'ValidDuplicates'
p83
(dp84
sS'PrimaryDataset'
p85
S'/GluGluToHToTauTau_M-140_8TeV-powheg-pythia6/Summer12_DR53X-PU_S10_START53_V7A-v1/AODSIM'
p86
sS'BadJobs'
p87
(lp88
ssS'MaskPresent'
p89
I01
sS'LSFJobStatusCheck'
p90
(dp91
S'GluGluToHToTauTau_M-140_8TeV-powheg-pythia6/Summer12_DR53X-PU_S10_START53_V7A-v1/AODSIM/PAT_CMG_V5_16_0_1377467457/HTT_24Jul_newTES_manzoni_Up_Jobs/Job_20'
p92
g68
sS'GluGluToHToTauTau_M-140_8TeV-powheg-pythia6/Summer12_DR53X-PU_S10_START53_V7A-v1/AODSIM/PAT_CMG_V5_16_0_1377467457/HTT_24Jul_newTES_manzoni_Up_Jobs/Job_21'
p93
g68
sS'GluGluToHToTauTau_M-140_8TeV-powheg-pythia6/Summer12_DR53X-PU_S10_START53_V7A-v1/AODSIM/PAT_CMG_V5_16_0_1377467457/HTT_24Jul_newTES_manzoni_Up_Jobs/Job_19'
p94
g68
sS'GluGluToHToTauTau_M-140_8TeV-powheg-pythia6/Summer12_DR53X-PU_S10_START53_V7A-v1/AODSIM/PAT_CMG_V5_16_0_1377467457/HTT_24Jul_newTES_manzoni_Up_Jobs/Job_18'
p95
g68
sS'GluGluToHToTauTau_M-140_8TeV-powheg-pythia6/Summer12_DR53X-PU_S10_START53_V7A-v1/AODSIM/PAT_CMG_V5_16_0_1377467457/HTT_24Jul_newTES_manzoni_Up_Jobs/Job_15'
p96
g68
sS'GluGluToHToTauTau_M-140_8TeV-powheg-pythia6/Summer12_DR53X-PU_S10_START53_V7A-v1/AODSIM/PAT_CMG_V5_16_0_1377467457/HTT_24Jul_newTES_manzoni_Up_Jobs/Job_14'
p97
g68
sS'GluGluToHToTauTau_M-140_8TeV-powheg-pythia6/Summer12_DR53X-PU_S10_START53_V7A-v1/AODSIM/PAT_CMG_V5_16_0_1377467457/HTT_24Jul_newTES_manzoni_Up_Jobs/Job_17'
p98
g68
sS'GluGluToHToTauTau_M-140_8TeV-powheg-pythia6/Summer12_DR53X-PU_S10_START53_V7A-v1/AODSIM/PAT_CMG_V5_16_0_1377467457/HTT_24Jul_newTES_manzoni_Up_Jobs/Job_16'
p99
g68
sS'GluGluToHToTauTau_M-140_8TeV-powheg-pythia6/Summer12_DR53X-PU_S10_START53_V7A-v1/AODSIM/PAT_CMG_V5_16_0_1377467457/HTT_24Jul_newTES_manzoni_Up_Jobs/Job_11'
p100
g68
sS'GluGluToHToTauTau_M-140_8TeV-powheg-pythia6/Summer12_DR53X-PU_S10_START53_V7A-v1/AODSIM/PAT_CMG_V5_16_0_1377467457/HTT_24Jul_newTES_manzoni_Up_Jobs/Job_10'
p101
g68
sS'GluGluToHToTauTau_M-140_8TeV-powheg-pythia6/Summer12_DR53X-PU_S10_START53_V7A-v1/AODSIM/PAT_CMG_V5_16_0_1377467457/HTT_24Jul_newTES_manzoni_Up_Jobs/Job_13'
p102
g68
sS'GluGluToHToTauTau_M-140_8TeV-powheg-pythia6/Summer12_DR53X-PU_S10_START53_V7A-v1/AODSIM/PAT_CMG_V5_16_0_1377467457/HTT_24Jul_newTES_manzoni_Up_Jobs/Job_12'
p103
g68
sS'GluGluToHToTauTau_M-140_8TeV-powheg-pythia6/Summer12_DR53X-PU_S10_START53_V7A-v1/AODSIM/PAT_CMG_V5_16_0_1377467457/HTT_24Jul_newTES_manzoni_Up_Jobs/Job_5'
p104
g68
sS'GluGluToHToTauTau_M-140_8TeV-powheg-pythia6/Summer12_DR53X-PU_S10_START53_V7A-v1/AODSIM/PAT_CMG_V5_16_0_1377467457/HTT_24Jul_newTES_manzoni_Up_Jobs/Job_4'
p105
g68
sS'GluGluToHToTauTau_M-140_8TeV-powheg-pythia6/Summer12_DR53X-PU_S10_START53_V7A-v1/AODSIM/PAT_CMG_V5_16_0_1377467457/HTT_24Jul_newTES_manzoni_Up_Jobs/Job_7'
p106
g68
sS'GluGluToHToTauTau_M-140_8TeV-powheg-pythia6/Summer12_DR53X-PU_S10_START53_V7A-v1/AODSIM/PAT_CMG_V5_16_0_1377467457/HTT_24Jul_newTES_manzoni_Up_Jobs/Job_6'
p107
g68
sS'GluGluToHToTauTau_M-140_8TeV-powheg-pythia6/Summer12_DR53X-PU_S10_START53_V7A-v1/AODSIM/PAT_CMG_V5_16_0_1377467457/HTT_24Jul_newTES_manzoni_Up_Jobs/Job_1'
p108
g68
sS'GluGluToHToTauTau_M-140_8TeV-powheg-pythia6/Summer12_DR53X-PU_S10_START53_V7A-v1/AODSIM/PAT_CMG_V5_16_0_1377467457/HTT_24Jul_newTES_manzoni_Up_Jobs/Job_3'
p109
g68
sS'GluGluToHToTauTau_M-140_8TeV-powheg-pythia6/Summer12_DR53X-PU_S10_START53_V7A-v1/AODSIM/PAT_CMG_V5_16_0_1377467457/HTT_24Jul_newTES_manzoni_Up_Jobs/Job_2'
p110
g68
sS'GluGluToHToTauTau_M-140_8TeV-powheg-pythia6/Summer12_DR53X-PU_S10_START53_V7A-v1/AODSIM/PAT_CMG_V5_16_0_1377467457/HTT_24Jul_newTES_manzoni_Up_Jobs/Job_9'
p111
g68
sS'GluGluToHToTauTau_M-140_8TeV-powheg-pythia6/Summer12_DR53X-PU_S10_START53_V7A-v1/AODSIM/PAT_CMG_V5_16_0_1377467457/HTT_24Jul_newTES_manzoni_Up_Jobs/Job_8'
p112
g68
sssS'CheckDatasetExists'
p113
(dp114
S'Dataset'
p115
S'/GluGluToHToTauTau_M-140_8TeV-powheg-pythia6/Summer12_DR53X-PU_S10_START53_V7A-v1/AODSIM/PAT_CMG_V5_16_0'
p116
ssS'GenerateMask'
p117
(dp118
g3
(dp119
VPathList
p120
(lp121
V/store/cmst3/group/cmgtools/CMG/GluGluToHToTauTau_M-140_8TeV-powheg-pythia6/Summer12_DR53X-PU_S10_START53_V7A-v1/AODSIM/PAT_CMG_V5_16_0
p122
asVStageHost
p123
Vcastorcms
p124
sVPrimaryDatasetFraction
p125
F1.0
sVFilesGood
p126
I101
sVPrimaryDatasetEntries
p127
I999932
sVReportVersion
p128
I3
sVFiles
p129
(dp130
V/store/cmst3/group/cmgtools/CMG/GluGluToHToTauTau_M-140_8TeV-powheg-pythia6/Summer12_DR53X-PU_S10_START53_V7A-v1/AODSIM/PAT_CMG_V5_16_0/cmgTuple_52_1_kwP.root
p131
(lp132
I01
aI10000
asV/store/cmst3/group/cmgtools/CMG/GluGluToHToTauTau_M-140_8TeV-powheg-pythia6/Summer12_DR53X-PU_S10_START53_V7A-v1/AODSIM/PAT_CMG_V5_16_0/cmgTuple_33_1_St4.root
p133
(lp134
I01
aI10000
asV/store/cmst3/group/cmgtools/CMG/GluGluToHToTauTau_M-140_8TeV-powheg-pythia6/Summer12_DR53X-PU_S10_START53_V7A-v1/AODSIM/PAT_CMG_V5_16_0/cmgTuple_97_1_TP9.root
p135
(lp136
I01
aI10000
asV/store/cmst3/group/cmgtools/CMG/GluGluToHToTauTau_M-140_8TeV-powheg-pythia6/Summer12_DR53X-PU_S10_START53_V7A-v1/AODSIM/PAT_CMG_V5_16_0/cmgTuple_31_1_lfJ.root
p137
(lp138
I01
aI10000
asV/store/cmst3/group/cmgtools/CMG/GluGluToHToTauTau_M-140_8TeV-powheg-pythia6/Summer12_DR53X-PU_S10_START53_V7A-v1/AODSIM/PAT_CMG_V5_16_0/cmgTuple_45_1_Jmg.root
p139
(lp140
I01
aI10000
asV/store/cmst3/group/cmgtools/CMG/GluGluToHToTauTau_M-140_8TeV-powheg-pythia6/Summer12_DR53X-PU_S10_START53_V7A-v1/AODSIM/PAT_CMG_V5_16_0/cmgTuple_96_1_tqZ.root
p141
(lp142
I01
aI10000
asV/store/cmst3/group/cmgtools/CMG/GluGluToHToTauTau_M-140_8TeV-powheg-pythia6/Summer12_DR53X-PU_S10_START53_V7A-v1/AODSIM/PAT_CMG_V5_16_0/cmgTuple_16_1_dss.root
p143
(lp144
I01
aI10000
asV/store/cmst3/group/cmgtools/CMG/GluGluToHToTauTau_M-140_8TeV-powheg-pythia6/Summer12_DR53X-PU_S10_START53_V7A-v1/AODSIM/PAT_CMG_V5_16_0/cmgTuple_83_1_Uqs.root
p145
(lp146
I01
aI10000
asV/store/cmst3/group/cmgtools/CMG/GluGluToHToTauTau_M-140_8TeV-powheg-pythia6/Summer12_DR53X-PU_S10_START53_V7A-v1/AODSIM/PAT_CMG_V5_16_0/cmgTuple_22_1_Fqw.root
p147
(lp148
I01
aI10000
asV/store/cmst3/group/cmgtools/CMG/GluGluToHToTauTau_M-140_8TeV-powheg-pythia6/Summer12_DR53X-PU_S10_START53_V7A-v1/AODSIM/PAT_CMG_V5_16_0/cmgTuple_1_1_oQk.root
p149
(lp150
I01
aI10000
asV/store/cmst3/group/cmgtools/CMG/GluGluToHToTauTau_M-140_8TeV-powheg-pythia6/Summer12_DR53X-PU_S10_START53_V7A-v1/AODSIM/PAT_CMG_V5_16_0/cmgTuple_75_1_hIN.root
p151
(lp152
I01
aI10000
asV/store/cmst3/group/cmgtools/CMG/GluGluToHToTauTau_M-140_8TeV-powheg-pythia6/Summer12_DR53X-PU_S10_START53_V7A-v1/AODSIM/PAT_CMG_V5_16_0/cmgTuple_98_1_HE0.root
p153
(lp154
I01
aI10000
asV/store/cmst3/group/cmgtools/CMG/GluGluToHToTauTau_M-140_8TeV-powheg-pythia6/Summer12_DR53X-PU_S10_START53_V7A-v1/AODSIM/PAT_CMG_V5_16_0/cmgTuple_57_1_aDA.root
p155
(lp156
I01
aI10000
asV/store/cmst3/group/cmgtools/CMG/GluGluToHToTauTau_M-140_8TeV-powheg-pythia6/Summer12_DR53X-PU_S10_START53_V7A-v1/AODSIM/PAT_CMG_V5_16_0/cmgTuple_37_1_SnO.root
p157
(lp158
I01
aI10000
asV/store/cmst3/group/cmgtools/CMG/GluGluToHToTauTau_M-140_8TeV-powheg-pythia6/Summer12_DR53X-PU_S10_START53_V7A-v1/AODSIM/PAT_CMG_V5_16_0/cmgTuple_71_1_wvA.root
p159
(lp160
I01
aI10000
asV/store/cmst3/group/cmgtools/CMG/GluGluToHToTauTau_M-140_8TeV-powheg-pythia6/Summer12_DR53X-PU_S10_START53_V7A-v1/AODSIM/PAT_CMG_V5_16_0/cmgTuple_70_1_44N.root
p161
(lp162
I01
aI10000
asV/store/cmst3/group/cmgtools/CMG/GluGluToHToTauTau_M-140_8TeV-powheg-pythia6/Summer12_DR53X-PU_S10_START53_V7A-v1/AODSIM/PAT_CMG_V5_16_0/cmgTuple_30_1_FxW.root
p163
(lp164
I01
aI10000
asV/store/cmst3/group/cmgtools/CMG/GluGluToHToTauTau_M-140_8TeV-powheg-pythia6/Summer12_DR53X-PU_S10_START53_V7A-v1/AODSIM/PAT_CMG_V5_16_0/cmgTuple_74_1_4TT.root
p165
(lp166
I01
aI10000
asV/store/cmst3/group/cmgtools/CMG/GluGluToHToTauTau_M-140_8TeV-powheg-pythia6/Summer12_DR53X-PU_S10_START53_V7A-v1/AODSIM/PAT_CMG_V5_16_0/cmgTuple_93_1_rxl.root
p167
(lp168
I01
aI10000
asV/store/cmst3/group/cmgtools/CMG/GluGluToHToTauTau_M-140_8TeV-powheg-pythia6/Summer12_DR53X-PU_S10_START53_V7A-v1/AODSIM/PAT_CMG_V5_16_0/cmgTuple_85_1_sgY.root
p169
(lp170
I01
aI10000
asV/store/cmst3/group/cmgtools/CMG/GluGluToHToTauTau_M-140_8TeV-powheg-pythia6/Summer12_DR53X-PU_S10_START53_V7A-v1/AODSIM/PAT_CMG_V5_16_0/cmgTuple_47_1_32k.root
p171
(lp172
I01
aI10000
asV/store/cmst3/group/cmgtools/CMG/GluGluToHToTauTau_M-140_8TeV-powheg-pythia6/Summer12_DR53X-PU_S10_START53_V7A-v1/AODSIM/PAT_CMG_V5_16_0/cmgTuple_26_1_Omd.root
p173
(lp174
I01
aI10000
asV/store/cmst3/group/cmgtools/CMG/GluGluToHToTauTau_M-140_8TeV-powheg-pythia6/Summer12_DR53X-PU_S10_START53_V7A-v1/AODSIM/PAT_CMG_V5_16_0/cmgTuple_27_1_fTT.root
p175
(lp176
I01
aI10000
asV/store/cmst3/group/cmgtools/CMG/GluGluToHToTauTau_M-140_8TeV-powheg-pythia6/Summer12_DR53X-PU_S10_START53_V7A-v1/AODSIM/PAT_CMG_V5_16_0/cmgTuple_32_1_8r4.root
p177
(lp178
I01
aI10000
asV/store/cmst3/group/cmgtools/CMG/GluGluToHToTauTau_M-140_8TeV-powheg-pythia6/Summer12_DR53X-PU_S10_START53_V7A-v1/AODSIM/PAT_CMG_V5_16_0/cmgTuple_18_1_o2Q.root
p179
(lp180
I01
aI10000
asV/store/cmst3/group/cmgtools/CMG/GluGluToHToTauTau_M-140_8TeV-powheg-pythia6/Summer12_DR53X-PU_S10_START53_V7A-v1/AODSIM/PAT_CMG_V5_16_0/cmgTuple_78_1_xOQ.root
p181
(lp182
I01
aI10000
asV/store/cmst3/group/cmgtools/CMG/GluGluToHToTauTau_M-140_8TeV-powheg-pythia6/Summer12_DR53X-PU_S10_START53_V7A-v1/AODSIM/PAT_CMG_V5_16_0/cmgTuple_5_1_Zki.root
p183
(lp184
I01
aI6198
asV/store/cmst3/group/cmgtools/CMG/GluGluToHToTauTau_M-140_8TeV-powheg-pythia6/Summer12_DR53X-PU_S10_START53_V7A-v1/AODSIM/PAT_CMG_V5_16_0/cmgTuple_40_1_oob.root
p185
(lp186
I01
aI10000
asV/store/cmst3/group/cmgtools/CMG/GluGluToHToTauTau_M-140_8TeV-powheg-pythia6/Summer12_DR53X-PU_S10_START53_V7A-v1/AODSIM/PAT_CMG_V5_16_0/cmgTuple_29_1_3UF.root
p187
(lp188
I01
aI10000
asV/store/cmst3/group/cmgtools/CMG/GluGluToHToTauTau_M-140_8TeV-powheg-pythia6/Summer12_DR53X-PU_S10_START53_V7A-v1/AODSIM/PAT_CMG_V5_16_0/cmgTuple_90_1_xxc.root
p189
(lp190
I01
aI10000
asV/store/cmst3/group/cmgtools/CMG/GluGluToHToTauTau_M-140_8TeV-powheg-pythia6/Summer12_DR53X-PU_S10_START53_V7A-v1/AODSIM/PAT_CMG_V5_16_0/cmgTuple_14_1_NAd.root
p191
(lp192
I01
aI10000
asV/store/cmst3/group/cmgtools/CMG/GluGluToHToTauTau_M-140_8TeV-powheg-pythia6/Summer12_DR53X-PU_S10_START53_V7A-v1/AODSIM/PAT_CMG_V5_16_0/cmgTuple_10_1_ikW.root
p193
(lp194
I01
aI10000
asV/store/cmst3/group/cmgtools/CMG/GluGluToHToTauTau_M-140_8TeV-powheg-pythia6/Summer12_DR53X-PU_S10_START53_V7A-v1/AODSIM/PAT_CMG_V5_16_0/cmgTuple_24_1_Wrs.root
p195
(lp196
I01
aI10000
asV/store/cmst3/group/cmgtools/CMG/GluGluToHToTauTau_M-140_8TeV-powheg-pythia6/Summer12_DR53X-PU_S10_START53_V7A-v1/AODSIM/PAT_CMG_V5_16_0/cmgTuple_59_1_ZNy.root
p197
(lp198
I01
aI10000
asV/store/cmst3/group/cmgtools/CMG/GluGluToHToTauTau_M-140_8TeV-powheg-pythia6/Summer12_DR53X-PU_S10_START53_V7A-v1/AODSIM/PAT_CMG_V5_16_0/cmgTuple_23_1_L4O.root
p199
(lp200
I01
aI10000
asV/store/cmst3/group/cmgtools/CMG/GluGluToHToTauTau_M-140_8TeV-powheg-pythia6/Summer12_DR53X-PU_S10_START53_V7A-v1/AODSIM/PAT_CMG_V5_16_0/cmgTuple_34_1_eCF.root
p201
(lp202
I01
aI10000
asV/store/cmst3/group/cmgtools/CMG/GluGluToHToTauTau_M-140_8TeV-powheg-pythia6/Summer12_DR53X-PU_S10_START53_V7A-v1/AODSIM/PAT_CMG_V5_16_0/cmgTuple_21_1_7wx.root
p203
(lp204
I01
aI10000
asV/store/cmst3/group/cmgtools/CMG/GluGluToHToTauTau_M-140_8TeV-powheg-pythia6/Summer12_DR53X-PU_S10_START53_V7A-v1/AODSIM/PAT_CMG_V5_16_0/cmgTuple_99_1_QMP.root
p205
(lp206
I01
aI10000
asV/store/cmst3/group/cmgtools/CMG/GluGluToHToTauTau_M-140_8TeV-powheg-pythia6/Summer12_DR53X-PU_S10_START53_V7A-v1/AODSIM/PAT_CMG_V5_16_0/cmgTuple_56_1_ThA.root
p207
(lp208
I01
aI10000
asV/store/cmst3/group/cmgtools/CMG/GluGluToHToTauTau_M-140_8TeV-powheg-pythia6/Summer12_DR53X-PU_S10_START53_V7A-v1/AODSIM/PAT_CMG_V5_16_0/cmgTuple_88_1_iKg.root
p209
(lp210
I01
aI10000
asV/store/cmst3/group/cmgtools/CMG/GluGluToHToTauTau_M-140_8TeV-powheg-pythia6/Summer12_DR53X-PU_S10_START53_V7A-v1/AODSIM/PAT_CMG_V5_16_0/cmgTuple_15_1_76n.root
p211
(lp212
I01
aI10000
asV/store/cmst3/group/cmgtools/CMG/GluGluToHToTauTau_M-140_8TeV-powheg-pythia6/Summer12_DR53X-PU_S10_START53_V7A-v1/AODSIM/PAT_CMG_V5_16_0/cmgTuple_92_1_GXz.root
p213
(lp214
I01
aI10000
asV/store/cmst3/group/cmgtools/CMG/GluGluToHToTauTau_M-140_8TeV-powheg-pythia6/Summer12_DR53X-PU_S10_START53_V7A-v1/AODSIM/PAT_CMG_V5_16_0/cmgTuple_94_1_2r2.root
p215
(lp216
I01
aI10000
asV/store/cmst3/group/cmgtools/CMG/GluGluToHToTauTau_M-140_8TeV-powheg-pythia6/Summer12_DR53X-PU_S10_START53_V7A-v1/AODSIM/PAT_CMG_V5_16_0/cmgTuple_13_1_0fM.root
p217
(lp218
I01
aI10000
asV/store/cmst3/group/cmgtools/CMG/GluGluToHToTauTau_M-140_8TeV-powheg-pythia6/Summer12_DR53X-PU_S10_START53_V7A-v1/AODSIM/PAT_CMG_V5_16_0/cmgTuple_36_1_fAe.root
p219
(lp220
I01
aI10000
asV/store/cmst3/group/cmgtools/CMG/GluGluToHToTauTau_M-140_8TeV-powheg-pythia6/Summer12_DR53X-PU_S10_START53_V7A-v1/AODSIM/PAT_CMG_V5_16_0/cmgTuple_58_1_ksO.root
p221
(lp222
I01
aI10000
asV/store/cmst3/group/cmgtools/CMG/GluGluToHToTauTau_M-140_8TeV-powheg-pythia6/Summer12_DR53X-PU_S10_START53_V7A-v1/AODSIM/PAT_CMG_V5_16_0/cmgTuple_44_1_jde.root
p223
(lp224
I01
aI10000
asV/store/cmst3/group/cmgtools/CMG/GluGluToHToTauTau_M-140_8TeV-powheg-pythia6/Summer12_DR53X-PU_S10_START53_V7A-v1/AODSIM/PAT_CMG_V5_16_0/cmgTuple_7_1_wIT.root
p225
(lp226
I01
aI10000
asV/store/cmst3/group/cmgtools/CMG/GluGluToHToTauTau_M-140_8TeV-powheg-pythia6/Summer12_DR53X-PU_S10_START53_V7A-v1/AODSIM/PAT_CMG_V5_16_0/cmgTuple_3_1_NTA.root
p227
(lp228
I01
aI10000
asV/store/cmst3/group/cmgtools/CMG/GluGluToHToTauTau_M-140_8TeV-powheg-pythia6/Summer12_DR53X-PU_S10_START53_V7A-v1/AODSIM/PAT_CMG_V5_16_0/cmgTuple_55_1_dPB.root
p229
(lp230
I01
aI10000
asV/store/cmst3/group/cmgtools/CMG/GluGluToHToTauTau_M-140_8TeV-powheg-pythia6/Summer12_DR53X-PU_S10_START53_V7A-v1/AODSIM/PAT_CMG_V5_16_0/cmgTuple_41_1_eNn.root
p231
(lp232
I01
aI10000
asV/store/cmst3/group/cmgtools/CMG/GluGluToHToTauTau_M-140_8TeV-powheg-pythia6/Summer12_DR53X-PU_S10_START53_V7A-v1/AODSIM/PAT_CMG_V5_16_0/cmgTuple_17_1_z76.root
p233
(lp234
I01
aI10000
asV/store/cmst3/group/cmgtools/CMG/GluGluToHToTauTau_M-140_8TeV-powheg-pythia6/Summer12_DR53X-PU_S10_START53_V7A-v1/AODSIM/PAT_CMG_V5_16_0/cmgTuple_101_1_qCK.root
p235
(lp236
I01
aI3734
asV/store/cmst3/group/cmgtools/CMG/GluGluToHToTauTau_M-140_8TeV-powheg-pythia6/Summer12_DR53X-PU_S10_START53_V7A-v1/AODSIM/PAT_CMG_V5_16_0/cmgTuple_53_1_G96.root
p237
(lp238
I01
aI10000
asV/store/cmst3/group/cmgtools/CMG/GluGluToHToTauTau_M-140_8TeV-powheg-pythia6/Summer12_DR53X-PU_S10_START53_V7A-v1/AODSIM/PAT_CMG_V5_16_0/cmgTuple_12_1_LcN.root
p239
(lp240
I01
aI10000
asV/store/cmst3/group/cmgtools/CMG/GluGluToHToTauTau_M-140_8TeV-powheg-pythia6/Summer12_DR53X-PU_S10_START53_V7A-v1/AODSIM/PAT_CMG_V5_16_0/cmgTuple_62_1_1oP.root
p241
(lp242
I01
aI10000
asV/store/cmst3/group/cmgtools/CMG/GluGluToHToTauTau_M-140_8TeV-powheg-pythia6/Summer12_DR53X-PU_S10_START53_V7A-v1/AODSIM/PAT_CMG_V5_16_0/cmgTuple_28_1_M9V.root
p243
(lp244
I01
aI10000
asV/store/cmst3/group/cmgtools/CMG/GluGluToHToTauTau_M-140_8TeV-powheg-pythia6/Summer12_DR53X-PU_S10_START53_V7A-v1/AODSIM/PAT_CMG_V5_16_0/cmgTuple_8_1_Hpr.root
p245
(lp246
I01
aI10000
asV/store/cmst3/group/cmgtools/CMG/GluGluToHToTauTau_M-140_8TeV-powheg-pythia6/Summer12_DR53X-PU_S10_START53_V7A-v1/AODSIM/PAT_CMG_V5_16_0/cmgTuple_60_1_zkR.root
p247
(lp248
I01
aI10000
asV/store/cmst3/group/cmgtools/CMG/GluGluToHToTauTau_M-140_8TeV-powheg-pythia6/Summer12_DR53X-PU_S10_START53_V7A-v1/AODSIM/PAT_CMG_V5_16_0/cmgTuple_87_1_bVB.root
p249
(lp250
I01
aI10000
asV/store/cmst3/group/cmgtools/CMG/GluGluToHToTauTau_M-140_8TeV-powheg-pythia6/Summer12_DR53X-PU_S10_START53_V7A-v1/AODSIM/PAT_CMG_V5_16_0/cmgTuple_42_1_vKQ.root
p251
(lp252
I01
aI10000
asV/store/cmst3/group/cmgtools/CMG/GluGluToHToTauTau_M-140_8TeV-powheg-pythia6/Summer12_DR53X-PU_S10_START53_V7A-v1/AODSIM/PAT_CMG_V5_16_0/cmgTuple_69_1_qXd.root
p253
(lp254
I01
aI10000
asV/store/cmst3/group/cmgtools/CMG/GluGluToHToTauTau_M-140_8TeV-powheg-pythia6/Summer12_DR53X-PU_S10_START53_V7A-v1/AODSIM/PAT_CMG_V5_16_0/cmgTuple_19_1_SkA.root
p255
(lp256
I01
aI10000
asV/store/cmst3/group/cmgtools/CMG/GluGluToHToTauTau_M-140_8TeV-powheg-pythia6/Summer12_DR53X-PU_S10_START53_V7A-v1/AODSIM/PAT_CMG_V5_16_0/cmgTuple_39_1_W9C.root
p257
(lp258
I01
aI10000
asV/store/cmst3/group/cmgtools/CMG/GluGluToHToTauTau_M-140_8TeV-powheg-pythia6/Summer12_DR53X-PU_S10_START53_V7A-v1/AODSIM/PAT_CMG_V5_16_0/cmgTuple_54_1_VTw.root
p259
(lp260
I01
aI10000
asV/store/cmst3/group/cmgtools/CMG/GluGluToHToTauTau_M-140_8TeV-powheg-pythia6/Summer12_DR53X-PU_S10_START53_V7A-v1/AODSIM/PAT_CMG_V5_16_0/cmgTuple_48_1_J6h.root
p261
(lp262
I01
aI10000
asV/store/cmst3/group/cmgtools/CMG/GluGluToHToTauTau_M-140_8TeV-powheg-pythia6/Summer12_DR53X-PU_S10_START53_V7A-v1/AODSIM/PAT_CMG_V5_16_0/cmgTuple_20_1_x4m.root
p263
(lp264
I01
aI10000
asV/store/cmst3/group/cmgtools/CMG/GluGluToHToTauTau_M-140_8TeV-powheg-pythia6/Summer12_DR53X-PU_S10_START53_V7A-v1/AODSIM/PAT_CMG_V5_16_0/cmgTuple_49_1_4PY.root
p265
(lp266
I01
aI10000
asV/store/cmst3/group/cmgtools/CMG/GluGluToHToTauTau_M-140_8TeV-powheg-pythia6/Summer12_DR53X-PU_S10_START53_V7A-v1/AODSIM/PAT_CMG_V5_16_0/cmgTuple_61_1_9Nn.root
p267
(lp268
I01
aI10000
asV/store/cmst3/group/cmgtools/CMG/GluGluToHToTauTau_M-140_8TeV-powheg-pythia6/Summer12_DR53X-PU_S10_START53_V7A-v1/AODSIM/PAT_CMG_V5_16_0/cmgTuple_76_1_f9h.root
p269
(lp270
I01
aI10000
asV/store/cmst3/group/cmgtools/CMG/GluGluToHToTauTau_M-140_8TeV-powheg-pythia6/Summer12_DR53X-PU_S10_START53_V7A-v1/AODSIM/PAT_CMG_V5_16_0/cmgTuple_51_1_RaQ.root
p271
(lp272
I01
aI10000
asV/store/cmst3/group/cmgtools/CMG/GluGluToHToTauTau_M-140_8TeV-powheg-pythia6/Summer12_DR53X-PU_S10_START53_V7A-v1/AODSIM/PAT_CMG_V5_16_0/cmgTuple_73_1_F5Y.root
p273
(lp274
I01
aI10000
asV/store/cmst3/group/cmgtools/CMG/GluGluToHToTauTau_M-140_8TeV-powheg-pythia6/Summer12_DR53X-PU_S10_START53_V7A-v1/AODSIM/PAT_CMG_V5_16_0/cmgTuple_2_1_Tl4.root
p275
(lp276
I01
aI10000
asV/store/cmst3/group/cmgtools/CMG/GluGluToHToTauTau_M-140_8TeV-powheg-pythia6/Summer12_DR53X-PU_S10_START53_V7A-v1/AODSIM/PAT_CMG_V5_16_0/cmgTuple_11_1_gv9.root
p277
(lp278
I01
aI10000
asV/store/cmst3/group/cmgtools/CMG/GluGluToHToTauTau_M-140_8TeV-powheg-pythia6/Summer12_DR53X-PU_S10_START53_V7A-v1/AODSIM/PAT_CMG_V5_16_0/cmgTuple_35_1_i1Q.root
p279
(lp280
I01
aI10000
asV/store/cmst3/group/cmgtools/CMG/GluGluToHToTauTau_M-140_8TeV-powheg-pythia6/Summer12_DR53X-PU_S10_START53_V7A-v1/AODSIM/PAT_CMG_V5_16_0/cmgTuple_67_1_iXR.root
p281
(lp282
I01
aI10000
asV/store/cmst3/group/cmgtools/CMG/GluGluToHToTauTau_M-140_8TeV-powheg-pythia6/Summer12_DR53X-PU_S10_START53_V7A-v1/AODSIM/PAT_CMG_V5_16_0/cmgTuple_84_1_Gjq.root
p283
(lp284
I01
aI10000
asV/store/cmst3/group/cmgtools/CMG/GluGluToHToTauTau_M-140_8TeV-powheg-pythia6/Summer12_DR53X-PU_S10_START53_V7A-v1/AODSIM/PAT_CMG_V5_16_0/cmgTuple_79_1_arM.root
p285
(lp286
I01
aI10000
asV/store/cmst3/group/cmgtools/CMG/GluGluToHToTauTau_M-140_8TeV-powheg-pythia6/Summer12_DR53X-PU_S10_START53_V7A-v1/AODSIM/PAT_CMG_V5_16_0/cmgTuple_100_1_8p1.root
p287
(lp288
I01
aI10000
asV/store/cmst3/group/cmgtools/CMG/GluGluToHToTauTau_M-140_8TeV-powheg-pythia6/Summer12_DR53X-PU_S10_START53_V7A-v1/AODSIM/PAT_CMG_V5_16_0/cmgTuple_9_1_lFS.root
p289
(lp290
I01
aI10000
asV/store/cmst3/group/cmgtools/CMG/GluGluToHToTauTau_M-140_8TeV-powheg-pythia6/Summer12_DR53X-PU_S10_START53_V7A-v1/AODSIM/PAT_CMG_V5_16_0/cmgTuple_38_1_l0U.root
p291
(lp292
I01
aI10000
asV/store/cmst3/group/cmgtools/CMG/GluGluToHToTauTau_M-140_8TeV-powheg-pythia6/Summer12_DR53X-PU_S10_START53_V7A-v1/AODSIM/PAT_CMG_V5_16_0/cmgTuple_72_1_I06.root
p293
(lp294
I01
aI10000
asV/store/cmst3/group/cmgtools/CMG/GluGluToHToTauTau_M-140_8TeV-powheg-pythia6/Summer12_DR53X-PU_S10_START53_V7A-v1/AODSIM/PAT_CMG_V5_16_0/cmgTuple_63_1_spi.root
p295
(lp296
I01
aI10000
asV/store/cmst3/group/cmgtools/CMG/GluGluToHToTauTau_M-140_8TeV-powheg-pythia6/Summer12_DR53X-PU_S10_START53_V7A-v1/AODSIM/PAT_CMG_V5_16_0/cmgTuple_81_1_34z.root
p297
(lp298
I01
aI10000
asV/store/cmst3/group/cmgtools/CMG/GluGluToHToTauTau_M-140_8TeV-powheg-pythia6/Summer12_DR53X-PU_S10_START53_V7A-v1/AODSIM/PAT_CMG_V5_16_0/cmgTuple_4_1_rmH.root
p299
(lp300
I01
aI10000
asV/store/cmst3/group/cmgtools/CMG/GluGluToHToTauTau_M-140_8TeV-powheg-pythia6/Summer12_DR53X-PU_S10_START53_V7A-v1/AODSIM/PAT_CMG_V5_16_0/cmgTuple_46_1_Ojz.root
p301
(lp302
I01
aI10000
asV/store/cmst3/group/cmgtools/CMG/GluGluToHToTauTau_M-140_8TeV-powheg-pythia6/Summer12_DR53X-PU_S10_START53_V7A-v1/AODSIM/PAT_CMG_V5_16_0/cmgTuple_95_1_7VC.root
p303
(lp304
I01
aI10000
asV/store/cmst3/group/cmgtools/CMG/GluGluToHToTauTau_M-140_8TeV-powheg-pythia6/Summer12_DR53X-PU_S10_START53_V7A-v1/AODSIM/PAT_CMG_V5_16_0/cmgTuple_43_1_9fU.root
p305
(lp306
I01
aI10000
asV/store/cmst3/group/cmgtools/CMG/GluGluToHToTauTau_M-140_8TeV-powheg-pythia6/Summer12_DR53X-PU_S10_START53_V7A-v1/AODSIM/PAT_CMG_V5_16_0/cmgTuple_66_1_yvh.root
p307
(lp308
I01
aI10000
asV/store/cmst3/group/cmgtools/CMG/GluGluToHToTauTau_M-140_8TeV-powheg-pythia6/Summer12_DR53X-PU_S10_START53_V7A-v1/AODSIM/PAT_CMG_V5_16_0/cmgTuple_82_1_Trt.root
p309
(lp310
I01
aI10000
asV/store/cmst3/group/cmgtools/CMG/GluGluToHToTauTau_M-140_8TeV-powheg-pythia6/Summer12_DR53X-PU_S10_START53_V7A-v1/AODSIM/PAT_CMG_V5_16_0/cmgTuple_86_1_0j3.root
p311
(lp312
I01
aI10000
asV/store/cmst3/group/cmgtools/CMG/GluGluToHToTauTau_M-140_8TeV-powheg-pythia6/Summer12_DR53X-PU_S10_START53_V7A-v1/AODSIM/PAT_CMG_V5_16_0/cmgTuple_89_1_0E0.root
p313
(lp314
I01
aI10000
asV/store/cmst3/group/cmgtools/CMG/GluGluToHToTauTau_M-140_8TeV-powheg-pythia6/Summer12_DR53X-PU_S10_START53_V7A-v1/AODSIM/PAT_CMG_V5_16_0/cmgTuple_77_1_lyI.root
p315
(lp316
I01
aI10000
asV/store/cmst3/group/cmgtools/CMG/GluGluToHToTauTau_M-140_8TeV-powheg-pythia6/Summer12_DR53X-PU_S10_START53_V7A-v1/AODSIM/PAT_CMG_V5_16_0/cmgTuple_50_1_HFK.root
p317
(lp318
I01
aI10000
asV/store/cmst3/group/cmgtools/CMG/GluGluToHToTauTau_M-140_8TeV-powheg-pythia6/Summer12_DR53X-PU_S10_START53_V7A-v1/AODSIM/PAT_CMG_V5_16_0/cmgTuple_68_1_EE0.root
p319
(lp320
I01
aI10000
asV/store/cmst3/group/cmgtools/CMG/GluGluToHToTauTau_M-140_8TeV-powheg-pythia6/Summer12_DR53X-PU_S10_START53_V7A-v1/AODSIM/PAT_CMG_V5_16_0/cmgTuple_6_1_KPK.root
p321
(lp322
I01
aI10000
asV/store/cmst3/group/cmgtools/CMG/GluGluToHToTauTau_M-140_8TeV-powheg-pythia6/Summer12_DR53X-PU_S10_START53_V7A-v1/AODSIM/PAT_CMG_V5_16_0/cmgTuple_80_1_K0c.root
p323
(lp324
I01
aI10000
asV/store/cmst3/group/cmgtools/CMG/GluGluToHToTauTau_M-140_8TeV-powheg-pythia6/Summer12_DR53X-PU_S10_START53_V7A-v1/AODSIM/PAT_CMG_V5_16_0/cmgTuple_65_1_VJV.root
p325
(lp326
I01
aI10000
asV/store/cmst3/group/cmgtools/CMG/GluGluToHToTauTau_M-140_8TeV-powheg-pythia6/Summer12_DR53X-PU_S10_START53_V7A-v1/AODSIM/PAT_CMG_V5_16_0/cmgTuple_91_1_hxe.root
p327
(lp328
I01
aI10000
asV/store/cmst3/group/cmgtools/CMG/GluGluToHToTauTau_M-140_8TeV-powheg-pythia6/Summer12_DR53X-PU_S10_START53_V7A-v1/AODSIM/PAT_CMG_V5_16_0/cmgTuple_64_1_tDG.root
p329
(lp330
I01
aI10000
asV/store/cmst3/group/cmgtools/CMG/GluGluToHToTauTau_M-140_8TeV-powheg-pythia6/Summer12_DR53X-PU_S10_START53_V7A-v1/AODSIM/PAT_CMG_V5_16_0/cmgTuple_25_1_Qb1.root
p331
(lp332
I01
aI10000
assVPhysicsGroup
p333
VCMG
p334
sVFilesCount
p335
I101
sVFilesEntries
p336
I999932
sVRunList
p337
(lp338
sVValidDuplicates
p339
(dp340
sVPrimaryDataset
p341
V/GluGluToHToTauTau_M-140_8TeV-powheg-pythia6/Summer12_DR53X-PU_S10_START53_V7A-v1/AODSIM
p342
sVStatus
p343
VVALID
p344
sVName
p345
V/GluGluToHToTauTau_M-140_8TeV-powheg-pythia6/Summer12_DR53X-PU_S10_START53_V7A-v1/AODSIM/PAT_CMG_V5_16_0
p346
sVTopdir
p347
V/eos/cms/store/cmst3/group/cmgtools/CMG
p348
sVdata
p349
(dp350
sVFilesBad
p351
I0
sVMinRun
p352
I-1
sVAlgoList
p353
(lp354
sVTierList
p355
(lp356
sVDateCreated
p357
V1370943234
p358
sVCreatedBy
p359
Vcmgtools_group
p360
sVMaxRun
p361
I-1
sVBadJobs
p362
(lp363
ssg89
I01
ssS'MonitorJobs'
p364
(dp365
S'LSFJobStatus'
p366
(dp367
g92
S'GluGluToHToTauTau_M-140_8TeV-powheg-pythia6/Summer12_DR53X-PU_S10_START53_V7A-v1/AODSIM/PAT_CMG_V5_16_0_1377467457/HTT_24Jul_newTES_manzoni_Up_Jobs/Job_20/LSFJOB_440972719/STDOUT.gz'
p368
sg93
S'GluGluToHToTauTau_M-140_8TeV-powheg-pythia6/Summer12_DR53X-PU_S10_START53_V7A-v1/AODSIM/PAT_CMG_V5_16_0_1377467457/HTT_24Jul_newTES_manzoni_Up_Jobs/Job_21/LSFJOB_440972871/STDOUT.gz'
p369
sg94
S'GluGluToHToTauTau_M-140_8TeV-powheg-pythia6/Summer12_DR53X-PU_S10_START53_V7A-v1/AODSIM/PAT_CMG_V5_16_0_1377467457/HTT_24Jul_newTES_manzoni_Up_Jobs/Job_19/LSFJOB_440972599/STDOUT.gz'
p370
sg95
S'GluGluToHToTauTau_M-140_8TeV-powheg-pythia6/Summer12_DR53X-PU_S10_START53_V7A-v1/AODSIM/PAT_CMG_V5_16_0_1377467457/HTT_24Jul_newTES_manzoni_Up_Jobs/Job_18/LSFJOB_440972486/STDOUT.gz'
p371
sg96
S'GluGluToHToTauTau_M-140_8TeV-powheg-pythia6/Summer12_DR53X-PU_S10_START53_V7A-v1/AODSIM/PAT_CMG_V5_16_0_1377467457/HTT_24Jul_newTES_manzoni_Up_Jobs/Job_15/LSFJOB_440972215/STDOUT.gz'
p372
sg97
S'GluGluToHToTauTau_M-140_8TeV-powheg-pythia6/Summer12_DR53X-PU_S10_START53_V7A-v1/AODSIM/PAT_CMG_V5_16_0_1377467457/HTT_24Jul_newTES_manzoni_Up_Jobs/Job_14/LSFJOB_440972126/STDOUT.gz'
p373
sg98
S'GluGluToHToTauTau_M-140_8TeV-powheg-pythia6/Summer12_DR53X-PU_S10_START53_V7A-v1/AODSIM/PAT_CMG_V5_16_0_1377467457/HTT_24Jul_newTES_manzoni_Up_Jobs/Job_17/LSFJOB_440972392/STDOUT.gz'
p374
sg99
S'GluGluToHToTauTau_M-140_8TeV-powheg-pythia6/Summer12_DR53X-PU_S10_START53_V7A-v1/AODSIM/PAT_CMG_V5_16_0_1377467457/HTT_24Jul_newTES_manzoni_Up_Jobs/Job_16/LSFJOB_440972303/STDOUT.gz'
p375
sg100
S'GluGluToHToTauTau_M-140_8TeV-powheg-pythia6/Summer12_DR53X-PU_S10_START53_V7A-v1/AODSIM/PAT_CMG_V5_16_0_1377467457/HTT_24Jul_newTES_manzoni_Up_Jobs/Job_11/LSFJOB_440971798/STDOUT.gz'
p376
sg101
S'GluGluToHToTauTau_M-140_8TeV-powheg-pythia6/Summer12_DR53X-PU_S10_START53_V7A-v1/AODSIM/PAT_CMG_V5_16_0_1377467457/HTT_24Jul_newTES_manzoni_Up_Jobs/Job_10/LSFJOB_440971662/STDOUT.gz'
p377
sg102
S'GluGluToHToTauTau_M-140_8TeV-powheg-pythia6/Summer12_DR53X-PU_S10_START53_V7A-v1/AODSIM/PAT_CMG_V5_16_0_1377467457/HTT_24Jul_newTES_manzoni_Up_Jobs/Job_13/LSFJOB_440972032/STDOUT.gz'
p378
sg103
S'GluGluToHToTauTau_M-140_8TeV-powheg-pythia6/Summer12_DR53X-PU_S10_START53_V7A-v1/AODSIM/PAT_CMG_V5_16_0_1377467457/HTT_24Jul_newTES_manzoni_Up_Jobs/Job_12/LSFJOB_440971899/STDOUT.gz'
p379
sg104
S'GluGluToHToTauTau_M-140_8TeV-powheg-pythia6/Summer12_DR53X-PU_S10_START53_V7A-v1/AODSIM/PAT_CMG_V5_16_0_1377467457/HTT_24Jul_newTES_manzoni_Up_Jobs/Job_5/LSFJOB_440971221/STDOUT.gz'
p380
sg105
S'GluGluToHToTauTau_M-140_8TeV-powheg-pythia6/Summer12_DR53X-PU_S10_START53_V7A-v1/AODSIM/PAT_CMG_V5_16_0_1377467457/HTT_24Jul_newTES_manzoni_Up_Jobs/Job_4/LSFJOB_440971099/STDOUT.gz'
p381
sg106
S'GluGluToHToTauTau_M-140_8TeV-powheg-pythia6/Summer12_DR53X-PU_S10_START53_V7A-v1/AODSIM/PAT_CMG_V5_16_0_1377467457/HTT_24Jul_newTES_manzoni_Up_Jobs/Job_7/LSFJOB_440971403/STDOUT.gz'
p382
sg107
S'GluGluToHToTauTau_M-140_8TeV-powheg-pythia6/Summer12_DR53X-PU_S10_START53_V7A-v1/AODSIM/PAT_CMG_V5_16_0_1377467457/HTT_24Jul_newTES_manzoni_Up_Jobs/Job_6/LSFJOB_440971332/STDOUT.gz'
p383
sg108
S'GluGluToHToTauTau_M-140_8TeV-powheg-pythia6/Summer12_DR53X-PU_S10_START53_V7A-v1/AODSIM/PAT_CMG_V5_16_0_1377467457/HTT_24Jul_newTES_manzoni_Up_Jobs/Job_1/LSFJOB_440970839/STDOUT.gz'
p384
sg109
S'GluGluToHToTauTau_M-140_8TeV-powheg-pythia6/Summer12_DR53X-PU_S10_START53_V7A-v1/AODSIM/PAT_CMG_V5_16_0_1377467457/HTT_24Jul_newTES_manzoni_Up_Jobs/Job_3/LSFJOB_440971018/STDOUT.gz'
p385
sg110
S'GluGluToHToTauTau_M-140_8TeV-powheg-pythia6/Summer12_DR53X-PU_S10_START53_V7A-v1/AODSIM/PAT_CMG_V5_16_0_1377467457/HTT_24Jul_newTES_manzoni_Up_Jobs/Job_2/LSFJOB_440970918/STDOUT.gz'
p386
sg111
S'GluGluToHToTauTau_M-140_8TeV-powheg-pythia6/Summer12_DR53X-PU_S10_START53_V7A-v1/AODSIM/PAT_CMG_V5_16_0_1377467457/HTT_24Jul_newTES_manzoni_Up_Jobs/Job_9/LSFJOB_440971581/STDOUT.gz'
p387
sg112
S'GluGluToHToTauTau_M-140_8TeV-powheg-pythia6/Summer12_DR53X-PU_S10_START53_V7A-v1/AODSIM/PAT_CMG_V5_16_0_1377467457/HTT_24Jul_newTES_manzoni_Up_Jobs/Job_8/LSFJOB_440971471/STDOUT.gz'
p388
ssS'LSFJobIDs'
p389
(dp390
g92
S'440972719'
p391
sg93
S'440972871'
p392
sg94
S'440972599'
p393
sg95
S'440972486'
p394
sg96
S'440972215'
p395
sg97
S'440972126'
p396
sg98
S'440972392'
p397
sg99
S'440972303'
p398
sg100
S'440971798'
p399
sg101
S'440971662'
p400
sg102
S'440972032'
p401
sg103
S'440971899'
p402
sg104
S'440971221'
p403
sg105
S'440971099'
p404
sg106
S'440971403'
p405
sg107
S'440971332'
p406
sg108
S'440970839'
p407
sg109
S'440971018'
p408
sg110
S'440970918'
p409
sg111
S'440971581'
p410
sg112
S'440971471'
p411
sssS'FindOnCastor'
p412
(dp413
g51
S'/eos/cms/store/cmst3/group/cmgtools/CMG'
p414
sS'Directory'
p415
S'/eos/cms/store/cmst3/group/cmgtools/CMG/GluGluToHToTauTau_M-140_8TeV-powheg-pythia6/Summer12_DR53X-PU_S10_START53_V7A-v1/AODSIM/PAT_CMG_V5_16_0'
p416
ssS'CheckConfig'
p417
(dp418
g67
g68
ssS'FullCFG'
p419
(dp420
S'FullCFG'
p421
S'GluGluToHToTauTau_M-140_8TeV-powheg-pythia6/Summer12_DR53X-PU_S10_START53_V7A-v1/AODSIM/PAT_CMG_V5_16_0_1377467457/full_cfg.py'
p422
ssS'WriteJobReport'
p423
(dp424
S'SummaryFile'
p425
S'GluGluToHToTauTau_M-140_8TeV-powheg-pythia6/Summer12_DR53X-PU_S10_START53_V7A-v1/AODSIM/PAT_CMG_V5_16_0_1377467457/resubmit.sh'
p426
ssS'ExpandConfig'
p427
(dp428
S'ExpandedFullCFG'
p429
S'GluGluToHToTauTau_M-140_8TeV-powheg-pythia6/Summer12_DR53X-PU_S10_START53_V7A-v1/AODSIM/PAT_CMG_V5_16_0_1377467457/Expandedfull_cfg.py'
p430
ssS'RunTestEvents'
p431
(dp432
g67
g68
sS'TestCFG'
p433
S'GluGluToHToTauTau_M-140_8TeV-powheg-pythia6/Summer12_DR53X-PU_S10_START53_V7A-v1/AODSIM/PAT_CMG_V5_16_0_1377467457/test_cfg.py'
p434
ssS'SourceCFG'
p435
(dp436
S'SourceCFG'
p437
S'GluGluToHToTauTau_M-140_8TeV-powheg-pythia6/Summer12_DR53X-PU_S10_START53_V7A-v1/AODSIM/PAT_CMG_V5_16_0_1377467457/source_cfg.py'
p438
ssS'CheckForWrite'
p439
(dp440
g415
g416
sS'WriteAccess'
p441
I01
ssS'WriteToDatasets'
p442
(dp443
S'Added'
p444
I00
sg49
S'/GluGluToHToTauTau_M-140_8TeV-powheg-pythia6/Summer12_DR53X-PU_S10_START53_V7A-v1/AODSIM/PAT_CMG_V5_16_0/HTT_24Jul_newTES_manzoni_Up'
p445
sS'User'
p446
g82
ssS'RunCMSBatch'
p447
(dp448
S'BatchUser'
p449
g82
sS'SampleOutputDir'
p450
S'/store/cmst3/user/manzoni/CMG/GluGluToHToTauTau_M-140_8TeV-powheg-pythia6/Summer12_DR53X-PU_S10_START53_V7A-v1/AODSIM/PAT_CMG_V5_16_0/HTT_24Jul_newTES_manzoni_Up'
p451
sS'SampleDataset'
p452
g50
sS'LSFJobsTopDir'
p453
S'GluGluToHToTauTau_M-140_8TeV-powheg-pythia6/Summer12_DR53X-PU_S10_START53_V7A-v1/AODSIM/PAT_CMG_V5_16_0_1377467457/HTT_24Jul_newTES_manzoni_Up_Jobs'
p454
ssS'CreateJobDirectory'
p455
(dp456
S'JobDir'
p457
S'GluGluToHToTauTau_M-140_8TeV-powheg-pythia6/Summer12_DR53X-PU_S10_START53_V7A-v1/AODSIM/PAT_CMG_V5_16_0_1377467457'
p458
sS'PWD'
p459
S'/afs/cern.ch/user/m/manzoni/summer13/CMGTools/CMSSW_5_3_9/src/CMGTools/H2TauTau/prod/25aug_corrMC/up/mc'
p460
ssS'CleanJobFiles'
p461
(dp462
S'Compressed'
p463
(dp464
S'CompressedFiles'
p465
(lp466
ssS'Cleaned'
p467
(dp468
S'CleanedFiles'
p469
(lp470
g430
ag434
aS'GluGluToHToTauTau_M-140_8TeV-powheg-pythia6/Summer12_DR53X-PU_S10_START53_V7A-v1/AODSIM/PAT_CMG_V5_16_0_1377467457/diTau_fullsel_tree_CMG.root'
p471
aS'GluGluToHToTauTau_M-140_8TeV-powheg-pythia6/Summer12_DR53X-PU_S10_START53_V7A-v1/AODSIM/PAT_CMG_V5_16_0_1377467457/source_cfg.pyc'
p472
aS'GluGluToHToTauTau_M-140_8TeV-powheg-pythia6/Summer12_DR53X-PU_S10_START53_V7A-v1/AODSIM/PAT_CMG_V5_16_0_1377467457/Expandedfull_cfg.pyc'
p473
asssS'CheckForMask'
p474
(dp475
g3
g119
sg89
I01
ss.