(dp0
S'CheckJobStatus'
p1
(dp2
S'Report'
p3
(dp4
S'Files'
p5
(dp6
S'/store/cmst3/user/manzoni/CMG/SUSYBBHToTauTau_M-300_8TeV-pythia6-tauola/Summer12_DR53X-PU_S10_START53_V7A-v2/AODSIM/PAT_CMG_V5_16_0/HTT_24Jul_newTES_manzoni_Up/diTau_fullsel_tree_CMG_27.root'
p7
(I01
I7665
tp8
sS'/store/cmst3/user/manzoni/CMG/SUSYBBHToTauTau_M-300_8TeV-pythia6-tauola/Summer12_DR53X-PU_S10_START53_V7A-v2/AODSIM/PAT_CMG_V5_16_0/HTT_24Jul_newTES_manzoni_Up/diTau_fullsel_tree_CMG_12.root'
p9
(I01
I7524
tp10
sS'/store/cmst3/user/manzoni/CMG/SUSYBBHToTauTau_M-300_8TeV-pythia6-tauola/Summer12_DR53X-PU_S10_START53_V7A-v2/AODSIM/PAT_CMG_V5_16_0/HTT_24Jul_newTES_manzoni_Up/diTau_fullsel_tree_CMG_18.root'
p11
(I01
I7646
tp12
sS'/store/cmst3/user/manzoni/CMG/SUSYBBHToTauTau_M-300_8TeV-pythia6-tauola/Summer12_DR53X-PU_S10_START53_V7A-v2/AODSIM/PAT_CMG_V5_16_0/HTT_24Jul_newTES_manzoni_Up/diTau_fullsel_tree_CMG_32.root'
p13
(I01
I7452
tp14
sS'/store/cmst3/user/manzoni/CMG/SUSYBBHToTauTau_M-300_8TeV-pythia6-tauola/Summer12_DR53X-PU_S10_START53_V7A-v2/AODSIM/PAT_CMG_V5_16_0/HTT_24Jul_newTES_manzoni_Up/diTau_fullsel_tree_CMG_28.root'
p15
(I01
I7786
tp16
sS'/store/cmst3/user/manzoni/CMG/SUSYBBHToTauTau_M-300_8TeV-pythia6-tauola/Summer12_DR53X-PU_S10_START53_V7A-v2/AODSIM/PAT_CMG_V5_16_0/HTT_24Jul_newTES_manzoni_Up/diTau_fullsel_tree_CMG_31.root'
p17
(I01
I7590
tp18
sS'/store/cmst3/user/manzoni/CMG/SUSYBBHToTauTau_M-300_8TeV-pythia6-tauola/Summer12_DR53X-PU_S10_START53_V7A-v2/AODSIM/PAT_CMG_V5_16_0/HTT_24Jul_newTES_manzoni_Up/diTau_fullsel_tree_CMG_6.root'
p19
(I01
I7684
tp20
sS'/store/cmst3/user/manzoni/CMG/SUSYBBHToTauTau_M-300_8TeV-pythia6-tauola/Summer12_DR53X-PU_S10_START53_V7A-v2/AODSIM/PAT_CMG_V5_16_0/HTT_24Jul_newTES_manzoni_Up/diTau_fullsel_tree_CMG_24.root'
p21
(I01
I7772
tp22
sS'/store/cmst3/user/manzoni/CMG/SUSYBBHToTauTau_M-300_8TeV-pythia6-tauola/Summer12_DR53X-PU_S10_START53_V7A-v2/AODSIM/PAT_CMG_V5_16_0/HTT_24Jul_newTES_manzoni_Up/diTau_fullsel_tree_CMG_14.root'
p23
(I01
I7572
tp24
sS'/store/cmst3/user/manzoni/CMG/SUSYBBHToTauTau_M-300_8TeV-pythia6-tauola/Summer12_DR53X-PU_S10_START53_V7A-v2/AODSIM/PAT_CMG_V5_16_0/HTT_24Jul_newTES_manzoni_Up/diTau_fullsel_tree_CMG_5.root'
p25
(I01
I6102
tp26
sS'/store/cmst3/user/manzoni/CMG/SUSYBBHToTauTau_M-300_8TeV-pythia6-tauola/Summer12_DR53X-PU_S10_START53_V7A-v2/AODSIM/PAT_CMG_V5_16_0/HTT_24Jul_newTES_manzoni_Up/diTau_fullsel_tree_CMG_30.root'
p27
(I01
I7616
tp28
sS'/store/cmst3/user/manzoni/CMG/SUSYBBHToTauTau_M-300_8TeV-pythia6-tauola/Summer12_DR53X-PU_S10_START53_V7A-v2/AODSIM/PAT_CMG_V5_16_0/HTT_24Jul_newTES_manzoni_Up/diTau_fullsel_tree_CMG_19.root'
p29
(I01
I7658
tp30
sS'/store/cmst3/user/manzoni/CMG/SUSYBBHToTauTau_M-300_8TeV-pythia6-tauola/Summer12_DR53X-PU_S10_START53_V7A-v2/AODSIM/PAT_CMG_V5_16_0/HTT_24Jul_newTES_manzoni_Up/diTau_fullsel_tree_CMG_20.root'
p31
(I01
I7698
tp32
sS'/store/cmst3/user/manzoni/CMG/SUSYBBHToTauTau_M-300_8TeV-pythia6-tauola/Summer12_DR53X-PU_S10_START53_V7A-v2/AODSIM/PAT_CMG_V5_16_0/HTT_24Jul_newTES_manzoni_Up/diTau_fullsel_tree_CMG_16.root'
p33
(I01
I7781
tp34
sS'/store/cmst3/user/manzoni/CMG/SUSYBBHToTauTau_M-300_8TeV-pythia6-tauola/Summer12_DR53X-PU_S10_START53_V7A-v2/AODSIM/PAT_CMG_V5_16_0/HTT_24Jul_newTES_manzoni_Up/diTau_fullsel_tree_CMG_2.root'
p35
(I01
I7623
tp36
sS'/store/cmst3/user/manzoni/CMG/SUSYBBHToTauTau_M-300_8TeV-pythia6-tauola/Summer12_DR53X-PU_S10_START53_V7A-v2/AODSIM/PAT_CMG_V5_16_0/HTT_24Jul_newTES_manzoni_Up/diTau_fullsel_tree_CMG_26.root'
p37
(I01
I7718
tp38
sS'/store/cmst3/user/manzoni/CMG/SUSYBBHToTauTau_M-300_8TeV-pythia6-tauola/Summer12_DR53X-PU_S10_START53_V7A-v2/AODSIM/PAT_CMG_V5_16_0/HTT_24Jul_newTES_manzoni_Up/diTau_fullsel_tree_CMG_1.root'
p39
(I01
I6252
tp40
sS'/store/cmst3/user/manzoni/CMG/SUSYBBHToTauTau_M-300_8TeV-pythia6-tauola/Summer12_DR53X-PU_S10_START53_V7A-v2/AODSIM/PAT_CMG_V5_16_0/HTT_24Jul_newTES_manzoni_Up/diTau_fullsel_tree_CMG_25.root'
p41
(I01
I7594
tp42
sS'/store/cmst3/user/manzoni/CMG/SUSYBBHToTauTau_M-300_8TeV-pythia6-tauola/Summer12_DR53X-PU_S10_START53_V7A-v2/AODSIM/PAT_CMG_V5_16_0/HTT_24Jul_newTES_manzoni_Up/diTau_fullsel_tree_CMG_3.root'
p43
(I01
I7688
tp44
sS'/store/cmst3/user/manzoni/CMG/SUSYBBHToTauTau_M-300_8TeV-pythia6-tauola/Summer12_DR53X-PU_S10_START53_V7A-v2/AODSIM/PAT_CMG_V5_16_0/HTT_24Jul_newTES_manzoni_Up/diTau_fullsel_tree_CMG_34.root'
p45
(I01
I5087
tp46
sS'/store/cmst3/user/manzoni/CMG/SUSYBBHToTauTau_M-300_8TeV-pythia6-tauola/Summer12_DR53X-PU_S10_START53_V7A-v2/AODSIM/PAT_CMG_V5_16_0/HTT_24Jul_newTES_manzoni_Up/diTau_fullsel_tree_CMG_33.root'
p47
(I01
I7636
tp48
sS'/store/cmst3/user/manzoni/CMG/SUSYBBHToTauTau_M-300_8TeV-pythia6-tauola/Summer12_DR53X-PU_S10_START53_V7A-v2/AODSIM/PAT_CMG_V5_16_0/HTT_24Jul_newTES_manzoni_Up/diTau_fullsel_tree_CMG_22.root'
p49
(I01
I7574
tp50
sS'/store/cmst3/user/manzoni/CMG/SUSYBBHToTauTau_M-300_8TeV-pythia6-tauola/Summer12_DR53X-PU_S10_START53_V7A-v2/AODSIM/PAT_CMG_V5_16_0/HTT_24Jul_newTES_manzoni_Up/diTau_fullsel_tree_CMG_11.root'
p51
(I01
I7613
tp52
sS'/store/cmst3/user/manzoni/CMG/SUSYBBHToTauTau_M-300_8TeV-pythia6-tauola/Summer12_DR53X-PU_S10_START53_V7A-v2/AODSIM/PAT_CMG_V5_16_0/HTT_24Jul_newTES_manzoni_Up/diTau_fullsel_tree_CMG_21.root'
p53
(I01
I7655
tp54
sS'/store/cmst3/user/manzoni/CMG/SUSYBBHToTauTau_M-300_8TeV-pythia6-tauola/Summer12_DR53X-PU_S10_START53_V7A-v2/AODSIM/PAT_CMG_V5_16_0/HTT_24Jul_newTES_manzoni_Up/diTau_fullsel_tree_CMG_17.root'
p55
(I01
I7591
tp56
sS'/store/cmst3/user/manzoni/CMG/SUSYBBHToTauTau_M-300_8TeV-pythia6-tauola/Summer12_DR53X-PU_S10_START53_V7A-v2/AODSIM/PAT_CMG_V5_16_0/HTT_24Jul_newTES_manzoni_Up/diTau_fullsel_tree_CMG_23.root'
p57
(I01
I7640
tp58
sS'/store/cmst3/user/manzoni/CMG/SUSYBBHToTauTau_M-300_8TeV-pythia6-tauola/Summer12_DR53X-PU_S10_START53_V7A-v2/AODSIM/PAT_CMG_V5_16_0/HTT_24Jul_newTES_manzoni_Up/diTau_fullsel_tree_CMG_9.root'
p59
(I01
I5519
tp60
sS'/store/cmst3/user/manzoni/CMG/SUSYBBHToTauTau_M-300_8TeV-pythia6-tauola/Summer12_DR53X-PU_S10_START53_V7A-v2/AODSIM/PAT_CMG_V5_16_0/HTT_24Jul_newTES_manzoni_Up/diTau_fullsel_tree_CMG_15.root'
p61
(I01
I7750
tp62
sS'/store/cmst3/user/manzoni/CMG/SUSYBBHToTauTau_M-300_8TeV-pythia6-tauola/Summer12_DR53X-PU_S10_START53_V7A-v2/AODSIM/PAT_CMG_V5_16_0/HTT_24Jul_newTES_manzoni_Up/diTau_fullsel_tree_CMG_7.root'
p63
(I01
I7498
tp64
sS'/store/cmst3/user/manzoni/CMG/SUSYBBHToTauTau_M-300_8TeV-pythia6-tauola/Summer12_DR53X-PU_S10_START53_V7A-v2/AODSIM/PAT_CMG_V5_16_0/HTT_24Jul_newTES_manzoni_Up/diTau_fullsel_tree_CMG_8.root'
p65
(I01
I7591
tp66
sS'/store/cmst3/user/manzoni/CMG/SUSYBBHToTauTau_M-300_8TeV-pythia6-tauola/Summer12_DR53X-PU_S10_START53_V7A-v2/AODSIM/PAT_CMG_V5_16_0/HTT_24Jul_newTES_manzoni_Up/diTau_fullsel_tree_CMG_13.root'
p67
(I01
I7538
tp68
sS'/store/cmst3/user/manzoni/CMG/SUSYBBHToTauTau_M-300_8TeV-pythia6-tauola/Summer12_DR53X-PU_S10_START53_V7A-v2/AODSIM/PAT_CMG_V5_16_0/HTT_24Jul_newTES_manzoni_Up/diTau_fullsel_tree_CMG_4.root'
p69
(I01
I7592
tp70
sS'/store/cmst3/user/manzoni/CMG/SUSYBBHToTauTau_M-300_8TeV-pythia6-tauola/Summer12_DR53X-PU_S10_START53_V7A-v2/AODSIM/PAT_CMG_V5_16_0/HTT_24Jul_newTES_manzoni_Up/diTau_fullsel_tree_CMG_10.root'
p71
(I01
I7596
tp72
sS'/store/cmst3/user/manzoni/CMG/SUSYBBHToTauTau_M-300_8TeV-pythia6-tauola/Summer12_DR53X-PU_S10_START53_V7A-v2/AODSIM/PAT_CMG_V5_16_0/HTT_24Jul_newTES_manzoni_Up/diTau_fullsel_tree_CMG_29.root'
p73
(I01
I7731
tp74
ssS'Name'
p75
S'/SUSYBBHToTauTau_M-300_8TeV-pythia6-tauola/Summer12_DR53X-PU_S10_START53_V7A-v2/AODSIM/PAT_CMG_V5_16_0/HTT_24Jul_newTES_manzoni_Up'
p76
sS'Topdir'
p77
S'/eos/cms/store/cmst3/user/manzoni/CMG'
p78
sS'RunList'
p79
(lp80
sS'PathList'
p81
(lp82
S'/store/cmst3/user/manzoni/CMG/SUSYBBHToTauTau_M-300_8TeV-pythia6-tauola/Summer12_DR53X-PU_S10_START53_V7A-v2/AODSIM/PAT_CMG_V5_16_0/HTT_24Jul_newTES_manzoni_Up'
p83
asS'AlgoList'
p84
(lp85
sS'PrimaryDatasetFraction'
p86
F0.25205720572057205
sS'FilesGood'
p87
I34
sS'PrimaryDatasetEntries'
p88
I999900
sS'data'
p89
(dp90
sS'FilesBad'
p91
I0
sS'ReportVersion'
p92
I3
sS'Status'
p93
S'VALID'
p94
sS'MaxRun'
p95
I-1
sS'PhysicsGroup'
p96
S'CMG'
p97
sS'MinRun'
p98
I-1
sS'StageHost'
p99
S'castorcms'
p100
sS'FilesCount'
p101
I34
sS'FilesEntries'
p102
I252032
sS'TierList'
p103
(lp104
sS'DateCreated'
p105
S'1377485428'
p106
sS'CreatedBy'
p107
S'manzoni'
p108
sS'ValidDuplicates'
p109
(dp110
sS'PrimaryDataset'
p111
S'/SUSYBBHToTauTau_M-300_8TeV-pythia6-tauola/Summer12_DR53X-PU_S10_START53_V7A-v2/AODSIM'
p112
sS'BadJobs'
p113
(lp114
ssS'MaskPresent'
p115
I01
sS'LSFJobStatusCheck'
p116
(dp117
S'SUSYBBHToTauTau_M-300_8TeV-pythia6-tauola/Summer12_DR53X-PU_S10_START53_V7A-v2/AODSIM/PAT_CMG_V5_16_0_1377467540/HTT_24Jul_newTES_manzoni_Up_Jobs/Job_12'
p118
g94
sS'SUSYBBHToTauTau_M-300_8TeV-pythia6-tauola/Summer12_DR53X-PU_S10_START53_V7A-v2/AODSIM/PAT_CMG_V5_16_0_1377467540/HTT_24Jul_newTES_manzoni_Up_Jobs/Job_13'
p119
g94
sS'SUSYBBHToTauTau_M-300_8TeV-pythia6-tauola/Summer12_DR53X-PU_S10_START53_V7A-v2/AODSIM/PAT_CMG_V5_16_0_1377467540/HTT_24Jul_newTES_manzoni_Up_Jobs/Job_10'
p120
g94
sS'SUSYBBHToTauTau_M-300_8TeV-pythia6-tauola/Summer12_DR53X-PU_S10_START53_V7A-v2/AODSIM/PAT_CMG_V5_16_0_1377467540/HTT_24Jul_newTES_manzoni_Up_Jobs/Job_11'
p121
g94
sS'SUSYBBHToTauTau_M-300_8TeV-pythia6-tauola/Summer12_DR53X-PU_S10_START53_V7A-v2/AODSIM/PAT_CMG_V5_16_0_1377467540/HTT_24Jul_newTES_manzoni_Up_Jobs/Job_16'
p122
g94
sS'SUSYBBHToTauTau_M-300_8TeV-pythia6-tauola/Summer12_DR53X-PU_S10_START53_V7A-v2/AODSIM/PAT_CMG_V5_16_0_1377467540/HTT_24Jul_newTES_manzoni_Up_Jobs/Job_17'
p123
g94
sS'SUSYBBHToTauTau_M-300_8TeV-pythia6-tauola/Summer12_DR53X-PU_S10_START53_V7A-v2/AODSIM/PAT_CMG_V5_16_0_1377467540/HTT_24Jul_newTES_manzoni_Up_Jobs/Job_14'
p124
g94
sS'SUSYBBHToTauTau_M-300_8TeV-pythia6-tauola/Summer12_DR53X-PU_S10_START53_V7A-v2/AODSIM/PAT_CMG_V5_16_0_1377467540/HTT_24Jul_newTES_manzoni_Up_Jobs/Job_15'
p125
g94
sS'SUSYBBHToTauTau_M-300_8TeV-pythia6-tauola/Summer12_DR53X-PU_S10_START53_V7A-v2/AODSIM/PAT_CMG_V5_16_0_1377467540/HTT_24Jul_newTES_manzoni_Up_Jobs/Job_34'
p126
g94
sS'SUSYBBHToTauTau_M-300_8TeV-pythia6-tauola/Summer12_DR53X-PU_S10_START53_V7A-v2/AODSIM/PAT_CMG_V5_16_0_1377467540/HTT_24Jul_newTES_manzoni_Up_Jobs/Job_18'
p127
g94
sS'SUSYBBHToTauTau_M-300_8TeV-pythia6-tauola/Summer12_DR53X-PU_S10_START53_V7A-v2/AODSIM/PAT_CMG_V5_16_0_1377467540/HTT_24Jul_newTES_manzoni_Up_Jobs/Job_19'
p128
g94
sS'SUSYBBHToTauTau_M-300_8TeV-pythia6-tauola/Summer12_DR53X-PU_S10_START53_V7A-v2/AODSIM/PAT_CMG_V5_16_0_1377467540/HTT_24Jul_newTES_manzoni_Up_Jobs/Job_30'
p129
g94
sS'SUSYBBHToTauTau_M-300_8TeV-pythia6-tauola/Summer12_DR53X-PU_S10_START53_V7A-v2/AODSIM/PAT_CMG_V5_16_0_1377467540/HTT_24Jul_newTES_manzoni_Up_Jobs/Job_31'
p130
g94
sS'SUSYBBHToTauTau_M-300_8TeV-pythia6-tauola/Summer12_DR53X-PU_S10_START53_V7A-v2/AODSIM/PAT_CMG_V5_16_0_1377467540/HTT_24Jul_newTES_manzoni_Up_Jobs/Job_32'
p131
g94
sS'SUSYBBHToTauTau_M-300_8TeV-pythia6-tauola/Summer12_DR53X-PU_S10_START53_V7A-v2/AODSIM/PAT_CMG_V5_16_0_1377467540/HTT_24Jul_newTES_manzoni_Up_Jobs/Job_33'
p132
g94
sS'SUSYBBHToTauTau_M-300_8TeV-pythia6-tauola/Summer12_DR53X-PU_S10_START53_V7A-v2/AODSIM/PAT_CMG_V5_16_0_1377467540/HTT_24Jul_newTES_manzoni_Up_Jobs/Job_8'
p133
g94
sS'SUSYBBHToTauTau_M-300_8TeV-pythia6-tauola/Summer12_DR53X-PU_S10_START53_V7A-v2/AODSIM/PAT_CMG_V5_16_0_1377467540/HTT_24Jul_newTES_manzoni_Up_Jobs/Job_9'
p134
g94
sS'SUSYBBHToTauTau_M-300_8TeV-pythia6-tauola/Summer12_DR53X-PU_S10_START53_V7A-v2/AODSIM/PAT_CMG_V5_16_0_1377467540/HTT_24Jul_newTES_manzoni_Up_Jobs/Job_1'
p135
g94
sS'SUSYBBHToTauTau_M-300_8TeV-pythia6-tauola/Summer12_DR53X-PU_S10_START53_V7A-v2/AODSIM/PAT_CMG_V5_16_0_1377467540/HTT_24Jul_newTES_manzoni_Up_Jobs/Job_2'
p136
g94
sS'SUSYBBHToTauTau_M-300_8TeV-pythia6-tauola/Summer12_DR53X-PU_S10_START53_V7A-v2/AODSIM/PAT_CMG_V5_16_0_1377467540/HTT_24Jul_newTES_manzoni_Up_Jobs/Job_3'
p137
g94
sS'SUSYBBHToTauTau_M-300_8TeV-pythia6-tauola/Summer12_DR53X-PU_S10_START53_V7A-v2/AODSIM/PAT_CMG_V5_16_0_1377467540/HTT_24Jul_newTES_manzoni_Up_Jobs/Job_4'
p138
g94
sS'SUSYBBHToTauTau_M-300_8TeV-pythia6-tauola/Summer12_DR53X-PU_S10_START53_V7A-v2/AODSIM/PAT_CMG_V5_16_0_1377467540/HTT_24Jul_newTES_manzoni_Up_Jobs/Job_5'
p139
g94
sS'SUSYBBHToTauTau_M-300_8TeV-pythia6-tauola/Summer12_DR53X-PU_S10_START53_V7A-v2/AODSIM/PAT_CMG_V5_16_0_1377467540/HTT_24Jul_newTES_manzoni_Up_Jobs/Job_6'
p140
g94
sS'SUSYBBHToTauTau_M-300_8TeV-pythia6-tauola/Summer12_DR53X-PU_S10_START53_V7A-v2/AODSIM/PAT_CMG_V5_16_0_1377467540/HTT_24Jul_newTES_manzoni_Up_Jobs/Job_7'
p141
g94
sS'SUSYBBHToTauTau_M-300_8TeV-pythia6-tauola/Summer12_DR53X-PU_S10_START53_V7A-v2/AODSIM/PAT_CMG_V5_16_0_1377467540/HTT_24Jul_newTES_manzoni_Up_Jobs/Job_29'
p142
g94
sS'SUSYBBHToTauTau_M-300_8TeV-pythia6-tauola/Summer12_DR53X-PU_S10_START53_V7A-v2/AODSIM/PAT_CMG_V5_16_0_1377467540/HTT_24Jul_newTES_manzoni_Up_Jobs/Job_28'
p143
g94
sS'SUSYBBHToTauTau_M-300_8TeV-pythia6-tauola/Summer12_DR53X-PU_S10_START53_V7A-v2/AODSIM/PAT_CMG_V5_16_0_1377467540/HTT_24Jul_newTES_manzoni_Up_Jobs/Job_27'
p144
g94
sS'SUSYBBHToTauTau_M-300_8TeV-pythia6-tauola/Summer12_DR53X-PU_S10_START53_V7A-v2/AODSIM/PAT_CMG_V5_16_0_1377467540/HTT_24Jul_newTES_manzoni_Up_Jobs/Job_26'
p145
g94
sS'SUSYBBHToTauTau_M-300_8TeV-pythia6-tauola/Summer12_DR53X-PU_S10_START53_V7A-v2/AODSIM/PAT_CMG_V5_16_0_1377467540/HTT_24Jul_newTES_manzoni_Up_Jobs/Job_25'
p146
g94
sS'SUSYBBHToTauTau_M-300_8TeV-pythia6-tauola/Summer12_DR53X-PU_S10_START53_V7A-v2/AODSIM/PAT_CMG_V5_16_0_1377467540/HTT_24Jul_newTES_manzoni_Up_Jobs/Job_24'
p147
g94
sS'SUSYBBHToTauTau_M-300_8TeV-pythia6-tauola/Summer12_DR53X-PU_S10_START53_V7A-v2/AODSIM/PAT_CMG_V5_16_0_1377467540/HTT_24Jul_newTES_manzoni_Up_Jobs/Job_23'
p148
g94
sS'SUSYBBHToTauTau_M-300_8TeV-pythia6-tauola/Summer12_DR53X-PU_S10_START53_V7A-v2/AODSIM/PAT_CMG_V5_16_0_1377467540/HTT_24Jul_newTES_manzoni_Up_Jobs/Job_22'
p149
g94
sS'SUSYBBHToTauTau_M-300_8TeV-pythia6-tauola/Summer12_DR53X-PU_S10_START53_V7A-v2/AODSIM/PAT_CMG_V5_16_0_1377467540/HTT_24Jul_newTES_manzoni_Up_Jobs/Job_21'
p150
g94
sS'SUSYBBHToTauTau_M-300_8TeV-pythia6-tauola/Summer12_DR53X-PU_S10_START53_V7A-v2/AODSIM/PAT_CMG_V5_16_0_1377467540/HTT_24Jul_newTES_manzoni_Up_Jobs/Job_20'
p151
g94
sssS'CheckDatasetExists'
p152
(dp153
S'Dataset'
p154
S'/SUSYBBHToTauTau_M-300_8TeV-pythia6-tauola/Summer12_DR53X-PU_S10_START53_V7A-v2/AODSIM/PAT_CMG_V5_16_0'
p155
ssS'GenerateMask'
p156
(dp157
g3
(dp158
VPathList
p159
(lp160
V/store/cmst3/group/cmgtools/CMG/SUSYBBHToTauTau_M-800_8TeV-pythia6-tauola/Summer12_DR53X-PU_S10_START53_V7A-v1/AODSIM/PAT_CMG_V5_16_0
p161
asVStageHost
p162
Vcastorcms
p163
sVPrimaryDatasetFraction
p164
F1.0
sVFilesGood
p165
I101
sVPrimaryDatasetEntries
p166
I1000432
sVReportVersion
p167
I3
sVFiles
p168
(dp169
V/store/cmst3/group/cmgtools/CMG/SUSYBBHToTauTau_M-800_8TeV-pythia6-tauola/Summer12_DR53X-PU_S10_START53_V7A-v1/AODSIM/PAT_CMG_V5_16_0/cmgTuple_9_1_ayd.root
p170
(lp171
I01
aI10000
asV/store/cmst3/group/cmgtools/CMG/SUSYBBHToTauTau_M-800_8TeV-pythia6-tauola/Summer12_DR53X-PU_S10_START53_V7A-v1/AODSIM/PAT_CMG_V5_16_0/cmgTuple_55_1_H4O.root
p172
(lp173
I01
aI10000
asV/store/cmst3/group/cmgtools/CMG/SUSYBBHToTauTau_M-800_8TeV-pythia6-tauola/Summer12_DR53X-PU_S10_START53_V7A-v1/AODSIM/PAT_CMG_V5_16_0/cmgTuple_11_1_FDZ.root
p174
(lp175
I01
aI10000
asV/store/cmst3/group/cmgtools/CMG/SUSYBBHToTauTau_M-800_8TeV-pythia6-tauola/Summer12_DR53X-PU_S10_START53_V7A-v1/AODSIM/PAT_CMG_V5_16_0/cmgTuple_8_1_kp6.root
p176
(lp177
I01
aI10000
asV/store/cmst3/group/cmgtools/CMG/SUSYBBHToTauTau_M-800_8TeV-pythia6-tauola/Summer12_DR53X-PU_S10_START53_V7A-v1/AODSIM/PAT_CMG_V5_16_0/cmgTuple_70_1_VCg.root
p178
(lp179
I01
aI10000
asV/store/cmst3/group/cmgtools/CMG/SUSYBBHToTauTau_M-800_8TeV-pythia6-tauola/Summer12_DR53X-PU_S10_START53_V7A-v1/AODSIM/PAT_CMG_V5_16_0/cmgTuple_64_1_9uk.root
p180
(lp181
I01
aI10000
asV/store/cmst3/group/cmgtools/CMG/SUSYBBHToTauTau_M-800_8TeV-pythia6-tauola/Summer12_DR53X-PU_S10_START53_V7A-v1/AODSIM/PAT_CMG_V5_16_0/cmgTuple_74_1_0ev.root
p182
(lp183
I01
aI10000
asV/store/cmst3/group/cmgtools/CMG/SUSYBBHToTauTau_M-800_8TeV-pythia6-tauola/Summer12_DR53X-PU_S10_START53_V7A-v1/AODSIM/PAT_CMG_V5_16_0/cmgTuple_39_1_Lk9.root
p184
(lp185
I01
aI10000
asV/store/cmst3/group/cmgtools/CMG/SUSYBBHToTauTau_M-800_8TeV-pythia6-tauola/Summer12_DR53X-PU_S10_START53_V7A-v1/AODSIM/PAT_CMG_V5_16_0/cmgTuple_28_1_OGm.root
p186
(lp187
I01
aI10000
asV/store/cmst3/group/cmgtools/CMG/SUSYBBHToTauTau_M-800_8TeV-pythia6-tauola/Summer12_DR53X-PU_S10_START53_V7A-v1/AODSIM/PAT_CMG_V5_16_0/cmgTuple_99_1_vjc.root
p188
(lp189
I01
aI10000
asV/store/cmst3/group/cmgtools/CMG/SUSYBBHToTauTau_M-800_8TeV-pythia6-tauola/Summer12_DR53X-PU_S10_START53_V7A-v1/AODSIM/PAT_CMG_V5_16_0/cmgTuple_68_1_K2Z.root
p190
(lp191
I01
aI10000
asV/store/cmst3/group/cmgtools/CMG/SUSYBBHToTauTau_M-800_8TeV-pythia6-tauola/Summer12_DR53X-PU_S10_START53_V7A-v1/AODSIM/PAT_CMG_V5_16_0/cmgTuple_101_1_klY.root
p192
(lp193
I01
aI4480
asV/store/cmst3/group/cmgtools/CMG/SUSYBBHToTauTau_M-800_8TeV-pythia6-tauola/Summer12_DR53X-PU_S10_START53_V7A-v1/AODSIM/PAT_CMG_V5_16_0/cmgTuple_97_1_H94.root
p194
(lp195
I01
aI10000
asV/store/cmst3/group/cmgtools/CMG/SUSYBBHToTauTau_M-800_8TeV-pythia6-tauola/Summer12_DR53X-PU_S10_START53_V7A-v1/AODSIM/PAT_CMG_V5_16_0/cmgTuple_96_1_Aqc.root
p196
(lp197
I01
aI10000
asV/store/cmst3/group/cmgtools/CMG/SUSYBBHToTauTau_M-800_8TeV-pythia6-tauola/Summer12_DR53X-PU_S10_START53_V7A-v1/AODSIM/PAT_CMG_V5_16_0/cmgTuple_40_1_p6h.root
p198
(lp199
I01
aI10000
asV/store/cmst3/group/cmgtools/CMG/SUSYBBHToTauTau_M-800_8TeV-pythia6-tauola/Summer12_DR53X-PU_S10_START53_V7A-v1/AODSIM/PAT_CMG_V5_16_0/cmgTuple_5_1_OlJ.root
p200
(lp201
I01
aI10000
asV/store/cmst3/group/cmgtools/CMG/SUSYBBHToTauTau_M-800_8TeV-pythia6-tauola/Summer12_DR53X-PU_S10_START53_V7A-v1/AODSIM/PAT_CMG_V5_16_0/cmgTuple_78_1_OMC.root
p202
(lp203
I01
aI10000
asV/store/cmst3/group/cmgtools/CMG/SUSYBBHToTauTau_M-800_8TeV-pythia6-tauola/Summer12_DR53X-PU_S10_START53_V7A-v1/AODSIM/PAT_CMG_V5_16_0/cmgTuple_6_1_Dm9.root
p204
(lp205
I01
aI10000
asV/store/cmst3/group/cmgtools/CMG/SUSYBBHToTauTau_M-800_8TeV-pythia6-tauola/Summer12_DR53X-PU_S10_START53_V7A-v1/AODSIM/PAT_CMG_V5_16_0/cmgTuple_56_1_GTS.root
p206
(lp207
I01
aI10000
asV/store/cmst3/group/cmgtools/CMG/SUSYBBHToTauTau_M-800_8TeV-pythia6-tauola/Summer12_DR53X-PU_S10_START53_V7A-v1/AODSIM/PAT_CMG_V5_16_0/cmgTuple_73_1_fzx.root
p208
(lp209
I01
aI10000
asV/store/cmst3/group/cmgtools/CMG/SUSYBBHToTauTau_M-800_8TeV-pythia6-tauola/Summer12_DR53X-PU_S10_START53_V7A-v1/AODSIM/PAT_CMG_V5_16_0/cmgTuple_58_1_Esb.root
p210
(lp211
I01
aI10000
asV/store/cmst3/group/cmgtools/CMG/SUSYBBHToTauTau_M-800_8TeV-pythia6-tauola/Summer12_DR53X-PU_S10_START53_V7A-v1/AODSIM/PAT_CMG_V5_16_0/cmgTuple_89_1_VMD.root
p212
(lp213
I01
aI10000
asV/store/cmst3/group/cmgtools/CMG/SUSYBBHToTauTau_M-800_8TeV-pythia6-tauola/Summer12_DR53X-PU_S10_START53_V7A-v1/AODSIM/PAT_CMG_V5_16_0/cmgTuple_46_1_96x.root
p214
(lp215
I01
aI10000
asV/store/cmst3/group/cmgtools/CMG/SUSYBBHToTauTau_M-800_8TeV-pythia6-tauola/Summer12_DR53X-PU_S10_START53_V7A-v1/AODSIM/PAT_CMG_V5_16_0/cmgTuple_63_1_uJN.root
p216
(lp217
I01
aI10000
asV/store/cmst3/group/cmgtools/CMG/SUSYBBHToTauTau_M-800_8TeV-pythia6-tauola/Summer12_DR53X-PU_S10_START53_V7A-v1/AODSIM/PAT_CMG_V5_16_0/cmgTuple_45_1_KMW.root
p218
(lp219
I01
aI10000
asV/store/cmst3/group/cmgtools/CMG/SUSYBBHToTauTau_M-800_8TeV-pythia6-tauola/Summer12_DR53X-PU_S10_START53_V7A-v1/AODSIM/PAT_CMG_V5_16_0/cmgTuple_67_1_sfA.root
p220
(lp221
I01
aI10000
asV/store/cmst3/group/cmgtools/CMG/SUSYBBHToTauTau_M-800_8TeV-pythia6-tauola/Summer12_DR53X-PU_S10_START53_V7A-v1/AODSIM/PAT_CMG_V5_16_0/cmgTuple_85_1_cQS.root
p222
(lp223
I01
aI10000
asV/store/cmst3/group/cmgtools/CMG/SUSYBBHToTauTau_M-800_8TeV-pythia6-tauola/Summer12_DR53X-PU_S10_START53_V7A-v1/AODSIM/PAT_CMG_V5_16_0/cmgTuple_50_1_bbJ.root
p224
(lp225
I01
aI10000
asV/store/cmst3/group/cmgtools/CMG/SUSYBBHToTauTau_M-800_8TeV-pythia6-tauola/Summer12_DR53X-PU_S10_START53_V7A-v1/AODSIM/PAT_CMG_V5_16_0/cmgTuple_48_1_Ff4.root
p226
(lp227
I01
aI10000
asV/store/cmst3/group/cmgtools/CMG/SUSYBBHToTauTau_M-800_8TeV-pythia6-tauola/Summer12_DR53X-PU_S10_START53_V7A-v1/AODSIM/PAT_CMG_V5_16_0/cmgTuple_88_1_RaY.root
p228
(lp229
I01
aI10000
asV/store/cmst3/group/cmgtools/CMG/SUSYBBHToTauTau_M-800_8TeV-pythia6-tauola/Summer12_DR53X-PU_S10_START53_V7A-v1/AODSIM/PAT_CMG_V5_16_0/cmgTuple_31_1_T1x.root
p230
(lp231
I01
aI10000
asV/store/cmst3/group/cmgtools/CMG/SUSYBBHToTauTau_M-800_8TeV-pythia6-tauola/Summer12_DR53X-PU_S10_START53_V7A-v1/AODSIM/PAT_CMG_V5_16_0/cmgTuple_13_1_thI.root
p232
(lp233
I01
aI10000
asV/store/cmst3/group/cmgtools/CMG/SUSYBBHToTauTau_M-800_8TeV-pythia6-tauola/Summer12_DR53X-PU_S10_START53_V7A-v1/AODSIM/PAT_CMG_V5_16_0/cmgTuple_62_1_uA6.root
p234
(lp235
I01
aI10000
asV/store/cmst3/group/cmgtools/CMG/SUSYBBHToTauTau_M-800_8TeV-pythia6-tauola/Summer12_DR53X-PU_S10_START53_V7A-v1/AODSIM/PAT_CMG_V5_16_0/cmgTuple_82_1_633.root
p236
(lp237
I01
aI10000
asV/store/cmst3/group/cmgtools/CMG/SUSYBBHToTauTau_M-800_8TeV-pythia6-tauola/Summer12_DR53X-PU_S10_START53_V7A-v1/AODSIM/PAT_CMG_V5_16_0/cmgTuple_26_1_wVP.root
p238
(lp239
I01
aI10000
asV/store/cmst3/group/cmgtools/CMG/SUSYBBHToTauTau_M-800_8TeV-pythia6-tauola/Summer12_DR53X-PU_S10_START53_V7A-v1/AODSIM/PAT_CMG_V5_16_0/cmgTuple_14_1_61e.root
p240
(lp241
I01
aI10000
asV/store/cmst3/group/cmgtools/CMG/SUSYBBHToTauTau_M-800_8TeV-pythia6-tauola/Summer12_DR53X-PU_S10_START53_V7A-v1/AODSIM/PAT_CMG_V5_16_0/cmgTuple_81_1_BWV.root
p242
(lp243
I01
aI10000
asV/store/cmst3/group/cmgtools/CMG/SUSYBBHToTauTau_M-800_8TeV-pythia6-tauola/Summer12_DR53X-PU_S10_START53_V7A-v1/AODSIM/PAT_CMG_V5_16_0/cmgTuple_2_1_Spw.root
p244
(lp245
I01
aI10000
asV/store/cmst3/group/cmgtools/CMG/SUSYBBHToTauTau_M-800_8TeV-pythia6-tauola/Summer12_DR53X-PU_S10_START53_V7A-v1/AODSIM/PAT_CMG_V5_16_0/cmgTuple_38_1_OcO.root
p246
(lp247
I01
aI10000
asV/store/cmst3/group/cmgtools/CMG/SUSYBBHToTauTau_M-800_8TeV-pythia6-tauola/Summer12_DR53X-PU_S10_START53_V7A-v1/AODSIM/PAT_CMG_V5_16_0/cmgTuple_86_1_rIu.root
p248
(lp249
I01
aI10000
asV/store/cmst3/group/cmgtools/CMG/SUSYBBHToTauTau_M-800_8TeV-pythia6-tauola/Summer12_DR53X-PU_S10_START53_V7A-v1/AODSIM/PAT_CMG_V5_16_0/cmgTuple_75_1_rDM.root
p250
(lp251
I01
aI10000
asV/store/cmst3/group/cmgtools/CMG/SUSYBBHToTauTau_M-800_8TeV-pythia6-tauola/Summer12_DR53X-PU_S10_START53_V7A-v1/AODSIM/PAT_CMG_V5_16_0/cmgTuple_15_1_Inx.root
p252
(lp253
I01
aI10000
asV/store/cmst3/group/cmgtools/CMG/SUSYBBHToTauTau_M-800_8TeV-pythia6-tauola/Summer12_DR53X-PU_S10_START53_V7A-v1/AODSIM/PAT_CMG_V5_16_0/cmgTuple_18_1_C8Z.root
p254
(lp255
I01
aI10000
asV/store/cmst3/group/cmgtools/CMG/SUSYBBHToTauTau_M-800_8TeV-pythia6-tauola/Summer12_DR53X-PU_S10_START53_V7A-v1/AODSIM/PAT_CMG_V5_16_0/cmgTuple_94_1_AAI.root
p256
(lp257
I01
aI10000
asV/store/cmst3/group/cmgtools/CMG/SUSYBBHToTauTau_M-800_8TeV-pythia6-tauola/Summer12_DR53X-PU_S10_START53_V7A-v1/AODSIM/PAT_CMG_V5_16_0/cmgTuple_7_1_N6V.root
p258
(lp259
I01
aI10000
asV/store/cmst3/group/cmgtools/CMG/SUSYBBHToTauTau_M-800_8TeV-pythia6-tauola/Summer12_DR53X-PU_S10_START53_V7A-v1/AODSIM/PAT_CMG_V5_16_0/cmgTuple_54_1_5kV.root
p260
(lp261
I01
aI10000
asV/store/cmst3/group/cmgtools/CMG/SUSYBBHToTauTau_M-800_8TeV-pythia6-tauola/Summer12_DR53X-PU_S10_START53_V7A-v1/AODSIM/PAT_CMG_V5_16_0/cmgTuple_23_1_aXQ.root
p262
(lp263
I01
aI10000
asV/store/cmst3/group/cmgtools/CMG/SUSYBBHToTauTau_M-800_8TeV-pythia6-tauola/Summer12_DR53X-PU_S10_START53_V7A-v1/AODSIM/PAT_CMG_V5_16_0/cmgTuple_59_1_L2V.root
p264
(lp265
I01
aI10000
asV/store/cmst3/group/cmgtools/CMG/SUSYBBHToTauTau_M-800_8TeV-pythia6-tauola/Summer12_DR53X-PU_S10_START53_V7A-v1/AODSIM/PAT_CMG_V5_16_0/cmgTuple_93_1_XMY.root
p266
(lp267
I01
aI10000
asV/store/cmst3/group/cmgtools/CMG/SUSYBBHToTauTau_M-800_8TeV-pythia6-tauola/Summer12_DR53X-PU_S10_START53_V7A-v1/AODSIM/PAT_CMG_V5_16_0/cmgTuple_36_1_uKc.root
p268
(lp269
I01
aI10000
asV/store/cmst3/group/cmgtools/CMG/SUSYBBHToTauTau_M-800_8TeV-pythia6-tauola/Summer12_DR53X-PU_S10_START53_V7A-v1/AODSIM/PAT_CMG_V5_16_0/cmgTuple_79_1_zxU.root
p270
(lp271
I01
aI10000
asV/store/cmst3/group/cmgtools/CMG/SUSYBBHToTauTau_M-800_8TeV-pythia6-tauola/Summer12_DR53X-PU_S10_START53_V7A-v1/AODSIM/PAT_CMG_V5_16_0/cmgTuple_3_1_nnq.root
p272
(lp273
I01
aI10000
asV/store/cmst3/group/cmgtools/CMG/SUSYBBHToTauTau_M-800_8TeV-pythia6-tauola/Summer12_DR53X-PU_S10_START53_V7A-v1/AODSIM/PAT_CMG_V5_16_0/cmgTuple_57_1_IiA.root
p274
(lp275
I01
aI10000
asV/store/cmst3/group/cmgtools/CMG/SUSYBBHToTauTau_M-800_8TeV-pythia6-tauola/Summer12_DR53X-PU_S10_START53_V7A-v1/AODSIM/PAT_CMG_V5_16_0/cmgTuple_90_1_usj.root
p276
(lp277
I01
aI10000
asV/store/cmst3/group/cmgtools/CMG/SUSYBBHToTauTau_M-800_8TeV-pythia6-tauola/Summer12_DR53X-PU_S10_START53_V7A-v1/AODSIM/PAT_CMG_V5_16_0/cmgTuple_24_1_YFN.root
p278
(lp279
I01
aI10000
asV/store/cmst3/group/cmgtools/CMG/SUSYBBHToTauTau_M-800_8TeV-pythia6-tauola/Summer12_DR53X-PU_S10_START53_V7A-v1/AODSIM/PAT_CMG_V5_16_0/cmgTuple_44_1_gJp.root
p280
(lp281
I01
aI10000
asV/store/cmst3/group/cmgtools/CMG/SUSYBBHToTauTau_M-800_8TeV-pythia6-tauola/Summer12_DR53X-PU_S10_START53_V7A-v1/AODSIM/PAT_CMG_V5_16_0/cmgTuple_29_1_1RD.root
p282
(lp283
I01
aI10000
asV/store/cmst3/group/cmgtools/CMG/SUSYBBHToTauTau_M-800_8TeV-pythia6-tauola/Summer12_DR53X-PU_S10_START53_V7A-v1/AODSIM/PAT_CMG_V5_16_0/cmgTuple_35_1_l3c.root
p284
(lp285
I01
aI10000
asV/store/cmst3/group/cmgtools/CMG/SUSYBBHToTauTau_M-800_8TeV-pythia6-tauola/Summer12_DR53X-PU_S10_START53_V7A-v1/AODSIM/PAT_CMG_V5_16_0/cmgTuple_83_1_2o6.root
p286
(lp287
I01
aI10000
asV/store/cmst3/group/cmgtools/CMG/SUSYBBHToTauTau_M-800_8TeV-pythia6-tauola/Summer12_DR53X-PU_S10_START53_V7A-v1/AODSIM/PAT_CMG_V5_16_0/cmgTuple_69_1_ROy.root
p288
(lp289
I01
aI10000
asV/store/cmst3/group/cmgtools/CMG/SUSYBBHToTauTau_M-800_8TeV-pythia6-tauola/Summer12_DR53X-PU_S10_START53_V7A-v1/AODSIM/PAT_CMG_V5_16_0/cmgTuple_43_1_zxR.root
p290
(lp291
I01
aI10000
asV/store/cmst3/group/cmgtools/CMG/SUSYBBHToTauTau_M-800_8TeV-pythia6-tauola/Summer12_DR53X-PU_S10_START53_V7A-v1/AODSIM/PAT_CMG_V5_16_0/cmgTuple_34_1_MkW.root
p292
(lp293
I01
aI10000
asV/store/cmst3/group/cmgtools/CMG/SUSYBBHToTauTau_M-800_8TeV-pythia6-tauola/Summer12_DR53X-PU_S10_START53_V7A-v1/AODSIM/PAT_CMG_V5_16_0/cmgTuple_16_1_6mx.root
p294
(lp295
I01
aI10000
asV/store/cmst3/group/cmgtools/CMG/SUSYBBHToTauTau_M-800_8TeV-pythia6-tauola/Summer12_DR53X-PU_S10_START53_V7A-v1/AODSIM/PAT_CMG_V5_16_0/cmgTuple_72_1_Jn6.root
p296
(lp297
I01
aI10000
asV/store/cmst3/group/cmgtools/CMG/SUSYBBHToTauTau_M-800_8TeV-pythia6-tauola/Summer12_DR53X-PU_S10_START53_V7A-v1/AODSIM/PAT_CMG_V5_16_0/cmgTuple_71_1_xiq.root
p298
(lp299
I01
aI10000
asV/store/cmst3/group/cmgtools/CMG/SUSYBBHToTauTau_M-800_8TeV-pythia6-tauola/Summer12_DR53X-PU_S10_START53_V7A-v1/AODSIM/PAT_CMG_V5_16_0/cmgTuple_25_1_bAs.root
p300
(lp301
I01
aI10000
asV/store/cmst3/group/cmgtools/CMG/SUSYBBHToTauTau_M-800_8TeV-pythia6-tauola/Summer12_DR53X-PU_S10_START53_V7A-v1/AODSIM/PAT_CMG_V5_16_0/cmgTuple_27_1_AeL.root
p302
(lp303
I01
aI10000
asV/store/cmst3/group/cmgtools/CMG/SUSYBBHToTauTau_M-800_8TeV-pythia6-tauola/Summer12_DR53X-PU_S10_START53_V7A-v1/AODSIM/PAT_CMG_V5_16_0/cmgTuple_84_1_N9s.root
p304
(lp305
I01
aI10000
asV/store/cmst3/group/cmgtools/CMG/SUSYBBHToTauTau_M-800_8TeV-pythia6-tauola/Summer12_DR53X-PU_S10_START53_V7A-v1/AODSIM/PAT_CMG_V5_16_0/cmgTuple_65_1_0hL.root
p306
(lp307
I01
aI10000
asV/store/cmst3/group/cmgtools/CMG/SUSYBBHToTauTau_M-800_8TeV-pythia6-tauola/Summer12_DR53X-PU_S10_START53_V7A-v1/AODSIM/PAT_CMG_V5_16_0/cmgTuple_66_1_DTm.root
p308
(lp309
I01
aI10000
asV/store/cmst3/group/cmgtools/CMG/SUSYBBHToTauTau_M-800_8TeV-pythia6-tauola/Summer12_DR53X-PU_S10_START53_V7A-v1/AODSIM/PAT_CMG_V5_16_0/cmgTuple_61_1_UkI.root
p310
(lp311
I01
aI10000
asV/store/cmst3/group/cmgtools/CMG/SUSYBBHToTauTau_M-800_8TeV-pythia6-tauola/Summer12_DR53X-PU_S10_START53_V7A-v1/AODSIM/PAT_CMG_V5_16_0/cmgTuple_77_1_IOq.root
p312
(lp313
I01
aI10000
asV/store/cmst3/group/cmgtools/CMG/SUSYBBHToTauTau_M-800_8TeV-pythia6-tauola/Summer12_DR53X-PU_S10_START53_V7A-v1/AODSIM/PAT_CMG_V5_16_0/cmgTuple_22_1_9x6.root
p314
(lp315
I01
aI10000
asV/store/cmst3/group/cmgtools/CMG/SUSYBBHToTauTau_M-800_8TeV-pythia6-tauola/Summer12_DR53X-PU_S10_START53_V7A-v1/AODSIM/PAT_CMG_V5_16_0/cmgTuple_41_1_gSS.root
p316
(lp317
I01
aI10000
asV/store/cmst3/group/cmgtools/CMG/SUSYBBHToTauTau_M-800_8TeV-pythia6-tauola/Summer12_DR53X-PU_S10_START53_V7A-v1/AODSIM/PAT_CMG_V5_16_0/cmgTuple_49_1_dNc.root
p318
(lp319
I01
aI10000
asV/store/cmst3/group/cmgtools/CMG/SUSYBBHToTauTau_M-800_8TeV-pythia6-tauola/Summer12_DR53X-PU_S10_START53_V7A-v1/AODSIM/PAT_CMG_V5_16_0/cmgTuple_91_1_ta8.root
p320
(lp321
I01
aI10000
asV/store/cmst3/group/cmgtools/CMG/SUSYBBHToTauTau_M-800_8TeV-pythia6-tauola/Summer12_DR53X-PU_S10_START53_V7A-v1/AODSIM/PAT_CMG_V5_16_0/cmgTuple_1_1_uIg.root
p322
(lp323
I01
aI5952
asV/store/cmst3/group/cmgtools/CMG/SUSYBBHToTauTau_M-800_8TeV-pythia6-tauola/Summer12_DR53X-PU_S10_START53_V7A-v1/AODSIM/PAT_CMG_V5_16_0/cmgTuple_60_1_6WK.root
p324
(lp325
I01
aI10000
asV/store/cmst3/group/cmgtools/CMG/SUSYBBHToTauTau_M-800_8TeV-pythia6-tauola/Summer12_DR53X-PU_S10_START53_V7A-v1/AODSIM/PAT_CMG_V5_16_0/cmgTuple_52_1_aXa.root
p326
(lp327
I01
aI10000
asV/store/cmst3/group/cmgtools/CMG/SUSYBBHToTauTau_M-800_8TeV-pythia6-tauola/Summer12_DR53X-PU_S10_START53_V7A-v1/AODSIM/PAT_CMG_V5_16_0/cmgTuple_30_1_zYW.root
p328
(lp329
I01
aI10000
asV/store/cmst3/group/cmgtools/CMG/SUSYBBHToTauTau_M-800_8TeV-pythia6-tauola/Summer12_DR53X-PU_S10_START53_V7A-v1/AODSIM/PAT_CMG_V5_16_0/cmgTuple_19_1_bS8.root
p330
(lp331
I01
aI10000
asV/store/cmst3/group/cmgtools/CMG/SUSYBBHToTauTau_M-800_8TeV-pythia6-tauola/Summer12_DR53X-PU_S10_START53_V7A-v1/AODSIM/PAT_CMG_V5_16_0/cmgTuple_87_1_dUY.root
p332
(lp333
I01
aI10000
asV/store/cmst3/group/cmgtools/CMG/SUSYBBHToTauTau_M-800_8TeV-pythia6-tauola/Summer12_DR53X-PU_S10_START53_V7A-v1/AODSIM/PAT_CMG_V5_16_0/cmgTuple_17_1_Wfg.root
p334
(lp335
I01
aI10000
asV/store/cmst3/group/cmgtools/CMG/SUSYBBHToTauTau_M-800_8TeV-pythia6-tauola/Summer12_DR53X-PU_S10_START53_V7A-v1/AODSIM/PAT_CMG_V5_16_0/cmgTuple_10_1_JJw.root
p336
(lp337
I01
aI10000
asV/store/cmst3/group/cmgtools/CMG/SUSYBBHToTauTau_M-800_8TeV-pythia6-tauola/Summer12_DR53X-PU_S10_START53_V7A-v1/AODSIM/PAT_CMG_V5_16_0/cmgTuple_100_1_xOW.root
p338
(lp339
I01
aI10000
asV/store/cmst3/group/cmgtools/CMG/SUSYBBHToTauTau_M-800_8TeV-pythia6-tauola/Summer12_DR53X-PU_S10_START53_V7A-v1/AODSIM/PAT_CMG_V5_16_0/cmgTuple_47_1_HYn.root
p340
(lp341
I01
aI10000
asV/store/cmst3/group/cmgtools/CMG/SUSYBBHToTauTau_M-800_8TeV-pythia6-tauola/Summer12_DR53X-PU_S10_START53_V7A-v1/AODSIM/PAT_CMG_V5_16_0/cmgTuple_21_1_AOJ.root
p342
(lp343
I01
aI10000
asV/store/cmst3/group/cmgtools/CMG/SUSYBBHToTauTau_M-800_8TeV-pythia6-tauola/Summer12_DR53X-PU_S10_START53_V7A-v1/AODSIM/PAT_CMG_V5_16_0/cmgTuple_76_1_99i.root
p344
(lp345
I01
aI10000
asV/store/cmst3/group/cmgtools/CMG/SUSYBBHToTauTau_M-800_8TeV-pythia6-tauola/Summer12_DR53X-PU_S10_START53_V7A-v1/AODSIM/PAT_CMG_V5_16_0/cmgTuple_20_1_HUk.root
p346
(lp347
I01
aI10000
asV/store/cmst3/group/cmgtools/CMG/SUSYBBHToTauTau_M-800_8TeV-pythia6-tauola/Summer12_DR53X-PU_S10_START53_V7A-v1/AODSIM/PAT_CMG_V5_16_0/cmgTuple_95_1_tn1.root
p348
(lp349
I01
aI10000
asV/store/cmst3/group/cmgtools/CMG/SUSYBBHToTauTau_M-800_8TeV-pythia6-tauola/Summer12_DR53X-PU_S10_START53_V7A-v1/AODSIM/PAT_CMG_V5_16_0/cmgTuple_32_1_GAr.root
p350
(lp351
I01
aI10000
asV/store/cmst3/group/cmgtools/CMG/SUSYBBHToTauTau_M-800_8TeV-pythia6-tauola/Summer12_DR53X-PU_S10_START53_V7A-v1/AODSIM/PAT_CMG_V5_16_0/cmgTuple_4_1_Hmd.root
p352
(lp353
I01
aI10000
asV/store/cmst3/group/cmgtools/CMG/SUSYBBHToTauTau_M-800_8TeV-pythia6-tauola/Summer12_DR53X-PU_S10_START53_V7A-v1/AODSIM/PAT_CMG_V5_16_0/cmgTuple_37_1_Eio.root
p354
(lp355
I01
aI10000
asV/store/cmst3/group/cmgtools/CMG/SUSYBBHToTauTau_M-800_8TeV-pythia6-tauola/Summer12_DR53X-PU_S10_START53_V7A-v1/AODSIM/PAT_CMG_V5_16_0/cmgTuple_33_1_eFU.root
p356
(lp357
I01
aI10000
asV/store/cmst3/group/cmgtools/CMG/SUSYBBHToTauTau_M-800_8TeV-pythia6-tauola/Summer12_DR53X-PU_S10_START53_V7A-v1/AODSIM/PAT_CMG_V5_16_0/cmgTuple_80_1_JzO.root
p358
(lp359
I01
aI10000
asV/store/cmst3/group/cmgtools/CMG/SUSYBBHToTauTau_M-800_8TeV-pythia6-tauola/Summer12_DR53X-PU_S10_START53_V7A-v1/AODSIM/PAT_CMG_V5_16_0/cmgTuple_12_1_nOg.root
p360
(lp361
I01
aI10000
asV/store/cmst3/group/cmgtools/CMG/SUSYBBHToTauTau_M-800_8TeV-pythia6-tauola/Summer12_DR53X-PU_S10_START53_V7A-v1/AODSIM/PAT_CMG_V5_16_0/cmgTuple_98_1_5Oj.root
p362
(lp363
I01
aI10000
asV/store/cmst3/group/cmgtools/CMG/SUSYBBHToTauTau_M-800_8TeV-pythia6-tauola/Summer12_DR53X-PU_S10_START53_V7A-v1/AODSIM/PAT_CMG_V5_16_0/cmgTuple_51_1_qA4.root
p364
(lp365
I01
aI10000
asV/store/cmst3/group/cmgtools/CMG/SUSYBBHToTauTau_M-800_8TeV-pythia6-tauola/Summer12_DR53X-PU_S10_START53_V7A-v1/AODSIM/PAT_CMG_V5_16_0/cmgTuple_42_1_OkJ.root
p366
(lp367
I01
aI10000
asV/store/cmst3/group/cmgtools/CMG/SUSYBBHToTauTau_M-800_8TeV-pythia6-tauola/Summer12_DR53X-PU_S10_START53_V7A-v1/AODSIM/PAT_CMG_V5_16_0/cmgTuple_53_1_wcc.root
p368
(lp369
I01
aI10000
asV/store/cmst3/group/cmgtools/CMG/SUSYBBHToTauTau_M-800_8TeV-pythia6-tauola/Summer12_DR53X-PU_S10_START53_V7A-v1/AODSIM/PAT_CMG_V5_16_0/cmgTuple_92_1_P4C.root
p370
(lp371
I01
aI10000
assVPhysicsGroup
p372
VCMG
p373
sVFilesCount
p374
I101
sVFilesEntries
p375
I1000432
sVRunList
p376
(lp377
sVValidDuplicates
p378
(dp379
sVPrimaryDataset
p380
V/SUSYBBHToTauTau_M-800_8TeV-pythia6-tauola/Summer12_DR53X-PU_S10_START53_V7A-v1/AODSIM
p381
sVStatus
p382
VVALID
p383
sVName
p384
V/SUSYBBHToTauTau_M-800_8TeV-pythia6-tauola/Summer12_DR53X-PU_S10_START53_V7A-v1/AODSIM/PAT_CMG_V5_16_0
p385
sVTopdir
p386
V/eos/cms/store/cmst3/group/cmgtools/CMG
p387
sVdata
p388
(dp389
sVFilesBad
p390
I0
sVMinRun
p391
I-1
sVAlgoList
p392
(lp393
sVTierList
p394
(lp395
sVDateCreated
p396
V1371077225
p397
sVCreatedBy
p398
Vcmgtools_group
p399
sVMaxRun
p400
I-1
sVBadJobs
p401
(lp402
ssg115
I01
ssS'MonitorJobs'
p403
(dp404
S'LSFJobStatus'
p405
(dp406
g118
S'SUSYBBHToTauTau_M-300_8TeV-pythia6-tauola/Summer12_DR53X-PU_S10_START53_V7A-v2/AODSIM/PAT_CMG_V5_16_0_1377467540/HTT_24Jul_newTES_manzoni_Up_Jobs/Job_12/LSFJOB_440972396/STDOUT.gz'
p407
sg119
S'SUSYBBHToTauTau_M-300_8TeV-pythia6-tauola/Summer12_DR53X-PU_S10_START53_V7A-v2/AODSIM/PAT_CMG_V5_16_0_1377467540/HTT_24Jul_newTES_manzoni_Up_Jobs/Job_13/LSFJOB_440972499/STDOUT.gz'
p408
sg120
S'SUSYBBHToTauTau_M-300_8TeV-pythia6-tauola/Summer12_DR53X-PU_S10_START53_V7A-v2/AODSIM/PAT_CMG_V5_16_0_1377467540/HTT_24Jul_newTES_manzoni_Up_Jobs/Job_10/LSFJOB_440972242/STDOUT.gz'
p409
sg121
S'SUSYBBHToTauTau_M-300_8TeV-pythia6-tauola/Summer12_DR53X-PU_S10_START53_V7A-v2/AODSIM/PAT_CMG_V5_16_0_1377467540/HTT_24Jul_newTES_manzoni_Up_Jobs/Job_11/LSFJOB_440972333/STDOUT.gz'
p410
sg122
S'SUSYBBHToTauTau_M-300_8TeV-pythia6-tauola/Summer12_DR53X-PU_S10_START53_V7A-v2/AODSIM/PAT_CMG_V5_16_0_1377467540/HTT_24Jul_newTES_manzoni_Up_Jobs/Job_16/LSFJOB_440972846/STDOUT.gz'
p411
sg123
S'SUSYBBHToTauTau_M-300_8TeV-pythia6-tauola/Summer12_DR53X-PU_S10_START53_V7A-v2/AODSIM/PAT_CMG_V5_16_0_1377467540/HTT_24Jul_newTES_manzoni_Up_Jobs/Job_17/LSFJOB_440972955/STDOUT.gz'
p412
sg124
S'SUSYBBHToTauTau_M-300_8TeV-pythia6-tauola/Summer12_DR53X-PU_S10_START53_V7A-v2/AODSIM/PAT_CMG_V5_16_0_1377467540/HTT_24Jul_newTES_manzoni_Up_Jobs/Job_14/LSFJOB_440972611/STDOUT.gz'
p413
sg125
S'SUSYBBHToTauTau_M-300_8TeV-pythia6-tauola/Summer12_DR53X-PU_S10_START53_V7A-v2/AODSIM/PAT_CMG_V5_16_0_1377467540/HTT_24Jul_newTES_manzoni_Up_Jobs/Job_15/LSFJOB_440972731/STDOUT.gz'
p414
sg126
S'SUSYBBHToTauTau_M-300_8TeV-pythia6-tauola/Summer12_DR53X-PU_S10_START53_V7A-v2/AODSIM/PAT_CMG_V5_16_0_1377467540/HTT_24Jul_newTES_manzoni_Up_Jobs/Job_34/LSFJOB_440974338/STDOUT.gz'
p415
sg127
S'SUSYBBHToTauTau_M-300_8TeV-pythia6-tauola/Summer12_DR53X-PU_S10_START53_V7A-v2/AODSIM/PAT_CMG_V5_16_0_1377467540/HTT_24Jul_newTES_manzoni_Up_Jobs/Job_18/LSFJOB_440973054/STDOUT.gz'
p416
sg128
S'SUSYBBHToTauTau_M-300_8TeV-pythia6-tauola/Summer12_DR53X-PU_S10_START53_V7A-v2/AODSIM/PAT_CMG_V5_16_0_1377467540/HTT_24Jul_newTES_manzoni_Up_Jobs/Job_19/LSFJOB_440973124/STDOUT.gz'
p417
sg129
S'SUSYBBHToTauTau_M-300_8TeV-pythia6-tauola/Summer12_DR53X-PU_S10_START53_V7A-v2/AODSIM/PAT_CMG_V5_16_0_1377467540/HTT_24Jul_newTES_manzoni_Up_Jobs/Job_30/LSFJOB_440974097/STDOUT.gz'
p418
sg130
S'SUSYBBHToTauTau_M-300_8TeV-pythia6-tauola/Summer12_DR53X-PU_S10_START53_V7A-v2/AODSIM/PAT_CMG_V5_16_0_1377467540/HTT_24Jul_newTES_manzoni_Up_Jobs/Job_31/LSFJOB_440974182/STDOUT.gz'
p419
sg131
S'SUSYBBHToTauTau_M-300_8TeV-pythia6-tauola/Summer12_DR53X-PU_S10_START53_V7A-v2/AODSIM/PAT_CMG_V5_16_0_1377467540/HTT_24Jul_newTES_manzoni_Up_Jobs/Job_32/LSFJOB_440974228/STDOUT.gz'
p420
sg132
S'SUSYBBHToTauTau_M-300_8TeV-pythia6-tauola/Summer12_DR53X-PU_S10_START53_V7A-v2/AODSIM/PAT_CMG_V5_16_0_1377467540/HTT_24Jul_newTES_manzoni_Up_Jobs/Job_33/LSFJOB_440974291/STDOUT.gz'
p421
sg133
S'SUSYBBHToTauTau_M-300_8TeV-pythia6-tauola/Summer12_DR53X-PU_S10_START53_V7A-v2/AODSIM/PAT_CMG_V5_16_0_1377467540/HTT_24Jul_newTES_manzoni_Up_Jobs/Job_8/LSFJOB_440972063/STDOUT.gz'
p422
sg134
S'SUSYBBHToTauTau_M-300_8TeV-pythia6-tauola/Summer12_DR53X-PU_S10_START53_V7A-v2/AODSIM/PAT_CMG_V5_16_0_1377467540/HTT_24Jul_newTES_manzoni_Up_Jobs/Job_9/LSFJOB_440972152/STDOUT.gz'
p423
sg135
S'SUSYBBHToTauTau_M-300_8TeV-pythia6-tauola/Summer12_DR53X-PU_S10_START53_V7A-v2/AODSIM/PAT_CMG_V5_16_0_1377467540/HTT_24Jul_newTES_manzoni_Up_Jobs/Job_1/LSFJOB_440971539/STDOUT.gz'
p424
sg136
S'SUSYBBHToTauTau_M-300_8TeV-pythia6-tauola/Summer12_DR53X-PU_S10_START53_V7A-v2/AODSIM/PAT_CMG_V5_16_0_1377467540/HTT_24Jul_newTES_manzoni_Up_Jobs/Job_2/LSFJOB_440971601/STDOUT.gz'
p425
sg137
S'SUSYBBHToTauTau_M-300_8TeV-pythia6-tauola/Summer12_DR53X-PU_S10_START53_V7A-v2/AODSIM/PAT_CMG_V5_16_0_1377467540/HTT_24Jul_newTES_manzoni_Up_Jobs/Job_3/LSFJOB_440971653/STDOUT.gz'
p426
sg138
S'SUSYBBHToTauTau_M-300_8TeV-pythia6-tauola/Summer12_DR53X-PU_S10_START53_V7A-v2/AODSIM/PAT_CMG_V5_16_0_1377467540/HTT_24Jul_newTES_manzoni_Up_Jobs/Job_4/LSFJOB_440971756/STDOUT.gz'
p427
sg139
S'SUSYBBHToTauTau_M-300_8TeV-pythia6-tauola/Summer12_DR53X-PU_S10_START53_V7A-v2/AODSIM/PAT_CMG_V5_16_0_1377467540/HTT_24Jul_newTES_manzoni_Up_Jobs/Job_5/LSFJOB_440971831/STDOUT.gz'
p428
sg140
S'SUSYBBHToTauTau_M-300_8TeV-pythia6-tauola/Summer12_DR53X-PU_S10_START53_V7A-v2/AODSIM/PAT_CMG_V5_16_0_1377467540/HTT_24Jul_newTES_manzoni_Up_Jobs/Job_6/LSFJOB_440971883/STDOUT.gz'
p429
sg141
S'SUSYBBHToTauTau_M-300_8TeV-pythia6-tauola/Summer12_DR53X-PU_S10_START53_V7A-v2/AODSIM/PAT_CMG_V5_16_0_1377467540/HTT_24Jul_newTES_manzoni_Up_Jobs/Job_7/LSFJOB_440971979/STDOUT.gz'
p430
sg142
S'SUSYBBHToTauTau_M-300_8TeV-pythia6-tauola/Summer12_DR53X-PU_S10_START53_V7A-v2/AODSIM/PAT_CMG_V5_16_0_1377467540/HTT_24Jul_newTES_manzoni_Up_Jobs/Job_29/LSFJOB_440974023/STDOUT.gz'
p431
sg143
S'SUSYBBHToTauTau_M-300_8TeV-pythia6-tauola/Summer12_DR53X-PU_S10_START53_V7A-v2/AODSIM/PAT_CMG_V5_16_0_1377467540/HTT_24Jul_newTES_manzoni_Up_Jobs/Job_28/LSFJOB_440973939/STDOUT.gz'
p432
sg144
S'SUSYBBHToTauTau_M-300_8TeV-pythia6-tauola/Summer12_DR53X-PU_S10_START53_V7A-v2/AODSIM/PAT_CMG_V5_16_0_1377467540/HTT_24Jul_newTES_manzoni_Up_Jobs/Job_27/LSFJOB_440973828/STDOUT.gz'
p433
sg145
S'SUSYBBHToTauTau_M-300_8TeV-pythia6-tauola/Summer12_DR53X-PU_S10_START53_V7A-v2/AODSIM/PAT_CMG_V5_16_0_1377467540/HTT_24Jul_newTES_manzoni_Up_Jobs/Job_26/LSFJOB_440973710/STDOUT.gz'
p434
sg146
S'SUSYBBHToTauTau_M-300_8TeV-pythia6-tauola/Summer12_DR53X-PU_S10_START53_V7A-v2/AODSIM/PAT_CMG_V5_16_0_1377467540/HTT_24Jul_newTES_manzoni_Up_Jobs/Job_25/LSFJOB_440973628/STDOUT.gz'
p435
sg147
S'SUSYBBHToTauTau_M-300_8TeV-pythia6-tauola/Summer12_DR53X-PU_S10_START53_V7A-v2/AODSIM/PAT_CMG_V5_16_0_1377467540/HTT_24Jul_newTES_manzoni_Up_Jobs/Job_24/LSFJOB_440973536/STDOUT.gz'
p436
sg148
S'SUSYBBHToTauTau_M-300_8TeV-pythia6-tauola/Summer12_DR53X-PU_S10_START53_V7A-v2/AODSIM/PAT_CMG_V5_16_0_1377467540/HTT_24Jul_newTES_manzoni_Up_Jobs/Job_23/LSFJOB_440973434/STDOUT.gz'
p437
sg149
S'SUSYBBHToTauTau_M-300_8TeV-pythia6-tauola/Summer12_DR53X-PU_S10_START53_V7A-v2/AODSIM/PAT_CMG_V5_16_0_1377467540/HTT_24Jul_newTES_manzoni_Up_Jobs/Job_22/LSFJOB_440973372/STDOUT.gz'
p438
sg150
S'SUSYBBHToTauTau_M-300_8TeV-pythia6-tauola/Summer12_DR53X-PU_S10_START53_V7A-v2/AODSIM/PAT_CMG_V5_16_0_1377467540/HTT_24Jul_newTES_manzoni_Up_Jobs/Job_21/LSFJOB_440973286/STDOUT.gz'
p439
sg151
S'SUSYBBHToTauTau_M-300_8TeV-pythia6-tauola/Summer12_DR53X-PU_S10_START53_V7A-v2/AODSIM/PAT_CMG_V5_16_0_1377467540/HTT_24Jul_newTES_manzoni_Up_Jobs/Job_20/LSFJOB_440973205/STDOUT.gz'
p440
ssS'LSFJobIDs'
p441
(dp442
g118
S'440972396'
p443
sg119
S'440972499'
p444
sg120
S'440972242'
p445
sg121
S'440972333'
p446
sg122
S'440972846'
p447
sg123
S'440972955'
p448
sg124
S'440972611'
p449
sg125
S'440972731'
p450
sg126
S'440974338'
p451
sg127
S'440973054'
p452
sg128
S'440973124'
p453
sg129
S'440974097'
p454
sg130
S'440974182'
p455
sg131
S'440974228'
p456
sg132
S'440974291'
p457
sg133
S'440972063'
p458
sg134
S'440972152'
p459
sg135
S'440971539'
p460
sg136
S'440971601'
p461
sg137
S'440971653'
p462
sg138
S'440971756'
p463
sg139
S'440971831'
p464
sg140
S'440971883'
p465
sg141
S'440971979'
p466
sg142
S'440974023'
p467
sg143
S'440973939'
p468
sg144
S'440973828'
p469
sg145
S'440973710'
p470
sg146
S'440973628'
p471
sg147
S'440973536'
p472
sg148
S'440973434'
p473
sg149
S'440973372'
p474
sg150
S'440973286'
p475
sg151
S'440973205'
p476
sssS'FindOnCastor'
p477
(dp478
g77
S'/eos/cms/store/cmst3/group/cmgtools/CMG'
p479
sS'Directory'
p480
S'/eos/cms/store/cmst3/group/cmgtools/CMG/SUSYBBHToTauTau_M-300_8TeV-pythia6-tauola/Summer12_DR53X-PU_S10_START53_V7A-v2/AODSIM/PAT_CMG_V5_16_0'
p481
ssS'CheckConfig'
p482
(dp483
g93
g94
ssS'FullCFG'
p484
(dp485
S'FullCFG'
p486
S'SUSYBBHToTauTau_M-300_8TeV-pythia6-tauola/Summer12_DR53X-PU_S10_START53_V7A-v2/AODSIM/PAT_CMG_V5_16_0_1377467540/full_cfg.py'
p487
ssS'WriteJobReport'
p488
(dp489
S'SummaryFile'
p490
S'SUSYBBHToTauTau_M-300_8TeV-pythia6-tauola/Summer12_DR53X-PU_S10_START53_V7A-v2/AODSIM/PAT_CMG_V5_16_0_1377467540/resubmit.sh'
p491
ssS'ExpandConfig'
p492
(dp493
S'ExpandedFullCFG'
p494
S'SUSYBBHToTauTau_M-300_8TeV-pythia6-tauola/Summer12_DR53X-PU_S10_START53_V7A-v2/AODSIM/PAT_CMG_V5_16_0_1377467540/Expandedfull_cfg.py'
p495
ssS'RunTestEvents'
p496
(dp497
g93
g94
sS'TestCFG'
p498
S'SUSYBBHToTauTau_M-300_8TeV-pythia6-tauola/Summer12_DR53X-PU_S10_START53_V7A-v2/AODSIM/PAT_CMG_V5_16_0_1377467540/test_cfg.py'
p499
ssS'SourceCFG'
p500
(dp501
S'SourceCFG'
p502
S'SUSYBBHToTauTau_M-300_8TeV-pythia6-tauola/Summer12_DR53X-PU_S10_START53_V7A-v2/AODSIM/PAT_CMG_V5_16_0_1377467540/source_cfg.py'
p503
ssS'CheckForWrite'
p504
(dp505
g480
g481
sS'WriteAccess'
p506
I01
ssS'WriteToDatasets'
p507
(dp508
S'Added'
p509
I00
sg75
S'/SUSYBBHToTauTau_M-300_8TeV-pythia6-tauola/Summer12_DR53X-PU_S10_START53_V7A-v2/AODSIM/PAT_CMG_V5_16_0/HTT_24Jul_newTES_manzoni_Up'
p510
sS'User'
p511
g108
ssS'RunCMSBatch'
p512
(dp513
S'BatchUser'
p514
g108
sS'SampleOutputDir'
p515
S'/store/cmst3/user/manzoni/CMG/SUSYBBHToTauTau_M-300_8TeV-pythia6-tauola/Summer12_DR53X-PU_S10_START53_V7A-v2/AODSIM/PAT_CMG_V5_16_0/HTT_24Jul_newTES_manzoni_Up'
p516
sS'SampleDataset'
p517
g76
sS'LSFJobsTopDir'
p518
S'SUSYBBHToTauTau_M-300_8TeV-pythia6-tauola/Summer12_DR53X-PU_S10_START53_V7A-v2/AODSIM/PAT_CMG_V5_16_0_1377467540/HTT_24Jul_newTES_manzoni_Up_Jobs'
p519
ssS'CreateJobDirectory'
p520
(dp521
S'JobDir'
p522
S'SUSYBBHToTauTau_M-300_8TeV-pythia6-tauola/Summer12_DR53X-PU_S10_START53_V7A-v2/AODSIM/PAT_CMG_V5_16_0_1377467540'
p523
sS'PWD'
p524
S'/afs/cern.ch/user/m/manzoni/summer13/CMGTools/CMSSW_5_3_9/src/CMGTools/H2TauTau/prod/25aug_corrMC/up/mc'
p525
ssS'CleanJobFiles'
p526
(dp527
S'Compressed'
p528
(dp529
S'CompressedFiles'
p530
(lp531
ssS'Cleaned'
p532
(dp533
S'CleanedFiles'
p534
(lp535
g495
ag499
aS'SUSYBBHToTauTau_M-300_8TeV-pythia6-tauola/Summer12_DR53X-PU_S10_START53_V7A-v2/AODSIM/PAT_CMG_V5_16_0_1377467540/diTau_fullsel_tree_CMG.root'
p536
aS'SUSYBBHToTauTau_M-300_8TeV-pythia6-tauola/Summer12_DR53X-PU_S10_START53_V7A-v2/AODSIM/PAT_CMG_V5_16_0_1377467540/source_cfg.pyc'
p537
aS'SUSYBBHToTauTau_M-300_8TeV-pythia6-tauola/Summer12_DR53X-PU_S10_START53_V7A-v2/AODSIM/PAT_CMG_V5_16_0_1377467540/Expandedfull_cfg.pyc'
p538
asssS'CheckForMask'
p539
(dp540
g3
g158
sg115
I01
ss.