(dp0
S'CheckJobStatus'
p1
(dp2
S'Report'
p3
(dp4
S'Files'
p5
(dp6
S'/store/cmst3/user/manzoni/CMG/SUSYGluGluToHToTauTau_M-800_8TeV-pythia6-tauola/Summer12_DR53X-PU_S10_START53_V7A-v1/AODSIM/PAT_CMG_V5_16_0/HTT_24Jul_newTES_manzoni_Up/diTau_fullsel_tree_CMG_31.root'
p7
(I01
I2969
tp8
sS'/store/cmst3/user/manzoni/CMG/SUSYGluGluToHToTauTau_M-800_8TeV-pythia6-tauola/Summer12_DR53X-PU_S10_START53_V7A-v1/AODSIM/PAT_CMG_V5_16_0/HTT_24Jul_newTES_manzoni_Up/diTau_fullsel_tree_CMG_2.root'
p9
(I01
I2946
tp10
sS'/store/cmst3/user/manzoni/CMG/SUSYGluGluToHToTauTau_M-800_8TeV-pythia6-tauola/Summer12_DR53X-PU_S10_START53_V7A-v1/AODSIM/PAT_CMG_V5_16_0/HTT_24Jul_newTES_manzoni_Up/diTau_fullsel_tree_CMG_18.root'
p11
(I01
I2906
tp12
sS'/store/cmst3/user/manzoni/CMG/SUSYGluGluToHToTauTau_M-800_8TeV-pythia6-tauola/Summer12_DR53X-PU_S10_START53_V7A-v1/AODSIM/PAT_CMG_V5_16_0/HTT_24Jul_newTES_manzoni_Up/diTau_fullsel_tree_CMG_5.root'
p13
(I01
I2926
tp14
sS'/store/cmst3/user/manzoni/CMG/SUSYGluGluToHToTauTau_M-800_8TeV-pythia6-tauola/Summer12_DR53X-PU_S10_START53_V7A-v1/AODSIM/PAT_CMG_V5_16_0/HTT_24Jul_newTES_manzoni_Up/diTau_fullsel_tree_CMG_8.root'
p15
(I01
I2969
tp16
sS'/store/cmst3/user/manzoni/CMG/SUSYGluGluToHToTauTau_M-800_8TeV-pythia6-tauola/Summer12_DR53X-PU_S10_START53_V7A-v1/AODSIM/PAT_CMG_V5_16_0/HTT_24Jul_newTES_manzoni_Up/diTau_fullsel_tree_CMG_20.root'
p17
(I01
I2953
tp18
sS'/store/cmst3/user/manzoni/CMG/SUSYGluGluToHToTauTau_M-800_8TeV-pythia6-tauola/Summer12_DR53X-PU_S10_START53_V7A-v1/AODSIM/PAT_CMG_V5_16_0/HTT_24Jul_newTES_manzoni_Up/diTau_fullsel_tree_CMG_1.root'
p19
(I01
I2372
tp20
sS'/store/cmst3/user/manzoni/CMG/SUSYGluGluToHToTauTau_M-800_8TeV-pythia6-tauola/Summer12_DR53X-PU_S10_START53_V7A-v1/AODSIM/PAT_CMG_V5_16_0/HTT_24Jul_newTES_manzoni_Up/diTau_fullsel_tree_CMG_11.root'
p21
(I01
I3025
tp22
sS'/store/cmst3/user/manzoni/CMG/SUSYGluGluToHToTauTau_M-800_8TeV-pythia6-tauola/Summer12_DR53X-PU_S10_START53_V7A-v1/AODSIM/PAT_CMG_V5_16_0/HTT_24Jul_newTES_manzoni_Up/diTau_fullsel_tree_CMG_4.root'
p23
(I01
I2936
tp24
sS'/store/cmst3/user/manzoni/CMG/SUSYGluGluToHToTauTau_M-800_8TeV-pythia6-tauola/Summer12_DR53X-PU_S10_START53_V7A-v1/AODSIM/PAT_CMG_V5_16_0/HTT_24Jul_newTES_manzoni_Up/diTau_fullsel_tree_CMG_13.root'
p25
(I01
I3028
tp26
sS'/store/cmst3/user/manzoni/CMG/SUSYGluGluToHToTauTau_M-800_8TeV-pythia6-tauola/Summer12_DR53X-PU_S10_START53_V7A-v1/AODSIM/PAT_CMG_V5_16_0/HTT_24Jul_newTES_manzoni_Up/diTau_fullsel_tree_CMG_24.root'
p27
(I01
I2970
tp28
sS'/store/cmst3/user/manzoni/CMG/SUSYGluGluToHToTauTau_M-800_8TeV-pythia6-tauola/Summer12_DR53X-PU_S10_START53_V7A-v1/AODSIM/PAT_CMG_V5_16_0/HTT_24Jul_newTES_manzoni_Up/diTau_fullsel_tree_CMG_23.root'
p29
(I01
I2952
tp30
sS'/store/cmst3/user/manzoni/CMG/SUSYGluGluToHToTauTau_M-800_8TeV-pythia6-tauola/Summer12_DR53X-PU_S10_START53_V7A-v1/AODSIM/PAT_CMG_V5_16_0/HTT_24Jul_newTES_manzoni_Up/diTau_fullsel_tree_CMG_10.root'
p31
(I01
I2903
tp32
sS'/store/cmst3/user/manzoni/CMG/SUSYGluGluToHToTauTau_M-800_8TeV-pythia6-tauola/Summer12_DR53X-PU_S10_START53_V7A-v1/AODSIM/PAT_CMG_V5_16_0/HTT_24Jul_newTES_manzoni_Up/diTau_fullsel_tree_CMG_17.root'
p33
(I01
I3012
tp34
sS'/store/cmst3/user/manzoni/CMG/SUSYGluGluToHToTauTau_M-800_8TeV-pythia6-tauola/Summer12_DR53X-PU_S10_START53_V7A-v1/AODSIM/PAT_CMG_V5_16_0/HTT_24Jul_newTES_manzoni_Up/diTau_fullsel_tree_CMG_25.root'
p35
(I01
I2931
tp36
sS'/store/cmst3/user/manzoni/CMG/SUSYGluGluToHToTauTau_M-800_8TeV-pythia6-tauola/Summer12_DR53X-PU_S10_START53_V7A-v1/AODSIM/PAT_CMG_V5_16_0/HTT_24Jul_newTES_manzoni_Up/diTau_fullsel_tree_CMG_22.root'
p37
(I01
I2959
tp38
sS'/store/cmst3/user/manzoni/CMG/SUSYGluGluToHToTauTau_M-800_8TeV-pythia6-tauola/Summer12_DR53X-PU_S10_START53_V7A-v1/AODSIM/PAT_CMG_V5_16_0/HTT_24Jul_newTES_manzoni_Up/diTau_fullsel_tree_CMG_14.root'
p39
(I01
I2970
tp40
sS'/store/cmst3/user/manzoni/CMG/SUSYGluGluToHToTauTau_M-800_8TeV-pythia6-tauola/Summer12_DR53X-PU_S10_START53_V7A-v1/AODSIM/PAT_CMG_V5_16_0/HTT_24Jul_newTES_manzoni_Up/diTau_fullsel_tree_CMG_9.root'
p41
(I01
I3011
tp42
sS'/store/cmst3/user/manzoni/CMG/SUSYGluGluToHToTauTau_M-800_8TeV-pythia6-tauola/Summer12_DR53X-PU_S10_START53_V7A-v1/AODSIM/PAT_CMG_V5_16_0/HTT_24Jul_newTES_manzoni_Up/diTau_fullsel_tree_CMG_21.root'
p43
(I01
I2858
tp44
sS'/store/cmst3/user/manzoni/CMG/SUSYGluGluToHToTauTau_M-800_8TeV-pythia6-tauola/Summer12_DR53X-PU_S10_START53_V7A-v1/AODSIM/PAT_CMG_V5_16_0/HTT_24Jul_newTES_manzoni_Up/diTau_fullsel_tree_CMG_32.root'
p45
(I01
I2387
tp46
sS'/store/cmst3/user/manzoni/CMG/SUSYGluGluToHToTauTau_M-800_8TeV-pythia6-tauola/Summer12_DR53X-PU_S10_START53_V7A-v1/AODSIM/PAT_CMG_V5_16_0/HTT_24Jul_newTES_manzoni_Up/diTau_fullsel_tree_CMG_12.root'
p47
(I01
I2875
tp48
sS'/store/cmst3/user/manzoni/CMG/SUSYGluGluToHToTauTau_M-800_8TeV-pythia6-tauola/Summer12_DR53X-PU_S10_START53_V7A-v1/AODSIM/PAT_CMG_V5_16_0/HTT_24Jul_newTES_manzoni_Up/diTau_fullsel_tree_CMG_3.root'
p49
(I01
I2954
tp50
sS'/store/cmst3/user/manzoni/CMG/SUSYGluGluToHToTauTau_M-800_8TeV-pythia6-tauola/Summer12_DR53X-PU_S10_START53_V7A-v1/AODSIM/PAT_CMG_V5_16_0/HTT_24Jul_newTES_manzoni_Up/diTau_fullsel_tree_CMG_19.root'
p51
(I01
I2909
tp52
sS'/store/cmst3/user/manzoni/CMG/SUSYGluGluToHToTauTau_M-800_8TeV-pythia6-tauola/Summer12_DR53X-PU_S10_START53_V7A-v1/AODSIM/PAT_CMG_V5_16_0/HTT_24Jul_newTES_manzoni_Up/diTau_fullsel_tree_CMG_6.root'
p53
(I01
I2959
tp54
sS'/store/cmst3/user/manzoni/CMG/SUSYGluGluToHToTauTau_M-800_8TeV-pythia6-tauola/Summer12_DR53X-PU_S10_START53_V7A-v1/AODSIM/PAT_CMG_V5_16_0/HTT_24Jul_newTES_manzoni_Up/diTau_fullsel_tree_CMG_28.root'
p55
(I01
I2864
tp56
sS'/store/cmst3/user/manzoni/CMG/SUSYGluGluToHToTauTau_M-800_8TeV-pythia6-tauola/Summer12_DR53X-PU_S10_START53_V7A-v1/AODSIM/PAT_CMG_V5_16_0/HTT_24Jul_newTES_manzoni_Up/diTau_fullsel_tree_CMG_27.root'
p57
(I01
I2941
tp58
sS'/store/cmst3/user/manzoni/CMG/SUSYGluGluToHToTauTau_M-800_8TeV-pythia6-tauola/Summer12_DR53X-PU_S10_START53_V7A-v1/AODSIM/PAT_CMG_V5_16_0/HTT_24Jul_newTES_manzoni_Up/diTau_fullsel_tree_CMG_16.root'
p59
(I01
I2985
tp60
sS'/store/cmst3/user/manzoni/CMG/SUSYGluGluToHToTauTau_M-800_8TeV-pythia6-tauola/Summer12_DR53X-PU_S10_START53_V7A-v1/AODSIM/PAT_CMG_V5_16_0/HTT_24Jul_newTES_manzoni_Up/diTau_fullsel_tree_CMG_30.root'
p61
(I01
I2948
tp62
sS'/store/cmst3/user/manzoni/CMG/SUSYGluGluToHToTauTau_M-800_8TeV-pythia6-tauola/Summer12_DR53X-PU_S10_START53_V7A-v1/AODSIM/PAT_CMG_V5_16_0/HTT_24Jul_newTES_manzoni_Up/diTau_fullsel_tree_CMG_29.root'
p63
(I01
I2891
tp64
sS'/store/cmst3/user/manzoni/CMG/SUSYGluGluToHToTauTau_M-800_8TeV-pythia6-tauola/Summer12_DR53X-PU_S10_START53_V7A-v1/AODSIM/PAT_CMG_V5_16_0/HTT_24Jul_newTES_manzoni_Up/diTau_fullsel_tree_CMG_7.root'
p65
(I01
I3014
tp66
sS'/store/cmst3/user/manzoni/CMG/SUSYGluGluToHToTauTau_M-800_8TeV-pythia6-tauola/Summer12_DR53X-PU_S10_START53_V7A-v1/AODSIM/PAT_CMG_V5_16_0/HTT_24Jul_newTES_manzoni_Up/diTau_fullsel_tree_CMG_26.root'
p67
(I01
I2940
tp68
sS'/store/cmst3/user/manzoni/CMG/SUSYGluGluToHToTauTau_M-800_8TeV-pythia6-tauola/Summer12_DR53X-PU_S10_START53_V7A-v1/AODSIM/PAT_CMG_V5_16_0/HTT_24Jul_newTES_manzoni_Up/diTau_fullsel_tree_CMG_15.root'
p69
(I01
I2994
tp70
ssS'Name'
p71
S'/SUSYGluGluToHToTauTau_M-800_8TeV-pythia6-tauola/Summer12_DR53X-PU_S10_START53_V7A-v1/AODSIM/PAT_CMG_V5_16_0/HTT_24Jul_newTES_manzoni_Up'
p72
sS'Topdir'
p73
S'/eos/cms/store/cmst3/user/manzoni/CMG'
p74
sS'RunList'
p75
(lp76
sS'PathList'
p77
(lp78
S'/store/cmst3/user/manzoni/CMG/SUSYGluGluToHToTauTau_M-800_8TeV-pythia6-tauola/Summer12_DR53X-PU_S10_START53_V7A-v1/AODSIM/PAT_CMG_V5_16_0/HTT_24Jul_newTES_manzoni_Up'
p79
asS'AlgoList'
p80
(lp81
sS'PrimaryDatasetFraction'
p82
F0.094427906034831921
sS'FilesGood'
p83
I32
sS'PrimaryDatasetEntries'
p84
I987600
sS'data'
p85
(dp86
sS'FilesBad'
p87
I0
sS'ReportVersion'
p88
I3
sS'Status'
p89
S'VALID'
p90
sS'MaxRun'
p91
I-1
sS'PhysicsGroup'
p92
S'CMG'
p93
sS'MinRun'
p94
I-1
sS'StageHost'
p95
S'castorcms'
p96
sS'FilesCount'
p97
I32
sS'FilesEntries'
p98
I93257
sS'TierList'
p99
(lp100
sS'DateCreated'
p101
S'1377480924'
p102
sS'CreatedBy'
p103
S'manzoni'
p104
sS'ValidDuplicates'
p105
(dp106
sS'PrimaryDataset'
p107
S'/SUSYGluGluToHToTauTau_M-800_8TeV-pythia6-tauola/Summer12_DR53X-PU_S10_START53_V7A-v1/AODSIM'
p108
sS'BadJobs'
p109
(lp110
ssS'MaskPresent'
p111
I01
sS'LSFJobStatusCheck'
p112
(dp113
S'SUSYGluGluToHToTauTau_M-800_8TeV-pythia6-tauola/Summer12_DR53X-PU_S10_START53_V7A-v1/AODSIM/PAT_CMG_V5_16_0_1377467555/HTT_24Jul_newTES_manzoni_Up_Jobs/Job_26'
p114
g90
sS'SUSYGluGluToHToTauTau_M-800_8TeV-pythia6-tauola/Summer12_DR53X-PU_S10_START53_V7A-v1/AODSIM/PAT_CMG_V5_16_0_1377467555/HTT_24Jul_newTES_manzoni_Up_Jobs/Job_27'
p115
g90
sS'SUSYGluGluToHToTauTau_M-800_8TeV-pythia6-tauola/Summer12_DR53X-PU_S10_START53_V7A-v1/AODSIM/PAT_CMG_V5_16_0_1377467555/HTT_24Jul_newTES_manzoni_Up_Jobs/Job_24'
p116
g90
sS'SUSYGluGluToHToTauTau_M-800_8TeV-pythia6-tauola/Summer12_DR53X-PU_S10_START53_V7A-v1/AODSIM/PAT_CMG_V5_16_0_1377467555/HTT_24Jul_newTES_manzoni_Up_Jobs/Job_25'
p117
g90
sS'SUSYGluGluToHToTauTau_M-800_8TeV-pythia6-tauola/Summer12_DR53X-PU_S10_START53_V7A-v1/AODSIM/PAT_CMG_V5_16_0_1377467555/HTT_24Jul_newTES_manzoni_Up_Jobs/Job_22'
p118
g90
sS'SUSYGluGluToHToTauTau_M-800_8TeV-pythia6-tauola/Summer12_DR53X-PU_S10_START53_V7A-v1/AODSIM/PAT_CMG_V5_16_0_1377467555/HTT_24Jul_newTES_manzoni_Up_Jobs/Job_23'
p119
g90
sS'SUSYGluGluToHToTauTau_M-800_8TeV-pythia6-tauola/Summer12_DR53X-PU_S10_START53_V7A-v1/AODSIM/PAT_CMG_V5_16_0_1377467555/HTT_24Jul_newTES_manzoni_Up_Jobs/Job_20'
p120
g90
sS'SUSYGluGluToHToTauTau_M-800_8TeV-pythia6-tauola/Summer12_DR53X-PU_S10_START53_V7A-v1/AODSIM/PAT_CMG_V5_16_0_1377467555/HTT_24Jul_newTES_manzoni_Up_Jobs/Job_21'
p121
g90
sS'SUSYGluGluToHToTauTau_M-800_8TeV-pythia6-tauola/Summer12_DR53X-PU_S10_START53_V7A-v1/AODSIM/PAT_CMG_V5_16_0_1377467555/HTT_24Jul_newTES_manzoni_Up_Jobs/Job_28'
p122
g90
sS'SUSYGluGluToHToTauTau_M-800_8TeV-pythia6-tauola/Summer12_DR53X-PU_S10_START53_V7A-v1/AODSIM/PAT_CMG_V5_16_0_1377467555/HTT_24Jul_newTES_manzoni_Up_Jobs/Job_29'
p123
g90
sS'SUSYGluGluToHToTauTau_M-800_8TeV-pythia6-tauola/Summer12_DR53X-PU_S10_START53_V7A-v1/AODSIM/PAT_CMG_V5_16_0_1377467555/HTT_24Jul_newTES_manzoni_Up_Jobs/Job_7'
p124
g90
sS'SUSYGluGluToHToTauTau_M-800_8TeV-pythia6-tauola/Summer12_DR53X-PU_S10_START53_V7A-v1/AODSIM/PAT_CMG_V5_16_0_1377467555/HTT_24Jul_newTES_manzoni_Up_Jobs/Job_6'
p125
g90
sS'SUSYGluGluToHToTauTau_M-800_8TeV-pythia6-tauola/Summer12_DR53X-PU_S10_START53_V7A-v1/AODSIM/PAT_CMG_V5_16_0_1377467555/HTT_24Jul_newTES_manzoni_Up_Jobs/Job_5'
p126
g90
sS'SUSYGluGluToHToTauTau_M-800_8TeV-pythia6-tauola/Summer12_DR53X-PU_S10_START53_V7A-v1/AODSIM/PAT_CMG_V5_16_0_1377467555/HTT_24Jul_newTES_manzoni_Up_Jobs/Job_4'
p127
g90
sS'SUSYGluGluToHToTauTau_M-800_8TeV-pythia6-tauola/Summer12_DR53X-PU_S10_START53_V7A-v1/AODSIM/PAT_CMG_V5_16_0_1377467555/HTT_24Jul_newTES_manzoni_Up_Jobs/Job_3'
p128
g90
sS'SUSYGluGluToHToTauTau_M-800_8TeV-pythia6-tauola/Summer12_DR53X-PU_S10_START53_V7A-v1/AODSIM/PAT_CMG_V5_16_0_1377467555/HTT_24Jul_newTES_manzoni_Up_Jobs/Job_2'
p129
g90
sS'SUSYGluGluToHToTauTau_M-800_8TeV-pythia6-tauola/Summer12_DR53X-PU_S10_START53_V7A-v1/AODSIM/PAT_CMG_V5_16_0_1377467555/HTT_24Jul_newTES_manzoni_Up_Jobs/Job_1'
p130
g90
sS'SUSYGluGluToHToTauTau_M-800_8TeV-pythia6-tauola/Summer12_DR53X-PU_S10_START53_V7A-v1/AODSIM/PAT_CMG_V5_16_0_1377467555/HTT_24Jul_newTES_manzoni_Up_Jobs/Job_9'
p131
g90
sS'SUSYGluGluToHToTauTau_M-800_8TeV-pythia6-tauola/Summer12_DR53X-PU_S10_START53_V7A-v1/AODSIM/PAT_CMG_V5_16_0_1377467555/HTT_24Jul_newTES_manzoni_Up_Jobs/Job_8'
p132
g90
sS'SUSYGluGluToHToTauTau_M-800_8TeV-pythia6-tauola/Summer12_DR53X-PU_S10_START53_V7A-v1/AODSIM/PAT_CMG_V5_16_0_1377467555/HTT_24Jul_newTES_manzoni_Up_Jobs/Job_31'
p133
g90
sS'SUSYGluGluToHToTauTau_M-800_8TeV-pythia6-tauola/Summer12_DR53X-PU_S10_START53_V7A-v1/AODSIM/PAT_CMG_V5_16_0_1377467555/HTT_24Jul_newTES_manzoni_Up_Jobs/Job_30'
p134
g90
sS'SUSYGluGluToHToTauTau_M-800_8TeV-pythia6-tauola/Summer12_DR53X-PU_S10_START53_V7A-v1/AODSIM/PAT_CMG_V5_16_0_1377467555/HTT_24Jul_newTES_manzoni_Up_Jobs/Job_32'
p135
g90
sS'SUSYGluGluToHToTauTau_M-800_8TeV-pythia6-tauola/Summer12_DR53X-PU_S10_START53_V7A-v1/AODSIM/PAT_CMG_V5_16_0_1377467555/HTT_24Jul_newTES_manzoni_Up_Jobs/Job_19'
p136
g90
sS'SUSYGluGluToHToTauTau_M-800_8TeV-pythia6-tauola/Summer12_DR53X-PU_S10_START53_V7A-v1/AODSIM/PAT_CMG_V5_16_0_1377467555/HTT_24Jul_newTES_manzoni_Up_Jobs/Job_18'
p137
g90
sS'SUSYGluGluToHToTauTau_M-800_8TeV-pythia6-tauola/Summer12_DR53X-PU_S10_START53_V7A-v1/AODSIM/PAT_CMG_V5_16_0_1377467555/HTT_24Jul_newTES_manzoni_Up_Jobs/Job_17'
p138
g90
sS'SUSYGluGluToHToTauTau_M-800_8TeV-pythia6-tauola/Summer12_DR53X-PU_S10_START53_V7A-v1/AODSIM/PAT_CMG_V5_16_0_1377467555/HTT_24Jul_newTES_manzoni_Up_Jobs/Job_16'
p139
g90
sS'SUSYGluGluToHToTauTau_M-800_8TeV-pythia6-tauola/Summer12_DR53X-PU_S10_START53_V7A-v1/AODSIM/PAT_CMG_V5_16_0_1377467555/HTT_24Jul_newTES_manzoni_Up_Jobs/Job_15'
p140
g90
sS'SUSYGluGluToHToTauTau_M-800_8TeV-pythia6-tauola/Summer12_DR53X-PU_S10_START53_V7A-v1/AODSIM/PAT_CMG_V5_16_0_1377467555/HTT_24Jul_newTES_manzoni_Up_Jobs/Job_14'
p141
g90
sS'SUSYGluGluToHToTauTau_M-800_8TeV-pythia6-tauola/Summer12_DR53X-PU_S10_START53_V7A-v1/AODSIM/PAT_CMG_V5_16_0_1377467555/HTT_24Jul_newTES_manzoni_Up_Jobs/Job_13'
p142
g90
sS'SUSYGluGluToHToTauTau_M-800_8TeV-pythia6-tauola/Summer12_DR53X-PU_S10_START53_V7A-v1/AODSIM/PAT_CMG_V5_16_0_1377467555/HTT_24Jul_newTES_manzoni_Up_Jobs/Job_12'
p143
g90
sS'SUSYGluGluToHToTauTau_M-800_8TeV-pythia6-tauola/Summer12_DR53X-PU_S10_START53_V7A-v1/AODSIM/PAT_CMG_V5_16_0_1377467555/HTT_24Jul_newTES_manzoni_Up_Jobs/Job_11'
p144
g90
sS'SUSYGluGluToHToTauTau_M-800_8TeV-pythia6-tauola/Summer12_DR53X-PU_S10_START53_V7A-v1/AODSIM/PAT_CMG_V5_16_0_1377467555/HTT_24Jul_newTES_manzoni_Up_Jobs/Job_10'
p145
g90
sssS'CheckDatasetExists'
p146
(dp147
S'Dataset'
p148
S'/SUSYGluGluToHToTauTau_M-800_8TeV-pythia6-tauola/Summer12_DR53X-PU_S10_START53_V7A-v1/AODSIM/PAT_CMG_V5_16_0'
p149
ssS'GenerateMask'
p150
(dp151
g3
(dp152
VPathList
p153
(lp154
V/store/cmst3/group/cmgtools/CMG/SUSYBBHToTauTau_M-130_8TeV-pythia6-tauola/Summer12_DR53X-PU_S10_START53_V7A-v1/AODSIM/PAT_CMG_V5_16_0
p155
asVStageHost
p156
Vcastorcms
p157
sVPrimaryDatasetFraction
p158
F0.96000031999744007
sVFilesGood
p159
I97
sVPrimaryDatasetEntries
p160
I1000008
sVReportVersion
p161
I3
sVFiles
p162
(dp163
V/store/cmst3/group/cmgtools/CMG/SUSYBBHToTauTau_M-130_8TeV-pythia6-tauola/Summer12_DR53X-PU_S10_START53_V7A-v1/AODSIM/PAT_CMG_V5_16_0/cmgTuple_97_1_Opx.root
p164
(lp165
I01
aI10000
asV/store/cmst3/group/cmgtools/CMG/SUSYBBHToTauTau_M-130_8TeV-pythia6-tauola/Summer12_DR53X-PU_S10_START53_V7A-v1/AODSIM/PAT_CMG_V5_16_0/cmgTuple_74_1_6rh.root
p166
(lp167
I01
aI10000
asV/store/cmst3/group/cmgtools/CMG/SUSYBBHToTauTau_M-130_8TeV-pythia6-tauola/Summer12_DR53X-PU_S10_START53_V7A-v1/AODSIM/PAT_CMG_V5_16_0/cmgTuple_82_1_ICZ.root
p168
(lp169
I01
aI10000
asV/store/cmst3/group/cmgtools/CMG/SUSYBBHToTauTau_M-130_8TeV-pythia6-tauola/Summer12_DR53X-PU_S10_START53_V7A-v1/AODSIM/PAT_CMG_V5_16_0/cmgTuple_41_1_gbZ.root
p170
(lp171
I01
aI10000
asV/store/cmst3/group/cmgtools/CMG/SUSYBBHToTauTau_M-130_8TeV-pythia6-tauola/Summer12_DR53X-PU_S10_START53_V7A-v1/AODSIM/PAT_CMG_V5_16_0/cmgTuple_86_1_CHY.root
p172
(lp173
I01
aI10000
asV/store/cmst3/group/cmgtools/CMG/SUSYBBHToTauTau_M-130_8TeV-pythia6-tauola/Summer12_DR53X-PU_S10_START53_V7A-v1/AODSIM/PAT_CMG_V5_16_0/cmgTuple_84_1_6XU.root
p174
(lp175
I01
aI10000
asV/store/cmst3/group/cmgtools/CMG/SUSYBBHToTauTau_M-130_8TeV-pythia6-tauola/Summer12_DR53X-PU_S10_START53_V7A-v1/AODSIM/PAT_CMG_V5_16_0/cmgTuple_62_1_xn4.root
p176
(lp177
I01
aI10000
asV/store/cmst3/group/cmgtools/CMG/SUSYBBHToTauTau_M-130_8TeV-pythia6-tauola/Summer12_DR53X-PU_S10_START53_V7A-v1/AODSIM/PAT_CMG_V5_16_0/cmgTuple_5_1_FUz.root
p178
(lp179
I01
aI10000
asV/store/cmst3/group/cmgtools/CMG/SUSYBBHToTauTau_M-130_8TeV-pythia6-tauola/Summer12_DR53X-PU_S10_START53_V7A-v1/AODSIM/PAT_CMG_V5_16_0/cmgTuple_14_1_fVF.root
p180
(lp181
I01
aI10000
asV/store/cmst3/group/cmgtools/CMG/SUSYBBHToTauTau_M-130_8TeV-pythia6-tauola/Summer12_DR53X-PU_S10_START53_V7A-v1/AODSIM/PAT_CMG_V5_16_0/cmgTuple_9_1_gu6.root
p182
(lp183
I01
aI10000
asV/store/cmst3/group/cmgtools/CMG/SUSYBBHToTauTau_M-130_8TeV-pythia6-tauola/Summer12_DR53X-PU_S10_START53_V7A-v1/AODSIM/PAT_CMG_V5_16_0/cmgTuple_54_1_quP.root
p184
(lp185
I01
aI10000
asV/store/cmst3/group/cmgtools/CMG/SUSYBBHToTauTau_M-130_8TeV-pythia6-tauola/Summer12_DR53X-PU_S10_START53_V7A-v1/AODSIM/PAT_CMG_V5_16_0/cmgTuple_79_1_uq8.root
p186
(lp187
I01
aI10000
asV/store/cmst3/group/cmgtools/CMG/SUSYBBHToTauTau_M-130_8TeV-pythia6-tauola/Summer12_DR53X-PU_S10_START53_V7A-v1/AODSIM/PAT_CMG_V5_16_0/cmgTuple_81_1_Wev.root
p188
(lp189
I01
aI10000
asV/store/cmst3/group/cmgtools/CMG/SUSYBBHToTauTau_M-130_8TeV-pythia6-tauola/Summer12_DR53X-PU_S10_START53_V7A-v1/AODSIM/PAT_CMG_V5_16_0/cmgTuple_64_1_I5F.root
p190
(lp191
I01
aI10000
asV/store/cmst3/group/cmgtools/CMG/SUSYBBHToTauTau_M-130_8TeV-pythia6-tauola/Summer12_DR53X-PU_S10_START53_V7A-v1/AODSIM/PAT_CMG_V5_16_0/cmgTuple_73_1_ik4.root
p192
(lp193
I01
aI10000
asV/store/cmst3/group/cmgtools/CMG/SUSYBBHToTauTau_M-130_8TeV-pythia6-tauola/Summer12_DR53X-PU_S10_START53_V7A-v1/AODSIM/PAT_CMG_V5_16_0/cmgTuple_77_1_f17.root
p194
(lp195
I01
aI10000
asV/store/cmst3/group/cmgtools/CMG/SUSYBBHToTauTau_M-130_8TeV-pythia6-tauola/Summer12_DR53X-PU_S10_START53_V7A-v1/AODSIM/PAT_CMG_V5_16_0/cmgTuple_12_1_2Ko.root
p196
(lp197
I01
aI10000
asV/store/cmst3/group/cmgtools/CMG/SUSYBBHToTauTau_M-130_8TeV-pythia6-tauola/Summer12_DR53X-PU_S10_START53_V7A-v1/AODSIM/PAT_CMG_V5_16_0/cmgTuple_56_1_HAU.root
p198
(lp199
I01
aI10000
asV/store/cmst3/group/cmgtools/CMG/SUSYBBHToTauTau_M-130_8TeV-pythia6-tauola/Summer12_DR53X-PU_S10_START53_V7A-v1/AODSIM/PAT_CMG_V5_16_0/cmgTuple_34_1_jc7.root
p200
(lp201
I01
aI10000
asV/store/cmst3/group/cmgtools/CMG/SUSYBBHToTauTau_M-130_8TeV-pythia6-tauola/Summer12_DR53X-PU_S10_START53_V7A-v1/AODSIM/PAT_CMG_V5_16_0/cmgTuple_69_1_6Io.root
p202
(lp203
I01
aI10000
asV/store/cmst3/group/cmgtools/CMG/SUSYBBHToTauTau_M-130_8TeV-pythia6-tauola/Summer12_DR53X-PU_S10_START53_V7A-v1/AODSIM/PAT_CMG_V5_16_0/cmgTuple_35_1_qN5.root
p204
(lp205
I01
aI10000
asV/store/cmst3/group/cmgtools/CMG/SUSYBBHToTauTau_M-130_8TeV-pythia6-tauola/Summer12_DR53X-PU_S10_START53_V7A-v1/AODSIM/PAT_CMG_V5_16_0/cmgTuple_58_1_8ec.root
p206
(lp207
I01
aI10000
asV/store/cmst3/group/cmgtools/CMG/SUSYBBHToTauTau_M-130_8TeV-pythia6-tauola/Summer12_DR53X-PU_S10_START53_V7A-v1/AODSIM/PAT_CMG_V5_16_0/cmgTuple_53_1_yfs.root
p208
(lp209
I01
aI10000
asV/store/cmst3/group/cmgtools/CMG/SUSYBBHToTauTau_M-130_8TeV-pythia6-tauola/Summer12_DR53X-PU_S10_START53_V7A-v1/AODSIM/PAT_CMG_V5_16_0/cmgTuple_72_1_I5g.root
p210
(lp211
I01
aI10000
asV/store/cmst3/group/cmgtools/CMG/SUSYBBHToTauTau_M-130_8TeV-pythia6-tauola/Summer12_DR53X-PU_S10_START53_V7A-v1/AODSIM/PAT_CMG_V5_16_0/cmgTuple_8_1_gvc.root
p212
(lp213
I01
aI10000
asV/store/cmst3/group/cmgtools/CMG/SUSYBBHToTauTau_M-130_8TeV-pythia6-tauola/Summer12_DR53X-PU_S10_START53_V7A-v1/AODSIM/PAT_CMG_V5_16_0/cmgTuple_57_1_YiM.root
p214
(lp215
I01
aI10000
asV/store/cmst3/group/cmgtools/CMG/SUSYBBHToTauTau_M-130_8TeV-pythia6-tauola/Summer12_DR53X-PU_S10_START53_V7A-v1/AODSIM/PAT_CMG_V5_16_0/cmgTuple_100_1_rqK.root
p216
(lp217
I01
aI10000
asV/store/cmst3/group/cmgtools/CMG/SUSYBBHToTauTau_M-130_8TeV-pythia6-tauola/Summer12_DR53X-PU_S10_START53_V7A-v1/AODSIM/PAT_CMG_V5_16_0/cmgTuple_22_1_hR5.root
p218
(lp219
I01
aI10000
asV/store/cmst3/group/cmgtools/CMG/SUSYBBHToTauTau_M-130_8TeV-pythia6-tauola/Summer12_DR53X-PU_S10_START53_V7A-v1/AODSIM/PAT_CMG_V5_16_0/cmgTuple_13_1_VZE.root
p220
(lp221
I01
aI10000
asV/store/cmst3/group/cmgtools/CMG/SUSYBBHToTauTau_M-130_8TeV-pythia6-tauola/Summer12_DR53X-PU_S10_START53_V7A-v1/AODSIM/PAT_CMG_V5_16_0/cmgTuple_45_1_A16.root
p222
(lp223
I01
aI10000
asV/store/cmst3/group/cmgtools/CMG/SUSYBBHToTauTau_M-130_8TeV-pythia6-tauola/Summer12_DR53X-PU_S10_START53_V7A-v1/AODSIM/PAT_CMG_V5_16_0/cmgTuple_17_1_Z4J.root
p224
(lp225
I01
aI10000
asV/store/cmst3/group/cmgtools/CMG/SUSYBBHToTauTau_M-130_8TeV-pythia6-tauola/Summer12_DR53X-PU_S10_START53_V7A-v1/AODSIM/PAT_CMG_V5_16_0/cmgTuple_6_1_bVs.root
p226
(lp227
I01
aI10000
asV/store/cmst3/group/cmgtools/CMG/SUSYBBHToTauTau_M-130_8TeV-pythia6-tauola/Summer12_DR53X-PU_S10_START53_V7A-v1/AODSIM/PAT_CMG_V5_16_0/cmgTuple_89_1_8BP.root
p228
(lp229
I01
aI10000
asV/store/cmst3/group/cmgtools/CMG/SUSYBBHToTauTau_M-130_8TeV-pythia6-tauola/Summer12_DR53X-PU_S10_START53_V7A-v1/AODSIM/PAT_CMG_V5_16_0/cmgTuple_85_1_ZRQ.root
p230
(lp231
I01
aI10000
asV/store/cmst3/group/cmgtools/CMG/SUSYBBHToTauTau_M-130_8TeV-pythia6-tauola/Summer12_DR53X-PU_S10_START53_V7A-v1/AODSIM/PAT_CMG_V5_16_0/cmgTuple_70_1_5WC.root
p232
(lp233
I01
aI10000
asV/store/cmst3/group/cmgtools/CMG/SUSYBBHToTauTau_M-130_8TeV-pythia6-tauola/Summer12_DR53X-PU_S10_START53_V7A-v1/AODSIM/PAT_CMG_V5_16_0/cmgTuple_32_1_GRc.root
p234
(lp235
I01
aI10000
asV/store/cmst3/group/cmgtools/CMG/SUSYBBHToTauTau_M-130_8TeV-pythia6-tauola/Summer12_DR53X-PU_S10_START53_V7A-v1/AODSIM/PAT_CMG_V5_16_0/cmgTuple_20_1_VEC.root
p236
(lp237
I01
aI10000
asV/store/cmst3/group/cmgtools/CMG/SUSYBBHToTauTau_M-130_8TeV-pythia6-tauola/Summer12_DR53X-PU_S10_START53_V7A-v1/AODSIM/PAT_CMG_V5_16_0/cmgTuple_67_1_9S5.root
p238
(lp239
I01
aI10000
asV/store/cmst3/group/cmgtools/CMG/SUSYBBHToTauTau_M-130_8TeV-pythia6-tauola/Summer12_DR53X-PU_S10_START53_V7A-v1/AODSIM/PAT_CMG_V5_16_0/cmgTuple_78_1_PKT.root
p240
(lp241
I01
aI10000
asV/store/cmst3/group/cmgtools/CMG/SUSYBBHToTauTau_M-130_8TeV-pythia6-tauola/Summer12_DR53X-PU_S10_START53_V7A-v1/AODSIM/PAT_CMG_V5_16_0/cmgTuple_68_1_3F5.root
p242
(lp243
I01
aI10000
asV/store/cmst3/group/cmgtools/CMG/SUSYBBHToTauTau_M-130_8TeV-pythia6-tauola/Summer12_DR53X-PU_S10_START53_V7A-v1/AODSIM/PAT_CMG_V5_16_0/cmgTuple_83_1_QZa.root
p244
(lp245
I01
aI10000
asV/store/cmst3/group/cmgtools/CMG/SUSYBBHToTauTau_M-130_8TeV-pythia6-tauola/Summer12_DR53X-PU_S10_START53_V7A-v1/AODSIM/PAT_CMG_V5_16_0/cmgTuple_75_1_onr.root
p246
(lp247
I01
aI10000
asV/store/cmst3/group/cmgtools/CMG/SUSYBBHToTauTau_M-130_8TeV-pythia6-tauola/Summer12_DR53X-PU_S10_START53_V7A-v1/AODSIM/PAT_CMG_V5_16_0/cmgTuple_91_1_E12.root
p248
(lp249
I01
aI10000
asV/store/cmst3/group/cmgtools/CMG/SUSYBBHToTauTau_M-130_8TeV-pythia6-tauola/Summer12_DR53X-PU_S10_START53_V7A-v1/AODSIM/PAT_CMG_V5_16_0/cmgTuple_60_1_zVk.root
p250
(lp251
I01
aI10000
asV/store/cmst3/group/cmgtools/CMG/SUSYBBHToTauTau_M-130_8TeV-pythia6-tauola/Summer12_DR53X-PU_S10_START53_V7A-v1/AODSIM/PAT_CMG_V5_16_0/cmgTuple_33_1_jkA.root
p252
(lp253
I01
aI10000
asV/store/cmst3/group/cmgtools/CMG/SUSYBBHToTauTau_M-130_8TeV-pythia6-tauola/Summer12_DR53X-PU_S10_START53_V7A-v1/AODSIM/PAT_CMG_V5_16_0/cmgTuple_19_1_B9x.root
p254
(lp255
I01
aI10000
asV/store/cmst3/group/cmgtools/CMG/SUSYBBHToTauTau_M-130_8TeV-pythia6-tauola/Summer12_DR53X-PU_S10_START53_V7A-v1/AODSIM/PAT_CMG_V5_16_0/cmgTuple_65_1_e51.root
p256
(lp257
I01
aI10000
asV/store/cmst3/group/cmgtools/CMG/SUSYBBHToTauTau_M-130_8TeV-pythia6-tauola/Summer12_DR53X-PU_S10_START53_V7A-v1/AODSIM/PAT_CMG_V5_16_0/cmgTuple_98_1_mzD.root
p258
(lp259
I01
aI10000
asV/store/cmst3/group/cmgtools/CMG/SUSYBBHToTauTau_M-130_8TeV-pythia6-tauola/Summer12_DR53X-PU_S10_START53_V7A-v1/AODSIM/PAT_CMG_V5_16_0/cmgTuple_92_1_2EX.root
p260
(lp261
I01
aI10000
asV/store/cmst3/group/cmgtools/CMG/SUSYBBHToTauTau_M-130_8TeV-pythia6-tauola/Summer12_DR53X-PU_S10_START53_V7A-v1/AODSIM/PAT_CMG_V5_16_0/cmgTuple_18_1_EWQ.root
p262
(lp263
I01
aI10000
asV/store/cmst3/group/cmgtools/CMG/SUSYBBHToTauTau_M-130_8TeV-pythia6-tauola/Summer12_DR53X-PU_S10_START53_V7A-v1/AODSIM/PAT_CMG_V5_16_0/cmgTuple_3_1_B4o.root
p264
(lp265
I01
aI10000
asV/store/cmst3/group/cmgtools/CMG/SUSYBBHToTauTau_M-130_8TeV-pythia6-tauola/Summer12_DR53X-PU_S10_START53_V7A-v1/AODSIM/PAT_CMG_V5_16_0/cmgTuple_47_1_I9k.root
p266
(lp267
I01
aI10000
asV/store/cmst3/group/cmgtools/CMG/SUSYBBHToTauTau_M-130_8TeV-pythia6-tauola/Summer12_DR53X-PU_S10_START53_V7A-v1/AODSIM/PAT_CMG_V5_16_0/cmgTuple_88_1_Rq7.root
p268
(lp269
I01
aI10000
asV/store/cmst3/group/cmgtools/CMG/SUSYBBHToTauTau_M-130_8TeV-pythia6-tauola/Summer12_DR53X-PU_S10_START53_V7A-v1/AODSIM/PAT_CMG_V5_16_0/cmgTuple_52_1_wLe.root
p270
(lp271
I01
aI10000
asV/store/cmst3/group/cmgtools/CMG/SUSYBBHToTauTau_M-130_8TeV-pythia6-tauola/Summer12_DR53X-PU_S10_START53_V7A-v1/AODSIM/PAT_CMG_V5_16_0/cmgTuple_23_1_ZpD.root
p272
(lp273
I01
aI10000
asV/store/cmst3/group/cmgtools/CMG/SUSYBBHToTauTau_M-130_8TeV-pythia6-tauola/Summer12_DR53X-PU_S10_START53_V7A-v1/AODSIM/PAT_CMG_V5_16_0/cmgTuple_36_1_vrm.root
p274
(lp275
I01
aI10000
asV/store/cmst3/group/cmgtools/CMG/SUSYBBHToTauTau_M-130_8TeV-pythia6-tauola/Summer12_DR53X-PU_S10_START53_V7A-v1/AODSIM/PAT_CMG_V5_16_0/cmgTuple_59_1_MXT.root
p276
(lp277
I01
aI10000
asV/store/cmst3/group/cmgtools/CMG/SUSYBBHToTauTau_M-130_8TeV-pythia6-tauola/Summer12_DR53X-PU_S10_START53_V7A-v1/AODSIM/PAT_CMG_V5_16_0/cmgTuple_94_1_jEh.root
p278
(lp279
I01
aI10000
asV/store/cmst3/group/cmgtools/CMG/SUSYBBHToTauTau_M-130_8TeV-pythia6-tauola/Summer12_DR53X-PU_S10_START53_V7A-v1/AODSIM/PAT_CMG_V5_16_0/cmgTuple_31_1_0Rt.root
p280
(lp281
I01
aI10000
asV/store/cmst3/group/cmgtools/CMG/SUSYBBHToTauTau_M-130_8TeV-pythia6-tauola/Summer12_DR53X-PU_S10_START53_V7A-v1/AODSIM/PAT_CMG_V5_16_0/cmgTuple_24_1_pfa.root
p282
(lp283
I01
aI10000
asV/store/cmst3/group/cmgtools/CMG/SUSYBBHToTauTau_M-130_8TeV-pythia6-tauola/Summer12_DR53X-PU_S10_START53_V7A-v1/AODSIM/PAT_CMG_V5_16_0/cmgTuple_71_1_50D.root
p284
(lp285
I01
aI10000
asV/store/cmst3/group/cmgtools/CMG/SUSYBBHToTauTau_M-130_8TeV-pythia6-tauola/Summer12_DR53X-PU_S10_START53_V7A-v1/AODSIM/PAT_CMG_V5_16_0/cmgTuple_50_1_jsM.root
p286
(lp287
I01
aI10000
asV/store/cmst3/group/cmgtools/CMG/SUSYBBHToTauTau_M-130_8TeV-pythia6-tauola/Summer12_DR53X-PU_S10_START53_V7A-v1/AODSIM/PAT_CMG_V5_16_0/cmgTuple_15_1_BK9.root
p288
(lp289
I01
aI10000
asV/store/cmst3/group/cmgtools/CMG/SUSYBBHToTauTau_M-130_8TeV-pythia6-tauola/Summer12_DR53X-PU_S10_START53_V7A-v1/AODSIM/PAT_CMG_V5_16_0/cmgTuple_40_1_sRT.root
p290
(lp291
I01
aI10000
asV/store/cmst3/group/cmgtools/CMG/SUSYBBHToTauTau_M-130_8TeV-pythia6-tauola/Summer12_DR53X-PU_S10_START53_V7A-v1/AODSIM/PAT_CMG_V5_16_0/cmgTuple_90_1_jG0.root
p292
(lp293
I01
aI10000
asV/store/cmst3/group/cmgtools/CMG/SUSYBBHToTauTau_M-130_8TeV-pythia6-tauola/Summer12_DR53X-PU_S10_START53_V7A-v1/AODSIM/PAT_CMG_V5_16_0/cmgTuple_93_1_lly.root
p294
(lp295
I01
aI10000
asV/store/cmst3/group/cmgtools/CMG/SUSYBBHToTauTau_M-130_8TeV-pythia6-tauola/Summer12_DR53X-PU_S10_START53_V7A-v1/AODSIM/PAT_CMG_V5_16_0/cmgTuple_26_1_Vo2.root
p296
(lp297
I01
aI10000
asV/store/cmst3/group/cmgtools/CMG/SUSYBBHToTauTau_M-130_8TeV-pythia6-tauola/Summer12_DR53X-PU_S10_START53_V7A-v1/AODSIM/PAT_CMG_V5_16_0/cmgTuple_2_1_dpZ.root
p298
(lp299
I01
aI10000
asV/store/cmst3/group/cmgtools/CMG/SUSYBBHToTauTau_M-130_8TeV-pythia6-tauola/Summer12_DR53X-PU_S10_START53_V7A-v1/AODSIM/PAT_CMG_V5_16_0/cmgTuple_16_1_PGS.root
p300
(lp301
I01
aI10000
asV/store/cmst3/group/cmgtools/CMG/SUSYBBHToTauTau_M-130_8TeV-pythia6-tauola/Summer12_DR53X-PU_S10_START53_V7A-v1/AODSIM/PAT_CMG_V5_16_0/cmgTuple_29_1_cEj.root
p302
(lp303
I01
aI10000
asV/store/cmst3/group/cmgtools/CMG/SUSYBBHToTauTau_M-130_8TeV-pythia6-tauola/Summer12_DR53X-PU_S10_START53_V7A-v1/AODSIM/PAT_CMG_V5_16_0/cmgTuple_27_1_dz0.root
p304
(lp305
I01
aI10000
asV/store/cmst3/group/cmgtools/CMG/SUSYBBHToTauTau_M-130_8TeV-pythia6-tauola/Summer12_DR53X-PU_S10_START53_V7A-v1/AODSIM/PAT_CMG_V5_16_0/cmgTuple_87_1_ADR.root
p306
(lp307
I01
aI10000
asV/store/cmst3/group/cmgtools/CMG/SUSYBBHToTauTau_M-130_8TeV-pythia6-tauola/Summer12_DR53X-PU_S10_START53_V7A-v1/AODSIM/PAT_CMG_V5_16_0/cmgTuple_42_1_QZF.root
p308
(lp309
I01
aI10000
asV/store/cmst3/group/cmgtools/CMG/SUSYBBHToTauTau_M-130_8TeV-pythia6-tauola/Summer12_DR53X-PU_S10_START53_V7A-v1/AODSIM/PAT_CMG_V5_16_0/cmgTuple_37_1_uLZ.root
p310
(lp311
I01
aI10000
asV/store/cmst3/group/cmgtools/CMG/SUSYBBHToTauTau_M-130_8TeV-pythia6-tauola/Summer12_DR53X-PU_S10_START53_V7A-v1/AODSIM/PAT_CMG_V5_16_0/cmgTuple_55_1_A4D.root
p312
(lp313
I01
aI10000
asV/store/cmst3/group/cmgtools/CMG/SUSYBBHToTauTau_M-130_8TeV-pythia6-tauola/Summer12_DR53X-PU_S10_START53_V7A-v1/AODSIM/PAT_CMG_V5_16_0/cmgTuple_44_1_YEb.root
p314
(lp315
I01
aI10000
asV/store/cmst3/group/cmgtools/CMG/SUSYBBHToTauTau_M-130_8TeV-pythia6-tauola/Summer12_DR53X-PU_S10_START53_V7A-v1/AODSIM/PAT_CMG_V5_16_0/cmgTuple_39_1_9uQ.root
p316
(lp317
I01
aI10000
asV/store/cmst3/group/cmgtools/CMG/SUSYBBHToTauTau_M-130_8TeV-pythia6-tauola/Summer12_DR53X-PU_S10_START53_V7A-v1/AODSIM/PAT_CMG_V5_16_0/cmgTuple_51_1_Es7.root
p318
(lp319
I01
aI10000
asV/store/cmst3/group/cmgtools/CMG/SUSYBBHToTauTau_M-130_8TeV-pythia6-tauola/Summer12_DR53X-PU_S10_START53_V7A-v1/AODSIM/PAT_CMG_V5_16_0/cmgTuple_25_1_UOf.root
p320
(lp321
I01
aI10000
asV/store/cmst3/group/cmgtools/CMG/SUSYBBHToTauTau_M-130_8TeV-pythia6-tauola/Summer12_DR53X-PU_S10_START53_V7A-v1/AODSIM/PAT_CMG_V5_16_0/cmgTuple_46_1_oeM.root
p322
(lp323
I01
aI10000
asV/store/cmst3/group/cmgtools/CMG/SUSYBBHToTauTau_M-130_8TeV-pythia6-tauola/Summer12_DR53X-PU_S10_START53_V7A-v1/AODSIM/PAT_CMG_V5_16_0/cmgTuple_63_1_ChW.root
p324
(lp325
I01
aI10000
asV/store/cmst3/group/cmgtools/CMG/SUSYBBHToTauTau_M-130_8TeV-pythia6-tauola/Summer12_DR53X-PU_S10_START53_V7A-v1/AODSIM/PAT_CMG_V5_16_0/cmgTuple_11_1_2o5.root
p326
(lp327
I01
aI10000
asV/store/cmst3/group/cmgtools/CMG/SUSYBBHToTauTau_M-130_8TeV-pythia6-tauola/Summer12_DR53X-PU_S10_START53_V7A-v1/AODSIM/PAT_CMG_V5_16_0/cmgTuple_96_1_rju.root
p328
(lp329
I01
aI10000
asV/store/cmst3/group/cmgtools/CMG/SUSYBBHToTauTau_M-130_8TeV-pythia6-tauola/Summer12_DR53X-PU_S10_START53_V7A-v1/AODSIM/PAT_CMG_V5_16_0/cmgTuple_49_1_qXg.root
p330
(lp331
I01
aI10000
asV/store/cmst3/group/cmgtools/CMG/SUSYBBHToTauTau_M-130_8TeV-pythia6-tauola/Summer12_DR53X-PU_S10_START53_V7A-v1/AODSIM/PAT_CMG_V5_16_0/cmgTuple_43_1_hgN.root
p332
(lp333
I01
aI10000
asV/store/cmst3/group/cmgtools/CMG/SUSYBBHToTauTau_M-130_8TeV-pythia6-tauola/Summer12_DR53X-PU_S10_START53_V7A-v1/AODSIM/PAT_CMG_V5_16_0/cmgTuple_80_1_10x.root
p334
(lp335
I01
aI10000
asV/store/cmst3/group/cmgtools/CMG/SUSYBBHToTauTau_M-130_8TeV-pythia6-tauola/Summer12_DR53X-PU_S10_START53_V7A-v1/AODSIM/PAT_CMG_V5_16_0/cmgTuple_101_1_Blo.root
p336
(lp337
I01
aI8
asV/store/cmst3/group/cmgtools/CMG/SUSYBBHToTauTau_M-130_8TeV-pythia6-tauola/Summer12_DR53X-PU_S10_START53_V7A-v1/AODSIM/PAT_CMG_V5_16_0/cmgTuple_28_1_ASd.root
p338
(lp339
I01
aI10000
asV/store/cmst3/group/cmgtools/CMG/SUSYBBHToTauTau_M-130_8TeV-pythia6-tauola/Summer12_DR53X-PU_S10_START53_V7A-v1/AODSIM/PAT_CMG_V5_16_0/cmgTuple_66_1_cHB.root
p340
(lp341
I01
aI10000
asV/store/cmst3/group/cmgtools/CMG/SUSYBBHToTauTau_M-130_8TeV-pythia6-tauola/Summer12_DR53X-PU_S10_START53_V7A-v1/AODSIM/PAT_CMG_V5_16_0/cmgTuple_1_1_GNO.root
p342
(lp343
I01
aI10000
asV/store/cmst3/group/cmgtools/CMG/SUSYBBHToTauTau_M-130_8TeV-pythia6-tauola/Summer12_DR53X-PU_S10_START53_V7A-v1/AODSIM/PAT_CMG_V5_16_0/cmgTuple_95_1_G0q.root
p344
(lp345
I01
aI10000
asV/store/cmst3/group/cmgtools/CMG/SUSYBBHToTauTau_M-130_8TeV-pythia6-tauola/Summer12_DR53X-PU_S10_START53_V7A-v1/AODSIM/PAT_CMG_V5_16_0/cmgTuple_7_1_qBE.root
p346
(lp347
I01
aI10000
asV/store/cmst3/group/cmgtools/CMG/SUSYBBHToTauTau_M-130_8TeV-pythia6-tauola/Summer12_DR53X-PU_S10_START53_V7A-v1/AODSIM/PAT_CMG_V5_16_0/cmgTuple_48_1_fjM.root
p348
(lp349
I01
aI10000
asV/store/cmst3/group/cmgtools/CMG/SUSYBBHToTauTau_M-130_8TeV-pythia6-tauola/Summer12_DR53X-PU_S10_START53_V7A-v1/AODSIM/PAT_CMG_V5_16_0/cmgTuple_10_1_HPm.root
p350
(lp351
I01
aI10000
asV/store/cmst3/group/cmgtools/CMG/SUSYBBHToTauTau_M-130_8TeV-pythia6-tauola/Summer12_DR53X-PU_S10_START53_V7A-v1/AODSIM/PAT_CMG_V5_16_0/cmgTuple_76_1_T64.root
p352
(lp353
I01
aI10000
asV/store/cmst3/group/cmgtools/CMG/SUSYBBHToTauTau_M-130_8TeV-pythia6-tauola/Summer12_DR53X-PU_S10_START53_V7A-v1/AODSIM/PAT_CMG_V5_16_0/cmgTuple_4_1_Ghd.root
p354
(lp355
I01
aI10000
asV/store/cmst3/group/cmgtools/CMG/SUSYBBHToTauTau_M-130_8TeV-pythia6-tauola/Summer12_DR53X-PU_S10_START53_V7A-v1/AODSIM/PAT_CMG_V5_16_0/cmgTuple_38_1_eQL.root
p356
(lp357
I01
aI10000
assVPhysicsGroup
p358
VCMG
p359
sVFilesCount
p360
I97
sVFilesEntries
p361
I960008
sVRunList
p362
(lp363
sVValidDuplicates
p364
(dp365
sVPrimaryDataset
p366
V/SUSYBBHToTauTau_M-130_8TeV-pythia6-tauola/Summer12_DR53X-PU_S10_START53_V7A-v1/AODSIM
p367
sVStatus
p368
VVALID
p369
sVName
p370
V/SUSYBBHToTauTau_M-130_8TeV-pythia6-tauola/Summer12_DR53X-PU_S10_START53_V7A-v1/AODSIM/PAT_CMG_V5_16_0
p371
sVTopdir
p372
V/eos/cms/store/cmst3/group/cmgtools/CMG
p373
sVdata
p374
(dp375
sVFilesBad
p376
I0
sVMinRun
p377
I-1
sVAlgoList
p378
(lp379
sVTierList
p380
(lp381
sVDateCreated
p382
V1371077177
p383
sVCreatedBy
p384
Vcmgtools_group
p385
sVMaxRun
p386
I-1
sVBadJobs
p387
(lp388
I21
aI30
aI61
aI99
assg111
I01
ssS'MonitorJobs'
p389
(dp390
S'LSFJobStatus'
p391
(dp392
g114
S'SUSYGluGluToHToTauTau_M-800_8TeV-pythia6-tauola/Summer12_DR53X-PU_S10_START53_V7A-v1/AODSIM/PAT_CMG_V5_16_0_1377467555/HTT_24Jul_newTES_manzoni_Up_Jobs/Job_26/LSFJOB_440974017/STDOUT.gz'
p393
sg115
S'SUSYGluGluToHToTauTau_M-800_8TeV-pythia6-tauola/Summer12_DR53X-PU_S10_START53_V7A-v1/AODSIM/PAT_CMG_V5_16_0_1377467555/HTT_24Jul_newTES_manzoni_Up_Jobs/Job_27/LSFJOB_440974088/STDOUT.gz'
p394
sg116
S'SUSYGluGluToHToTauTau_M-800_8TeV-pythia6-tauola/Summer12_DR53X-PU_S10_START53_V7A-v1/AODSIM/PAT_CMG_V5_16_0_1377467555/HTT_24Jul_newTES_manzoni_Up_Jobs/Job_24/LSFJOB_440973825/STDOUT.gz'
p395
sg117
S'SUSYGluGluToHToTauTau_M-800_8TeV-pythia6-tauola/Summer12_DR53X-PU_S10_START53_V7A-v1/AODSIM/PAT_CMG_V5_16_0_1377467555/HTT_24Jul_newTES_manzoni_Up_Jobs/Job_25/LSFJOB_440973931/STDOUT.gz'
p396
sg118
S'SUSYGluGluToHToTauTau_M-800_8TeV-pythia6-tauola/Summer12_DR53X-PU_S10_START53_V7A-v1/AODSIM/PAT_CMG_V5_16_0_1377467555/HTT_24Jul_newTES_manzoni_Up_Jobs/Job_22/LSFJOB_440973676/STDOUT.gz'
p397
sg119
S'SUSYGluGluToHToTauTau_M-800_8TeV-pythia6-tauola/Summer12_DR53X-PU_S10_START53_V7A-v1/AODSIM/PAT_CMG_V5_16_0_1377467555/HTT_24Jul_newTES_manzoni_Up_Jobs/Job_23/LSFJOB_440973742/STDOUT.gz'
p398
sg120
S'SUSYGluGluToHToTauTau_M-800_8TeV-pythia6-tauola/Summer12_DR53X-PU_S10_START53_V7A-v1/AODSIM/PAT_CMG_V5_16_0_1377467555/HTT_24Jul_newTES_manzoni_Up_Jobs/Job_20/LSFJOB_440973519/STDOUT.gz'
p399
sg121
S'SUSYGluGluToHToTauTau_M-800_8TeV-pythia6-tauola/Summer12_DR53X-PU_S10_START53_V7A-v1/AODSIM/PAT_CMG_V5_16_0_1377467555/HTT_24Jul_newTES_manzoni_Up_Jobs/Job_21/LSFJOB_440973603/STDOUT.gz'
p400
sg122
S'SUSYGluGluToHToTauTau_M-800_8TeV-pythia6-tauola/Summer12_DR53X-PU_S10_START53_V7A-v1/AODSIM/PAT_CMG_V5_16_0_1377467555/HTT_24Jul_newTES_manzoni_Up_Jobs/Job_28/LSFJOB_440974177/STDOUT.gz'
p401
sg123
S'SUSYGluGluToHToTauTau_M-800_8TeV-pythia6-tauola/Summer12_DR53X-PU_S10_START53_V7A-v1/AODSIM/PAT_CMG_V5_16_0_1377467555/HTT_24Jul_newTES_manzoni_Up_Jobs/Job_29/LSFJOB_440974221/STDOUT.gz'
p402
sg124
S'SUSYGluGluToHToTauTau_M-800_8TeV-pythia6-tauola/Summer12_DR53X-PU_S10_START53_V7A-v1/AODSIM/PAT_CMG_V5_16_0_1377467555/HTT_24Jul_newTES_manzoni_Up_Jobs/Job_7/LSFJOB_440972355/STDOUT.gz'
p403
sg125
S'SUSYGluGluToHToTauTau_M-800_8TeV-pythia6-tauola/Summer12_DR53X-PU_S10_START53_V7A-v1/AODSIM/PAT_CMG_V5_16_0_1377467555/HTT_24Jul_newTES_manzoni_Up_Jobs/Job_6/LSFJOB_440972246/STDOUT.gz'
p404
sg126
S'SUSYGluGluToHToTauTau_M-800_8TeV-pythia6-tauola/Summer12_DR53X-PU_S10_START53_V7A-v1/AODSIM/PAT_CMG_V5_16_0_1377467555/HTT_24Jul_newTES_manzoni_Up_Jobs/Job_5/LSFJOB_440972144/STDOUT.gz'
p405
sg127
S'SUSYGluGluToHToTauTau_M-800_8TeV-pythia6-tauola/Summer12_DR53X-PU_S10_START53_V7A-v1/AODSIM/PAT_CMG_V5_16_0_1377467555/HTT_24Jul_newTES_manzoni_Up_Jobs/Job_4/LSFJOB_440972036/STDOUT.gz'
p406
sg128
S'SUSYGluGluToHToTauTau_M-800_8TeV-pythia6-tauola/Summer12_DR53X-PU_S10_START53_V7A-v1/AODSIM/PAT_CMG_V5_16_0_1377467555/HTT_24Jul_newTES_manzoni_Up_Jobs/Job_3/LSFJOB_440971927/STDOUT.gz'
p407
sg129
S'SUSYGluGluToHToTauTau_M-800_8TeV-pythia6-tauola/Summer12_DR53X-PU_S10_START53_V7A-v1/AODSIM/PAT_CMG_V5_16_0_1377467555/HTT_24Jul_newTES_manzoni_Up_Jobs/Job_2/LSFJOB_440971852/STDOUT.gz'
p408
sg130
S'SUSYGluGluToHToTauTau_M-800_8TeV-pythia6-tauola/Summer12_DR53X-PU_S10_START53_V7A-v1/AODSIM/PAT_CMG_V5_16_0_1377467555/HTT_24Jul_newTES_manzoni_Up_Jobs/Job_1/LSFJOB_440971779/STDOUT.gz'
p409
sg131
S'SUSYGluGluToHToTauTau_M-800_8TeV-pythia6-tauola/Summer12_DR53X-PU_S10_START53_V7A-v1/AODSIM/PAT_CMG_V5_16_0_1377467555/HTT_24Jul_newTES_manzoni_Up_Jobs/Job_9/LSFJOB_440972558/STDOUT.gz'
p410
sg132
S'SUSYGluGluToHToTauTau_M-800_8TeV-pythia6-tauola/Summer12_DR53X-PU_S10_START53_V7A-v1/AODSIM/PAT_CMG_V5_16_0_1377467555/HTT_24Jul_newTES_manzoni_Up_Jobs/Job_8/LSFJOB_440972470/STDOUT.gz'
p411
sg133
S'SUSYGluGluToHToTauTau_M-800_8TeV-pythia6-tauola/Summer12_DR53X-PU_S10_START53_V7A-v1/AODSIM/PAT_CMG_V5_16_0_1377467555/HTT_24Jul_newTES_manzoni_Up_Jobs/Job_31/LSFJOB_440974337/STDOUT.gz'
p412
sg134
S'SUSYGluGluToHToTauTau_M-800_8TeV-pythia6-tauola/Summer12_DR53X-PU_S10_START53_V7A-v1/AODSIM/PAT_CMG_V5_16_0_1377467555/HTT_24Jul_newTES_manzoni_Up_Jobs/Job_30/LSFJOB_440974295/STDOUT.gz'
p413
sg135
S'SUSYGluGluToHToTauTau_M-800_8TeV-pythia6-tauola/Summer12_DR53X-PU_S10_START53_V7A-v1/AODSIM/PAT_CMG_V5_16_0_1377467555/HTT_24Jul_newTES_manzoni_Up_Jobs/Job_32/LSFJOB_440974390/STDOUT.gz'
p414
sg136
S'SUSYGluGluToHToTauTau_M-800_8TeV-pythia6-tauola/Summer12_DR53X-PU_S10_START53_V7A-v1/AODSIM/PAT_CMG_V5_16_0_1377467555/HTT_24Jul_newTES_manzoni_Up_Jobs/Job_19/LSFJOB_440973437/STDOUT.gz'
p415
sg137
S'SUSYGluGluToHToTauTau_M-800_8TeV-pythia6-tauola/Summer12_DR53X-PU_S10_START53_V7A-v1/AODSIM/PAT_CMG_V5_16_0_1377467555/HTT_24Jul_newTES_manzoni_Up_Jobs/Job_18/LSFJOB_440973382/STDOUT.gz'
p416
sg138
S'SUSYGluGluToHToTauTau_M-800_8TeV-pythia6-tauola/Summer12_DR53X-PU_S10_START53_V7A-v1/AODSIM/PAT_CMG_V5_16_0_1377467555/HTT_24Jul_newTES_manzoni_Up_Jobs/Job_17/LSFJOB_440973289/STDOUT.gz'
p417
sg139
S'SUSYGluGluToHToTauTau_M-800_8TeV-pythia6-tauola/Summer12_DR53X-PU_S10_START53_V7A-v1/AODSIM/PAT_CMG_V5_16_0_1377467555/HTT_24Jul_newTES_manzoni_Up_Jobs/Job_16/LSFJOB_440973201/STDOUT.gz'
p418
sg140
S'SUSYGluGluToHToTauTau_M-800_8TeV-pythia6-tauola/Summer12_DR53X-PU_S10_START53_V7A-v1/AODSIM/PAT_CMG_V5_16_0_1377467555/HTT_24Jul_newTES_manzoni_Up_Jobs/Job_15/LSFJOB_440973121/STDOUT.gz'
p419
sg141
S'SUSYGluGluToHToTauTau_M-800_8TeV-pythia6-tauola/Summer12_DR53X-PU_S10_START53_V7A-v1/AODSIM/PAT_CMG_V5_16_0_1377467555/HTT_24Jul_newTES_manzoni_Up_Jobs/Job_14/LSFJOB_440973055/STDOUT.gz'
p420
sg142
S'SUSYGluGluToHToTauTau_M-800_8TeV-pythia6-tauola/Summer12_DR53X-PU_S10_START53_V7A-v1/AODSIM/PAT_CMG_V5_16_0_1377467555/HTT_24Jul_newTES_manzoni_Up_Jobs/Job_13/LSFJOB_440972945/STDOUT.gz'
p421
sg143
S'SUSYGluGluToHToTauTau_M-800_8TeV-pythia6-tauola/Summer12_DR53X-PU_S10_START53_V7A-v1/AODSIM/PAT_CMG_V5_16_0_1377467555/HTT_24Jul_newTES_manzoni_Up_Jobs/Job_12/LSFJOB_440972840/STDOUT.gz'
p422
sg144
S'SUSYGluGluToHToTauTau_M-800_8TeV-pythia6-tauola/Summer12_DR53X-PU_S10_START53_V7A-v1/AODSIM/PAT_CMG_V5_16_0_1377467555/HTT_24Jul_newTES_manzoni_Up_Jobs/Job_11/LSFJOB_440972723/STDOUT.gz'
p423
sg145
S'SUSYGluGluToHToTauTau_M-800_8TeV-pythia6-tauola/Summer12_DR53X-PU_S10_START53_V7A-v1/AODSIM/PAT_CMG_V5_16_0_1377467555/HTT_24Jul_newTES_manzoni_Up_Jobs/Job_10/LSFJOB_440972647/STDOUT.gz'
p424
ssS'LSFJobIDs'
p425
(dp426
g114
S'440974017'
p427
sg115
S'440974088'
p428
sg116
S'440973825'
p429
sg117
S'440973931'
p430
sg118
S'440973676'
p431
sg119
S'440973742'
p432
sg120
S'440973519'
p433
sg121
S'440973603'
p434
sg122
S'440974177'
p435
sg123
S'440974221'
p436
sg124
S'440972355'
p437
sg125
S'440972246'
p438
sg126
S'440972144'
p439
sg127
S'440972036'
p440
sg128
S'440971927'
p441
sg129
S'440971852'
p442
sg130
S'440971779'
p443
sg131
S'440972558'
p444
sg132
S'440972470'
p445
sg133
S'440974337'
p446
sg134
S'440974295'
p447
sg135
S'440974390'
p448
sg136
S'440973437'
p449
sg137
S'440973382'
p450
sg138
S'440973289'
p451
sg139
S'440973201'
p452
sg140
S'440973121'
p453
sg141
S'440973055'
p454
sg142
S'440972945'
p455
sg143
S'440972840'
p456
sg144
S'440972723'
p457
sg145
S'440972647'
p458
sssS'FindOnCastor'
p459
(dp460
g73
S'/eos/cms/store/cmst3/group/cmgtools/CMG'
p461
sS'Directory'
p462
S'/eos/cms/store/cmst3/group/cmgtools/CMG/SUSYGluGluToHToTauTau_M-800_8TeV-pythia6-tauola/Summer12_DR53X-PU_S10_START53_V7A-v1/AODSIM/PAT_CMG_V5_16_0'
p463
ssS'CheckConfig'
p464
(dp465
g89
g90
ssS'FullCFG'
p466
(dp467
S'FullCFG'
p468
S'SUSYGluGluToHToTauTau_M-800_8TeV-pythia6-tauola/Summer12_DR53X-PU_S10_START53_V7A-v1/AODSIM/PAT_CMG_V5_16_0_1377467555/full_cfg.py'
p469
ssS'WriteJobReport'
p470
(dp471
S'SummaryFile'
p472
S'SUSYGluGluToHToTauTau_M-800_8TeV-pythia6-tauola/Summer12_DR53X-PU_S10_START53_V7A-v1/AODSIM/PAT_CMG_V5_16_0_1377467555/resubmit.sh'
p473
ssS'ExpandConfig'
p474
(dp475
S'ExpandedFullCFG'
p476
S'SUSYGluGluToHToTauTau_M-800_8TeV-pythia6-tauola/Summer12_DR53X-PU_S10_START53_V7A-v1/AODSIM/PAT_CMG_V5_16_0_1377467555/Expandedfull_cfg.py'
p477
ssS'RunTestEvents'
p478
(dp479
g89
g90
sS'TestCFG'
p480
S'SUSYGluGluToHToTauTau_M-800_8TeV-pythia6-tauola/Summer12_DR53X-PU_S10_START53_V7A-v1/AODSIM/PAT_CMG_V5_16_0_1377467555/test_cfg.py'
p481
ssS'SourceCFG'
p482
(dp483
S'SourceCFG'
p484
S'SUSYGluGluToHToTauTau_M-800_8TeV-pythia6-tauola/Summer12_DR53X-PU_S10_START53_V7A-v1/AODSIM/PAT_CMG_V5_16_0_1377467555/source_cfg.py'
p485
ssS'CheckForWrite'
p486
(dp487
g462
g463
sS'WriteAccess'
p488
I01
ssS'WriteToDatasets'
p489
(dp490
S'Added'
p491
I00
sg71
S'/SUSYGluGluToHToTauTau_M-800_8TeV-pythia6-tauola/Summer12_DR53X-PU_S10_START53_V7A-v1/AODSIM/PAT_CMG_V5_16_0/HTT_24Jul_newTES_manzoni_Up'
p492
sS'User'
p493
g104
ssS'RunCMSBatch'
p494
(dp495
S'BatchUser'
p496
g104
sS'SampleOutputDir'
p497
S'/store/cmst3/user/manzoni/CMG/SUSYGluGluToHToTauTau_M-800_8TeV-pythia6-tauola/Summer12_DR53X-PU_S10_START53_V7A-v1/AODSIM/PAT_CMG_V5_16_0/HTT_24Jul_newTES_manzoni_Up'
p498
sS'SampleDataset'
p499
g72
sS'LSFJobsTopDir'
p500
S'SUSYGluGluToHToTauTau_M-800_8TeV-pythia6-tauola/Summer12_DR53X-PU_S10_START53_V7A-v1/AODSIM/PAT_CMG_V5_16_0_1377467555/HTT_24Jul_newTES_manzoni_Up_Jobs'
p501
ssS'CreateJobDirectory'
p502
(dp503
S'JobDir'
p504
S'SUSYGluGluToHToTauTau_M-800_8TeV-pythia6-tauola/Summer12_DR53X-PU_S10_START53_V7A-v1/AODSIM/PAT_CMG_V5_16_0_1377467555'
p505
sS'PWD'
p506
S'/afs/cern.ch/user/m/manzoni/summer13/CMGTools/CMSSW_5_3_9/src/CMGTools/H2TauTau/prod/25aug_corrMC/up/mc'
p507
ssS'CleanJobFiles'
p508
(dp509
S'Compressed'
p510
(dp511
S'CompressedFiles'
p512
(lp513
ssS'Cleaned'
p514
(dp515
S'CleanedFiles'
p516
(lp517
g477
ag481
aS'SUSYGluGluToHToTauTau_M-800_8TeV-pythia6-tauola/Summer12_DR53X-PU_S10_START53_V7A-v1/AODSIM/PAT_CMG_V5_16_0_1377467555/diTau_fullsel_tree_CMG.root'
p518
aS'SUSYGluGluToHToTauTau_M-800_8TeV-pythia6-tauola/Summer12_DR53X-PU_S10_START53_V7A-v1/AODSIM/PAT_CMG_V5_16_0_1377467555/source_cfg.pyc'
p519
aS'SUSYGluGluToHToTauTau_M-800_8TeV-pythia6-tauola/Summer12_DR53X-PU_S10_START53_V7A-v1/AODSIM/PAT_CMG_V5_16_0_1377467555/Expandedfull_cfg.pyc'
p520
asssS'CheckForMask'
p521
(dp522
g3
g152
sg111
I01
ss.