(dp0
S'CheckJobStatus'
p1
(dp2
S'Report'
p3
(dp4
S'Files'
p5
(dp6
S'/store/cmst3/user/manzoni/CMG/WH_ZH_TTH_HToTauTau_M-105_8TeV-pythia6-tauola/Summer12_DR53X-PU_S10_START53_V7C-v1/AODSIM/PAT_CMG_V5_16_0/HTT_24Jul_newTES_manzoni_Up/diTau_fullsel_tree_CMG_3.root'
p7
(I01
I2235
tp8
sS'/store/cmst3/user/manzoni/CMG/WH_ZH_TTH_HToTauTau_M-105_8TeV-pythia6-tauola/Summer12_DR53X-PU_S10_START53_V7C-v1/AODSIM/PAT_CMG_V5_16_0/HTT_24Jul_newTES_manzoni_Up/diTau_fullsel_tree_CMG_1.root'
p9
(I01
I2778
tp10
sS'/store/cmst3/user/manzoni/CMG/WH_ZH_TTH_HToTauTau_M-105_8TeV-pythia6-tauola/Summer12_DR53X-PU_S10_START53_V7C-v1/AODSIM/PAT_CMG_V5_16_0/HTT_24Jul_newTES_manzoni_Up/diTau_fullsel_tree_CMG_4.root'
p11
(I01
I2819
tp12
sS'/store/cmst3/user/manzoni/CMG/WH_ZH_TTH_HToTauTau_M-105_8TeV-pythia6-tauola/Summer12_DR53X-PU_S10_START53_V7C-v1/AODSIM/PAT_CMG_V5_16_0/HTT_24Jul_newTES_manzoni_Up/diTau_fullsel_tree_CMG_2.root'
p13
(I01
I2754
tp14
sS'/store/cmst3/user/manzoni/CMG/WH_ZH_TTH_HToTauTau_M-105_8TeV-pythia6-tauola/Summer12_DR53X-PU_S10_START53_V7C-v1/AODSIM/PAT_CMG_V5_16_0/HTT_24Jul_newTES_manzoni_Up/diTau_fullsel_tree_CMG_5.root'
p15
(I01
I545
tp16
ssS'Name'
p17
S'/WH_ZH_TTH_HToTauTau_M-105_8TeV-pythia6-tauola/Summer12_DR53X-PU_S10_START53_V7C-v1/AODSIM/PAT_CMG_V5_16_0/HTT_24Jul_newTES_manzoni_Up'
p18
sS'Topdir'
p19
S'/eos/cms/store/cmst3/user/manzoni/CMG'
p20
sS'RunList'
p21
(lp22
sS'PathList'
p23
(lp24
S'/store/cmst3/user/manzoni/CMG/WH_ZH_TTH_HToTauTau_M-105_8TeV-pythia6-tauola/Summer12_DR53X-PU_S10_START53_V7C-v1/AODSIM/PAT_CMG_V5_16_0/HTT_24Jul_newTES_manzoni_Up'
p25
asS'AlgoList'
p26
(lp27
sS'PrimaryDatasetFraction'
p28
F0.055655000000000003
sS'FilesGood'
p29
I5
sS'PrimaryDatasetEntries'
p30
I200000
sS'data'
p31
(dp32
sS'FilesBad'
p33
I0
sS'ReportVersion'
p34
I3
sS'Status'
p35
S'VALID'
p36
sS'MaxRun'
p37
I-1
sS'PhysicsGroup'
p38
S'CMG'
p39
sS'MinRun'
p40
I-1
sS'StageHost'
p41
S'castorcms'
p42
sS'FilesCount'
p43
I5
sS'FilesEntries'
p44
I11131
sS'TierList'
p45
(lp46
sS'DateCreated'
p47
S'1377472589'
p48
sS'CreatedBy'
p49
S'manzoni'
p50
sS'ValidDuplicates'
p51
(dp52
sS'PrimaryDataset'
p53
S'/WH_ZH_TTH_HToTauTau_M-105_8TeV-pythia6-tauola/Summer12_DR53X-PU_S10_START53_V7C-v1/AODSIM'
p54
sS'BadJobs'
p55
(lp56
ssS'MaskPresent'
p57
I01
sS'LSFJobStatusCheck'
p58
(dp59
S'WH_ZH_TTH_HToTauTau_M-105_8TeV-pythia6-tauola/Summer12_DR53X-PU_S10_START53_V7C-v1/AODSIM/PAT_CMG_V5_16_0_1377467448/HTT_24Jul_newTES_manzoni_Up_Jobs/Job_5'
p60
g36
sS'WH_ZH_TTH_HToTauTau_M-105_8TeV-pythia6-tauola/Summer12_DR53X-PU_S10_START53_V7C-v1/AODSIM/PAT_CMG_V5_16_0_1377467448/HTT_24Jul_newTES_manzoni_Up_Jobs/Job_4'
p61
g36
sS'WH_ZH_TTH_HToTauTau_M-105_8TeV-pythia6-tauola/Summer12_DR53X-PU_S10_START53_V7C-v1/AODSIM/PAT_CMG_V5_16_0_1377467448/HTT_24Jul_newTES_manzoni_Up_Jobs/Job_1'
p62
g36
sS'WH_ZH_TTH_HToTauTau_M-105_8TeV-pythia6-tauola/Summer12_DR53X-PU_S10_START53_V7C-v1/AODSIM/PAT_CMG_V5_16_0_1377467448/HTT_24Jul_newTES_manzoni_Up_Jobs/Job_3'
p63
g36
sS'WH_ZH_TTH_HToTauTau_M-105_8TeV-pythia6-tauola/Summer12_DR53X-PU_S10_START53_V7C-v1/AODSIM/PAT_CMG_V5_16_0_1377467448/HTT_24Jul_newTES_manzoni_Up_Jobs/Job_2'
p64
g36
sssS'CheckDatasetExists'
p65
(dp66
S'Dataset'
p67
S'/WH_ZH_TTH_HToTauTau_M-105_8TeV-pythia6-tauola/Summer12_DR53X-PU_S10_START53_V7C-v1/AODSIM/PAT_CMG_V5_16_0'
p68
ssS'GenerateMask'
p69
(dp70
g3
(dp71
VPathList
p72
(lp73
V/store/cmst3/group/cmgtools/CMG/WH_ZH_TTH_HToTauTau_M-105_8TeV-pythia6-tauola/Summer12_DR53X-PU_S10_START53_V7C-v1/AODSIM/PAT_CMG_V5_16_0
p74
asVStageHost
p75
Vcastorcms
p76
sVPrimaryDatasetFraction
p77
F1.0
sVFilesGood
p78
I21
sVPrimaryDatasetEntries
p79
I200000
sVReportVersion
p80
I3
sVFiles
p81
(dp82
V/store/cmst3/group/cmgtools/CMG/WH_ZH_TTH_HToTauTau_M-105_8TeV-pythia6-tauola/Summer12_DR53X-PU_S10_START53_V7C-v1/AODSIM/PAT_CMG_V5_16_0/cmgTuple_8_1_uJ0.root
p83
(lp84
I01
aI10000
asV/store/cmst3/group/cmgtools/CMG/WH_ZH_TTH_HToTauTau_M-105_8TeV-pythia6-tauola/Summer12_DR53X-PU_S10_START53_V7C-v1/AODSIM/PAT_CMG_V5_16_0/cmgTuple_3_1_SZF.root
p85
(lp86
I01
aI10000
asV/store/cmst3/group/cmgtools/CMG/WH_ZH_TTH_HToTauTau_M-105_8TeV-pythia6-tauola/Summer12_DR53X-PU_S10_START53_V7C-v1/AODSIM/PAT_CMG_V5_16_0/cmgTuple_1_1_yLY.root
p87
(lp88
I01
aI2145
asV/store/cmst3/group/cmgtools/CMG/WH_ZH_TTH_HToTauTau_M-105_8TeV-pythia6-tauola/Summer12_DR53X-PU_S10_START53_V7C-v1/AODSIM/PAT_CMG_V5_16_0/cmgTuple_10_1_PpA.root
p89
(lp90
I01
aI10000
asV/store/cmst3/group/cmgtools/CMG/WH_ZH_TTH_HToTauTau_M-105_8TeV-pythia6-tauola/Summer12_DR53X-PU_S10_START53_V7C-v1/AODSIM/PAT_CMG_V5_16_0/cmgTuple_11_1_mdf.root
p91
(lp92
I01
aI10000
asV/store/cmst3/group/cmgtools/CMG/WH_ZH_TTH_HToTauTau_M-105_8TeV-pythia6-tauola/Summer12_DR53X-PU_S10_START53_V7C-v1/AODSIM/PAT_CMG_V5_16_0/cmgTuple_15_1_HoG.root
p93
(lp94
I01
aI10000
asV/store/cmst3/group/cmgtools/CMG/WH_ZH_TTH_HToTauTau_M-105_8TeV-pythia6-tauola/Summer12_DR53X-PU_S10_START53_V7C-v1/AODSIM/PAT_CMG_V5_16_0/cmgTuple_19_1_qn2.root
p95
(lp96
I01
aI10000
asV/store/cmst3/group/cmgtools/CMG/WH_ZH_TTH_HToTauTau_M-105_8TeV-pythia6-tauola/Summer12_DR53X-PU_S10_START53_V7C-v1/AODSIM/PAT_CMG_V5_16_0/cmgTuple_14_1_TZW.root
p97
(lp98
I01
aI10000
asV/store/cmst3/group/cmgtools/CMG/WH_ZH_TTH_HToTauTau_M-105_8TeV-pythia6-tauola/Summer12_DR53X-PU_S10_START53_V7C-v1/AODSIM/PAT_CMG_V5_16_0/cmgTuple_2_1_HVm.root
p99
(lp100
I01
aI10000
asV/store/cmst3/group/cmgtools/CMG/WH_ZH_TTH_HToTauTau_M-105_8TeV-pythia6-tauola/Summer12_DR53X-PU_S10_START53_V7C-v1/AODSIM/PAT_CMG_V5_16_0/cmgTuple_5_1_TIZ.root
p101
(lp102
I01
aI10000
asV/store/cmst3/group/cmgtools/CMG/WH_ZH_TTH_HToTauTau_M-105_8TeV-pythia6-tauola/Summer12_DR53X-PU_S10_START53_V7C-v1/AODSIM/PAT_CMG_V5_16_0/cmgTuple_7_1_6Ya.root
p103
(lp104
I01
aI10000
asV/store/cmst3/group/cmgtools/CMG/WH_ZH_TTH_HToTauTau_M-105_8TeV-pythia6-tauola/Summer12_DR53X-PU_S10_START53_V7C-v1/AODSIM/PAT_CMG_V5_16_0/cmgTuple_17_1_Exg.root
p105
(lp106
I01
aI10000
asV/store/cmst3/group/cmgtools/CMG/WH_ZH_TTH_HToTauTau_M-105_8TeV-pythia6-tauola/Summer12_DR53X-PU_S10_START53_V7C-v1/AODSIM/PAT_CMG_V5_16_0/cmgTuple_9_1_Ko1.root
p107
(lp108
I01
aI10000
asV/store/cmst3/group/cmgtools/CMG/WH_ZH_TTH_HToTauTau_M-105_8TeV-pythia6-tauola/Summer12_DR53X-PU_S10_START53_V7C-v1/AODSIM/PAT_CMG_V5_16_0/cmgTuple_4_1_jzL.root
p109
(lp110
I01
aI10000
asV/store/cmst3/group/cmgtools/CMG/WH_ZH_TTH_HToTauTau_M-105_8TeV-pythia6-tauola/Summer12_DR53X-PU_S10_START53_V7C-v1/AODSIM/PAT_CMG_V5_16_0/cmgTuple_16_1_dnM.root
p111
(lp112
I01
aI10000
asV/store/cmst3/group/cmgtools/CMG/WH_ZH_TTH_HToTauTau_M-105_8TeV-pythia6-tauola/Summer12_DR53X-PU_S10_START53_V7C-v1/AODSIM/PAT_CMG_V5_16_0/cmgTuple_18_1_PbT.root
p113
(lp114
I01
aI10000
asV/store/cmst3/group/cmgtools/CMG/WH_ZH_TTH_HToTauTau_M-105_8TeV-pythia6-tauola/Summer12_DR53X-PU_S10_START53_V7C-v1/AODSIM/PAT_CMG_V5_16_0/cmgTuple_13_1_ds6.root
p115
(lp116
I01
aI10000
asV/store/cmst3/group/cmgtools/CMG/WH_ZH_TTH_HToTauTau_M-105_8TeV-pythia6-tauola/Summer12_DR53X-PU_S10_START53_V7C-v1/AODSIM/PAT_CMG_V5_16_0/cmgTuple_20_1_02Z.root
p117
(lp118
I01
aI10000
asV/store/cmst3/group/cmgtools/CMG/WH_ZH_TTH_HToTauTau_M-105_8TeV-pythia6-tauola/Summer12_DR53X-PU_S10_START53_V7C-v1/AODSIM/PAT_CMG_V5_16_0/cmgTuple_6_1_I6g.root
p119
(lp120
I01
aI10000
asV/store/cmst3/group/cmgtools/CMG/WH_ZH_TTH_HToTauTau_M-105_8TeV-pythia6-tauola/Summer12_DR53X-PU_S10_START53_V7C-v1/AODSIM/PAT_CMG_V5_16_0/cmgTuple_21_1_4f2.root
p121
(lp122
I01
aI7855
asV/store/cmst3/group/cmgtools/CMG/WH_ZH_TTH_HToTauTau_M-105_8TeV-pythia6-tauola/Summer12_DR53X-PU_S10_START53_V7C-v1/AODSIM/PAT_CMG_V5_16_0/cmgTuple_12_1_Tep.root
p123
(lp124
I01
aI10000
assVPhysicsGroup
p125
VCMG
p126
sVFilesCount
p127
I21
sVFilesEntries
p128
I200000
sVRunList
p129
(lp130
sVValidDuplicates
p131
(dp132
sVPrimaryDataset
p133
V/WH_ZH_TTH_HToTauTau_M-105_8TeV-pythia6-tauola/Summer12_DR53X-PU_S10_START53_V7C-v1/AODSIM
p134
sVStatus
p135
VVALID
p136
sVName
p137
V/WH_ZH_TTH_HToTauTau_M-105_8TeV-pythia6-tauola/Summer12_DR53X-PU_S10_START53_V7C-v1/AODSIM/PAT_CMG_V5_16_0
p138
sVTopdir
p139
V/eos/cms/store/cmst3/group/cmgtools/CMG
p140
sVdata
p141
(dp142
sVFilesBad
p143
I0
sVMinRun
p144
I-1
sVAlgoList
p145
(lp146
sVTierList
p147
(lp148
sVDateCreated
p149
V1370942739
p150
sVCreatedBy
p151
Vcmgtools_group
p152
sVMaxRun
p153
I-1
sVBadJobs
p154
(lp155
ssg57
I01
ssS'MonitorJobs'
p156
(dp157
S'LSFJobStatus'
p158
(dp159
g60
S'WH_ZH_TTH_HToTauTau_M-105_8TeV-pythia6-tauola/Summer12_DR53X-PU_S10_START53_V7C-v1/AODSIM/PAT_CMG_V5_16_0_1377467448/HTT_24Jul_newTES_manzoni_Up_Jobs/Job_5/LSFJOB_440970905/STDOUT.gz'
p160
sg61
S'WH_ZH_TTH_HToTauTau_M-105_8TeV-pythia6-tauola/Summer12_DR53X-PU_S10_START53_V7C-v1/AODSIM/PAT_CMG_V5_16_0_1377467448/HTT_24Jul_newTES_manzoni_Up_Jobs/Job_4/LSFJOB_440970799/STDOUT.gz'
p161
sg62
S'WH_ZH_TTH_HToTauTau_M-105_8TeV-pythia6-tauola/Summer12_DR53X-PU_S10_START53_V7C-v1/AODSIM/PAT_CMG_V5_16_0_1377467448/HTT_24Jul_newTES_manzoni_Up_Jobs/Job_1/LSFJOB_440970427/STDOUT.gz'
p162
sg63
S'WH_ZH_TTH_HToTauTau_M-105_8TeV-pythia6-tauola/Summer12_DR53X-PU_S10_START53_V7C-v1/AODSIM/PAT_CMG_V5_16_0_1377467448/HTT_24Jul_newTES_manzoni_Up_Jobs/Job_3/LSFJOB_440970684/STDOUT.gz'
p163
sg64
S'WH_ZH_TTH_HToTauTau_M-105_8TeV-pythia6-tauola/Summer12_DR53X-PU_S10_START53_V7C-v1/AODSIM/PAT_CMG_V5_16_0_1377467448/HTT_24Jul_newTES_manzoni_Up_Jobs/Job_2/LSFJOB_440970527/STDOUT.gz'
p164
ssS'LSFJobIDs'
p165
(dp166
g60
S'440970905'
p167
sg61
S'440970799'
p168
sg62
S'440970427'
p169
sg63
S'440970684'
p170
sg64
S'440970527'
p171
sssS'FindOnCastor'
p172
(dp173
g19
S'/eos/cms/store/cmst3/group/cmgtools/CMG'
p174
sS'Directory'
p175
S'/eos/cms/store/cmst3/group/cmgtools/CMG/WH_ZH_TTH_HToTauTau_M-105_8TeV-pythia6-tauola/Summer12_DR53X-PU_S10_START53_V7C-v1/AODSIM/PAT_CMG_V5_16_0'
p176
ssS'CheckConfig'
p177
(dp178
g35
g36
ssS'FullCFG'
p179
(dp180
S'FullCFG'
p181
S'WH_ZH_TTH_HToTauTau_M-105_8TeV-pythia6-tauola/Summer12_DR53X-PU_S10_START53_V7C-v1/AODSIM/PAT_CMG_V5_16_0_1377467448/full_cfg.py'
p182
ssS'WriteJobReport'
p183
(dp184
S'SummaryFile'
p185
S'WH_ZH_TTH_HToTauTau_M-105_8TeV-pythia6-tauola/Summer12_DR53X-PU_S10_START53_V7C-v1/AODSIM/PAT_CMG_V5_16_0_1377467448/resubmit.sh'
p186
ssS'ExpandConfig'
p187
(dp188
S'ExpandedFullCFG'
p189
S'WH_ZH_TTH_HToTauTau_M-105_8TeV-pythia6-tauola/Summer12_DR53X-PU_S10_START53_V7C-v1/AODSIM/PAT_CMG_V5_16_0_1377467448/Expandedfull_cfg.py'
p190
ssS'RunTestEvents'
p191
(dp192
g35
g36
sS'TestCFG'
p193
S'WH_ZH_TTH_HToTauTau_M-105_8TeV-pythia6-tauola/Summer12_DR53X-PU_S10_START53_V7C-v1/AODSIM/PAT_CMG_V5_16_0_1377467448/test_cfg.py'
p194
ssS'SourceCFG'
p195
(dp196
S'SourceCFG'
p197
S'WH_ZH_TTH_HToTauTau_M-105_8TeV-pythia6-tauola/Summer12_DR53X-PU_S10_START53_V7C-v1/AODSIM/PAT_CMG_V5_16_0_1377467448/source_cfg.py'
p198
ssS'CheckForWrite'
p199
(dp200
g175
g176
sS'WriteAccess'
p201
I01
ssS'WriteToDatasets'
p202
(dp203
S'Added'
p204
I00
sg17
S'/WH_ZH_TTH_HToTauTau_M-105_8TeV-pythia6-tauola/Summer12_DR53X-PU_S10_START53_V7C-v1/AODSIM/PAT_CMG_V5_16_0/HTT_24Jul_newTES_manzoni_Up'
p205
sS'User'
p206
g50
ssS'RunCMSBatch'
p207
(dp208
S'BatchUser'
p209
g50
sS'SampleOutputDir'
p210
S'/store/cmst3/user/manzoni/CMG/WH_ZH_TTH_HToTauTau_M-105_8TeV-pythia6-tauola/Summer12_DR53X-PU_S10_START53_V7C-v1/AODSIM/PAT_CMG_V5_16_0/HTT_24Jul_newTES_manzoni_Up'
p211
sS'SampleDataset'
p212
g18
sS'LSFJobsTopDir'
p213
S'WH_ZH_TTH_HToTauTau_M-105_8TeV-pythia6-tauola/Summer12_DR53X-PU_S10_START53_V7C-v1/AODSIM/PAT_CMG_V5_16_0_1377467448/HTT_24Jul_newTES_manzoni_Up_Jobs'
p214
ssS'CreateJobDirectory'
p215
(dp216
S'JobDir'
p217
S'WH_ZH_TTH_HToTauTau_M-105_8TeV-pythia6-tauola/Summer12_DR53X-PU_S10_START53_V7C-v1/AODSIM/PAT_CMG_V5_16_0_1377467448'
p218
sS'PWD'
p219
S'/afs/cern.ch/user/m/manzoni/summer13/CMGTools/CMSSW_5_3_9/src/CMGTools/H2TauTau/prod/25aug_corrMC/up/mc'
p220
ssS'CleanJobFiles'
p221
(dp222
S'Compressed'
p223
(dp224
S'CompressedFiles'
p225
(lp226
ssS'Cleaned'
p227
(dp228
S'CleanedFiles'
p229
(lp230
g190
ag194
aS'WH_ZH_TTH_HToTauTau_M-105_8TeV-pythia6-tauola/Summer12_DR53X-PU_S10_START53_V7C-v1/AODSIM/PAT_CMG_V5_16_0_1377467448/diTau_fullsel_tree_CMG.root'
p231
aS'WH_ZH_TTH_HToTauTau_M-105_8TeV-pythia6-tauola/Summer12_DR53X-PU_S10_START53_V7C-v1/AODSIM/PAT_CMG_V5_16_0_1377467448/source_cfg.pyc'
p232
aS'WH_ZH_TTH_HToTauTau_M-105_8TeV-pythia6-tauola/Summer12_DR53X-PU_S10_START53_V7C-v1/AODSIM/PAT_CMG_V5_16_0_1377467448/Expandedfull_cfg.pyc'
p233
asssS'CheckForMask'
p234
(dp235
g3
g71
sg57
I01
ss.