(dp0
S'CheckJobStatus'
p1
(dp2
S'Report'
p3
(dp4
S'Files'
p5
(dp6
S'/store/cmst3/user/manzoni/CMG/SUSYBBHToTauTau_M-400_8TeV-pythia6-tauola/Summer12_DR53X-PU_S10_START53_V7A-v1/AODSIM/PAT_CMG_V5_16_0/HTT_24Jul_newTES_manzoni_Up/diTau_fullsel_tree_CMG_4.root'
p7
(I01
I10123
tp8
sS'/store/cmst3/user/manzoni/CMG/SUSYBBHToTauTau_M-400_8TeV-pythia6-tauola/Summer12_DR53X-PU_S10_START53_V7A-v1/AODSIM/PAT_CMG_V5_16_0/HTT_24Jul_newTES_manzoni_Up/diTau_fullsel_tree_CMG_21.root'
p9
(I01
I10023
tp10
sS'/store/cmst3/user/manzoni/CMG/SUSYBBHToTauTau_M-400_8TeV-pythia6-tauola/Summer12_DR53X-PU_S10_START53_V7A-v1/AODSIM/PAT_CMG_V5_16_0/HTT_24Jul_newTES_manzoni_Up/diTau_fullsel_tree_CMG_17.root'
p11
(I01
I10068
tp12
sS'/store/cmst3/user/manzoni/CMG/SUSYBBHToTauTau_M-400_8TeV-pythia6-tauola/Summer12_DR53X-PU_S10_START53_V7A-v1/AODSIM/PAT_CMG_V5_16_0/HTT_24Jul_newTES_manzoni_Up/diTau_fullsel_tree_CMG_7.root'
p13
(I01
I10025
tp14
sS'/store/cmst3/user/manzoni/CMG/SUSYBBHToTauTau_M-400_8TeV-pythia6-tauola/Summer12_DR53X-PU_S10_START53_V7A-v1/AODSIM/PAT_CMG_V5_16_0/HTT_24Jul_newTES_manzoni_Up/diTau_fullsel_tree_CMG_10.root'
p15
(I01
I10201
tp16
sS'/store/cmst3/user/manzoni/CMG/SUSYBBHToTauTau_M-400_8TeV-pythia6-tauola/Summer12_DR53X-PU_S10_START53_V7A-v1/AODSIM/PAT_CMG_V5_16_0/HTT_24Jul_newTES_manzoni_Up/diTau_fullsel_tree_CMG_13.root'
p17
(I01
I10085
tp18
sS'/store/cmst3/user/manzoni/CMG/SUSYBBHToTauTau_M-400_8TeV-pythia6-tauola/Summer12_DR53X-PU_S10_START53_V7A-v1/AODSIM/PAT_CMG_V5_16_0/HTT_24Jul_newTES_manzoni_Up/diTau_fullsel_tree_CMG_31.root'
p19
(I01
I10178
tp20
sS'/store/cmst3/user/manzoni/CMG/SUSYBBHToTauTau_M-400_8TeV-pythia6-tauola/Summer12_DR53X-PU_S10_START53_V7A-v1/AODSIM/PAT_CMG_V5_16_0/HTT_24Jul_newTES_manzoni_Up/diTau_fullsel_tree_CMG_32.root'
p21
(I01
I10034
tp22
sS'/store/cmst3/user/manzoni/CMG/SUSYBBHToTauTau_M-400_8TeV-pythia6-tauola/Summer12_DR53X-PU_S10_START53_V7A-v1/AODSIM/PAT_CMG_V5_16_0/HTT_24Jul_newTES_manzoni_Up/diTau_fullsel_tree_CMG_27.root'
p23
(I01
I9922
tp24
sS'/store/cmst3/user/manzoni/CMG/SUSYBBHToTauTau_M-400_8TeV-pythia6-tauola/Summer12_DR53X-PU_S10_START53_V7A-v1/AODSIM/PAT_CMG_V5_16_0/HTT_24Jul_newTES_manzoni_Up/diTau_fullsel_tree_CMG_15.root'
p25
(I01
I10088
tp26
sS'/store/cmst3/user/manzoni/CMG/SUSYBBHToTauTau_M-400_8TeV-pythia6-tauola/Summer12_DR53X-PU_S10_START53_V7A-v1/AODSIM/PAT_CMG_V5_16_0/HTT_24Jul_newTES_manzoni_Up/diTau_fullsel_tree_CMG_3.root'
p27
(I01
I10116
tp28
sS'/store/cmst3/user/manzoni/CMG/SUSYBBHToTauTau_M-400_8TeV-pythia6-tauola/Summer12_DR53X-PU_S10_START53_V7A-v1/AODSIM/PAT_CMG_V5_16_0/HTT_24Jul_newTES_manzoni_Up/diTau_fullsel_tree_CMG_30.root'
p29
(I01
I10119
tp30
sS'/store/cmst3/user/manzoni/CMG/SUSYBBHToTauTau_M-400_8TeV-pythia6-tauola/Summer12_DR53X-PU_S10_START53_V7A-v1/AODSIM/PAT_CMG_V5_16_0/HTT_24Jul_newTES_manzoni_Up/diTau_fullsel_tree_CMG_28.root'
p31
(I01
I10023
tp32
sS'/store/cmst3/user/manzoni/CMG/SUSYBBHToTauTau_M-400_8TeV-pythia6-tauola/Summer12_DR53X-PU_S10_START53_V7A-v1/AODSIM/PAT_CMG_V5_16_0/HTT_24Jul_newTES_manzoni_Up/diTau_fullsel_tree_CMG_12.root'
p33
(I01
I10057
tp34
sS'/store/cmst3/user/manzoni/CMG/SUSYBBHToTauTau_M-400_8TeV-pythia6-tauola/Summer12_DR53X-PU_S10_START53_V7A-v1/AODSIM/PAT_CMG_V5_16_0/HTT_24Jul_newTES_manzoni_Up/diTau_fullsel_tree_CMG_9.root'
p35
(I01
I9992
tp36
sS'/store/cmst3/user/manzoni/CMG/SUSYBBHToTauTau_M-400_8TeV-pythia6-tauola/Summer12_DR53X-PU_S10_START53_V7A-v1/AODSIM/PAT_CMG_V5_16_0/HTT_24Jul_newTES_manzoni_Up/diTau_fullsel_tree_CMG_29.root'
p37
(I01
I10116
tp38
sS'/store/cmst3/user/manzoni/CMG/SUSYBBHToTauTau_M-400_8TeV-pythia6-tauola/Summer12_DR53X-PU_S10_START53_V7A-v1/AODSIM/PAT_CMG_V5_16_0/HTT_24Jul_newTES_manzoni_Up/diTau_fullsel_tree_CMG_26.root'
p39
(I01
I10154
tp40
sS'/store/cmst3/user/manzoni/CMG/SUSYBBHToTauTau_M-400_8TeV-pythia6-tauola/Summer12_DR53X-PU_S10_START53_V7A-v1/AODSIM/PAT_CMG_V5_16_0/HTT_24Jul_newTES_manzoni_Up/diTau_fullsel_tree_CMG_11.root'
p41
(I01
I10078
tp42
sS'/store/cmst3/user/manzoni/CMG/SUSYBBHToTauTau_M-400_8TeV-pythia6-tauola/Summer12_DR53X-PU_S10_START53_V7A-v1/AODSIM/PAT_CMG_V5_16_0/HTT_24Jul_newTES_manzoni_Up/diTau_fullsel_tree_CMG_8.root'
p43
(I01
I10007
tp44
sS'/store/cmst3/user/manzoni/CMG/SUSYBBHToTauTau_M-400_8TeV-pythia6-tauola/Summer12_DR53X-PU_S10_START53_V7A-v1/AODSIM/PAT_CMG_V5_16_0/HTT_24Jul_newTES_manzoni_Up/diTau_fullsel_tree_CMG_34.root'
p45
(I01
I3297
tp46
sS'/store/cmst3/user/manzoni/CMG/SUSYBBHToTauTau_M-400_8TeV-pythia6-tauola/Summer12_DR53X-PU_S10_START53_V7A-v1/AODSIM/PAT_CMG_V5_16_0/HTT_24Jul_newTES_manzoni_Up/diTau_fullsel_tree_CMG_33.root'
p47
(I01
I10066
tp48
sS'/store/cmst3/user/manzoni/CMG/SUSYBBHToTauTau_M-400_8TeV-pythia6-tauola/Summer12_DR53X-PU_S10_START53_V7A-v1/AODSIM/PAT_CMG_V5_16_0/HTT_24Jul_newTES_manzoni_Up/diTau_fullsel_tree_CMG_5.root'
p49
(I01
I7324
tp50
sS'/store/cmst3/user/manzoni/CMG/SUSYBBHToTauTau_M-400_8TeV-pythia6-tauola/Summer12_DR53X-PU_S10_START53_V7A-v1/AODSIM/PAT_CMG_V5_16_0/HTT_24Jul_newTES_manzoni_Up/diTau_fullsel_tree_CMG_18.root'
p51
(I01
I10059
tp52
sS'/store/cmst3/user/manzoni/CMG/SUSYBBHToTauTau_M-400_8TeV-pythia6-tauola/Summer12_DR53X-PU_S10_START53_V7A-v1/AODSIM/PAT_CMG_V5_16_0/HTT_24Jul_newTES_manzoni_Up/diTau_fullsel_tree_CMG_20.root'
p53
(I01
I9982
tp54
sS'/store/cmst3/user/manzoni/CMG/SUSYBBHToTauTau_M-400_8TeV-pythia6-tauola/Summer12_DR53X-PU_S10_START53_V7A-v1/AODSIM/PAT_CMG_V5_16_0/HTT_24Jul_newTES_manzoni_Up/diTau_fullsel_tree_CMG_24.root'
p55
(I01
I10056
tp56
sS'/store/cmst3/user/manzoni/CMG/SUSYBBHToTauTau_M-400_8TeV-pythia6-tauola/Summer12_DR53X-PU_S10_START53_V7A-v1/AODSIM/PAT_CMG_V5_16_0/HTT_24Jul_newTES_manzoni_Up/diTau_fullsel_tree_CMG_23.root'
p57
(I01
I9946
tp58
sS'/store/cmst3/user/manzoni/CMG/SUSYBBHToTauTau_M-400_8TeV-pythia6-tauola/Summer12_DR53X-PU_S10_START53_V7A-v1/AODSIM/PAT_CMG_V5_16_0/HTT_24Jul_newTES_manzoni_Up/diTau_fullsel_tree_CMG_6.root'
p59
(I01
I10184
tp60
sS'/store/cmst3/user/manzoni/CMG/SUSYBBHToTauTau_M-400_8TeV-pythia6-tauola/Summer12_DR53X-PU_S10_START53_V7A-v1/AODSIM/PAT_CMG_V5_16_0/HTT_24Jul_newTES_manzoni_Up/diTau_fullsel_tree_CMG_19.root'
p61
(I01
I10037
tp62
sS'/store/cmst3/user/manzoni/CMG/SUSYBBHToTauTau_M-400_8TeV-pythia6-tauola/Summer12_DR53X-PU_S10_START53_V7A-v1/AODSIM/PAT_CMG_V5_16_0/HTT_24Jul_newTES_manzoni_Up/diTau_fullsel_tree_CMG_25.root'
p63
(I01
I10078
tp64
sS'/store/cmst3/user/manzoni/CMG/SUSYBBHToTauTau_M-400_8TeV-pythia6-tauola/Summer12_DR53X-PU_S10_START53_V7A-v1/AODSIM/PAT_CMG_V5_16_0/HTT_24Jul_newTES_manzoni_Up/diTau_fullsel_tree_CMG_22.root'
p65
(I01
I9987
tp66
sS'/store/cmst3/user/manzoni/CMG/SUSYBBHToTauTau_M-400_8TeV-pythia6-tauola/Summer12_DR53X-PU_S10_START53_V7A-v1/AODSIM/PAT_CMG_V5_16_0/HTT_24Jul_newTES_manzoni_Up/diTau_fullsel_tree_CMG_1.root'
p67
(I01
I8942
tp68
sS'/store/cmst3/user/manzoni/CMG/SUSYBBHToTauTau_M-400_8TeV-pythia6-tauola/Summer12_DR53X-PU_S10_START53_V7A-v1/AODSIM/PAT_CMG_V5_16_0/HTT_24Jul_newTES_manzoni_Up/diTau_fullsel_tree_CMG_14.root'
p69
(I01
I10122
tp70
sS'/store/cmst3/user/manzoni/CMG/SUSYBBHToTauTau_M-400_8TeV-pythia6-tauola/Summer12_DR53X-PU_S10_START53_V7A-v1/AODSIM/PAT_CMG_V5_16_0/HTT_24Jul_newTES_manzoni_Up/diTau_fullsel_tree_CMG_2.root'
p71
(I01
I10034
tp72
sS'/store/cmst3/user/manzoni/CMG/SUSYBBHToTauTau_M-400_8TeV-pythia6-tauola/Summer12_DR53X-PU_S10_START53_V7A-v1/AODSIM/PAT_CMG_V5_16_0/HTT_24Jul_newTES_manzoni_Up/diTau_fullsel_tree_CMG_16.root'
p73
(I01
I10118
tp74
ssS'Name'
p75
S'/SUSYBBHToTauTau_M-400_8TeV-pythia6-tauola/Summer12_DR53X-PU_S10_START53_V7A-v1/AODSIM/PAT_CMG_V5_16_0/HTT_24Jul_newTES_manzoni_Up'
p76
sS'Topdir'
p77
S'/eos/cms/store/cmst3/user/manzoni/CMG'
p78
sS'RunList'
p79
(lp80
sS'PathList'
p81
(lp82
S'/store/cmst3/user/manzoni/CMG/SUSYBBHToTauTau_M-400_8TeV-pythia6-tauola/Summer12_DR53X-PU_S10_START53_V7A-v1/AODSIM/PAT_CMG_V5_16_0/HTT_24Jul_newTES_manzoni_Up'
p83
asS'AlgoList'
p84
(lp85
sS'PrimaryDatasetFraction'
p86
F0.3320720294942836
sS'FilesGood'
p87
I34
sS'PrimaryDatasetEntries'
p88
I998702
sS'data'
p89
(dp90
sS'FilesBad'
p91
I0
sS'ReportVersion'
p92
I3
sS'Status'
p93
S'VALID'
p94
sS'MaxRun'
p95
I-1
sS'PhysicsGroup'
p96
S'CMG'
p97
sS'MinRun'
p98
I-1
sS'StageHost'
p99
S'castorcms'
p100
sS'FilesCount'
p101
I34
sS'FilesEntries'
p102
I331641
sS'TierList'
p103
(lp104
sS'DateCreated'
p105
S'1377485375'
p106
sS'CreatedBy'
p107
S'manzoni'
p108
sS'ValidDuplicates'
p109
(dp110
sS'PrimaryDataset'
p111
S'/SUSYBBHToTauTau_M-400_8TeV-pythia6-tauola/Summer12_DR53X-PU_S10_START53_V7A-v1/AODSIM'
p112
sS'BadJobs'
p113
(lp114
ssS'MaskPresent'
p115
I01
sS'LSFJobStatusCheck'
p116
(dp117
S'SUSYBBHToTauTau_M-400_8TeV-pythia6-tauola/Summer12_DR53X-PU_S10_START53_V7A-v1/AODSIM/PAT_CMG_V5_16_0_1377467495/HTT_24Jul_newTES_manzoni_Up_Jobs/Job_13'
p118
g94
sS'SUSYBBHToTauTau_M-400_8TeV-pythia6-tauola/Summer12_DR53X-PU_S10_START53_V7A-v1/AODSIM/PAT_CMG_V5_16_0_1377467495/HTT_24Jul_newTES_manzoni_Up_Jobs/Job_12'
p119
g94
sS'SUSYBBHToTauTau_M-400_8TeV-pythia6-tauola/Summer12_DR53X-PU_S10_START53_V7A-v1/AODSIM/PAT_CMG_V5_16_0_1377467495/HTT_24Jul_newTES_manzoni_Up_Jobs/Job_11'
p120
g94
sS'SUSYBBHToTauTau_M-400_8TeV-pythia6-tauola/Summer12_DR53X-PU_S10_START53_V7A-v1/AODSIM/PAT_CMG_V5_16_0_1377467495/HTT_24Jul_newTES_manzoni_Up_Jobs/Job_10'
p121
g94
sS'SUSYBBHToTauTau_M-400_8TeV-pythia6-tauola/Summer12_DR53X-PU_S10_START53_V7A-v1/AODSIM/PAT_CMG_V5_16_0_1377467495/HTT_24Jul_newTES_manzoni_Up_Jobs/Job_17'
p122
g94
sS'SUSYBBHToTauTau_M-400_8TeV-pythia6-tauola/Summer12_DR53X-PU_S10_START53_V7A-v1/AODSIM/PAT_CMG_V5_16_0_1377467495/HTT_24Jul_newTES_manzoni_Up_Jobs/Job_16'
p123
g94
sS'SUSYBBHToTauTau_M-400_8TeV-pythia6-tauola/Summer12_DR53X-PU_S10_START53_V7A-v1/AODSIM/PAT_CMG_V5_16_0_1377467495/HTT_24Jul_newTES_manzoni_Up_Jobs/Job_15'
p124
g94
sS'SUSYBBHToTauTau_M-400_8TeV-pythia6-tauola/Summer12_DR53X-PU_S10_START53_V7A-v1/AODSIM/PAT_CMG_V5_16_0_1377467495/HTT_24Jul_newTES_manzoni_Up_Jobs/Job_14'
p125
g94
sS'SUSYBBHToTauTau_M-400_8TeV-pythia6-tauola/Summer12_DR53X-PU_S10_START53_V7A-v1/AODSIM/PAT_CMG_V5_16_0_1377467495/HTT_24Jul_newTES_manzoni_Up_Jobs/Job_19'
p126
g94
sS'SUSYBBHToTauTau_M-400_8TeV-pythia6-tauola/Summer12_DR53X-PU_S10_START53_V7A-v1/AODSIM/PAT_CMG_V5_16_0_1377467495/HTT_24Jul_newTES_manzoni_Up_Jobs/Job_18'
p127
g94
sS'SUSYBBHToTauTau_M-400_8TeV-pythia6-tauola/Summer12_DR53X-PU_S10_START53_V7A-v1/AODSIM/PAT_CMG_V5_16_0_1377467495/HTT_24Jul_newTES_manzoni_Up_Jobs/Job_9'
p128
g94
sS'SUSYBBHToTauTau_M-400_8TeV-pythia6-tauola/Summer12_DR53X-PU_S10_START53_V7A-v1/AODSIM/PAT_CMG_V5_16_0_1377467495/HTT_24Jul_newTES_manzoni_Up_Jobs/Job_8'
p129
g94
sS'SUSYBBHToTauTau_M-400_8TeV-pythia6-tauola/Summer12_DR53X-PU_S10_START53_V7A-v1/AODSIM/PAT_CMG_V5_16_0_1377467495/HTT_24Jul_newTES_manzoni_Up_Jobs/Job_7'
p130
g94
sS'SUSYBBHToTauTau_M-400_8TeV-pythia6-tauola/Summer12_DR53X-PU_S10_START53_V7A-v1/AODSIM/PAT_CMG_V5_16_0_1377467495/HTT_24Jul_newTES_manzoni_Up_Jobs/Job_6'
p131
g94
sS'SUSYBBHToTauTau_M-400_8TeV-pythia6-tauola/Summer12_DR53X-PU_S10_START53_V7A-v1/AODSIM/PAT_CMG_V5_16_0_1377467495/HTT_24Jul_newTES_manzoni_Up_Jobs/Job_5'
p132
g94
sS'SUSYBBHToTauTau_M-400_8TeV-pythia6-tauola/Summer12_DR53X-PU_S10_START53_V7A-v1/AODSIM/PAT_CMG_V5_16_0_1377467495/HTT_24Jul_newTES_manzoni_Up_Jobs/Job_4'
p133
g94
sS'SUSYBBHToTauTau_M-400_8TeV-pythia6-tauola/Summer12_DR53X-PU_S10_START53_V7A-v1/AODSIM/PAT_CMG_V5_16_0_1377467495/HTT_24Jul_newTES_manzoni_Up_Jobs/Job_3'
p134
g94
sS'SUSYBBHToTauTau_M-400_8TeV-pythia6-tauola/Summer12_DR53X-PU_S10_START53_V7A-v1/AODSIM/PAT_CMG_V5_16_0_1377467495/HTT_24Jul_newTES_manzoni_Up_Jobs/Job_2'
p135
g94
sS'SUSYBBHToTauTau_M-400_8TeV-pythia6-tauola/Summer12_DR53X-PU_S10_START53_V7A-v1/AODSIM/PAT_CMG_V5_16_0_1377467495/HTT_24Jul_newTES_manzoni_Up_Jobs/Job_1'
p136
g94
sS'SUSYBBHToTauTau_M-400_8TeV-pythia6-tauola/Summer12_DR53X-PU_S10_START53_V7A-v1/AODSIM/PAT_CMG_V5_16_0_1377467495/HTT_24Jul_newTES_manzoni_Up_Jobs/Job_26'
p137
g94
sS'SUSYBBHToTauTau_M-400_8TeV-pythia6-tauola/Summer12_DR53X-PU_S10_START53_V7A-v1/AODSIM/PAT_CMG_V5_16_0_1377467495/HTT_24Jul_newTES_manzoni_Up_Jobs/Job_27'
p138
g94
sS'SUSYBBHToTauTau_M-400_8TeV-pythia6-tauola/Summer12_DR53X-PU_S10_START53_V7A-v1/AODSIM/PAT_CMG_V5_16_0_1377467495/HTT_24Jul_newTES_manzoni_Up_Jobs/Job_24'
p139
g94
sS'SUSYBBHToTauTau_M-400_8TeV-pythia6-tauola/Summer12_DR53X-PU_S10_START53_V7A-v1/AODSIM/PAT_CMG_V5_16_0_1377467495/HTT_24Jul_newTES_manzoni_Up_Jobs/Job_25'
p140
g94
sS'SUSYBBHToTauTau_M-400_8TeV-pythia6-tauola/Summer12_DR53X-PU_S10_START53_V7A-v1/AODSIM/PAT_CMG_V5_16_0_1377467495/HTT_24Jul_newTES_manzoni_Up_Jobs/Job_22'
p141
g94
sS'SUSYBBHToTauTau_M-400_8TeV-pythia6-tauola/Summer12_DR53X-PU_S10_START53_V7A-v1/AODSIM/PAT_CMG_V5_16_0_1377467495/HTT_24Jul_newTES_manzoni_Up_Jobs/Job_23'
p142
g94
sS'SUSYBBHToTauTau_M-400_8TeV-pythia6-tauola/Summer12_DR53X-PU_S10_START53_V7A-v1/AODSIM/PAT_CMG_V5_16_0_1377467495/HTT_24Jul_newTES_manzoni_Up_Jobs/Job_20'
p143
g94
sS'SUSYBBHToTauTau_M-400_8TeV-pythia6-tauola/Summer12_DR53X-PU_S10_START53_V7A-v1/AODSIM/PAT_CMG_V5_16_0_1377467495/HTT_24Jul_newTES_manzoni_Up_Jobs/Job_21'
p144
g94
sS'SUSYBBHToTauTau_M-400_8TeV-pythia6-tauola/Summer12_DR53X-PU_S10_START53_V7A-v1/AODSIM/PAT_CMG_V5_16_0_1377467495/HTT_24Jul_newTES_manzoni_Up_Jobs/Job_28'
p145
g94
sS'SUSYBBHToTauTau_M-400_8TeV-pythia6-tauola/Summer12_DR53X-PU_S10_START53_V7A-v1/AODSIM/PAT_CMG_V5_16_0_1377467495/HTT_24Jul_newTES_manzoni_Up_Jobs/Job_29'
p146
g94
sS'SUSYBBHToTauTau_M-400_8TeV-pythia6-tauola/Summer12_DR53X-PU_S10_START53_V7A-v1/AODSIM/PAT_CMG_V5_16_0_1377467495/HTT_24Jul_newTES_manzoni_Up_Jobs/Job_31'
p147
g94
sS'SUSYBBHToTauTau_M-400_8TeV-pythia6-tauola/Summer12_DR53X-PU_S10_START53_V7A-v1/AODSIM/PAT_CMG_V5_16_0_1377467495/HTT_24Jul_newTES_manzoni_Up_Jobs/Job_30'
p148
g94
sS'SUSYBBHToTauTau_M-400_8TeV-pythia6-tauola/Summer12_DR53X-PU_S10_START53_V7A-v1/AODSIM/PAT_CMG_V5_16_0_1377467495/HTT_24Jul_newTES_manzoni_Up_Jobs/Job_33'
p149
g94
sS'SUSYBBHToTauTau_M-400_8TeV-pythia6-tauola/Summer12_DR53X-PU_S10_START53_V7A-v1/AODSIM/PAT_CMG_V5_16_0_1377467495/HTT_24Jul_newTES_manzoni_Up_Jobs/Job_32'
p150
g94
sS'SUSYBBHToTauTau_M-400_8TeV-pythia6-tauola/Summer12_DR53X-PU_S10_START53_V7A-v1/AODSIM/PAT_CMG_V5_16_0_1377467495/HTT_24Jul_newTES_manzoni_Up_Jobs/Job_34'
p151
g94
sssS'CheckDatasetExists'
p152
(dp153
S'Dataset'
p154
S'/SUSYBBHToTauTau_M-400_8TeV-pythia6-tauola/Summer12_DR53X-PU_S10_START53_V7A-v1/AODSIM/PAT_CMG_V5_16_0'
p155
ssS'GenerateMask'
p156
(dp157
g3
(dp158
VPathList
p159
(lp160
V/store/cmst3/group/cmgtools/CMG/SUSYGluGluToHToTauTau_M-600_8TeV-pythia6-tauola/Summer12_DR53X-PU_S10_START53_V7A-v1/AODSIM/PAT_CMG_V5_16_0
p161
asVStageHost
p162
Vcastorcms
p163
sVPrimaryDatasetFraction
p164
F0.98979920760244655
sVFilesGood
p165
I98
sVPrimaryDatasetEntries
p166
I980316
sVReportVersion
p167
I3
sVFiles
p168
(dp169
V/store/cmst3/group/cmgtools/CMG/SUSYGluGluToHToTauTau_M-600_8TeV-pythia6-tauola/Summer12_DR53X-PU_S10_START53_V7A-v1/AODSIM/PAT_CMG_V5_16_0/cmgTuple_41_1_Ly3.root
p170
(lp171
I01
aI10000
asV/store/cmst3/group/cmgtools/CMG/SUSYGluGluToHToTauTau_M-600_8TeV-pythia6-tauola/Summer12_DR53X-PU_S10_START53_V7A-v1/AODSIM/PAT_CMG_V5_16_0/cmgTuple_18_1_lXG.root
p172
(lp173
I01
aI10000
asV/store/cmst3/group/cmgtools/CMG/SUSYGluGluToHToTauTau_M-600_8TeV-pythia6-tauola/Summer12_DR53X-PU_S10_START53_V7A-v1/AODSIM/PAT_CMG_V5_16_0/cmgTuple_82_1_NHv.root
p174
(lp175
I01
aI10000
asV/store/cmst3/group/cmgtools/CMG/SUSYGluGluToHToTauTau_M-600_8TeV-pythia6-tauola/Summer12_DR53X-PU_S10_START53_V7A-v1/AODSIM/PAT_CMG_V5_16_0/cmgTuple_3_1_w9B.root
p176
(lp177
I01
aI10000
asV/store/cmst3/group/cmgtools/CMG/SUSYGluGluToHToTauTau_M-600_8TeV-pythia6-tauola/Summer12_DR53X-PU_S10_START53_V7A-v1/AODSIM/PAT_CMG_V5_16_0/cmgTuple_87_1_bPJ.root
p178
(lp179
I01
aI10000
asV/store/cmst3/group/cmgtools/CMG/SUSYGluGluToHToTauTau_M-600_8TeV-pythia6-tauola/Summer12_DR53X-PU_S10_START53_V7A-v1/AODSIM/PAT_CMG_V5_16_0/cmgTuple_91_1_Hwi.root
p180
(lp181
I01
aI10000
asV/store/cmst3/group/cmgtools/CMG/SUSYGluGluToHToTauTau_M-600_8TeV-pythia6-tauola/Summer12_DR53X-PU_S10_START53_V7A-v1/AODSIM/PAT_CMG_V5_16_0/cmgTuple_29_1_yZY.root
p182
(lp183
I01
aI10000
asV/store/cmst3/group/cmgtools/CMG/SUSYGluGluToHToTauTau_M-600_8TeV-pythia6-tauola/Summer12_DR53X-PU_S10_START53_V7A-v1/AODSIM/PAT_CMG_V5_16_0/cmgTuple_81_1_rTv.root
p184
(lp185
I01
aI10000
asV/store/cmst3/group/cmgtools/CMG/SUSYGluGluToHToTauTau_M-600_8TeV-pythia6-tauola/Summer12_DR53X-PU_S10_START53_V7A-v1/AODSIM/PAT_CMG_V5_16_0/cmgTuple_59_1_n2B.root
p186
(lp187
I01
aI10000
asV/store/cmst3/group/cmgtools/CMG/SUSYGluGluToHToTauTau_M-600_8TeV-pythia6-tauola/Summer12_DR53X-PU_S10_START53_V7A-v1/AODSIM/PAT_CMG_V5_16_0/cmgTuple_19_1_q0l.root
p188
(lp189
I01
aI10000
asV/store/cmst3/group/cmgtools/CMG/SUSYGluGluToHToTauTau_M-600_8TeV-pythia6-tauola/Summer12_DR53X-PU_S10_START53_V7A-v1/AODSIM/PAT_CMG_V5_16_0/cmgTuple_14_1_7e0.root
p190
(lp191
I01
aI10000
asV/store/cmst3/group/cmgtools/CMG/SUSYGluGluToHToTauTau_M-600_8TeV-pythia6-tauola/Summer12_DR53X-PU_S10_START53_V7A-v1/AODSIM/PAT_CMG_V5_16_0/cmgTuple_47_1_p34.root
p192
(lp193
I01
aI10000
asV/store/cmst3/group/cmgtools/CMG/SUSYGluGluToHToTauTau_M-600_8TeV-pythia6-tauola/Summer12_DR53X-PU_S10_START53_V7A-v1/AODSIM/PAT_CMG_V5_16_0/cmgTuple_44_1_v6a.root
p194
(lp195
I01
aI10000
asV/store/cmst3/group/cmgtools/CMG/SUSYGluGluToHToTauTau_M-600_8TeV-pythia6-tauola/Summer12_DR53X-PU_S10_START53_V7A-v1/AODSIM/PAT_CMG_V5_16_0/cmgTuple_98_1_gY9.root
p196
(lp197
I01
aI10000
asV/store/cmst3/group/cmgtools/CMG/SUSYGluGluToHToTauTau_M-600_8TeV-pythia6-tauola/Summer12_DR53X-PU_S10_START53_V7A-v1/AODSIM/PAT_CMG_V5_16_0/cmgTuple_20_1_tzk.root
p198
(lp199
I01
aI10000
asV/store/cmst3/group/cmgtools/CMG/SUSYGluGluToHToTauTau_M-600_8TeV-pythia6-tauola/Summer12_DR53X-PU_S10_START53_V7A-v1/AODSIM/PAT_CMG_V5_16_0/cmgTuple_58_1_A5e.root
p200
(lp201
I01
aI10000
asV/store/cmst3/group/cmgtools/CMG/SUSYGluGluToHToTauTau_M-600_8TeV-pythia6-tauola/Summer12_DR53X-PU_S10_START53_V7A-v1/AODSIM/PAT_CMG_V5_16_0/cmgTuple_61_1_RXr.root
p202
(lp203
I01
aI10000
asV/store/cmst3/group/cmgtools/CMG/SUSYGluGluToHToTauTau_M-600_8TeV-pythia6-tauola/Summer12_DR53X-PU_S10_START53_V7A-v1/AODSIM/PAT_CMG_V5_16_0/cmgTuple_85_1_uQ2.root
p204
(lp205
I01
aI10000
asV/store/cmst3/group/cmgtools/CMG/SUSYGluGluToHToTauTau_M-600_8TeV-pythia6-tauola/Summer12_DR53X-PU_S10_START53_V7A-v1/AODSIM/PAT_CMG_V5_16_0/cmgTuple_70_1_5wx.root
p206
(lp207
I01
aI10000
asV/store/cmst3/group/cmgtools/CMG/SUSYGluGluToHToTauTau_M-600_8TeV-pythia6-tauola/Summer12_DR53X-PU_S10_START53_V7A-v1/AODSIM/PAT_CMG_V5_16_0/cmgTuple_36_1_VoV.root
p208
(lp209
I01
aI10000
asV/store/cmst3/group/cmgtools/CMG/SUSYGluGluToHToTauTau_M-600_8TeV-pythia6-tauola/Summer12_DR53X-PU_S10_START53_V7A-v1/AODSIM/PAT_CMG_V5_16_0/cmgTuple_57_1_2v1.root
p210
(lp211
I01
aI10000
asV/store/cmst3/group/cmgtools/CMG/SUSYGluGluToHToTauTau_M-600_8TeV-pythia6-tauola/Summer12_DR53X-PU_S10_START53_V7A-v1/AODSIM/PAT_CMG_V5_16_0/cmgTuple_23_1_8yd.root
p212
(lp213
I01
aI10000
asV/store/cmst3/group/cmgtools/CMG/SUSYGluGluToHToTauTau_M-600_8TeV-pythia6-tauola/Summer12_DR53X-PU_S10_START53_V7A-v1/AODSIM/PAT_CMG_V5_16_0/cmgTuple_15_1_Hew.root
p214
(lp215
I01
aI10000
asV/store/cmst3/group/cmgtools/CMG/SUSYGluGluToHToTauTau_M-600_8TeV-pythia6-tauola/Summer12_DR53X-PU_S10_START53_V7A-v1/AODSIM/PAT_CMG_V5_16_0/cmgTuple_51_1_dTB.root
p216
(lp217
I01
aI10000
asV/store/cmst3/group/cmgtools/CMG/SUSYGluGluToHToTauTau_M-600_8TeV-pythia6-tauola/Summer12_DR53X-PU_S10_START53_V7A-v1/AODSIM/PAT_CMG_V5_16_0/cmgTuple_92_1_1xj.root
p218
(lp219
I01
aI10000
asV/store/cmst3/group/cmgtools/CMG/SUSYGluGluToHToTauTau_M-600_8TeV-pythia6-tauola/Summer12_DR53X-PU_S10_START53_V7A-v1/AODSIM/PAT_CMG_V5_16_0/cmgTuple_26_1_CbS.root
p220
(lp221
I01
aI10000
asV/store/cmst3/group/cmgtools/CMG/SUSYGluGluToHToTauTau_M-600_8TeV-pythia6-tauola/Summer12_DR53X-PU_S10_START53_V7A-v1/AODSIM/PAT_CMG_V5_16_0/cmgTuple_76_1_fxE.root
p222
(lp223
I01
aI10000
asV/store/cmst3/group/cmgtools/CMG/SUSYGluGluToHToTauTau_M-600_8TeV-pythia6-tauola/Summer12_DR53X-PU_S10_START53_V7A-v1/AODSIM/PAT_CMG_V5_16_0/cmgTuple_13_1_yoy.root
p224
(lp225
I01
aI10000
asV/store/cmst3/group/cmgtools/CMG/SUSYGluGluToHToTauTau_M-600_8TeV-pythia6-tauola/Summer12_DR53X-PU_S10_START53_V7A-v1/AODSIM/PAT_CMG_V5_16_0/cmgTuple_46_1_oj8.root
p226
(lp227
I01
aI10000
asV/store/cmst3/group/cmgtools/CMG/SUSYGluGluToHToTauTau_M-600_8TeV-pythia6-tauola/Summer12_DR53X-PU_S10_START53_V7A-v1/AODSIM/PAT_CMG_V5_16_0/cmgTuple_75_1_yJp.root
p228
(lp229
I01
aI10000
asV/store/cmst3/group/cmgtools/CMG/SUSYGluGluToHToTauTau_M-600_8TeV-pythia6-tauola/Summer12_DR53X-PU_S10_START53_V7A-v1/AODSIM/PAT_CMG_V5_16_0/cmgTuple_27_1_tYb.root
p230
(lp231
I01
aI10000
asV/store/cmst3/group/cmgtools/CMG/SUSYGluGluToHToTauTau_M-600_8TeV-pythia6-tauola/Summer12_DR53X-PU_S10_START53_V7A-v1/AODSIM/PAT_CMG_V5_16_0/cmgTuple_4_1_TLZ.root
p232
(lp233
I01
aI10000
asV/store/cmst3/group/cmgtools/CMG/SUSYGluGluToHToTauTau_M-600_8TeV-pythia6-tauola/Summer12_DR53X-PU_S10_START53_V7A-v1/AODSIM/PAT_CMG_V5_16_0/cmgTuple_89_1_bhJ.root
p234
(lp235
I01
aI10000
asV/store/cmst3/group/cmgtools/CMG/SUSYGluGluToHToTauTau_M-600_8TeV-pythia6-tauola/Summer12_DR53X-PU_S10_START53_V7A-v1/AODSIM/PAT_CMG_V5_16_0/cmgTuple_78_1_SRg.root
p236
(lp237
I01
aI10000
asV/store/cmst3/group/cmgtools/CMG/SUSYGluGluToHToTauTau_M-600_8TeV-pythia6-tauola/Summer12_DR53X-PU_S10_START53_V7A-v1/AODSIM/PAT_CMG_V5_16_0/cmgTuple_54_1_67d.root
p238
(lp239
I01
aI10000
asV/store/cmst3/group/cmgtools/CMG/SUSYGluGluToHToTauTau_M-600_8TeV-pythia6-tauola/Summer12_DR53X-PU_S10_START53_V7A-v1/AODSIM/PAT_CMG_V5_16_0/cmgTuple_56_1_jmu.root
p240
(lp241
I01
aI10000
asV/store/cmst3/group/cmgtools/CMG/SUSYGluGluToHToTauTau_M-600_8TeV-pythia6-tauola/Summer12_DR53X-PU_S10_START53_V7A-v1/AODSIM/PAT_CMG_V5_16_0/cmgTuple_88_1_SoI.root
p242
(lp243
I01
aI10000
asV/store/cmst3/group/cmgtools/CMG/SUSYGluGluToHToTauTau_M-600_8TeV-pythia6-tauola/Summer12_DR53X-PU_S10_START53_V7A-v1/AODSIM/PAT_CMG_V5_16_0/cmgTuple_33_1_sgD.root
p244
(lp245
I01
aI10000
asV/store/cmst3/group/cmgtools/CMG/SUSYGluGluToHToTauTau_M-600_8TeV-pythia6-tauola/Summer12_DR53X-PU_S10_START53_V7A-v1/AODSIM/PAT_CMG_V5_16_0/cmgTuple_34_1_BP1.root
p246
(lp247
I01
aI10000
asV/store/cmst3/group/cmgtools/CMG/SUSYGluGluToHToTauTau_M-600_8TeV-pythia6-tauola/Summer12_DR53X-PU_S10_START53_V7A-v1/AODSIM/PAT_CMG_V5_16_0/cmgTuple_80_1_bzL.root
p248
(lp249
I01
aI10000
asV/store/cmst3/group/cmgtools/CMG/SUSYGluGluToHToTauTau_M-600_8TeV-pythia6-tauola/Summer12_DR53X-PU_S10_START53_V7A-v1/AODSIM/PAT_CMG_V5_16_0/cmgTuple_60_1_bL8.root
p250
(lp251
I01
aI10000
asV/store/cmst3/group/cmgtools/CMG/SUSYGluGluToHToTauTau_M-600_8TeV-pythia6-tauola/Summer12_DR53X-PU_S10_START53_V7A-v1/AODSIM/PAT_CMG_V5_16_0/cmgTuple_38_1_8cx.root
p252
(lp253
I01
aI10000
asV/store/cmst3/group/cmgtools/CMG/SUSYGluGluToHToTauTau_M-600_8TeV-pythia6-tauola/Summer12_DR53X-PU_S10_START53_V7A-v1/AODSIM/PAT_CMG_V5_16_0/cmgTuple_25_1_y5Y.root
p254
(lp255
I01
aI10000
asV/store/cmst3/group/cmgtools/CMG/SUSYGluGluToHToTauTau_M-600_8TeV-pythia6-tauola/Summer12_DR53X-PU_S10_START53_V7A-v1/AODSIM/PAT_CMG_V5_16_0/cmgTuple_2_1_1dg.root
p256
(lp257
I01
aI10000
asV/store/cmst3/group/cmgtools/CMG/SUSYGluGluToHToTauTau_M-600_8TeV-pythia6-tauola/Summer12_DR53X-PU_S10_START53_V7A-v1/AODSIM/PAT_CMG_V5_16_0/cmgTuple_67_1_TBW.root
p258
(lp259
I01
aI10000
asV/store/cmst3/group/cmgtools/CMG/SUSYGluGluToHToTauTau_M-600_8TeV-pythia6-tauola/Summer12_DR53X-PU_S10_START53_V7A-v1/AODSIM/PAT_CMG_V5_16_0/cmgTuple_31_1_39a.root
p260
(lp261
I01
aI10000
asV/store/cmst3/group/cmgtools/CMG/SUSYGluGluToHToTauTau_M-600_8TeV-pythia6-tauola/Summer12_DR53X-PU_S10_START53_V7A-v1/AODSIM/PAT_CMG_V5_16_0/cmgTuple_83_1_FBA.root
p262
(lp263
I01
aI10000
asV/store/cmst3/group/cmgtools/CMG/SUSYGluGluToHToTauTau_M-600_8TeV-pythia6-tauola/Summer12_DR53X-PU_S10_START53_V7A-v1/AODSIM/PAT_CMG_V5_16_0/cmgTuple_8_1_XzA.root
p264
(lp265
I01
aI10000
asV/store/cmst3/group/cmgtools/CMG/SUSYGluGluToHToTauTau_M-600_8TeV-pythia6-tauola/Summer12_DR53X-PU_S10_START53_V7A-v1/AODSIM/PAT_CMG_V5_16_0/cmgTuple_63_1_dLO.root
p266
(lp267
I01
aI10000
asV/store/cmst3/group/cmgtools/CMG/SUSYGluGluToHToTauTau_M-600_8TeV-pythia6-tauola/Summer12_DR53X-PU_S10_START53_V7A-v1/AODSIM/PAT_CMG_V5_16_0/cmgTuple_30_1_ild.root
p268
(lp269
I01
aI10000
asV/store/cmst3/group/cmgtools/CMG/SUSYGluGluToHToTauTau_M-600_8TeV-pythia6-tauola/Summer12_DR53X-PU_S10_START53_V7A-v1/AODSIM/PAT_CMG_V5_16_0/cmgTuple_28_1_DfE.root
p270
(lp271
I01
aI10000
asV/store/cmst3/group/cmgtools/CMG/SUSYGluGluToHToTauTau_M-600_8TeV-pythia6-tauola/Summer12_DR53X-PU_S10_START53_V7A-v1/AODSIM/PAT_CMG_V5_16_0/cmgTuple_65_1_Jn1.root
p272
(lp273
I01
aI10000
asV/store/cmst3/group/cmgtools/CMG/SUSYGluGluToHToTauTau_M-600_8TeV-pythia6-tauola/Summer12_DR53X-PU_S10_START53_V7A-v1/AODSIM/PAT_CMG_V5_16_0/cmgTuple_1_1_jn0.root
p274
(lp275
I01
aI10000
asV/store/cmst3/group/cmgtools/CMG/SUSYGluGluToHToTauTau_M-600_8TeV-pythia6-tauola/Summer12_DR53X-PU_S10_START53_V7A-v1/AODSIM/PAT_CMG_V5_16_0/cmgTuple_64_1_pfQ.root
p276
(lp277
I01
aI10000
asV/store/cmst3/group/cmgtools/CMG/SUSYGluGluToHToTauTau_M-600_8TeV-pythia6-tauola/Summer12_DR53X-PU_S10_START53_V7A-v1/AODSIM/PAT_CMG_V5_16_0/cmgTuple_66_1_MzQ.root
p278
(lp279
I01
aI10000
asV/store/cmst3/group/cmgtools/CMG/SUSYGluGluToHToTauTau_M-600_8TeV-pythia6-tauola/Summer12_DR53X-PU_S10_START53_V7A-v1/AODSIM/PAT_CMG_V5_16_0/cmgTuple_21_1_lkq.root
p280
(lp281
I01
aI10000
asV/store/cmst3/group/cmgtools/CMG/SUSYGluGluToHToTauTau_M-600_8TeV-pythia6-tauola/Summer12_DR53X-PU_S10_START53_V7A-v1/AODSIM/PAT_CMG_V5_16_0/cmgTuple_77_1_ooT.root
p282
(lp283
I01
aI10000
asV/store/cmst3/group/cmgtools/CMG/SUSYGluGluToHToTauTau_M-600_8TeV-pythia6-tauola/Summer12_DR53X-PU_S10_START53_V7A-v1/AODSIM/PAT_CMG_V5_16_0/cmgTuple_32_1_C1b.root
p284
(lp285
I01
aI10000
asV/store/cmst3/group/cmgtools/CMG/SUSYGluGluToHToTauTau_M-600_8TeV-pythia6-tauola/Summer12_DR53X-PU_S10_START53_V7A-v1/AODSIM/PAT_CMG_V5_16_0/cmgTuple_48_1_WmU.root
p286
(lp287
I01
aI10000
asV/store/cmst3/group/cmgtools/CMG/SUSYGluGluToHToTauTau_M-600_8TeV-pythia6-tauola/Summer12_DR53X-PU_S10_START53_V7A-v1/AODSIM/PAT_CMG_V5_16_0/cmgTuple_24_1_ShR.root
p288
(lp289
I01
aI10000
asV/store/cmst3/group/cmgtools/CMG/SUSYGluGluToHToTauTau_M-600_8TeV-pythia6-tauola/Summer12_DR53X-PU_S10_START53_V7A-v1/AODSIM/PAT_CMG_V5_16_0/cmgTuple_7_1_6XX.root
p290
(lp291
I01
aI10000
asV/store/cmst3/group/cmgtools/CMG/SUSYGluGluToHToTauTau_M-600_8TeV-pythia6-tauola/Summer12_DR53X-PU_S10_START53_V7A-v1/AODSIM/PAT_CMG_V5_16_0/cmgTuple_17_1_PWT.root
p292
(lp293
I01
aI10000
asV/store/cmst3/group/cmgtools/CMG/SUSYGluGluToHToTauTau_M-600_8TeV-pythia6-tauola/Summer12_DR53X-PU_S10_START53_V7A-v1/AODSIM/PAT_CMG_V5_16_0/cmgTuple_93_1_Irk.root
p294
(lp295
I01
aI10000
asV/store/cmst3/group/cmgtools/CMG/SUSYGluGluToHToTauTau_M-600_8TeV-pythia6-tauola/Summer12_DR53X-PU_S10_START53_V7A-v1/AODSIM/PAT_CMG_V5_16_0/cmgTuple_96_1_FB6.root
p296
(lp297
I01
aI10000
asV/store/cmst3/group/cmgtools/CMG/SUSYGluGluToHToTauTau_M-600_8TeV-pythia6-tauola/Summer12_DR53X-PU_S10_START53_V7A-v1/AODSIM/PAT_CMG_V5_16_0/cmgTuple_22_1_ZOi.root
p298
(lp299
I01
aI10000
asV/store/cmst3/group/cmgtools/CMG/SUSYGluGluToHToTauTau_M-600_8TeV-pythia6-tauola/Summer12_DR53X-PU_S10_START53_V7A-v1/AODSIM/PAT_CMG_V5_16_0/cmgTuple_71_1_GQz.root
p300
(lp301
I01
aI10000
asV/store/cmst3/group/cmgtools/CMG/SUSYGluGluToHToTauTau_M-600_8TeV-pythia6-tauola/Summer12_DR53X-PU_S10_START53_V7A-v1/AODSIM/PAT_CMG_V5_16_0/cmgTuple_45_1_mGO.root
p302
(lp303
I01
aI10000
asV/store/cmst3/group/cmgtools/CMG/SUSYGluGluToHToTauTau_M-600_8TeV-pythia6-tauola/Summer12_DR53X-PU_S10_START53_V7A-v1/AODSIM/PAT_CMG_V5_16_0/cmgTuple_52_1_ASo.root
p304
(lp305
I01
aI10000
asV/store/cmst3/group/cmgtools/CMG/SUSYGluGluToHToTauTau_M-600_8TeV-pythia6-tauola/Summer12_DR53X-PU_S10_START53_V7A-v1/AODSIM/PAT_CMG_V5_16_0/cmgTuple_73_1_S3m.root
p306
(lp307
I01
aI10000
asV/store/cmst3/group/cmgtools/CMG/SUSYGluGluToHToTauTau_M-600_8TeV-pythia6-tauola/Summer12_DR53X-PU_S10_START53_V7A-v1/AODSIM/PAT_CMG_V5_16_0/cmgTuple_72_1_yxq.root
p308
(lp309
I01
aI10000
asV/store/cmst3/group/cmgtools/CMG/SUSYGluGluToHToTauTau_M-600_8TeV-pythia6-tauola/Summer12_DR53X-PU_S10_START53_V7A-v1/AODSIM/PAT_CMG_V5_16_0/cmgTuple_42_1_MhB.root
p310
(lp311
I01
aI10000
asV/store/cmst3/group/cmgtools/CMG/SUSYGluGluToHToTauTau_M-600_8TeV-pythia6-tauola/Summer12_DR53X-PU_S10_START53_V7A-v1/AODSIM/PAT_CMG_V5_16_0/cmgTuple_99_1_NpL.root
p312
(lp313
I01
aI316
asV/store/cmst3/group/cmgtools/CMG/SUSYGluGluToHToTauTau_M-600_8TeV-pythia6-tauola/Summer12_DR53X-PU_S10_START53_V7A-v1/AODSIM/PAT_CMG_V5_16_0/cmgTuple_79_1_Vrm.root
p314
(lp315
I01
aI10000
asV/store/cmst3/group/cmgtools/CMG/SUSYGluGluToHToTauTau_M-600_8TeV-pythia6-tauola/Summer12_DR53X-PU_S10_START53_V7A-v1/AODSIM/PAT_CMG_V5_16_0/cmgTuple_95_1_1Gp.root
p316
(lp317
I01
aI10000
asV/store/cmst3/group/cmgtools/CMG/SUSYGluGluToHToTauTau_M-600_8TeV-pythia6-tauola/Summer12_DR53X-PU_S10_START53_V7A-v1/AODSIM/PAT_CMG_V5_16_0/cmgTuple_53_1_Xk6.root
p318
(lp319
I01
aI10000
asV/store/cmst3/group/cmgtools/CMG/SUSYGluGluToHToTauTau_M-600_8TeV-pythia6-tauola/Summer12_DR53X-PU_S10_START53_V7A-v1/AODSIM/PAT_CMG_V5_16_0/cmgTuple_12_1_FD0.root
p320
(lp321
I01
aI10000
asV/store/cmst3/group/cmgtools/CMG/SUSYGluGluToHToTauTau_M-600_8TeV-pythia6-tauola/Summer12_DR53X-PU_S10_START53_V7A-v1/AODSIM/PAT_CMG_V5_16_0/cmgTuple_86_1_d8R.root
p322
(lp323
I01
aI10000
asV/store/cmst3/group/cmgtools/CMG/SUSYGluGluToHToTauTau_M-600_8TeV-pythia6-tauola/Summer12_DR53X-PU_S10_START53_V7A-v1/AODSIM/PAT_CMG_V5_16_0/cmgTuple_74_1_Txi.root
p324
(lp325
I01
aI10000
asV/store/cmst3/group/cmgtools/CMG/SUSYGluGluToHToTauTau_M-600_8TeV-pythia6-tauola/Summer12_DR53X-PU_S10_START53_V7A-v1/AODSIM/PAT_CMG_V5_16_0/cmgTuple_11_1_E52.root
p326
(lp327
I01
aI10000
asV/store/cmst3/group/cmgtools/CMG/SUSYGluGluToHToTauTau_M-600_8TeV-pythia6-tauola/Summer12_DR53X-PU_S10_START53_V7A-v1/AODSIM/PAT_CMG_V5_16_0/cmgTuple_55_1_hay.root
p328
(lp329
I01
aI10000
asV/store/cmst3/group/cmgtools/CMG/SUSYGluGluToHToTauTau_M-600_8TeV-pythia6-tauola/Summer12_DR53X-PU_S10_START53_V7A-v1/AODSIM/PAT_CMG_V5_16_0/cmgTuple_90_1_9Eo.root
p330
(lp331
I01
aI10000
asV/store/cmst3/group/cmgtools/CMG/SUSYGluGluToHToTauTau_M-600_8TeV-pythia6-tauola/Summer12_DR53X-PU_S10_START53_V7A-v1/AODSIM/PAT_CMG_V5_16_0/cmgTuple_68_1_L19.root
p332
(lp333
I01
aI10000
asV/store/cmst3/group/cmgtools/CMG/SUSYGluGluToHToTauTau_M-600_8TeV-pythia6-tauola/Summer12_DR53X-PU_S10_START53_V7A-v1/AODSIM/PAT_CMG_V5_16_0/cmgTuple_69_1_thi.root
p334
(lp335
I01
aI10000
asV/store/cmst3/group/cmgtools/CMG/SUSYGluGluToHToTauTau_M-600_8TeV-pythia6-tauola/Summer12_DR53X-PU_S10_START53_V7A-v1/AODSIM/PAT_CMG_V5_16_0/cmgTuple_40_1_jhq.root
p336
(lp337
I01
aI10000
asV/store/cmst3/group/cmgtools/CMG/SUSYGluGluToHToTauTau_M-600_8TeV-pythia6-tauola/Summer12_DR53X-PU_S10_START53_V7A-v1/AODSIM/PAT_CMG_V5_16_0/cmgTuple_62_1_PhS.root
p338
(lp339
I01
aI10000
asV/store/cmst3/group/cmgtools/CMG/SUSYGluGluToHToTauTau_M-600_8TeV-pythia6-tauola/Summer12_DR53X-PU_S10_START53_V7A-v1/AODSIM/PAT_CMG_V5_16_0/cmgTuple_10_1_oav.root
p340
(lp341
I01
aI10000
asV/store/cmst3/group/cmgtools/CMG/SUSYGluGluToHToTauTau_M-600_8TeV-pythia6-tauola/Summer12_DR53X-PU_S10_START53_V7A-v1/AODSIM/PAT_CMG_V5_16_0/cmgTuple_97_1_PYP.root
p342
(lp343
I01
aI10000
asV/store/cmst3/group/cmgtools/CMG/SUSYGluGluToHToTauTau_M-600_8TeV-pythia6-tauola/Summer12_DR53X-PU_S10_START53_V7A-v1/AODSIM/PAT_CMG_V5_16_0/cmgTuple_6_1_YK0.root
p344
(lp345
I01
aI10000
asV/store/cmst3/group/cmgtools/CMG/SUSYGluGluToHToTauTau_M-600_8TeV-pythia6-tauola/Summer12_DR53X-PU_S10_START53_V7A-v1/AODSIM/PAT_CMG_V5_16_0/cmgTuple_39_1_pUb.root
p346
(lp347
I01
aI10000
asV/store/cmst3/group/cmgtools/CMG/SUSYGluGluToHToTauTau_M-600_8TeV-pythia6-tauola/Summer12_DR53X-PU_S10_START53_V7A-v1/AODSIM/PAT_CMG_V5_16_0/cmgTuple_50_1_3X5.root
p348
(lp349
I01
aI10000
asV/store/cmst3/group/cmgtools/CMG/SUSYGluGluToHToTauTau_M-600_8TeV-pythia6-tauola/Summer12_DR53X-PU_S10_START53_V7A-v1/AODSIM/PAT_CMG_V5_16_0/cmgTuple_84_1_ZtA.root
p350
(lp351
I01
aI10000
asV/store/cmst3/group/cmgtools/CMG/SUSYGluGluToHToTauTau_M-600_8TeV-pythia6-tauola/Summer12_DR53X-PU_S10_START53_V7A-v1/AODSIM/PAT_CMG_V5_16_0/cmgTuple_43_1_NTb.root
p352
(lp353
I01
aI10000
asV/store/cmst3/group/cmgtools/CMG/SUSYGluGluToHToTauTau_M-600_8TeV-pythia6-tauola/Summer12_DR53X-PU_S10_START53_V7A-v1/AODSIM/PAT_CMG_V5_16_0/cmgTuple_5_1_Zt0.root
p354
(lp355
I01
aI10000
asV/store/cmst3/group/cmgtools/CMG/SUSYGluGluToHToTauTau_M-600_8TeV-pythia6-tauola/Summer12_DR53X-PU_S10_START53_V7A-v1/AODSIM/PAT_CMG_V5_16_0/cmgTuple_35_1_Lge.root
p356
(lp357
I01
aI10000
asV/store/cmst3/group/cmgtools/CMG/SUSYGluGluToHToTauTau_M-600_8TeV-pythia6-tauola/Summer12_DR53X-PU_S10_START53_V7A-v1/AODSIM/PAT_CMG_V5_16_0/cmgTuple_16_1_MSN.root
p358
(lp359
I01
aI10000
asV/store/cmst3/group/cmgtools/CMG/SUSYGluGluToHToTauTau_M-600_8TeV-pythia6-tauola/Summer12_DR53X-PU_S10_START53_V7A-v1/AODSIM/PAT_CMG_V5_16_0/cmgTuple_9_1_0wd.root
p360
(lp361
I01
aI10000
asV/store/cmst3/group/cmgtools/CMG/SUSYGluGluToHToTauTau_M-600_8TeV-pythia6-tauola/Summer12_DR53X-PU_S10_START53_V7A-v1/AODSIM/PAT_CMG_V5_16_0/cmgTuple_94_1_EuP.root
p362
(lp363
I01
aI10000
asV/store/cmst3/group/cmgtools/CMG/SUSYGluGluToHToTauTau_M-600_8TeV-pythia6-tauola/Summer12_DR53X-PU_S10_START53_V7A-v1/AODSIM/PAT_CMG_V5_16_0/cmgTuple_49_1_nfq.root
p364
(lp365
I01
aI10000
assVPhysicsGroup
p366
VCMG
p367
sVFilesCount
p368
I98
sVFilesEntries
p369
I970316
sVRunList
p370
(lp371
sVValidDuplicates
p372
(dp373
sVPrimaryDataset
p374
V/SUSYGluGluToHToTauTau_M-600_8TeV-pythia6-tauola/Summer12_DR53X-PU_S10_START53_V7A-v1/AODSIM
p375
sVStatus
p376
VVALID
p377
sVName
p378
V/SUSYGluGluToHToTauTau_M-600_8TeV-pythia6-tauola/Summer12_DR53X-PU_S10_START53_V7A-v1/AODSIM/PAT_CMG_V5_16_0
p379
sVTopdir
p380
V/eos/cms/store/cmst3/group/cmgtools/CMG
p381
sVdata
p382
(dp383
sVFilesBad
p384
I0
sVMinRun
p385
I-1
sVAlgoList
p386
(lp387
sVTierList
p388
(lp389
sVDateCreated
p390
V1371077203
p391
sVCreatedBy
p392
Vcmgtools_group
p393
sVMaxRun
p394
I-1
sVBadJobs
p395
(lp396
I37
assg115
I01
ssS'MonitorJobs'
p397
(dp398
S'LSFJobStatus'
p399
(dp400
g118
S'SUSYBBHToTauTau_M-400_8TeV-pythia6-tauola/Summer12_DR53X-PU_S10_START53_V7A-v1/AODSIM/PAT_CMG_V5_16_0_1377467495/HTT_24Jul_newTES_manzoni_Up_Jobs/Job_13/LSFJOB_440972000/STDOUT.gz'
p401
sg119
S'SUSYBBHToTauTau_M-400_8TeV-pythia6-tauola/Summer12_DR53X-PU_S10_START53_V7A-v1/AODSIM/PAT_CMG_V5_16_0_1377467495/HTT_24Jul_newTES_manzoni_Up_Jobs/Job_12/LSFJOB_440971910/STDOUT.gz'
p402
sg120
S'SUSYBBHToTauTau_M-400_8TeV-pythia6-tauola/Summer12_DR53X-PU_S10_START53_V7A-v1/AODSIM/PAT_CMG_V5_16_0_1377467495/HTT_24Jul_newTES_manzoni_Up_Jobs/Job_11/LSFJOB_440971836/STDOUT.gz'
p403
sg121
S'SUSYBBHToTauTau_M-400_8TeV-pythia6-tauola/Summer12_DR53X-PU_S10_START53_V7A-v1/AODSIM/PAT_CMG_V5_16_0_1377467495/HTT_24Jul_newTES_manzoni_Up_Jobs/Job_10/LSFJOB_440971763/STDOUT.gz'
p404
sg122
S'SUSYBBHToTauTau_M-400_8TeV-pythia6-tauola/Summer12_DR53X-PU_S10_START53_V7A-v1/AODSIM/PAT_CMG_V5_16_0_1377467495/HTT_24Jul_newTES_manzoni_Up_Jobs/Job_17/LSFJOB_440972331/STDOUT.gz'
p405
sg123
S'SUSYBBHToTauTau_M-400_8TeV-pythia6-tauola/Summer12_DR53X-PU_S10_START53_V7A-v1/AODSIM/PAT_CMG_V5_16_0_1377467495/HTT_24Jul_newTES_manzoni_Up_Jobs/Job_16/LSFJOB_440972240/STDOUT.gz'
p406
sg124
S'SUSYBBHToTauTau_M-400_8TeV-pythia6-tauola/Summer12_DR53X-PU_S10_START53_V7A-v1/AODSIM/PAT_CMG_V5_16_0_1377467495/HTT_24Jul_newTES_manzoni_Up_Jobs/Job_15/LSFJOB_440972161/STDOUT.gz'
p407
sg125
S'SUSYBBHToTauTau_M-400_8TeV-pythia6-tauola/Summer12_DR53X-PU_S10_START53_V7A-v1/AODSIM/PAT_CMG_V5_16_0_1377467495/HTT_24Jul_newTES_manzoni_Up_Jobs/Job_14/LSFJOB_440972074/STDOUT.gz'
p408
sg126
S'SUSYBBHToTauTau_M-400_8TeV-pythia6-tauola/Summer12_DR53X-PU_S10_START53_V7A-v1/AODSIM/PAT_CMG_V5_16_0_1377467495/HTT_24Jul_newTES_manzoni_Up_Jobs/Job_19/LSFJOB_440972506/STDOUT.gz'
p409
sg127
S'SUSYBBHToTauTau_M-400_8TeV-pythia6-tauola/Summer12_DR53X-PU_S10_START53_V7A-v1/AODSIM/PAT_CMG_V5_16_0_1377467495/HTT_24Jul_newTES_manzoni_Up_Jobs/Job_18/LSFJOB_440972398/STDOUT.gz'
p410
sg128
S'SUSYBBHToTauTau_M-400_8TeV-pythia6-tauola/Summer12_DR53X-PU_S10_START53_V7A-v1/AODSIM/PAT_CMG_V5_16_0_1377467495/HTT_24Jul_newTES_manzoni_Up_Jobs/Job_9/LSFJOB_440971701/STDOUT.gz'
p411
sg129
S'SUSYBBHToTauTau_M-400_8TeV-pythia6-tauola/Summer12_DR53X-PU_S10_START53_V7A-v1/AODSIM/PAT_CMG_V5_16_0_1377467495/HTT_24Jul_newTES_manzoni_Up_Jobs/Job_8/LSFJOB_440971621/STDOUT.gz'
p412
sg130
S'SUSYBBHToTauTau_M-400_8TeV-pythia6-tauola/Summer12_DR53X-PU_S10_START53_V7A-v1/AODSIM/PAT_CMG_V5_16_0_1377467495/HTT_24Jul_newTES_manzoni_Up_Jobs/Job_7/LSFJOB_440971547/STDOUT.gz'
p413
sg131
S'SUSYBBHToTauTau_M-400_8TeV-pythia6-tauola/Summer12_DR53X-PU_S10_START53_V7A-v1/AODSIM/PAT_CMG_V5_16_0_1377467495/HTT_24Jul_newTES_manzoni_Up_Jobs/Job_6/LSFJOB_440971457/STDOUT.gz'
p414
sg132
S'SUSYBBHToTauTau_M-400_8TeV-pythia6-tauola/Summer12_DR53X-PU_S10_START53_V7A-v1/AODSIM/PAT_CMG_V5_16_0_1377467495/HTT_24Jul_newTES_manzoni_Up_Jobs/Job_5/LSFJOB_440971385/STDOUT.gz'
p415
sg133
S'SUSYBBHToTauTau_M-400_8TeV-pythia6-tauola/Summer12_DR53X-PU_S10_START53_V7A-v1/AODSIM/PAT_CMG_V5_16_0_1377467495/HTT_24Jul_newTES_manzoni_Up_Jobs/Job_4/LSFJOB_440971302/STDOUT.gz'
p416
sg134
S'SUSYBBHToTauTau_M-400_8TeV-pythia6-tauola/Summer12_DR53X-PU_S10_START53_V7A-v1/AODSIM/PAT_CMG_V5_16_0_1377467495/HTT_24Jul_newTES_manzoni_Up_Jobs/Job_3/LSFJOB_440971207/STDOUT.gz'
p417
sg135
S'SUSYBBHToTauTau_M-400_8TeV-pythia6-tauola/Summer12_DR53X-PU_S10_START53_V7A-v1/AODSIM/PAT_CMG_V5_16_0_1377467495/HTT_24Jul_newTES_manzoni_Up_Jobs/Job_2/LSFJOB_440971148/STDOUT.gz'
p418
sg136
S'SUSYBBHToTauTau_M-400_8TeV-pythia6-tauola/Summer12_DR53X-PU_S10_START53_V7A-v1/AODSIM/PAT_CMG_V5_16_0_1377467495/HTT_24Jul_newTES_manzoni_Up_Jobs/Job_1/LSFJOB_440971075/STDOUT.gz'
p419
sg137
S'SUSYBBHToTauTau_M-400_8TeV-pythia6-tauola/Summer12_DR53X-PU_S10_START53_V7A-v1/AODSIM/PAT_CMG_V5_16_0_1377467495/HTT_24Jul_newTES_manzoni_Up_Jobs/Job_26/LSFJOB_440973119/STDOUT.gz'
p420
sg138
S'SUSYBBHToTauTau_M-400_8TeV-pythia6-tauola/Summer12_DR53X-PU_S10_START53_V7A-v1/AODSIM/PAT_CMG_V5_16_0_1377467495/HTT_24Jul_newTES_manzoni_Up_Jobs/Job_27/LSFJOB_440973198/STDOUT.gz'
p421
sg139
S'SUSYBBHToTauTau_M-400_8TeV-pythia6-tauola/Summer12_DR53X-PU_S10_START53_V7A-v1/AODSIM/PAT_CMG_V5_16_0_1377467495/HTT_24Jul_newTES_manzoni_Up_Jobs/Job_24/LSFJOB_440972962/STDOUT.gz'
p422
sg140
S'SUSYBBHToTauTau_M-400_8TeV-pythia6-tauola/Summer12_DR53X-PU_S10_START53_V7A-v1/AODSIM/PAT_CMG_V5_16_0_1377467495/HTT_24Jul_newTES_manzoni_Up_Jobs/Job_25/LSFJOB_440973058/STDOUT.gz'
p423
sg141
S'SUSYBBHToTauTau_M-400_8TeV-pythia6-tauola/Summer12_DR53X-PU_S10_START53_V7A-v1/AODSIM/PAT_CMG_V5_16_0_1377467495/HTT_24Jul_newTES_manzoni_Up_Jobs/Job_22/LSFJOB_440972747/STDOUT.gz'
p424
sg142
S'SUSYBBHToTauTau_M-400_8TeV-pythia6-tauola/Summer12_DR53X-PU_S10_START53_V7A-v1/AODSIM/PAT_CMG_V5_16_0_1377467495/HTT_24Jul_newTES_manzoni_Up_Jobs/Job_23/LSFJOB_440972830/STDOUT.gz'
p425
sg143
S'SUSYBBHToTauTau_M-400_8TeV-pythia6-tauola/Summer12_DR53X-PU_S10_START53_V7A-v1/AODSIM/PAT_CMG_V5_16_0_1377467495/HTT_24Jul_newTES_manzoni_Up_Jobs/Job_20/LSFJOB_440972608/STDOUT.gz'
p426
sg144
S'SUSYBBHToTauTau_M-400_8TeV-pythia6-tauola/Summer12_DR53X-PU_S10_START53_V7A-v1/AODSIM/PAT_CMG_V5_16_0_1377467495/HTT_24Jul_newTES_manzoni_Up_Jobs/Job_21/LSFJOB_440972672/STDOUT.gz'
p427
sg145
S'SUSYBBHToTauTau_M-400_8TeV-pythia6-tauola/Summer12_DR53X-PU_S10_START53_V7A-v1/AODSIM/PAT_CMG_V5_16_0_1377467495/HTT_24Jul_newTES_manzoni_Up_Jobs/Job_28/LSFJOB_440973281/STDOUT.gz'
p428
sg146
S'SUSYBBHToTauTau_M-400_8TeV-pythia6-tauola/Summer12_DR53X-PU_S10_START53_V7A-v1/AODSIM/PAT_CMG_V5_16_0_1377467495/HTT_24Jul_newTES_manzoni_Up_Jobs/Job_29/LSFJOB_440973356/STDOUT.gz'
p429
sg147
S'SUSYBBHToTauTau_M-400_8TeV-pythia6-tauola/Summer12_DR53X-PU_S10_START53_V7A-v1/AODSIM/PAT_CMG_V5_16_0_1377467495/HTT_24Jul_newTES_manzoni_Up_Jobs/Job_31/LSFJOB_440973502/STDOUT.gz'
p430
sg148
S'SUSYBBHToTauTau_M-400_8TeV-pythia6-tauola/Summer12_DR53X-PU_S10_START53_V7A-v1/AODSIM/PAT_CMG_V5_16_0_1377467495/HTT_24Jul_newTES_manzoni_Up_Jobs/Job_30/LSFJOB_440973419/STDOUT.gz'
p431
sg149
S'SUSYBBHToTauTau_M-400_8TeV-pythia6-tauola/Summer12_DR53X-PU_S10_START53_V7A-v1/AODSIM/PAT_CMG_V5_16_0_1377467495/HTT_24Jul_newTES_manzoni_Up_Jobs/Job_33/LSFJOB_440973657/STDOUT.gz'
p432
sg150
S'SUSYBBHToTauTau_M-400_8TeV-pythia6-tauola/Summer12_DR53X-PU_S10_START53_V7A-v1/AODSIM/PAT_CMG_V5_16_0_1377467495/HTT_24Jul_newTES_manzoni_Up_Jobs/Job_32/LSFJOB_440973570/STDOUT.gz'
p433
sg151
S'SUSYBBHToTauTau_M-400_8TeV-pythia6-tauola/Summer12_DR53X-PU_S10_START53_V7A-v1/AODSIM/PAT_CMG_V5_16_0_1377467495/HTT_24Jul_newTES_manzoni_Up_Jobs/Job_34/LSFJOB_440973730/STDOUT.gz'
p434
ssS'LSFJobIDs'
p435
(dp436
g118
S'440972000'
p437
sg119
S'440971910'
p438
sg120
S'440971836'
p439
sg121
S'440971763'
p440
sg122
S'440972331'
p441
sg123
S'440972240'
p442
sg124
S'440972161'
p443
sg125
S'440972074'
p444
sg126
S'440972506'
p445
sg127
S'440972398'
p446
sg128
S'440971701'
p447
sg129
S'440971621'
p448
sg130
S'440971547'
p449
sg131
S'440971457'
p450
sg132
S'440971385'
p451
sg133
S'440971302'
p452
sg134
S'440971207'
p453
sg135
S'440971148'
p454
sg136
S'440971075'
p455
sg137
S'440973119'
p456
sg138
S'440973198'
p457
sg139
S'440972962'
p458
sg140
S'440973058'
p459
sg141
S'440972747'
p460
sg142
S'440972830'
p461
sg143
S'440972608'
p462
sg144
S'440972672'
p463
sg145
S'440973281'
p464
sg146
S'440973356'
p465
sg147
S'440973502'
p466
sg148
S'440973419'
p467
sg149
S'440973657'
p468
sg150
S'440973570'
p469
sg151
S'440973730'
p470
sssS'FindOnCastor'
p471
(dp472
g77
S'/eos/cms/store/cmst3/group/cmgtools/CMG'
p473
sS'Directory'
p474
S'/eos/cms/store/cmst3/group/cmgtools/CMG/SUSYBBHToTauTau_M-400_8TeV-pythia6-tauola/Summer12_DR53X-PU_S10_START53_V7A-v1/AODSIM/PAT_CMG_V5_16_0'
p475
ssS'CheckConfig'
p476
(dp477
g93
g94
ssS'FullCFG'
p478
(dp479
S'FullCFG'
p480
S'SUSYBBHToTauTau_M-400_8TeV-pythia6-tauola/Summer12_DR53X-PU_S10_START53_V7A-v1/AODSIM/PAT_CMG_V5_16_0_1377467495/full_cfg.py'
p481
ssS'WriteJobReport'
p482
(dp483
S'SummaryFile'
p484
S'SUSYBBHToTauTau_M-400_8TeV-pythia6-tauola/Summer12_DR53X-PU_S10_START53_V7A-v1/AODSIM/PAT_CMG_V5_16_0_1377467495/resubmit.sh'
p485
ssS'ExpandConfig'
p486
(dp487
S'ExpandedFullCFG'
p488
S'SUSYBBHToTauTau_M-400_8TeV-pythia6-tauola/Summer12_DR53X-PU_S10_START53_V7A-v1/AODSIM/PAT_CMG_V5_16_0_1377467495/Expandedfull_cfg.py'
p489
ssS'RunTestEvents'
p490
(dp491
g93
g94
sS'TestCFG'
p492
S'SUSYBBHToTauTau_M-400_8TeV-pythia6-tauola/Summer12_DR53X-PU_S10_START53_V7A-v1/AODSIM/PAT_CMG_V5_16_0_1377467495/test_cfg.py'
p493
ssS'SourceCFG'
p494
(dp495
S'SourceCFG'
p496
S'SUSYBBHToTauTau_M-400_8TeV-pythia6-tauola/Summer12_DR53X-PU_S10_START53_V7A-v1/AODSIM/PAT_CMG_V5_16_0_1377467495/source_cfg.py'
p497
ssS'CheckForWrite'
p498
(dp499
g474
g475
sS'WriteAccess'
p500
I01
ssS'WriteToDatasets'
p501
(dp502
S'Added'
p503
I00
sg75
S'/SUSYBBHToTauTau_M-400_8TeV-pythia6-tauola/Summer12_DR53X-PU_S10_START53_V7A-v1/AODSIM/PAT_CMG_V5_16_0/HTT_24Jul_newTES_manzoni_Up'
p504
sS'User'
p505
g108
ssS'RunCMSBatch'
p506
(dp507
S'BatchUser'
p508
g108
sS'SampleOutputDir'
p509
S'/store/cmst3/user/manzoni/CMG/SUSYBBHToTauTau_M-400_8TeV-pythia6-tauola/Summer12_DR53X-PU_S10_START53_V7A-v1/AODSIM/PAT_CMG_V5_16_0/HTT_24Jul_newTES_manzoni_Up'
p510
sS'SampleDataset'
p511
g76
sS'LSFJobsTopDir'
p512
S'SUSYBBHToTauTau_M-400_8TeV-pythia6-tauola/Summer12_DR53X-PU_S10_START53_V7A-v1/AODSIM/PAT_CMG_V5_16_0_1377467495/HTT_24Jul_newTES_manzoni_Up_Jobs'
p513
ssS'CreateJobDirectory'
p514
(dp515
S'JobDir'
p516
S'SUSYBBHToTauTau_M-400_8TeV-pythia6-tauola/Summer12_DR53X-PU_S10_START53_V7A-v1/AODSIM/PAT_CMG_V5_16_0_1377467495'
p517
sS'PWD'
p518
S'/afs/cern.ch/user/m/manzoni/summer13/CMGTools/CMSSW_5_3_9/src/CMGTools/H2TauTau/prod/25aug_corrMC/up/mc'
p519
ssS'CleanJobFiles'
p520
(dp521
S'Compressed'
p522
(dp523
S'CompressedFiles'
p524
(lp525
ssS'Cleaned'
p526
(dp527
S'CleanedFiles'
p528
(lp529
g489
ag493
aS'SUSYBBHToTauTau_M-400_8TeV-pythia6-tauola/Summer12_DR53X-PU_S10_START53_V7A-v1/AODSIM/PAT_CMG_V5_16_0_1377467495/diTau_fullsel_tree_CMG.root'
p530
aS'SUSYBBHToTauTau_M-400_8TeV-pythia6-tauola/Summer12_DR53X-PU_S10_START53_V7A-v1/AODSIM/PAT_CMG_V5_16_0_1377467495/source_cfg.pyc'
p531
aS'SUSYBBHToTauTau_M-400_8TeV-pythia6-tauola/Summer12_DR53X-PU_S10_START53_V7A-v1/AODSIM/PAT_CMG_V5_16_0_1377467495/Expandedfull_cfg.pyc'
p532
asssS'CheckForMask'
p533
(dp534
g3
g158
sg115
I01
ss.