(dp0
S'CheckJobStatus'
p1
(dp2
S'Report'
p3
(dp4
S'Files'
p5
(dp6
S'/store/cmst3/user/manzoni/CMG/GluGluToHToTauTau_M-105_8TeV-powheg-pythia6/Summer12_DR53X-PU_S10_START53_V7C-v1/AODSIM/PAT_CMG_V5_16_0/HTT_24Jul_newTES_manzoni_Up/diTau_fullsel_tree_CMG_17.root'
p7
(I01
I360
tp8
sS'/store/cmst3/user/manzoni/CMG/GluGluToHToTauTau_M-105_8TeV-powheg-pythia6/Summer12_DR53X-PU_S10_START53_V7C-v1/AODSIM/PAT_CMG_V5_16_0/HTT_24Jul_newTES_manzoni_Up/diTau_fullsel_tree_CMG_2.root'
p9
(I01
I318
tp10
sS'/store/cmst3/user/manzoni/CMG/GluGluToHToTauTau_M-105_8TeV-powheg-pythia6/Summer12_DR53X-PU_S10_START53_V7C-v1/AODSIM/PAT_CMG_V5_16_0/HTT_24Jul_newTES_manzoni_Up/diTau_fullsel_tree_CMG_12.root'
p11
(I01
I307
tp12
sS'/store/cmst3/user/manzoni/CMG/GluGluToHToTauTau_M-105_8TeV-powheg-pythia6/Summer12_DR53X-PU_S10_START53_V7C-v1/AODSIM/PAT_CMG_V5_16_0/HTT_24Jul_newTES_manzoni_Up/diTau_fullsel_tree_CMG_6.root'
p13
(I01
I324
tp14
sS'/store/cmst3/user/manzoni/CMG/GluGluToHToTauTau_M-105_8TeV-powheg-pythia6/Summer12_DR53X-PU_S10_START53_V7C-v1/AODSIM/PAT_CMG_V5_16_0/HTT_24Jul_newTES_manzoni_Up/diTau_fullsel_tree_CMG_5.root'
p15
(I01
I243
tp16
sS'/store/cmst3/user/manzoni/CMG/GluGluToHToTauTau_M-105_8TeV-powheg-pythia6/Summer12_DR53X-PU_S10_START53_V7C-v1/AODSIM/PAT_CMG_V5_16_0/HTT_24Jul_newTES_manzoni_Up/diTau_fullsel_tree_CMG_13.root'
p17
(I01
I278
tp18
sS'/store/cmst3/user/manzoni/CMG/GluGluToHToTauTau_M-105_8TeV-powheg-pythia6/Summer12_DR53X-PU_S10_START53_V7C-v1/AODSIM/PAT_CMG_V5_16_0/HTT_24Jul_newTES_manzoni_Up/diTau_fullsel_tree_CMG_10.root'
p19
(I01
I281
tp20
sS'/store/cmst3/user/manzoni/CMG/GluGluToHToTauTau_M-105_8TeV-powheg-pythia6/Summer12_DR53X-PU_S10_START53_V7C-v1/AODSIM/PAT_CMG_V5_16_0/HTT_24Jul_newTES_manzoni_Up/diTau_fullsel_tree_CMG_18.root'
p21
(I01
I327
tp22
sS'/store/cmst3/user/manzoni/CMG/GluGluToHToTauTau_M-105_8TeV-powheg-pythia6/Summer12_DR53X-PU_S10_START53_V7C-v1/AODSIM/PAT_CMG_V5_16_0/HTT_24Jul_newTES_manzoni_Up/diTau_fullsel_tree_CMG_20.root'
p23
(I01
I334
tp24
sS'/store/cmst3/user/manzoni/CMG/GluGluToHToTauTau_M-105_8TeV-powheg-pythia6/Summer12_DR53X-PU_S10_START53_V7C-v1/AODSIM/PAT_CMG_V5_16_0/HTT_24Jul_newTES_manzoni_Up/diTau_fullsel_tree_CMG_7.root'
p25
(I01
I327
tp26
sS'/store/cmst3/user/manzoni/CMG/GluGluToHToTauTau_M-105_8TeV-powheg-pythia6/Summer12_DR53X-PU_S10_START53_V7C-v1/AODSIM/PAT_CMG_V5_16_0/HTT_24Jul_newTES_manzoni_Up/diTau_fullsel_tree_CMG_9.root'
p27
(I01
I336
tp28
sS'/store/cmst3/user/manzoni/CMG/GluGluToHToTauTau_M-105_8TeV-powheg-pythia6/Summer12_DR53X-PU_S10_START53_V7C-v1/AODSIM/PAT_CMG_V5_16_0/HTT_24Jul_newTES_manzoni_Up/diTau_fullsel_tree_CMG_14.root'
p29
(I01
I280
tp30
sS'/store/cmst3/user/manzoni/CMG/GluGluToHToTauTau_M-105_8TeV-powheg-pythia6/Summer12_DR53X-PU_S10_START53_V7C-v1/AODSIM/PAT_CMG_V5_16_0/HTT_24Jul_newTES_manzoni_Up/diTau_fullsel_tree_CMG_11.root'
p31
(I01
I337
tp32
sS'/store/cmst3/user/manzoni/CMG/GluGluToHToTauTau_M-105_8TeV-powheg-pythia6/Summer12_DR53X-PU_S10_START53_V7C-v1/AODSIM/PAT_CMG_V5_16_0/HTT_24Jul_newTES_manzoni_Up/diTau_fullsel_tree_CMG_16.root'
p33
(I01
I292
tp34
sS'/store/cmst3/user/manzoni/CMG/GluGluToHToTauTau_M-105_8TeV-powheg-pythia6/Summer12_DR53X-PU_S10_START53_V7C-v1/AODSIM/PAT_CMG_V5_16_0/HTT_24Jul_newTES_manzoni_Up/diTau_fullsel_tree_CMG_3.root'
p35
(I01
I294
tp36
sS'/store/cmst3/user/manzoni/CMG/GluGluToHToTauTau_M-105_8TeV-powheg-pythia6/Summer12_DR53X-PU_S10_START53_V7C-v1/AODSIM/PAT_CMG_V5_16_0/HTT_24Jul_newTES_manzoni_Up/diTau_fullsel_tree_CMG_8.root'
p37
(I01
I302
tp38
sS'/store/cmst3/user/manzoni/CMG/GluGluToHToTauTau_M-105_8TeV-powheg-pythia6/Summer12_DR53X-PU_S10_START53_V7C-v1/AODSIM/PAT_CMG_V5_16_0/HTT_24Jul_newTES_manzoni_Up/diTau_fullsel_tree_CMG_1.root'
p39
(I01
I311
tp40
sS'/store/cmst3/user/manzoni/CMG/GluGluToHToTauTau_M-105_8TeV-powheg-pythia6/Summer12_DR53X-PU_S10_START53_V7C-v1/AODSIM/PAT_CMG_V5_16_0/HTT_24Jul_newTES_manzoni_Up/diTau_fullsel_tree_CMG_15.root'
p41
(I01
I305
tp42
sS'/store/cmst3/user/manzoni/CMG/GluGluToHToTauTau_M-105_8TeV-powheg-pythia6/Summer12_DR53X-PU_S10_START53_V7C-v1/AODSIM/PAT_CMG_V5_16_0/HTT_24Jul_newTES_manzoni_Up/diTau_fullsel_tree_CMG_19.root'
p43
(I01
I314
tp44
sS'/store/cmst3/user/manzoni/CMG/GluGluToHToTauTau_M-105_8TeV-powheg-pythia6/Summer12_DR53X-PU_S10_START53_V7C-v1/AODSIM/PAT_CMG_V5_16_0/HTT_24Jul_newTES_manzoni_Up/diTau_fullsel_tree_CMG_4.root'
p45
(I01
I282
tp46
ssS'Name'
p47
S'/GluGluToHToTauTau_M-105_8TeV-powheg-pythia6/Summer12_DR53X-PU_S10_START53_V7C-v1/AODSIM/PAT_CMG_V5_16_0/HTT_24Jul_newTES_manzoni_Up'
p48
sS'Topdir'
p49
S'/eos/cms/store/cmst3/user/manzoni/CMG'
p50
sS'RunList'
p51
(lp52
sS'PathList'
p53
(lp54
S'/store/cmst3/user/manzoni/CMG/GluGluToHToTauTau_M-105_8TeV-powheg-pythia6/Summer12_DR53X-PU_S10_START53_V7C-v1/AODSIM/PAT_CMG_V5_16_0/HTT_24Jul_newTES_manzoni_Up'
p55
asS'AlgoList'
p56
(lp57
sS'PrimaryDatasetFraction'
p58
F0.0061526029550895986
sS'FilesGood'
p59
I20
sS'PrimaryDatasetEntries'
p60
I999902
sS'data'
p61
(dp62
sS'FilesBad'
p63
I0
sS'ReportVersion'
p64
I3
sS'Status'
p65
S'VALID'
p66
sS'MaxRun'
p67
I-1
sS'PhysicsGroup'
p68
S'CMG'
p69
sS'MinRun'
p70
I-1
sS'StageHost'
p71
S'castorcms'
p72
sS'FilesCount'
p73
I20
sS'FilesEntries'
p74
I6152
sS'TierList'
p75
(lp76
sS'DateCreated'
p77
S'1377474352'
p78
sS'CreatedBy'
p79
S'manzoni'
p80
sS'ValidDuplicates'
p81
(dp82
sS'PrimaryDataset'
p83
S'/GluGluToHToTauTau_M-105_8TeV-powheg-pythia6/Summer12_DR53X-PU_S10_START53_V7C-v1/AODSIM'
p84
sS'BadJobs'
p85
(lp86
ssS'MaskPresent'
p87
I01
sS'LSFJobStatusCheck'
p88
(dp89
S'GluGluToHToTauTau_M-105_8TeV-powheg-pythia6/Summer12_DR53X-PU_S10_START53_V7C-v1/AODSIM/PAT_CMG_V5_16_0_1377467478/HTT_24Jul_newTES_manzoni_Up_Jobs/Job_5'
p90
g66
sS'GluGluToHToTauTau_M-105_8TeV-powheg-pythia6/Summer12_DR53X-PU_S10_START53_V7C-v1/AODSIM/PAT_CMG_V5_16_0_1377467478/HTT_24Jul_newTES_manzoni_Up_Jobs/Job_4'
p91
g66
sS'GluGluToHToTauTau_M-105_8TeV-powheg-pythia6/Summer12_DR53X-PU_S10_START53_V7C-v1/AODSIM/PAT_CMG_V5_16_0_1377467478/HTT_24Jul_newTES_manzoni_Up_Jobs/Job_7'
p92
g66
sS'GluGluToHToTauTau_M-105_8TeV-powheg-pythia6/Summer12_DR53X-PU_S10_START53_V7C-v1/AODSIM/PAT_CMG_V5_16_0_1377467478/HTT_24Jul_newTES_manzoni_Up_Jobs/Job_6'
p93
g66
sS'GluGluToHToTauTau_M-105_8TeV-powheg-pythia6/Summer12_DR53X-PU_S10_START53_V7C-v1/AODSIM/PAT_CMG_V5_16_0_1377467478/HTT_24Jul_newTES_manzoni_Up_Jobs/Job_1'
p94
g66
sS'GluGluToHToTauTau_M-105_8TeV-powheg-pythia6/Summer12_DR53X-PU_S10_START53_V7C-v1/AODSIM/PAT_CMG_V5_16_0_1377467478/HTT_24Jul_newTES_manzoni_Up_Jobs/Job_3'
p95
g66
sS'GluGluToHToTauTau_M-105_8TeV-powheg-pythia6/Summer12_DR53X-PU_S10_START53_V7C-v1/AODSIM/PAT_CMG_V5_16_0_1377467478/HTT_24Jul_newTES_manzoni_Up_Jobs/Job_2'
p96
g66
sS'GluGluToHToTauTau_M-105_8TeV-powheg-pythia6/Summer12_DR53X-PU_S10_START53_V7C-v1/AODSIM/PAT_CMG_V5_16_0_1377467478/HTT_24Jul_newTES_manzoni_Up_Jobs/Job_9'
p97
g66
sS'GluGluToHToTauTau_M-105_8TeV-powheg-pythia6/Summer12_DR53X-PU_S10_START53_V7C-v1/AODSIM/PAT_CMG_V5_16_0_1377467478/HTT_24Jul_newTES_manzoni_Up_Jobs/Job_8'
p98
g66
sS'GluGluToHToTauTau_M-105_8TeV-powheg-pythia6/Summer12_DR53X-PU_S10_START53_V7C-v1/AODSIM/PAT_CMG_V5_16_0_1377467478/HTT_24Jul_newTES_manzoni_Up_Jobs/Job_20'
p99
g66
sS'GluGluToHToTauTau_M-105_8TeV-powheg-pythia6/Summer12_DR53X-PU_S10_START53_V7C-v1/AODSIM/PAT_CMG_V5_16_0_1377467478/HTT_24Jul_newTES_manzoni_Up_Jobs/Job_19'
p100
g66
sS'GluGluToHToTauTau_M-105_8TeV-powheg-pythia6/Summer12_DR53X-PU_S10_START53_V7C-v1/AODSIM/PAT_CMG_V5_16_0_1377467478/HTT_24Jul_newTES_manzoni_Up_Jobs/Job_18'
p101
g66
sS'GluGluToHToTauTau_M-105_8TeV-powheg-pythia6/Summer12_DR53X-PU_S10_START53_V7C-v1/AODSIM/PAT_CMG_V5_16_0_1377467478/HTT_24Jul_newTES_manzoni_Up_Jobs/Job_15'
p102
g66
sS'GluGluToHToTauTau_M-105_8TeV-powheg-pythia6/Summer12_DR53X-PU_S10_START53_V7C-v1/AODSIM/PAT_CMG_V5_16_0_1377467478/HTT_24Jul_newTES_manzoni_Up_Jobs/Job_14'
p103
g66
sS'GluGluToHToTauTau_M-105_8TeV-powheg-pythia6/Summer12_DR53X-PU_S10_START53_V7C-v1/AODSIM/PAT_CMG_V5_16_0_1377467478/HTT_24Jul_newTES_manzoni_Up_Jobs/Job_17'
p104
g66
sS'GluGluToHToTauTau_M-105_8TeV-powheg-pythia6/Summer12_DR53X-PU_S10_START53_V7C-v1/AODSIM/PAT_CMG_V5_16_0_1377467478/HTT_24Jul_newTES_manzoni_Up_Jobs/Job_16'
p105
g66
sS'GluGluToHToTauTau_M-105_8TeV-powheg-pythia6/Summer12_DR53X-PU_S10_START53_V7C-v1/AODSIM/PAT_CMG_V5_16_0_1377467478/HTT_24Jul_newTES_manzoni_Up_Jobs/Job_11'
p106
g66
sS'GluGluToHToTauTau_M-105_8TeV-powheg-pythia6/Summer12_DR53X-PU_S10_START53_V7C-v1/AODSIM/PAT_CMG_V5_16_0_1377467478/HTT_24Jul_newTES_manzoni_Up_Jobs/Job_10'
p107
g66
sS'GluGluToHToTauTau_M-105_8TeV-powheg-pythia6/Summer12_DR53X-PU_S10_START53_V7C-v1/AODSIM/PAT_CMG_V5_16_0_1377467478/HTT_24Jul_newTES_manzoni_Up_Jobs/Job_13'
p108
g66
sS'GluGluToHToTauTau_M-105_8TeV-powheg-pythia6/Summer12_DR53X-PU_S10_START53_V7C-v1/AODSIM/PAT_CMG_V5_16_0_1377467478/HTT_24Jul_newTES_manzoni_Up_Jobs/Job_12'
p109
g66
sssS'CheckDatasetExists'
p110
(dp111
S'Dataset'
p112
S'/GluGluToHToTauTau_M-105_8TeV-powheg-pythia6/Summer12_DR53X-PU_S10_START53_V7C-v1/AODSIM/PAT_CMG_V5_16_0'
p113
ssS'GenerateMask'
p114
(dp115
g3
(dp116
VPathList
p117
(lp118
V/store/cmst3/group/cmgtools/CMG/GluGluToHToTauTau_M-110_8TeV-powheg-pythia6/Summer12_DR53X-PU_S10_START53_V7A-v1/AODSIM/PAT_CMG_V5_16_0
p119
asVStageHost
p120
Vcastorcms
p121
sVPrimaryDatasetFraction
p122
F1.0
sVFilesGood
p123
I102
sVPrimaryDatasetEntries
p124
I999907
sVReportVersion
p125
I3
sVFiles
p126
(dp127
V/store/cmst3/group/cmgtools/CMG/GluGluToHToTauTau_M-110_8TeV-powheg-pythia6/Summer12_DR53X-PU_S10_START53_V7A-v1/AODSIM/PAT_CMG_V5_16_0/cmgTuple_43_1_hzx.root
p128
(lp129
I01
aI10000
asV/store/cmst3/group/cmgtools/CMG/GluGluToHToTauTau_M-110_8TeV-powheg-pythia6/Summer12_DR53X-PU_S10_START53_V7A-v1/AODSIM/PAT_CMG_V5_16_0/cmgTuple_64_1_Mew.root
p130
(lp131
I01
aI10000
asV/store/cmst3/group/cmgtools/CMG/GluGluToHToTauTau_M-110_8TeV-powheg-pythia6/Summer12_DR53X-PU_S10_START53_V7A-v1/AODSIM/PAT_CMG_V5_16_0/cmgTuple_41_1_LPu.root
p132
(lp133
I01
aI10000
asV/store/cmst3/group/cmgtools/CMG/GluGluToHToTauTau_M-110_8TeV-powheg-pythia6/Summer12_DR53X-PU_S10_START53_V7A-v1/AODSIM/PAT_CMG_V5_16_0/cmgTuple_22_1_YyE.root
p134
(lp135
I01
aI10000
asV/store/cmst3/group/cmgtools/CMG/GluGluToHToTauTau_M-110_8TeV-powheg-pythia6/Summer12_DR53X-PU_S10_START53_V7A-v1/AODSIM/PAT_CMG_V5_16_0/cmgTuple_59_1_KjR.root
p136
(lp137
I01
aI10000
asV/store/cmst3/group/cmgtools/CMG/GluGluToHToTauTau_M-110_8TeV-powheg-pythia6/Summer12_DR53X-PU_S10_START53_V7A-v1/AODSIM/PAT_CMG_V5_16_0/cmgTuple_21_1_EdP.root
p138
(lp139
I01
aI10000
asV/store/cmst3/group/cmgtools/CMG/GluGluToHToTauTau_M-110_8TeV-powheg-pythia6/Summer12_DR53X-PU_S10_START53_V7A-v1/AODSIM/PAT_CMG_V5_16_0/cmgTuple_28_1_O41.root
p140
(lp141
I01
aI10000
asV/store/cmst3/group/cmgtools/CMG/GluGluToHToTauTau_M-110_8TeV-powheg-pythia6/Summer12_DR53X-PU_S10_START53_V7A-v1/AODSIM/PAT_CMG_V5_16_0/cmgTuple_18_1_PKK.root
p142
(lp143
I01
aI10000
asV/store/cmst3/group/cmgtools/CMG/GluGluToHToTauTau_M-110_8TeV-powheg-pythia6/Summer12_DR53X-PU_S10_START53_V7A-v1/AODSIM/PAT_CMG_V5_16_0/cmgTuple_14_1_B8Q.root
p144
(lp145
I01
aI10000
asV/store/cmst3/group/cmgtools/CMG/GluGluToHToTauTau_M-110_8TeV-powheg-pythia6/Summer12_DR53X-PU_S10_START53_V7A-v1/AODSIM/PAT_CMG_V5_16_0/cmgTuple_7_1_Xmf.root
p146
(lp147
I01
aI10000
asV/store/cmst3/group/cmgtools/CMG/GluGluToHToTauTau_M-110_8TeV-powheg-pythia6/Summer12_DR53X-PU_S10_START53_V7A-v1/AODSIM/PAT_CMG_V5_16_0/cmgTuple_12_1_Gjj.root
p148
(lp149
I01
aI10000
asV/store/cmst3/group/cmgtools/CMG/GluGluToHToTauTau_M-110_8TeV-powheg-pythia6/Summer12_DR53X-PU_S10_START53_V7A-v1/AODSIM/PAT_CMG_V5_16_0/cmgTuple_86_1_Wwx.root
p150
(lp151
I01
aI10000
asV/store/cmst3/group/cmgtools/CMG/GluGluToHToTauTau_M-110_8TeV-powheg-pythia6/Summer12_DR53X-PU_S10_START53_V7A-v1/AODSIM/PAT_CMG_V5_16_0/cmgTuple_39_1_k0J.root
p152
(lp153
I01
aI10000
asV/store/cmst3/group/cmgtools/CMG/GluGluToHToTauTau_M-110_8TeV-powheg-pythia6/Summer12_DR53X-PU_S10_START53_V7A-v1/AODSIM/PAT_CMG_V5_16_0/cmgTuple_80_1_QMS.root
p154
(lp155
I01
aI10000
asV/store/cmst3/group/cmgtools/CMG/GluGluToHToTauTau_M-110_8TeV-powheg-pythia6/Summer12_DR53X-PU_S10_START53_V7A-v1/AODSIM/PAT_CMG_V5_16_0/cmgTuple_29_1_J8W.root
p156
(lp157
I01
aI10000
asV/store/cmst3/group/cmgtools/CMG/GluGluToHToTauTau_M-110_8TeV-powheg-pythia6/Summer12_DR53X-PU_S10_START53_V7A-v1/AODSIM/PAT_CMG_V5_16_0/cmgTuple_8_1_OCL.root
p158
(lp159
I01
aI10000
asV/store/cmst3/group/cmgtools/CMG/GluGluToHToTauTau_M-110_8TeV-powheg-pythia6/Summer12_DR53X-PU_S10_START53_V7A-v1/AODSIM/PAT_CMG_V5_16_0/cmgTuple_13_1_29W.root
p160
(lp161
I01
aI10000
asV/store/cmst3/group/cmgtools/CMG/GluGluToHToTauTau_M-110_8TeV-powheg-pythia6/Summer12_DR53X-PU_S10_START53_V7A-v1/AODSIM/PAT_CMG_V5_16_0/cmgTuple_15_1_4zK.root
p162
(lp163
I01
aI10000
asV/store/cmst3/group/cmgtools/CMG/GluGluToHToTauTau_M-110_8TeV-powheg-pythia6/Summer12_DR53X-PU_S10_START53_V7A-v1/AODSIM/PAT_CMG_V5_16_0/cmgTuple_51_1_aN1.root
p164
(lp165
I01
aI10000
asV/store/cmst3/group/cmgtools/CMG/GluGluToHToTauTau_M-110_8TeV-powheg-pythia6/Summer12_DR53X-PU_S10_START53_V7A-v1/AODSIM/PAT_CMG_V5_16_0/cmgTuple_84_1_Pvt.root
p166
(lp167
I01
aI10000
asV/store/cmst3/group/cmgtools/CMG/GluGluToHToTauTau_M-110_8TeV-powheg-pythia6/Summer12_DR53X-PU_S10_START53_V7A-v1/AODSIM/PAT_CMG_V5_16_0/cmgTuple_25_1_VjT.root
p168
(lp169
I01
aI10000
asV/store/cmst3/group/cmgtools/CMG/GluGluToHToTauTau_M-110_8TeV-powheg-pythia6/Summer12_DR53X-PU_S10_START53_V7A-v1/AODSIM/PAT_CMG_V5_16_0/cmgTuple_78_1_c6D.root
p170
(lp171
I01
aI10000
asV/store/cmst3/group/cmgtools/CMG/GluGluToHToTauTau_M-110_8TeV-powheg-pythia6/Summer12_DR53X-PU_S10_START53_V7A-v1/AODSIM/PAT_CMG_V5_16_0/cmgTuple_77_1_eBq.root
p172
(lp173
I01
aI10000
asV/store/cmst3/group/cmgtools/CMG/GluGluToHToTauTau_M-110_8TeV-powheg-pythia6/Summer12_DR53X-PU_S10_START53_V7A-v1/AODSIM/PAT_CMG_V5_16_0/cmgTuple_74_1_agn.root
p174
(lp175
I01
aI10000
asV/store/cmst3/group/cmgtools/CMG/GluGluToHToTauTau_M-110_8TeV-powheg-pythia6/Summer12_DR53X-PU_S10_START53_V7A-v1/AODSIM/PAT_CMG_V5_16_0/cmgTuple_32_1_Z7A.root
p176
(lp177
I01
aI10000
asV/store/cmst3/group/cmgtools/CMG/GluGluToHToTauTau_M-110_8TeV-powheg-pythia6/Summer12_DR53X-PU_S10_START53_V7A-v1/AODSIM/PAT_CMG_V5_16_0/cmgTuple_3_1_jjB.root
p178
(lp179
I01
aI10000
asV/store/cmst3/group/cmgtools/CMG/GluGluToHToTauTau_M-110_8TeV-powheg-pythia6/Summer12_DR53X-PU_S10_START53_V7A-v1/AODSIM/PAT_CMG_V5_16_0/cmgTuple_6_1_KJZ.root
p180
(lp181
I01
aI10000
asV/store/cmst3/group/cmgtools/CMG/GluGluToHToTauTau_M-110_8TeV-powheg-pythia6/Summer12_DR53X-PU_S10_START53_V7A-v1/AODSIM/PAT_CMG_V5_16_0/cmgTuple_100_1_DOE.root
p182
(lp183
I01
aI10000
asV/store/cmst3/group/cmgtools/CMG/GluGluToHToTauTau_M-110_8TeV-powheg-pythia6/Summer12_DR53X-PU_S10_START53_V7A-v1/AODSIM/PAT_CMG_V5_16_0/cmgTuple_49_1_H89.root
p184
(lp185
I01
aI10000
asV/store/cmst3/group/cmgtools/CMG/GluGluToHToTauTau_M-110_8TeV-powheg-pythia6/Summer12_DR53X-PU_S10_START53_V7A-v1/AODSIM/PAT_CMG_V5_16_0/cmgTuple_16_1_N6W.root
p186
(lp187
I01
aI10000
asV/store/cmst3/group/cmgtools/CMG/GluGluToHToTauTau_M-110_8TeV-powheg-pythia6/Summer12_DR53X-PU_S10_START53_V7A-v1/AODSIM/PAT_CMG_V5_16_0/cmgTuple_102_1_PT5.root
p188
(lp189
I01
aI3394
asV/store/cmst3/group/cmgtools/CMG/GluGluToHToTauTau_M-110_8TeV-powheg-pythia6/Summer12_DR53X-PU_S10_START53_V7A-v1/AODSIM/PAT_CMG_V5_16_0/cmgTuple_9_1_rU5.root
p190
(lp191
I01
aI10000
asV/store/cmst3/group/cmgtools/CMG/GluGluToHToTauTau_M-110_8TeV-powheg-pythia6/Summer12_DR53X-PU_S10_START53_V7A-v1/AODSIM/PAT_CMG_V5_16_0/cmgTuple_58_1_sv6.root
p192
(lp193
I01
aI10000
asV/store/cmst3/group/cmgtools/CMG/GluGluToHToTauTau_M-110_8TeV-powheg-pythia6/Summer12_DR53X-PU_S10_START53_V7A-v1/AODSIM/PAT_CMG_V5_16_0/cmgTuple_89_1_PpM.root
p194
(lp195
I01
aI10000
asV/store/cmst3/group/cmgtools/CMG/GluGluToHToTauTau_M-110_8TeV-powheg-pythia6/Summer12_DR53X-PU_S10_START53_V7A-v1/AODSIM/PAT_CMG_V5_16_0/cmgTuple_10_1_1cV.root
p196
(lp197
I01
aI10000
asV/store/cmst3/group/cmgtools/CMG/GluGluToHToTauTau_M-110_8TeV-powheg-pythia6/Summer12_DR53X-PU_S10_START53_V7A-v1/AODSIM/PAT_CMG_V5_16_0/cmgTuple_68_1_Qil.root
p198
(lp199
I01
aI10000
asV/store/cmst3/group/cmgtools/CMG/GluGluToHToTauTau_M-110_8TeV-powheg-pythia6/Summer12_DR53X-PU_S10_START53_V7A-v1/AODSIM/PAT_CMG_V5_16_0/cmgTuple_96_1_Yv1.root
p200
(lp201
I01
aI5714
asV/store/cmst3/group/cmgtools/CMG/GluGluToHToTauTau_M-110_8TeV-powheg-pythia6/Summer12_DR53X-PU_S10_START53_V7A-v1/AODSIM/PAT_CMG_V5_16_0/cmgTuple_17_1_FNl.root
p202
(lp203
I01
aI10000
asV/store/cmst3/group/cmgtools/CMG/GluGluToHToTauTau_M-110_8TeV-powheg-pythia6/Summer12_DR53X-PU_S10_START53_V7A-v1/AODSIM/PAT_CMG_V5_16_0/cmgTuple_101_1_dao.root
p204
(lp205
I01
aI10000
asV/store/cmst3/group/cmgtools/CMG/GluGluToHToTauTau_M-110_8TeV-powheg-pythia6/Summer12_DR53X-PU_S10_START53_V7A-v1/AODSIM/PAT_CMG_V5_16_0/cmgTuple_71_1_cee.root
p206
(lp207
I01
aI10000
asV/store/cmst3/group/cmgtools/CMG/GluGluToHToTauTau_M-110_8TeV-powheg-pythia6/Summer12_DR53X-PU_S10_START53_V7A-v1/AODSIM/PAT_CMG_V5_16_0/cmgTuple_53_1_9Yd.root
p208
(lp209
I01
aI10000
asV/store/cmst3/group/cmgtools/CMG/GluGluToHToTauTau_M-110_8TeV-powheg-pythia6/Summer12_DR53X-PU_S10_START53_V7A-v1/AODSIM/PAT_CMG_V5_16_0/cmgTuple_62_1_APt.root
p210
(lp211
I01
aI10000
asV/store/cmst3/group/cmgtools/CMG/GluGluToHToTauTau_M-110_8TeV-powheg-pythia6/Summer12_DR53X-PU_S10_START53_V7A-v1/AODSIM/PAT_CMG_V5_16_0/cmgTuple_20_1_UMY.root
p212
(lp213
I01
aI10000
asV/store/cmst3/group/cmgtools/CMG/GluGluToHToTauTau_M-110_8TeV-powheg-pythia6/Summer12_DR53X-PU_S10_START53_V7A-v1/AODSIM/PAT_CMG_V5_16_0/cmgTuple_37_1_ML2.root
p214
(lp215
I01
aI10000
asV/store/cmst3/group/cmgtools/CMG/GluGluToHToTauTau_M-110_8TeV-powheg-pythia6/Summer12_DR53X-PU_S10_START53_V7A-v1/AODSIM/PAT_CMG_V5_16_0/cmgTuple_65_1_cqw.root
p216
(lp217
I01
aI10000
asV/store/cmst3/group/cmgtools/CMG/GluGluToHToTauTau_M-110_8TeV-powheg-pythia6/Summer12_DR53X-PU_S10_START53_V7A-v1/AODSIM/PAT_CMG_V5_16_0/cmgTuple_99_1_0md.root
p218
(lp219
I01
aI10000
asV/store/cmst3/group/cmgtools/CMG/GluGluToHToTauTau_M-110_8TeV-powheg-pythia6/Summer12_DR53X-PU_S10_START53_V7A-v1/AODSIM/PAT_CMG_V5_16_0/cmgTuple_40_1_EMc.root
p220
(lp221
I01
aI10000
asV/store/cmst3/group/cmgtools/CMG/GluGluToHToTauTau_M-110_8TeV-powheg-pythia6/Summer12_DR53X-PU_S10_START53_V7A-v1/AODSIM/PAT_CMG_V5_16_0/cmgTuple_91_1_77f.root
p222
(lp223
I01
aI10000
asV/store/cmst3/group/cmgtools/CMG/GluGluToHToTauTau_M-110_8TeV-powheg-pythia6/Summer12_DR53X-PU_S10_START53_V7A-v1/AODSIM/PAT_CMG_V5_16_0/cmgTuple_61_1_H2Q.root
p224
(lp225
I01
aI10000
asV/store/cmst3/group/cmgtools/CMG/GluGluToHToTauTau_M-110_8TeV-powheg-pythia6/Summer12_DR53X-PU_S10_START53_V7A-v1/AODSIM/PAT_CMG_V5_16_0/cmgTuple_87_1_J1c.root
p226
(lp227
I01
aI10000
asV/store/cmst3/group/cmgtools/CMG/GluGluToHToTauTau_M-110_8TeV-powheg-pythia6/Summer12_DR53X-PU_S10_START53_V7A-v1/AODSIM/PAT_CMG_V5_16_0/cmgTuple_92_1_K8y.root
p228
(lp229
I01
aI10000
asV/store/cmst3/group/cmgtools/CMG/GluGluToHToTauTau_M-110_8TeV-powheg-pythia6/Summer12_DR53X-PU_S10_START53_V7A-v1/AODSIM/PAT_CMG_V5_16_0/cmgTuple_4_1_UDU.root
p230
(lp231
I01
aI10000
asV/store/cmst3/group/cmgtools/CMG/GluGluToHToTauTau_M-110_8TeV-powheg-pythia6/Summer12_DR53X-PU_S10_START53_V7A-v1/AODSIM/PAT_CMG_V5_16_0/cmgTuple_30_1_YCr.root
p232
(lp233
I01
aI10000
asV/store/cmst3/group/cmgtools/CMG/GluGluToHToTauTau_M-110_8TeV-powheg-pythia6/Summer12_DR53X-PU_S10_START53_V7A-v1/AODSIM/PAT_CMG_V5_16_0/cmgTuple_88_1_OBM.root
p234
(lp235
I01
aI10000
asV/store/cmst3/group/cmgtools/CMG/GluGluToHToTauTau_M-110_8TeV-powheg-pythia6/Summer12_DR53X-PU_S10_START53_V7A-v1/AODSIM/PAT_CMG_V5_16_0/cmgTuple_33_1_XIA.root
p236
(lp237
I01
aI10000
asV/store/cmst3/group/cmgtools/CMG/GluGluToHToTauTau_M-110_8TeV-powheg-pythia6/Summer12_DR53X-PU_S10_START53_V7A-v1/AODSIM/PAT_CMG_V5_16_0/cmgTuple_38_1_x4d.root
p238
(lp239
I01
aI10000
asV/store/cmst3/group/cmgtools/CMG/GluGluToHToTauTau_M-110_8TeV-powheg-pythia6/Summer12_DR53X-PU_S10_START53_V7A-v1/AODSIM/PAT_CMG_V5_16_0/cmgTuple_70_1_XpE.root
p240
(lp241
I01
aI10000
asV/store/cmst3/group/cmgtools/CMG/GluGluToHToTauTau_M-110_8TeV-powheg-pythia6/Summer12_DR53X-PU_S10_START53_V7A-v1/AODSIM/PAT_CMG_V5_16_0/cmgTuple_35_1_OJ8.root
p242
(lp243
I01
aI10000
asV/store/cmst3/group/cmgtools/CMG/GluGluToHToTauTau_M-110_8TeV-powheg-pythia6/Summer12_DR53X-PU_S10_START53_V7A-v1/AODSIM/PAT_CMG_V5_16_0/cmgTuple_56_1_dBV.root
p244
(lp245
I01
aI10000
asV/store/cmst3/group/cmgtools/CMG/GluGluToHToTauTau_M-110_8TeV-powheg-pythia6/Summer12_DR53X-PU_S10_START53_V7A-v1/AODSIM/PAT_CMG_V5_16_0/cmgTuple_73_1_PVY.root
p246
(lp247
I01
aI10000
asV/store/cmst3/group/cmgtools/CMG/GluGluToHToTauTau_M-110_8TeV-powheg-pythia6/Summer12_DR53X-PU_S10_START53_V7A-v1/AODSIM/PAT_CMG_V5_16_0/cmgTuple_26_1_31B.root
p248
(lp249
I01
aI10000
asV/store/cmst3/group/cmgtools/CMG/GluGluToHToTauTau_M-110_8TeV-powheg-pythia6/Summer12_DR53X-PU_S10_START53_V7A-v1/AODSIM/PAT_CMG_V5_16_0/cmgTuple_67_1_Hyj.root
p250
(lp251
I01
aI10000
asV/store/cmst3/group/cmgtools/CMG/GluGluToHToTauTau_M-110_8TeV-powheg-pythia6/Summer12_DR53X-PU_S10_START53_V7A-v1/AODSIM/PAT_CMG_V5_16_0/cmgTuple_2_1_1Rk.root
p252
(lp253
I01
aI799
asV/store/cmst3/group/cmgtools/CMG/GluGluToHToTauTau_M-110_8TeV-powheg-pythia6/Summer12_DR53X-PU_S10_START53_V7A-v1/AODSIM/PAT_CMG_V5_16_0/cmgTuple_66_1_nYB.root
p254
(lp255
I01
aI10000
asV/store/cmst3/group/cmgtools/CMG/GluGluToHToTauTau_M-110_8TeV-powheg-pythia6/Summer12_DR53X-PU_S10_START53_V7A-v1/AODSIM/PAT_CMG_V5_16_0/cmgTuple_34_1_Iyc.root
p256
(lp257
I01
aI10000
asV/store/cmst3/group/cmgtools/CMG/GluGluToHToTauTau_M-110_8TeV-powheg-pythia6/Summer12_DR53X-PU_S10_START53_V7A-v1/AODSIM/PAT_CMG_V5_16_0/cmgTuple_85_1_gb5.root
p258
(lp259
I01
aI10000
asV/store/cmst3/group/cmgtools/CMG/GluGluToHToTauTau_M-110_8TeV-powheg-pythia6/Summer12_DR53X-PU_S10_START53_V7A-v1/AODSIM/PAT_CMG_V5_16_0/cmgTuple_79_1_QJO.root
p260
(lp261
I01
aI10000
asV/store/cmst3/group/cmgtools/CMG/GluGluToHToTauTau_M-110_8TeV-powheg-pythia6/Summer12_DR53X-PU_S10_START53_V7A-v1/AODSIM/PAT_CMG_V5_16_0/cmgTuple_48_1_r9s.root
p262
(lp263
I01
aI10000
asV/store/cmst3/group/cmgtools/CMG/GluGluToHToTauTau_M-110_8TeV-powheg-pythia6/Summer12_DR53X-PU_S10_START53_V7A-v1/AODSIM/PAT_CMG_V5_16_0/cmgTuple_55_1_gGo.root
p264
(lp265
I01
aI10000
asV/store/cmst3/group/cmgtools/CMG/GluGluToHToTauTau_M-110_8TeV-powheg-pythia6/Summer12_DR53X-PU_S10_START53_V7A-v1/AODSIM/PAT_CMG_V5_16_0/cmgTuple_82_1_4Jr.root
p266
(lp267
I01
aI10000
asV/store/cmst3/group/cmgtools/CMG/GluGluToHToTauTau_M-110_8TeV-powheg-pythia6/Summer12_DR53X-PU_S10_START53_V7A-v1/AODSIM/PAT_CMG_V5_16_0/cmgTuple_36_1_8Yj.root
p268
(lp269
I01
aI10000
asV/store/cmst3/group/cmgtools/CMG/GluGluToHToTauTau_M-110_8TeV-powheg-pythia6/Summer12_DR53X-PU_S10_START53_V7A-v1/AODSIM/PAT_CMG_V5_16_0/cmgTuple_54_1_EIh.root
p270
(lp271
I01
aI10000
asV/store/cmst3/group/cmgtools/CMG/GluGluToHToTauTau_M-110_8TeV-powheg-pythia6/Summer12_DR53X-PU_S10_START53_V7A-v1/AODSIM/PAT_CMG_V5_16_0/cmgTuple_24_1_wt5.root
p272
(lp273
I01
aI10000
asV/store/cmst3/group/cmgtools/CMG/GluGluToHToTauTau_M-110_8TeV-powheg-pythia6/Summer12_DR53X-PU_S10_START53_V7A-v1/AODSIM/PAT_CMG_V5_16_0/cmgTuple_72_1_GXB.root
p274
(lp275
I01
aI10000
asV/store/cmst3/group/cmgtools/CMG/GluGluToHToTauTau_M-110_8TeV-powheg-pythia6/Summer12_DR53X-PU_S10_START53_V7A-v1/AODSIM/PAT_CMG_V5_16_0/cmgTuple_47_1_RQV.root
p276
(lp277
I01
aI10000
asV/store/cmst3/group/cmgtools/CMG/GluGluToHToTauTau_M-110_8TeV-powheg-pythia6/Summer12_DR53X-PU_S10_START53_V7A-v1/AODSIM/PAT_CMG_V5_16_0/cmgTuple_19_1_4Fe.root
p278
(lp279
I01
aI10000
asV/store/cmst3/group/cmgtools/CMG/GluGluToHToTauTau_M-110_8TeV-powheg-pythia6/Summer12_DR53X-PU_S10_START53_V7A-v1/AODSIM/PAT_CMG_V5_16_0/cmgTuple_1_1_HDb.root
p280
(lp281
I01
aI10000
asV/store/cmst3/group/cmgtools/CMG/GluGluToHToTauTau_M-110_8TeV-powheg-pythia6/Summer12_DR53X-PU_S10_START53_V7A-v1/AODSIM/PAT_CMG_V5_16_0/cmgTuple_98_1_I0I.root
p282
(lp283
I01
aI10000
asV/store/cmst3/group/cmgtools/CMG/GluGluToHToTauTau_M-110_8TeV-powheg-pythia6/Summer12_DR53X-PU_S10_START53_V7A-v1/AODSIM/PAT_CMG_V5_16_0/cmgTuple_42_1_QRI.root
p284
(lp285
I01
aI10000
asV/store/cmst3/group/cmgtools/CMG/GluGluToHToTauTau_M-110_8TeV-powheg-pythia6/Summer12_DR53X-PU_S10_START53_V7A-v1/AODSIM/PAT_CMG_V5_16_0/cmgTuple_31_1_BCz.root
p286
(lp287
I01
aI10000
asV/store/cmst3/group/cmgtools/CMG/GluGluToHToTauTau_M-110_8TeV-powheg-pythia6/Summer12_DR53X-PU_S10_START53_V7A-v1/AODSIM/PAT_CMG_V5_16_0/cmgTuple_52_1_mEG.root
p288
(lp289
I01
aI10000
asV/store/cmst3/group/cmgtools/CMG/GluGluToHToTauTau_M-110_8TeV-powheg-pythia6/Summer12_DR53X-PU_S10_START53_V7A-v1/AODSIM/PAT_CMG_V5_16_0/cmgTuple_27_1_6Xh.root
p290
(lp291
I01
aI10000
asV/store/cmst3/group/cmgtools/CMG/GluGluToHToTauTau_M-110_8TeV-powheg-pythia6/Summer12_DR53X-PU_S10_START53_V7A-v1/AODSIM/PAT_CMG_V5_16_0/cmgTuple_94_1_iag.root
p292
(lp293
I01
aI10000
asV/store/cmst3/group/cmgtools/CMG/GluGluToHToTauTau_M-110_8TeV-powheg-pythia6/Summer12_DR53X-PU_S10_START53_V7A-v1/AODSIM/PAT_CMG_V5_16_0/cmgTuple_63_1_wr3.root
p294
(lp295
I01
aI10000
asV/store/cmst3/group/cmgtools/CMG/GluGluToHToTauTau_M-110_8TeV-powheg-pythia6/Summer12_DR53X-PU_S10_START53_V7A-v1/AODSIM/PAT_CMG_V5_16_0/cmgTuple_81_1_Qrk.root
p296
(lp297
I01
aI10000
asV/store/cmst3/group/cmgtools/CMG/GluGluToHToTauTau_M-110_8TeV-powheg-pythia6/Summer12_DR53X-PU_S10_START53_V7A-v1/AODSIM/PAT_CMG_V5_16_0/cmgTuple_83_1_lkD.root
p298
(lp299
I01
aI10000
asV/store/cmst3/group/cmgtools/CMG/GluGluToHToTauTau_M-110_8TeV-powheg-pythia6/Summer12_DR53X-PU_S10_START53_V7A-v1/AODSIM/PAT_CMG_V5_16_0/cmgTuple_97_1_nWN.root
p300
(lp301
I01
aI10000
asV/store/cmst3/group/cmgtools/CMG/GluGluToHToTauTau_M-110_8TeV-powheg-pythia6/Summer12_DR53X-PU_S10_START53_V7A-v1/AODSIM/PAT_CMG_V5_16_0/cmgTuple_69_1_hbP.root
p302
(lp303
I01
aI10000
asV/store/cmst3/group/cmgtools/CMG/GluGluToHToTauTau_M-110_8TeV-powheg-pythia6/Summer12_DR53X-PU_S10_START53_V7A-v1/AODSIM/PAT_CMG_V5_16_0/cmgTuple_23_1_42w.root
p304
(lp305
I01
aI10000
asV/store/cmst3/group/cmgtools/CMG/GluGluToHToTauTau_M-110_8TeV-powheg-pythia6/Summer12_DR53X-PU_S10_START53_V7A-v1/AODSIM/PAT_CMG_V5_16_0/cmgTuple_45_1_HOX.root
p306
(lp307
I01
aI10000
asV/store/cmst3/group/cmgtools/CMG/GluGluToHToTauTau_M-110_8TeV-powheg-pythia6/Summer12_DR53X-PU_S10_START53_V7A-v1/AODSIM/PAT_CMG_V5_16_0/cmgTuple_11_1_lTs.root
p308
(lp309
I01
aI10000
asV/store/cmst3/group/cmgtools/CMG/GluGluToHToTauTau_M-110_8TeV-powheg-pythia6/Summer12_DR53X-PU_S10_START53_V7A-v1/AODSIM/PAT_CMG_V5_16_0/cmgTuple_57_1_jVl.root
p310
(lp311
I01
aI10000
asV/store/cmst3/group/cmgtools/CMG/GluGluToHToTauTau_M-110_8TeV-powheg-pythia6/Summer12_DR53X-PU_S10_START53_V7A-v1/AODSIM/PAT_CMG_V5_16_0/cmgTuple_95_1_YQo.root
p312
(lp313
I01
aI10000
asV/store/cmst3/group/cmgtools/CMG/GluGluToHToTauTau_M-110_8TeV-powheg-pythia6/Summer12_DR53X-PU_S10_START53_V7A-v1/AODSIM/PAT_CMG_V5_16_0/cmgTuple_5_1_2gR.root
p314
(lp315
I01
aI10000
asV/store/cmst3/group/cmgtools/CMG/GluGluToHToTauTau_M-110_8TeV-powheg-pythia6/Summer12_DR53X-PU_S10_START53_V7A-v1/AODSIM/PAT_CMG_V5_16_0/cmgTuple_90_1_sKq.root
p316
(lp317
I01
aI10000
asV/store/cmst3/group/cmgtools/CMG/GluGluToHToTauTau_M-110_8TeV-powheg-pythia6/Summer12_DR53X-PU_S10_START53_V7A-v1/AODSIM/PAT_CMG_V5_16_0/cmgTuple_76_1_vUA.root
p318
(lp319
I01
aI10000
asV/store/cmst3/group/cmgtools/CMG/GluGluToHToTauTau_M-110_8TeV-powheg-pythia6/Summer12_DR53X-PU_S10_START53_V7A-v1/AODSIM/PAT_CMG_V5_16_0/cmgTuple_50_1_RwH.root
p320
(lp321
I01
aI10000
asV/store/cmst3/group/cmgtools/CMG/GluGluToHToTauTau_M-110_8TeV-powheg-pythia6/Summer12_DR53X-PU_S10_START53_V7A-v1/AODSIM/PAT_CMG_V5_16_0/cmgTuple_75_1_uLB.root
p322
(lp323
I01
aI10000
asV/store/cmst3/group/cmgtools/CMG/GluGluToHToTauTau_M-110_8TeV-powheg-pythia6/Summer12_DR53X-PU_S10_START53_V7A-v1/AODSIM/PAT_CMG_V5_16_0/cmgTuple_44_1_WYu.root
p324
(lp325
I01
aI10000
asV/store/cmst3/group/cmgtools/CMG/GluGluToHToTauTau_M-110_8TeV-powheg-pythia6/Summer12_DR53X-PU_S10_START53_V7A-v1/AODSIM/PAT_CMG_V5_16_0/cmgTuple_46_1_DUj.root
p326
(lp327
I01
aI10000
asV/store/cmst3/group/cmgtools/CMG/GluGluToHToTauTau_M-110_8TeV-powheg-pythia6/Summer12_DR53X-PU_S10_START53_V7A-v1/AODSIM/PAT_CMG_V5_16_0/cmgTuple_93_1_1wx.root
p328
(lp329
I01
aI10000
asV/store/cmst3/group/cmgtools/CMG/GluGluToHToTauTau_M-110_8TeV-powheg-pythia6/Summer12_DR53X-PU_S10_START53_V7A-v1/AODSIM/PAT_CMG_V5_16_0/cmgTuple_60_1_h8e.root
p330
(lp331
I01
aI10000
assVPhysicsGroup
p332
VCMG
p333
sVFilesCount
p334
I102
sVFilesEntries
p335
I999907
sVRunList
p336
(lp337
sVValidDuplicates
p338
(dp339
sVPrimaryDataset
p340
V/GluGluToHToTauTau_M-110_8TeV-powheg-pythia6/Summer12_DR53X-PU_S10_START53_V7A-v1/AODSIM
p341
sVStatus
p342
VVALID
p343
sVName
p344
V/GluGluToHToTauTau_M-110_8TeV-powheg-pythia6/Summer12_DR53X-PU_S10_START53_V7A-v1/AODSIM/PAT_CMG_V5_16_0
p345
sVTopdir
p346
V/eos/cms/store/cmst3/group/cmgtools/CMG
p347
sVdata
p348
(dp349
sVFilesBad
p350
I0
sVMinRun
p351
I-1
sVAlgoList
p352
(lp353
sVTierList
p354
(lp355
sVDateCreated
p356
V1370943231
p357
sVCreatedBy
p358
Vcmgtools_group
p359
sVMaxRun
p360
I-1
sVBadJobs
p361
(lp362
ssg87
I01
ssS'MonitorJobs'
p363
(dp364
S'LSFJobStatus'
p365
(dp366
g90
S'GluGluToHToTauTau_M-105_8TeV-powheg-pythia6/Summer12_DR53X-PU_S10_START53_V7C-v1/AODSIM/PAT_CMG_V5_16_0_1377467478/HTT_24Jul_newTES_manzoni_Up_Jobs/Job_5/LSFJOB_440972482/STDOUT.gz'
p367
sg91
S'GluGluToHToTauTau_M-105_8TeV-powheg-pythia6/Summer12_DR53X-PU_S10_START53_V7C-v1/AODSIM/PAT_CMG_V5_16_0_1377467478/HTT_24Jul_newTES_manzoni_Up_Jobs/Job_4/LSFJOB_440972400/STDOUT.gz'
p368
sg92
S'GluGluToHToTauTau_M-105_8TeV-powheg-pythia6/Summer12_DR53X-PU_S10_START53_V7C-v1/AODSIM/PAT_CMG_V5_16_0_1377467478/HTT_24Jul_newTES_manzoni_Up_Jobs/Job_7/LSFJOB_440972677/STDOUT.gz'
p369
sg93
S'GluGluToHToTauTau_M-105_8TeV-powheg-pythia6/Summer12_DR53X-PU_S10_START53_V7C-v1/AODSIM/PAT_CMG_V5_16_0_1377467478/HTT_24Jul_newTES_manzoni_Up_Jobs/Job_6/LSFJOB_440972582/STDOUT.gz'
p370
sg94
S'GluGluToHToTauTau_M-105_8TeV-powheg-pythia6/Summer12_DR53X-PU_S10_START53_V7C-v1/AODSIM/PAT_CMG_V5_16_0_1377467478/HTT_24Jul_newTES_manzoni_Up_Jobs/Job_1/LSFJOB_440972124/STDOUT.gz'
p371
sg95
S'GluGluToHToTauTau_M-105_8TeV-powheg-pythia6/Summer12_DR53X-PU_S10_START53_V7C-v1/AODSIM/PAT_CMG_V5_16_0_1377467478/HTT_24Jul_newTES_manzoni_Up_Jobs/Job_3/LSFJOB_440972309/STDOUT.gz'
p372
sg96
S'GluGluToHToTauTau_M-105_8TeV-powheg-pythia6/Summer12_DR53X-PU_S10_START53_V7C-v1/AODSIM/PAT_CMG_V5_16_0_1377467478/HTT_24Jul_newTES_manzoni_Up_Jobs/Job_2/LSFJOB_440972219/STDOUT.gz'
p373
sg97
S'GluGluToHToTauTau_M-105_8TeV-powheg-pythia6/Summer12_DR53X-PU_S10_START53_V7C-v1/AODSIM/PAT_CMG_V5_16_0_1377467478/HTT_24Jul_newTES_manzoni_Up_Jobs/Job_9/LSFJOB_440972858/STDOUT.gz'
p374
sg98
S'GluGluToHToTauTau_M-105_8TeV-powheg-pythia6/Summer12_DR53X-PU_S10_START53_V7C-v1/AODSIM/PAT_CMG_V5_16_0_1377467478/HTT_24Jul_newTES_manzoni_Up_Jobs/Job_8/LSFJOB_440972751/STDOUT.gz'
p375
sg99
S'GluGluToHToTauTau_M-105_8TeV-powheg-pythia6/Summer12_DR53X-PU_S10_START53_V7C-v1/AODSIM/PAT_CMG_V5_16_0_1377467478/HTT_24Jul_newTES_manzoni_Up_Jobs/Job_20/LSFJOB_440973584/STDOUT.gz'
p376
sg100
S'GluGluToHToTauTau_M-105_8TeV-powheg-pythia6/Summer12_DR53X-PU_S10_START53_V7C-v1/AODSIM/PAT_CMG_V5_16_0_1377467478/HTT_24Jul_newTES_manzoni_Up_Jobs/Job_19/LSFJOB_440973546/STDOUT.gz'
p377
sg101
S'GluGluToHToTauTau_M-105_8TeV-powheg-pythia6/Summer12_DR53X-PU_S10_START53_V7C-v1/AODSIM/PAT_CMG_V5_16_0_1377467478/HTT_24Jul_newTES_manzoni_Up_Jobs/Job_18/LSFJOB_440973482/STDOUT.gz'
p378
sg102
S'GluGluToHToTauTau_M-105_8TeV-powheg-pythia6/Summer12_DR53X-PU_S10_START53_V7C-v1/AODSIM/PAT_CMG_V5_16_0_1377467478/HTT_24Jul_newTES_manzoni_Up_Jobs/Job_15/LSFJOB_440973337/STDOUT.gz'
p379
sg103
S'GluGluToHToTauTau_M-105_8TeV-powheg-pythia6/Summer12_DR53X-PU_S10_START53_V7C-v1/AODSIM/PAT_CMG_V5_16_0_1377467478/HTT_24Jul_newTES_manzoni_Up_Jobs/Job_14/LSFJOB_440973303/STDOUT.gz'
p380
sg104
S'GluGluToHToTauTau_M-105_8TeV-powheg-pythia6/Summer12_DR53X-PU_S10_START53_V7C-v1/AODSIM/PAT_CMG_V5_16_0_1377467478/HTT_24Jul_newTES_manzoni_Up_Jobs/Job_17/LSFJOB_440973420/STDOUT.gz'
p381
sg105
S'GluGluToHToTauTau_M-105_8TeV-powheg-pythia6/Summer12_DR53X-PU_S10_START53_V7C-v1/AODSIM/PAT_CMG_V5_16_0_1377467478/HTT_24Jul_newTES_manzoni_Up_Jobs/Job_16/LSFJOB_440973392/STDOUT.gz'
p382
sg106
S'GluGluToHToTauTau_M-105_8TeV-powheg-pythia6/Summer12_DR53X-PU_S10_START53_V7C-v1/AODSIM/PAT_CMG_V5_16_0_1377467478/HTT_24Jul_newTES_manzoni_Up_Jobs/Job_11/LSFJOB_440973069/STDOUT.gz'
p383
sg107
S'GluGluToHToTauTau_M-105_8TeV-powheg-pythia6/Summer12_DR53X-PU_S10_START53_V7C-v1/AODSIM/PAT_CMG_V5_16_0_1377467478/HTT_24Jul_newTES_manzoni_Up_Jobs/Job_10/LSFJOB_440972958/STDOUT.gz'
p384
sg108
S'GluGluToHToTauTau_M-105_8TeV-powheg-pythia6/Summer12_DR53X-PU_S10_START53_V7C-v1/AODSIM/PAT_CMG_V5_16_0_1377467478/HTT_24Jul_newTES_manzoni_Up_Jobs/Job_13/LSFJOB_440973234/STDOUT.gz'
p385
sg109
S'GluGluToHToTauTau_M-105_8TeV-powheg-pythia6/Summer12_DR53X-PU_S10_START53_V7C-v1/AODSIM/PAT_CMG_V5_16_0_1377467478/HTT_24Jul_newTES_manzoni_Up_Jobs/Job_12/LSFJOB_440973159/STDOUT.gz'
p386
ssS'LSFJobIDs'
p387
(dp388
g90
S'440972482'
p389
sg91
S'440972400'
p390
sg92
S'440972677'
p391
sg93
S'440972582'
p392
sg94
S'440972124'
p393
sg95
S'440972309'
p394
sg96
S'440972219'
p395
sg97
S'440972858'
p396
sg98
S'440972751'
p397
sg99
S'440973584'
p398
sg100
S'440973546'
p399
sg101
S'440973482'
p400
sg102
S'440973337'
p401
sg103
S'440973303'
p402
sg104
S'440973420'
p403
sg105
S'440973392'
p404
sg106
S'440973069'
p405
sg107
S'440972958'
p406
sg108
S'440973234'
p407
sg109
S'440973159'
p408
sssS'FindOnCastor'
p409
(dp410
g49
S'/eos/cms/store/cmst3/group/cmgtools/CMG'
p411
sS'Directory'
p412
S'/eos/cms/store/cmst3/group/cmgtools/CMG/GluGluToHToTauTau_M-105_8TeV-powheg-pythia6/Summer12_DR53X-PU_S10_START53_V7C-v1/AODSIM/PAT_CMG_V5_16_0'
p413
ssS'CheckConfig'
p414
(dp415
g65
g66
ssS'FullCFG'
p416
(dp417
S'FullCFG'
p418
S'GluGluToHToTauTau_M-105_8TeV-powheg-pythia6/Summer12_DR53X-PU_S10_START53_V7C-v1/AODSIM/PAT_CMG_V5_16_0_1377467478/full_cfg.py'
p419
ssS'WriteJobReport'
p420
(dp421
S'SummaryFile'
p422
S'GluGluToHToTauTau_M-105_8TeV-powheg-pythia6/Summer12_DR53X-PU_S10_START53_V7C-v1/AODSIM/PAT_CMG_V5_16_0_1377467478/resubmit.sh'
p423
ssS'ExpandConfig'
p424
(dp425
S'ExpandedFullCFG'
p426
S'GluGluToHToTauTau_M-105_8TeV-powheg-pythia6/Summer12_DR53X-PU_S10_START53_V7C-v1/AODSIM/PAT_CMG_V5_16_0_1377467478/Expandedfull_cfg.py'
p427
ssS'RunTestEvents'
p428
(dp429
g65
g66
sS'TestCFG'
p430
S'GluGluToHToTauTau_M-105_8TeV-powheg-pythia6/Summer12_DR53X-PU_S10_START53_V7C-v1/AODSIM/PAT_CMG_V5_16_0_1377467478/test_cfg.py'
p431
ssS'SourceCFG'
p432
(dp433
S'SourceCFG'
p434
S'GluGluToHToTauTau_M-105_8TeV-powheg-pythia6/Summer12_DR53X-PU_S10_START53_V7C-v1/AODSIM/PAT_CMG_V5_16_0_1377467478/source_cfg.py'
p435
ssS'CheckForWrite'
p436
(dp437
g412
g413
sS'WriteAccess'
p438
I01
ssS'WriteToDatasets'
p439
(dp440
S'Added'
p441
I00
sg47
S'/GluGluToHToTauTau_M-105_8TeV-powheg-pythia6/Summer12_DR53X-PU_S10_START53_V7C-v1/AODSIM/PAT_CMG_V5_16_0/HTT_24Jul_newTES_manzoni_Up'
p442
sS'User'
p443
g80
ssS'RunCMSBatch'
p444
(dp445
S'BatchUser'
p446
g80
sS'SampleOutputDir'
p447
S'/store/cmst3/user/manzoni/CMG/GluGluToHToTauTau_M-105_8TeV-powheg-pythia6/Summer12_DR53X-PU_S10_START53_V7C-v1/AODSIM/PAT_CMG_V5_16_0/HTT_24Jul_newTES_manzoni_Up'
p448
sS'SampleDataset'
p449
g48
sS'LSFJobsTopDir'
p450
S'GluGluToHToTauTau_M-105_8TeV-powheg-pythia6/Summer12_DR53X-PU_S10_START53_V7C-v1/AODSIM/PAT_CMG_V5_16_0_1377467478/HTT_24Jul_newTES_manzoni_Up_Jobs'
p451
ssS'CreateJobDirectory'
p452
(dp453
S'JobDir'
p454
S'GluGluToHToTauTau_M-105_8TeV-powheg-pythia6/Summer12_DR53X-PU_S10_START53_V7C-v1/AODSIM/PAT_CMG_V5_16_0_1377467478'
p455
sS'PWD'
p456
S'/afs/cern.ch/user/m/manzoni/summer13/CMGTools/CMSSW_5_3_9/src/CMGTools/H2TauTau/prod/25aug_corrMC/up/mc'
p457
ssS'CleanJobFiles'
p458
(dp459
S'Compressed'
p460
(dp461
S'CompressedFiles'
p462
(lp463
ssS'Cleaned'
p464
(dp465
S'CleanedFiles'
p466
(lp467
g427
ag431
aS'GluGluToHToTauTau_M-105_8TeV-powheg-pythia6/Summer12_DR53X-PU_S10_START53_V7C-v1/AODSIM/PAT_CMG_V5_16_0_1377467478/diTau_fullsel_tree_CMG.root'
p468
aS'GluGluToHToTauTau_M-105_8TeV-powheg-pythia6/Summer12_DR53X-PU_S10_START53_V7C-v1/AODSIM/PAT_CMG_V5_16_0_1377467478/source_cfg.pyc'
p469
aS'GluGluToHToTauTau_M-105_8TeV-powheg-pythia6/Summer12_DR53X-PU_S10_START53_V7C-v1/AODSIM/PAT_CMG_V5_16_0_1377467478/Expandedfull_cfg.pyc'
p470
asssS'CheckForMask'
p471
(dp472
g3
g116
sg87
I01
ss.