(dp0
S'CheckJobStatus'
p1
(dp2
S'Report'
p3
(dp4
S'Files'
p5
(dp6
S'/store/cmst3/user/manzoni/CMG/GluGluToHToTauTau_M-145_8TeV-powheg-pythia6/Summer12_DR53X-PU_S10_START53_V7A-v1/AODSIM/PAT_CMG_V5_16_0/HTT_24Jul_newTES_manzoni_Up/diTau_fullsel_tree_CMG_9.root'
p7
(I01
I2019
tp8
sS'/store/cmst3/user/manzoni/CMG/GluGluToHToTauTau_M-145_8TeV-powheg-pythia6/Summer12_DR53X-PU_S10_START53_V7A-v1/AODSIM/PAT_CMG_V5_16_0/HTT_24Jul_newTES_manzoni_Up/diTau_fullsel_tree_CMG_18.root'
p9
(I01
I1938
tp10
sS'/store/cmst3/user/manzoni/CMG/GluGluToHToTauTau_M-145_8TeV-powheg-pythia6/Summer12_DR53X-PU_S10_START53_V7A-v1/AODSIM/PAT_CMG_V5_16_0/HTT_24Jul_newTES_manzoni_Up/diTau_fullsel_tree_CMG_11.root'
p11
(I01
I1864
tp12
sS'/store/cmst3/user/manzoni/CMG/GluGluToHToTauTau_M-145_8TeV-powheg-pythia6/Summer12_DR53X-PU_S10_START53_V7A-v1/AODSIM/PAT_CMG_V5_16_0/HTT_24Jul_newTES_manzoni_Up/diTau_fullsel_tree_CMG_12.root'
p13
(I01
I2008
tp14
sS'/store/cmst3/user/manzoni/CMG/GluGluToHToTauTau_M-145_8TeV-powheg-pythia6/Summer12_DR53X-PU_S10_START53_V7A-v1/AODSIM/PAT_CMG_V5_16_0/HTT_24Jul_newTES_manzoni_Up/diTau_fullsel_tree_CMG_5.root'
p15
(I01
I2012
tp16
sS'/store/cmst3/user/manzoni/CMG/GluGluToHToTauTau_M-145_8TeV-powheg-pythia6/Summer12_DR53X-PU_S10_START53_V7A-v1/AODSIM/PAT_CMG_V5_16_0/HTT_24Jul_newTES_manzoni_Up/diTau_fullsel_tree_CMG_8.root'
p17
(I01
I2003
tp18
sS'/store/cmst3/user/manzoni/CMG/GluGluToHToTauTau_M-145_8TeV-powheg-pythia6/Summer12_DR53X-PU_S10_START53_V7A-v1/AODSIM/PAT_CMG_V5_16_0/HTT_24Jul_newTES_manzoni_Up/diTau_fullsel_tree_CMG_15.root'
p19
(I01
I2037
tp20
sS'/store/cmst3/user/manzoni/CMG/GluGluToHToTauTau_M-145_8TeV-powheg-pythia6/Summer12_DR53X-PU_S10_START53_V7A-v1/AODSIM/PAT_CMG_V5_16_0/HTT_24Jul_newTES_manzoni_Up/diTau_fullsel_tree_CMG_1.root'
p21
(I01
I2024
tp22
sS'/store/cmst3/user/manzoni/CMG/GluGluToHToTauTau_M-145_8TeV-powheg-pythia6/Summer12_DR53X-PU_S10_START53_V7A-v1/AODSIM/PAT_CMG_V5_16_0/HTT_24Jul_newTES_manzoni_Up/diTau_fullsel_tree_CMG_10.root'
p23
(I01
I2013
tp24
sS'/store/cmst3/user/manzoni/CMG/GluGluToHToTauTau_M-145_8TeV-powheg-pythia6/Summer12_DR53X-PU_S10_START53_V7A-v1/AODSIM/PAT_CMG_V5_16_0/HTT_24Jul_newTES_manzoni_Up/diTau_fullsel_tree_CMG_3.root'
p25
(I01
I1756
tp26
sS'/store/cmst3/user/manzoni/CMG/GluGluToHToTauTau_M-145_8TeV-powheg-pythia6/Summer12_DR53X-PU_S10_START53_V7A-v1/AODSIM/PAT_CMG_V5_16_0/HTT_24Jul_newTES_manzoni_Up/diTau_fullsel_tree_CMG_17.root'
p27
(I01
I2021
tp28
sS'/store/cmst3/user/manzoni/CMG/GluGluToHToTauTau_M-145_8TeV-powheg-pythia6/Summer12_DR53X-PU_S10_START53_V7A-v1/AODSIM/PAT_CMG_V5_16_0/HTT_24Jul_newTES_manzoni_Up/diTau_fullsel_tree_CMG_6.root'
p29
(I01
I2006
tp30
sS'/store/cmst3/user/manzoni/CMG/GluGluToHToTauTau_M-145_8TeV-powheg-pythia6/Summer12_DR53X-PU_S10_START53_V7A-v1/AODSIM/PAT_CMG_V5_16_0/HTT_24Jul_newTES_manzoni_Up/diTau_fullsel_tree_CMG_20.root'
p31
(I01
I942
tp32
sS'/store/cmst3/user/manzoni/CMG/GluGluToHToTauTau_M-145_8TeV-powheg-pythia6/Summer12_DR53X-PU_S10_START53_V7A-v1/AODSIM/PAT_CMG_V5_16_0/HTT_24Jul_newTES_manzoni_Up/diTau_fullsel_tree_CMG_16.root'
p33
(I01
I2013
tp34
sS'/store/cmst3/user/manzoni/CMG/GluGluToHToTauTau_M-145_8TeV-powheg-pythia6/Summer12_DR53X-PU_S10_START53_V7A-v1/AODSIM/PAT_CMG_V5_16_0/HTT_24Jul_newTES_manzoni_Up/diTau_fullsel_tree_CMG_2.root'
p35
(I01
I2010
tp36
sS'/store/cmst3/user/manzoni/CMG/GluGluToHToTauTau_M-145_8TeV-powheg-pythia6/Summer12_DR53X-PU_S10_START53_V7A-v1/AODSIM/PAT_CMG_V5_16_0/HTT_24Jul_newTES_manzoni_Up/diTau_fullsel_tree_CMG_4.root'
p37
(I01
I2118
tp38
sS'/store/cmst3/user/manzoni/CMG/GluGluToHToTauTau_M-145_8TeV-powheg-pythia6/Summer12_DR53X-PU_S10_START53_V7A-v1/AODSIM/PAT_CMG_V5_16_0/HTT_24Jul_newTES_manzoni_Up/diTau_fullsel_tree_CMG_7.root'
p39
(I01
I1992
tp40
sS'/store/cmst3/user/manzoni/CMG/GluGluToHToTauTau_M-145_8TeV-powheg-pythia6/Summer12_DR53X-PU_S10_START53_V7A-v1/AODSIM/PAT_CMG_V5_16_0/HTT_24Jul_newTES_manzoni_Up/diTau_fullsel_tree_CMG_19.root'
p41
(I01
I2076
tp42
sS'/store/cmst3/user/manzoni/CMG/GluGluToHToTauTau_M-145_8TeV-powheg-pythia6/Summer12_DR53X-PU_S10_START53_V7A-v1/AODSIM/PAT_CMG_V5_16_0/HTT_24Jul_newTES_manzoni_Up/diTau_fullsel_tree_CMG_13.root'
p43
(I01
I2024
tp44
sS'/store/cmst3/user/manzoni/CMG/GluGluToHToTauTau_M-145_8TeV-powheg-pythia6/Summer12_DR53X-PU_S10_START53_V7A-v1/AODSIM/PAT_CMG_V5_16_0/HTT_24Jul_newTES_manzoni_Up/diTau_fullsel_tree_CMG_14.root'
p45
(I01
I2079
tp46
ssS'Name'
p47
S'/GluGluToHToTauTau_M-145_8TeV-powheg-pythia6/Summer12_DR53X-PU_S10_START53_V7A-v1/AODSIM/PAT_CMG_V5_16_0/HTT_24Jul_newTES_manzoni_Up'
p48
sS'Topdir'
p49
S'/eos/cms/store/cmst3/user/manzoni/CMG'
p50
sS'RunList'
p51
(lp52
sS'PathList'
p53
(lp54
S'/store/cmst3/user/manzoni/CMG/GluGluToHToTauTau_M-145_8TeV-powheg-pythia6/Summer12_DR53X-PU_S10_START53_V7A-v1/AODSIM/PAT_CMG_V5_16_0/HTT_24Jul_newTES_manzoni_Up'
p55
asS'AlgoList'
p56
(lp57
sS'PrimaryDatasetFraction'
p58
F0.040488754509577299
sS'FilesGood'
p59
I20
sS'PrimaryDatasetEntries'
p60
I962119
sS'data'
p61
(dp62
sS'FilesBad'
p63
I0
sS'ReportVersion'
p64
I3
sS'Status'
p65
S'VALID'
p66
sS'MaxRun'
p67
I-1
sS'PhysicsGroup'
p68
S'CMG'
p69
sS'MinRun'
p70
I-1
sS'StageHost'
p71
S'castorcms'
p72
sS'FilesCount'
p73
I20
sS'FilesEntries'
p74
I38955
sS'TierList'
p75
(lp76
sS'DateCreated'
p77
S'1377473296'
p78
sS'CreatedBy'
p79
S'manzoni'
p80
sS'ValidDuplicates'
p81
(dp82
sS'PrimaryDataset'
p83
S'/GluGluToHToTauTau_M-145_8TeV-powheg-pythia6/Summer12_DR53X-PU_S10_START53_V7A-v1/AODSIM'
p84
sS'BadJobs'
p85
(lp86
ssS'MaskPresent'
p87
I01
sS'LSFJobStatusCheck'
p88
(dp89
S'GluGluToHToTauTau_M-145_8TeV-powheg-pythia6/Summer12_DR53X-PU_S10_START53_V7A-v1/AODSIM/PAT_CMG_V5_16_0_1377467472/HTT_24Jul_newTES_manzoni_Up_Jobs/Job_9'
p90
g66
sS'GluGluToHToTauTau_M-145_8TeV-powheg-pythia6/Summer12_DR53X-PU_S10_START53_V7A-v1/AODSIM/PAT_CMG_V5_16_0_1377467472/HTT_24Jul_newTES_manzoni_Up_Jobs/Job_8'
p91
g66
sS'GluGluToHToTauTau_M-145_8TeV-powheg-pythia6/Summer12_DR53X-PU_S10_START53_V7A-v1/AODSIM/PAT_CMG_V5_16_0_1377467472/HTT_24Jul_newTES_manzoni_Up_Jobs/Job_20'
p92
g66
sS'GluGluToHToTauTau_M-145_8TeV-powheg-pythia6/Summer12_DR53X-PU_S10_START53_V7A-v1/AODSIM/PAT_CMG_V5_16_0_1377467472/HTT_24Jul_newTES_manzoni_Up_Jobs/Job_4'
p93
g66
sS'GluGluToHToTauTau_M-145_8TeV-powheg-pythia6/Summer12_DR53X-PU_S10_START53_V7A-v1/AODSIM/PAT_CMG_V5_16_0_1377467472/HTT_24Jul_newTES_manzoni_Up_Jobs/Job_7'
p94
g66
sS'GluGluToHToTauTau_M-145_8TeV-powheg-pythia6/Summer12_DR53X-PU_S10_START53_V7A-v1/AODSIM/PAT_CMG_V5_16_0_1377467472/HTT_24Jul_newTES_manzoni_Up_Jobs/Job_6'
p95
g66
sS'GluGluToHToTauTau_M-145_8TeV-powheg-pythia6/Summer12_DR53X-PU_S10_START53_V7A-v1/AODSIM/PAT_CMG_V5_16_0_1377467472/HTT_24Jul_newTES_manzoni_Up_Jobs/Job_1'
p96
g66
sS'GluGluToHToTauTau_M-145_8TeV-powheg-pythia6/Summer12_DR53X-PU_S10_START53_V7A-v1/AODSIM/PAT_CMG_V5_16_0_1377467472/HTT_24Jul_newTES_manzoni_Up_Jobs/Job_3'
p97
g66
sS'GluGluToHToTauTau_M-145_8TeV-powheg-pythia6/Summer12_DR53X-PU_S10_START53_V7A-v1/AODSIM/PAT_CMG_V5_16_0_1377467472/HTT_24Jul_newTES_manzoni_Up_Jobs/Job_2'
p98
g66
sS'GluGluToHToTauTau_M-145_8TeV-powheg-pythia6/Summer12_DR53X-PU_S10_START53_V7A-v1/AODSIM/PAT_CMG_V5_16_0_1377467472/HTT_24Jul_newTES_manzoni_Up_Jobs/Job_15'
p99
g66
sS'GluGluToHToTauTau_M-145_8TeV-powheg-pythia6/Summer12_DR53X-PU_S10_START53_V7A-v1/AODSIM/PAT_CMG_V5_16_0_1377467472/HTT_24Jul_newTES_manzoni_Up_Jobs/Job_14'
p100
g66
sS'GluGluToHToTauTau_M-145_8TeV-powheg-pythia6/Summer12_DR53X-PU_S10_START53_V7A-v1/AODSIM/PAT_CMG_V5_16_0_1377467472/HTT_24Jul_newTES_manzoni_Up_Jobs/Job_17'
p101
g66
sS'GluGluToHToTauTau_M-145_8TeV-powheg-pythia6/Summer12_DR53X-PU_S10_START53_V7A-v1/AODSIM/PAT_CMG_V5_16_0_1377467472/HTT_24Jul_newTES_manzoni_Up_Jobs/Job_16'
p102
g66
sS'GluGluToHToTauTau_M-145_8TeV-powheg-pythia6/Summer12_DR53X-PU_S10_START53_V7A-v1/AODSIM/PAT_CMG_V5_16_0_1377467472/HTT_24Jul_newTES_manzoni_Up_Jobs/Job_11'
p103
g66
sS'GluGluToHToTauTau_M-145_8TeV-powheg-pythia6/Summer12_DR53X-PU_S10_START53_V7A-v1/AODSIM/PAT_CMG_V5_16_0_1377467472/HTT_24Jul_newTES_manzoni_Up_Jobs/Job_10'
p104
g66
sS'GluGluToHToTauTau_M-145_8TeV-powheg-pythia6/Summer12_DR53X-PU_S10_START53_V7A-v1/AODSIM/PAT_CMG_V5_16_0_1377467472/HTT_24Jul_newTES_manzoni_Up_Jobs/Job_13'
p105
g66
sS'GluGluToHToTauTau_M-145_8TeV-powheg-pythia6/Summer12_DR53X-PU_S10_START53_V7A-v1/AODSIM/PAT_CMG_V5_16_0_1377467472/HTT_24Jul_newTES_manzoni_Up_Jobs/Job_12'
p106
g66
sS'GluGluToHToTauTau_M-145_8TeV-powheg-pythia6/Summer12_DR53X-PU_S10_START53_V7A-v1/AODSIM/PAT_CMG_V5_16_0_1377467472/HTT_24Jul_newTES_manzoni_Up_Jobs/Job_5'
p107
g66
sS'GluGluToHToTauTau_M-145_8TeV-powheg-pythia6/Summer12_DR53X-PU_S10_START53_V7A-v1/AODSIM/PAT_CMG_V5_16_0_1377467472/HTT_24Jul_newTES_manzoni_Up_Jobs/Job_19'
p108
g66
sS'GluGluToHToTauTau_M-145_8TeV-powheg-pythia6/Summer12_DR53X-PU_S10_START53_V7A-v1/AODSIM/PAT_CMG_V5_16_0_1377467472/HTT_24Jul_newTES_manzoni_Up_Jobs/Job_18'
p109
g66
sssS'CheckDatasetExists'
p110
(dp111
S'Dataset'
p112
S'/GluGluToHToTauTau_M-145_8TeV-powheg-pythia6/Summer12_DR53X-PU_S10_START53_V7A-v1/AODSIM/PAT_CMG_V5_16_0'
p113
ssS'GenerateMask'
p114
(dp115
g3
(dp116
VPathList
p117
(lp118
V/store/cmst3/group/cmgtools/CMG/GluGluToHToTauTau_M-145_8TeV-powheg-pythia6/Summer12_DR53X-PU_S10_START53_V7A-v1/AODSIM/PAT_CMG_V5_16_0
p119
asVStageHost
p120
Vcastorcms
p121
sVPrimaryDatasetFraction
p122
F1.0
sVFilesGood
p123
I98
sVPrimaryDatasetEntries
p124
I962119
sVReportVersion
p125
I3
sVFiles
p126
(dp127
V/store/cmst3/group/cmgtools/CMG/GluGluToHToTauTau_M-145_8TeV-powheg-pythia6/Summer12_DR53X-PU_S10_START53_V7A-v1/AODSIM/PAT_CMG_V5_16_0/cmgTuple_59_1_EFo.root
p128
(lp129
I01
aI10000
asV/store/cmst3/group/cmgtools/CMG/GluGluToHToTauTau_M-145_8TeV-powheg-pythia6/Summer12_DR53X-PU_S10_START53_V7A-v1/AODSIM/PAT_CMG_V5_16_0/cmgTuple_76_1_77T.root
p130
(lp131
I01
aI10000
asV/store/cmst3/group/cmgtools/CMG/GluGluToHToTauTau_M-145_8TeV-powheg-pythia6/Summer12_DR53X-PU_S10_START53_V7A-v1/AODSIM/PAT_CMG_V5_16_0/cmgTuple_15_1_GWJ.root
p132
(lp133
I01
aI10000
asV/store/cmst3/group/cmgtools/CMG/GluGluToHToTauTau_M-145_8TeV-powheg-pythia6/Summer12_DR53X-PU_S10_START53_V7A-v1/AODSIM/PAT_CMG_V5_16_0/cmgTuple_72_1_neR.root
p134
(lp135
I01
aI10000
asV/store/cmst3/group/cmgtools/CMG/GluGluToHToTauTau_M-145_8TeV-powheg-pythia6/Summer12_DR53X-PU_S10_START53_V7A-v1/AODSIM/PAT_CMG_V5_16_0/cmgTuple_14_1_ebO.root
p136
(lp137
I01
aI10000
asV/store/cmst3/group/cmgtools/CMG/GluGluToHToTauTau_M-145_8TeV-powheg-pythia6/Summer12_DR53X-PU_S10_START53_V7A-v1/AODSIM/PAT_CMG_V5_16_0/cmgTuple_18_1_4fo.root
p138
(lp139
I01
aI10000
asV/store/cmst3/group/cmgtools/CMG/GluGluToHToTauTau_M-145_8TeV-powheg-pythia6/Summer12_DR53X-PU_S10_START53_V7A-v1/AODSIM/PAT_CMG_V5_16_0/cmgTuple_95_1_QdL.root
p140
(lp141
I01
aI10000
asV/store/cmst3/group/cmgtools/CMG/GluGluToHToTauTau_M-145_8TeV-powheg-pythia6/Summer12_DR53X-PU_S10_START53_V7A-v1/AODSIM/PAT_CMG_V5_16_0/cmgTuple_6_1_hIk.root
p142
(lp143
I01
aI10000
asV/store/cmst3/group/cmgtools/CMG/GluGluToHToTauTau_M-145_8TeV-powheg-pythia6/Summer12_DR53X-PU_S10_START53_V7A-v1/AODSIM/PAT_CMG_V5_16_0/cmgTuple_32_1_Qjo.root
p144
(lp145
I01
aI10000
asV/store/cmst3/group/cmgtools/CMG/GluGluToHToTauTau_M-145_8TeV-powheg-pythia6/Summer12_DR53X-PU_S10_START53_V7A-v1/AODSIM/PAT_CMG_V5_16_0/cmgTuple_67_1_fA0.root
p146
(lp147
I01
aI10000
asV/store/cmst3/group/cmgtools/CMG/GluGluToHToTauTau_M-145_8TeV-powheg-pythia6/Summer12_DR53X-PU_S10_START53_V7A-v1/AODSIM/PAT_CMG_V5_16_0/cmgTuple_56_1_zdi.root
p148
(lp149
I01
aI10000
asV/store/cmst3/group/cmgtools/CMG/GluGluToHToTauTau_M-145_8TeV-powheg-pythia6/Summer12_DR53X-PU_S10_START53_V7A-v1/AODSIM/PAT_CMG_V5_16_0/cmgTuple_26_1_D9P.root
p150
(lp151
I01
aI10000
asV/store/cmst3/group/cmgtools/CMG/GluGluToHToTauTau_M-145_8TeV-powheg-pythia6/Summer12_DR53X-PU_S10_START53_V7A-v1/AODSIM/PAT_CMG_V5_16_0/cmgTuple_38_1_Nul.root
p152
(lp153
I01
aI10000
asV/store/cmst3/group/cmgtools/CMG/GluGluToHToTauTau_M-145_8TeV-powheg-pythia6/Summer12_DR53X-PU_S10_START53_V7A-v1/AODSIM/PAT_CMG_V5_16_0/cmgTuple_92_1_tn2.root
p154
(lp155
I01
aI10000
asV/store/cmst3/group/cmgtools/CMG/GluGluToHToTauTau_M-145_8TeV-powheg-pythia6/Summer12_DR53X-PU_S10_START53_V7A-v1/AODSIM/PAT_CMG_V5_16_0/cmgTuple_57_1_4Tr.root
p156
(lp157
I01
aI10000
asV/store/cmst3/group/cmgtools/CMG/GluGluToHToTauTau_M-145_8TeV-powheg-pythia6/Summer12_DR53X-PU_S10_START53_V7A-v1/AODSIM/PAT_CMG_V5_16_0/cmgTuple_1_1_XdK.root
p158
(lp159
I01
aI1800
asV/store/cmst3/group/cmgtools/CMG/GluGluToHToTauTau_M-145_8TeV-powheg-pythia6/Summer12_DR53X-PU_S10_START53_V7A-v1/AODSIM/PAT_CMG_V5_16_0/cmgTuple_27_1_fUT.root
p160
(lp161
I01
aI10000
asV/store/cmst3/group/cmgtools/CMG/GluGluToHToTauTau_M-145_8TeV-powheg-pythia6/Summer12_DR53X-PU_S10_START53_V7A-v1/AODSIM/PAT_CMG_V5_16_0/cmgTuple_81_1_uEw.root
p162
(lp163
I01
aI10000
asV/store/cmst3/group/cmgtools/CMG/GluGluToHToTauTau_M-145_8TeV-powheg-pythia6/Summer12_DR53X-PU_S10_START53_V7A-v1/AODSIM/PAT_CMG_V5_16_0/cmgTuple_64_1_Ya5.root
p164
(lp165
I01
aI10000
asV/store/cmst3/group/cmgtools/CMG/GluGluToHToTauTau_M-145_8TeV-powheg-pythia6/Summer12_DR53X-PU_S10_START53_V7A-v1/AODSIM/PAT_CMG_V5_16_0/cmgTuple_9_1_tln.root
p166
(lp167
I01
aI10000
asV/store/cmst3/group/cmgtools/CMG/GluGluToHToTauTau_M-145_8TeV-powheg-pythia6/Summer12_DR53X-PU_S10_START53_V7A-v1/AODSIM/PAT_CMG_V5_16_0/cmgTuple_88_1_bzL.root
p168
(lp169
I01
aI10000
asV/store/cmst3/group/cmgtools/CMG/GluGluToHToTauTau_M-145_8TeV-powheg-pythia6/Summer12_DR53X-PU_S10_START53_V7A-v1/AODSIM/PAT_CMG_V5_16_0/cmgTuple_43_1_gTb.root
p170
(lp171
I01
aI10000
asV/store/cmst3/group/cmgtools/CMG/GluGluToHToTauTau_M-145_8TeV-powheg-pythia6/Summer12_DR53X-PU_S10_START53_V7A-v1/AODSIM/PAT_CMG_V5_16_0/cmgTuple_25_1_TR2.root
p172
(lp173
I01
aI10000
asV/store/cmst3/group/cmgtools/CMG/GluGluToHToTauTau_M-145_8TeV-powheg-pythia6/Summer12_DR53X-PU_S10_START53_V7A-v1/AODSIM/PAT_CMG_V5_16_0/cmgTuple_50_1_lGK.root
p174
(lp175
I01
aI10000
asV/store/cmst3/group/cmgtools/CMG/GluGluToHToTauTau_M-145_8TeV-powheg-pythia6/Summer12_DR53X-PU_S10_START53_V7A-v1/AODSIM/PAT_CMG_V5_16_0/cmgTuple_97_1_yVg.root
p176
(lp177
I01
aI10000
asV/store/cmst3/group/cmgtools/CMG/GluGluToHToTauTau_M-145_8TeV-powheg-pythia6/Summer12_DR53X-PU_S10_START53_V7A-v1/AODSIM/PAT_CMG_V5_16_0/cmgTuple_4_1_xLR.root
p178
(lp179
I01
aI10000
asV/store/cmst3/group/cmgtools/CMG/GluGluToHToTauTau_M-145_8TeV-powheg-pythia6/Summer12_DR53X-PU_S10_START53_V7A-v1/AODSIM/PAT_CMG_V5_16_0/cmgTuple_73_1_ypN.root
p180
(lp181
I01
aI10000
asV/store/cmst3/group/cmgtools/CMG/GluGluToHToTauTau_M-145_8TeV-powheg-pythia6/Summer12_DR53X-PU_S10_START53_V7A-v1/AODSIM/PAT_CMG_V5_16_0/cmgTuple_60_1_Cgw.root
p182
(lp183
I01
aI10000
asV/store/cmst3/group/cmgtools/CMG/GluGluToHToTauTau_M-145_8TeV-powheg-pythia6/Summer12_DR53X-PU_S10_START53_V7A-v1/AODSIM/PAT_CMG_V5_16_0/cmgTuple_11_1_5Cj.root
p184
(lp185
I01
aI10000
asV/store/cmst3/group/cmgtools/CMG/GluGluToHToTauTau_M-145_8TeV-powheg-pythia6/Summer12_DR53X-PU_S10_START53_V7A-v1/AODSIM/PAT_CMG_V5_16_0/cmgTuple_20_1_OyW.root
p186
(lp187
I01
aI10000
asV/store/cmst3/group/cmgtools/CMG/GluGluToHToTauTau_M-145_8TeV-powheg-pythia6/Summer12_DR53X-PU_S10_START53_V7A-v1/AODSIM/PAT_CMG_V5_16_0/cmgTuple_37_1_BgH.root
p188
(lp189
I01
aI10000
asV/store/cmst3/group/cmgtools/CMG/GluGluToHToTauTau_M-145_8TeV-powheg-pythia6/Summer12_DR53X-PU_S10_START53_V7A-v1/AODSIM/PAT_CMG_V5_16_0/cmgTuple_10_1_fEp.root
p190
(lp191
I01
aI10000
asV/store/cmst3/group/cmgtools/CMG/GluGluToHToTauTau_M-145_8TeV-powheg-pythia6/Summer12_DR53X-PU_S10_START53_V7A-v1/AODSIM/PAT_CMG_V5_16_0/cmgTuple_44_1_LyM.root
p192
(lp193
I01
aI10000
asV/store/cmst3/group/cmgtools/CMG/GluGluToHToTauTau_M-145_8TeV-powheg-pythia6/Summer12_DR53X-PU_S10_START53_V7A-v1/AODSIM/PAT_CMG_V5_16_0/cmgTuple_17_1_cjK.root
p194
(lp195
I01
aI10000
asV/store/cmst3/group/cmgtools/CMG/GluGluToHToTauTau_M-145_8TeV-powheg-pythia6/Summer12_DR53X-PU_S10_START53_V7A-v1/AODSIM/PAT_CMG_V5_16_0/cmgTuple_66_1_1pR.root
p196
(lp197
I01
aI10000
asV/store/cmst3/group/cmgtools/CMG/GluGluToHToTauTau_M-145_8TeV-powheg-pythia6/Summer12_DR53X-PU_S10_START53_V7A-v1/AODSIM/PAT_CMG_V5_16_0/cmgTuple_87_1_MJo.root
p198
(lp199
I01
aI10000
asV/store/cmst3/group/cmgtools/CMG/GluGluToHToTauTau_M-145_8TeV-powheg-pythia6/Summer12_DR53X-PU_S10_START53_V7A-v1/AODSIM/PAT_CMG_V5_16_0/cmgTuple_8_1_rZF.root
p200
(lp201
I01
aI10000
asV/store/cmst3/group/cmgtools/CMG/GluGluToHToTauTau_M-145_8TeV-powheg-pythia6/Summer12_DR53X-PU_S10_START53_V7A-v1/AODSIM/PAT_CMG_V5_16_0/cmgTuple_70_1_fgN.root
p202
(lp203
I01
aI10000
asV/store/cmst3/group/cmgtools/CMG/GluGluToHToTauTau_M-145_8TeV-powheg-pythia6/Summer12_DR53X-PU_S10_START53_V7A-v1/AODSIM/PAT_CMG_V5_16_0/cmgTuple_34_1_HKz.root
p204
(lp205
I01
aI10000
asV/store/cmst3/group/cmgtools/CMG/GluGluToHToTauTau_M-145_8TeV-powheg-pythia6/Summer12_DR53X-PU_S10_START53_V7A-v1/AODSIM/PAT_CMG_V5_16_0/cmgTuple_36_1_vPX.root
p206
(lp207
I01
aI10000
asV/store/cmst3/group/cmgtools/CMG/GluGluToHToTauTau_M-145_8TeV-powheg-pythia6/Summer12_DR53X-PU_S10_START53_V7A-v1/AODSIM/PAT_CMG_V5_16_0/cmgTuple_12_1_iEd.root
p208
(lp209
I01
aI10000
asV/store/cmst3/group/cmgtools/CMG/GluGluToHToTauTau_M-145_8TeV-powheg-pythia6/Summer12_DR53X-PU_S10_START53_V7A-v1/AODSIM/PAT_CMG_V5_16_0/cmgTuple_2_1_43r.root
p210
(lp211
I01
aI10000
asV/store/cmst3/group/cmgtools/CMG/GluGluToHToTauTau_M-145_8TeV-powheg-pythia6/Summer12_DR53X-PU_S10_START53_V7A-v1/AODSIM/PAT_CMG_V5_16_0/cmgTuple_69_1_z3g.root
p212
(lp213
I01
aI10000
asV/store/cmst3/group/cmgtools/CMG/GluGluToHToTauTau_M-145_8TeV-powheg-pythia6/Summer12_DR53X-PU_S10_START53_V7A-v1/AODSIM/PAT_CMG_V5_16_0/cmgTuple_82_1_uHi.root
p214
(lp215
I01
aI10000
asV/store/cmst3/group/cmgtools/CMG/GluGluToHToTauTau_M-145_8TeV-powheg-pythia6/Summer12_DR53X-PU_S10_START53_V7A-v1/AODSIM/PAT_CMG_V5_16_0/cmgTuple_40_1_01D.root
p216
(lp217
I01
aI10000
asV/store/cmst3/group/cmgtools/CMG/GluGluToHToTauTau_M-145_8TeV-powheg-pythia6/Summer12_DR53X-PU_S10_START53_V7A-v1/AODSIM/PAT_CMG_V5_16_0/cmgTuple_35_1_tYD.root
p218
(lp219
I01
aI10000
asV/store/cmst3/group/cmgtools/CMG/GluGluToHToTauTau_M-145_8TeV-powheg-pythia6/Summer12_DR53X-PU_S10_START53_V7A-v1/AODSIM/PAT_CMG_V5_16_0/cmgTuple_13_1_BbN.root
p220
(lp221
I01
aI10000
asV/store/cmst3/group/cmgtools/CMG/GluGluToHToTauTau_M-145_8TeV-powheg-pythia6/Summer12_DR53X-PU_S10_START53_V7A-v1/AODSIM/PAT_CMG_V5_16_0/cmgTuple_19_1_zfk.root
p222
(lp223
I01
aI10000
asV/store/cmst3/group/cmgtools/CMG/GluGluToHToTauTau_M-145_8TeV-powheg-pythia6/Summer12_DR53X-PU_S10_START53_V7A-v1/AODSIM/PAT_CMG_V5_16_0/cmgTuple_61_1_GyU.root
p224
(lp225
I01
aI10000
asV/store/cmst3/group/cmgtools/CMG/GluGluToHToTauTau_M-145_8TeV-powheg-pythia6/Summer12_DR53X-PU_S10_START53_V7A-v1/AODSIM/PAT_CMG_V5_16_0/cmgTuple_41_1_ebj.root
p226
(lp227
I01
aI10000
asV/store/cmst3/group/cmgtools/CMG/GluGluToHToTauTau_M-145_8TeV-powheg-pythia6/Summer12_DR53X-PU_S10_START53_V7A-v1/AODSIM/PAT_CMG_V5_16_0/cmgTuple_71_1_03b.root
p228
(lp229
I01
aI10000
asV/store/cmst3/group/cmgtools/CMG/GluGluToHToTauTau_M-145_8TeV-powheg-pythia6/Summer12_DR53X-PU_S10_START53_V7A-v1/AODSIM/PAT_CMG_V5_16_0/cmgTuple_21_1_keT.root
p230
(lp231
I01
aI10000
asV/store/cmst3/group/cmgtools/CMG/GluGluToHToTauTau_M-145_8TeV-powheg-pythia6/Summer12_DR53X-PU_S10_START53_V7A-v1/AODSIM/PAT_CMG_V5_16_0/cmgTuple_52_1_xT8.root
p232
(lp233
I01
aI10000
asV/store/cmst3/group/cmgtools/CMG/GluGluToHToTauTau_M-145_8TeV-powheg-pythia6/Summer12_DR53X-PU_S10_START53_V7A-v1/AODSIM/PAT_CMG_V5_16_0/cmgTuple_7_1_wZn.root
p234
(lp235
I01
aI10000
asV/store/cmst3/group/cmgtools/CMG/GluGluToHToTauTau_M-145_8TeV-powheg-pythia6/Summer12_DR53X-PU_S10_START53_V7A-v1/AODSIM/PAT_CMG_V5_16_0/cmgTuple_45_1_0xf.root
p236
(lp237
I01
aI10000
asV/store/cmst3/group/cmgtools/CMG/GluGluToHToTauTau_M-145_8TeV-powheg-pythia6/Summer12_DR53X-PU_S10_START53_V7A-v1/AODSIM/PAT_CMG_V5_16_0/cmgTuple_80_1_wkQ.root
p238
(lp239
I01
aI10000
asV/store/cmst3/group/cmgtools/CMG/GluGluToHToTauTau_M-145_8TeV-powheg-pythia6/Summer12_DR53X-PU_S10_START53_V7A-v1/AODSIM/PAT_CMG_V5_16_0/cmgTuple_47_1_zCW.root
p240
(lp241
I01
aI10000
asV/store/cmst3/group/cmgtools/CMG/GluGluToHToTauTau_M-145_8TeV-powheg-pythia6/Summer12_DR53X-PU_S10_START53_V7A-v1/AODSIM/PAT_CMG_V5_16_0/cmgTuple_74_1_dD9.root
p242
(lp243
I01
aI10000
asV/store/cmst3/group/cmgtools/CMG/GluGluToHToTauTau_M-145_8TeV-powheg-pythia6/Summer12_DR53X-PU_S10_START53_V7A-v1/AODSIM/PAT_CMG_V5_16_0/cmgTuple_62_1_M4N.root
p244
(lp245
I01
aI10000
asV/store/cmst3/group/cmgtools/CMG/GluGluToHToTauTau_M-145_8TeV-powheg-pythia6/Summer12_DR53X-PU_S10_START53_V7A-v1/AODSIM/PAT_CMG_V5_16_0/cmgTuple_75_1_8u9.root
p246
(lp247
I01
aI10000
asV/store/cmst3/group/cmgtools/CMG/GluGluToHToTauTau_M-145_8TeV-powheg-pythia6/Summer12_DR53X-PU_S10_START53_V7A-v1/AODSIM/PAT_CMG_V5_16_0/cmgTuple_29_1_YTU.root
p248
(lp249
I01
aI10000
asV/store/cmst3/group/cmgtools/CMG/GluGluToHToTauTau_M-145_8TeV-powheg-pythia6/Summer12_DR53X-PU_S10_START53_V7A-v1/AODSIM/PAT_CMG_V5_16_0/cmgTuple_53_1_PHh.root
p250
(lp251
I01
aI10000
asV/store/cmst3/group/cmgtools/CMG/GluGluToHToTauTau_M-145_8TeV-powheg-pythia6/Summer12_DR53X-PU_S10_START53_V7A-v1/AODSIM/PAT_CMG_V5_16_0/cmgTuple_77_1_D50.root
p252
(lp253
I01
aI10000
asV/store/cmst3/group/cmgtools/CMG/GluGluToHToTauTau_M-145_8TeV-powheg-pythia6/Summer12_DR53X-PU_S10_START53_V7A-v1/AODSIM/PAT_CMG_V5_16_0/cmgTuple_65_1_Apt.root
p254
(lp255
I01
aI10000
asV/store/cmst3/group/cmgtools/CMG/GluGluToHToTauTau_M-145_8TeV-powheg-pythia6/Summer12_DR53X-PU_S10_START53_V7A-v1/AODSIM/PAT_CMG_V5_16_0/cmgTuple_48_1_fO8.root
p256
(lp257
I01
aI10000
asV/store/cmst3/group/cmgtools/CMG/GluGluToHToTauTau_M-145_8TeV-powheg-pythia6/Summer12_DR53X-PU_S10_START53_V7A-v1/AODSIM/PAT_CMG_V5_16_0/cmgTuple_30_1_sk0.root
p258
(lp259
I01
aI10000
asV/store/cmst3/group/cmgtools/CMG/GluGluToHToTauTau_M-145_8TeV-powheg-pythia6/Summer12_DR53X-PU_S10_START53_V7A-v1/AODSIM/PAT_CMG_V5_16_0/cmgTuple_68_1_nc1.root
p260
(lp261
I01
aI10000
asV/store/cmst3/group/cmgtools/CMG/GluGluToHToTauTau_M-145_8TeV-powheg-pythia6/Summer12_DR53X-PU_S10_START53_V7A-v1/AODSIM/PAT_CMG_V5_16_0/cmgTuple_63_1_d3z.root
p262
(lp263
I01
aI10000
asV/store/cmst3/group/cmgtools/CMG/GluGluToHToTauTau_M-145_8TeV-powheg-pythia6/Summer12_DR53X-PU_S10_START53_V7A-v1/AODSIM/PAT_CMG_V5_16_0/cmgTuple_98_1_dlV.root
p264
(lp265
I01
aI3121
asV/store/cmst3/group/cmgtools/CMG/GluGluToHToTauTau_M-145_8TeV-powheg-pythia6/Summer12_DR53X-PU_S10_START53_V7A-v1/AODSIM/PAT_CMG_V5_16_0/cmgTuple_94_1_wbj.root
p266
(lp267
I01
aI10000
asV/store/cmst3/group/cmgtools/CMG/GluGluToHToTauTau_M-145_8TeV-powheg-pythia6/Summer12_DR53X-PU_S10_START53_V7A-v1/AODSIM/PAT_CMG_V5_16_0/cmgTuple_93_1_xEX.root
p268
(lp269
I01
aI10000
asV/store/cmst3/group/cmgtools/CMG/GluGluToHToTauTau_M-145_8TeV-powheg-pythia6/Summer12_DR53X-PU_S10_START53_V7A-v1/AODSIM/PAT_CMG_V5_16_0/cmgTuple_85_1_bpy.root
p270
(lp271
I01
aI10000
asV/store/cmst3/group/cmgtools/CMG/GluGluToHToTauTau_M-145_8TeV-powheg-pythia6/Summer12_DR53X-PU_S10_START53_V7A-v1/AODSIM/PAT_CMG_V5_16_0/cmgTuple_24_1_neg.root
p272
(lp273
I01
aI10000
asV/store/cmst3/group/cmgtools/CMG/GluGluToHToTauTau_M-145_8TeV-powheg-pythia6/Summer12_DR53X-PU_S10_START53_V7A-v1/AODSIM/PAT_CMG_V5_16_0/cmgTuple_49_1_hiT.root
p274
(lp275
I01
aI10000
asV/store/cmst3/group/cmgtools/CMG/GluGluToHToTauTau_M-145_8TeV-powheg-pythia6/Summer12_DR53X-PU_S10_START53_V7A-v1/AODSIM/PAT_CMG_V5_16_0/cmgTuple_89_1_l3v.root
p276
(lp277
I01
aI10000
asV/store/cmst3/group/cmgtools/CMG/GluGluToHToTauTau_M-145_8TeV-powheg-pythia6/Summer12_DR53X-PU_S10_START53_V7A-v1/AODSIM/PAT_CMG_V5_16_0/cmgTuple_46_1_nTK.root
p278
(lp279
I01
aI10000
asV/store/cmst3/group/cmgtools/CMG/GluGluToHToTauTau_M-145_8TeV-powheg-pythia6/Summer12_DR53X-PU_S10_START53_V7A-v1/AODSIM/PAT_CMG_V5_16_0/cmgTuple_96_1_rNR.root
p280
(lp281
I01
aI10000
asV/store/cmst3/group/cmgtools/CMG/GluGluToHToTauTau_M-145_8TeV-powheg-pythia6/Summer12_DR53X-PU_S10_START53_V7A-v1/AODSIM/PAT_CMG_V5_16_0/cmgTuple_5_1_vBg.root
p282
(lp283
I01
aI7198
asV/store/cmst3/group/cmgtools/CMG/GluGluToHToTauTau_M-145_8TeV-powheg-pythia6/Summer12_DR53X-PU_S10_START53_V7A-v1/AODSIM/PAT_CMG_V5_16_0/cmgTuple_16_1_Wa5.root
p284
(lp285
I01
aI10000
asV/store/cmst3/group/cmgtools/CMG/GluGluToHToTauTau_M-145_8TeV-powheg-pythia6/Summer12_DR53X-PU_S10_START53_V7A-v1/AODSIM/PAT_CMG_V5_16_0/cmgTuple_22_1_JsJ.root
p286
(lp287
I01
aI10000
asV/store/cmst3/group/cmgtools/CMG/GluGluToHToTauTau_M-145_8TeV-powheg-pythia6/Summer12_DR53X-PU_S10_START53_V7A-v1/AODSIM/PAT_CMG_V5_16_0/cmgTuple_83_1_cnH.root
p288
(lp289
I01
aI10000
asV/store/cmst3/group/cmgtools/CMG/GluGluToHToTauTau_M-145_8TeV-powheg-pythia6/Summer12_DR53X-PU_S10_START53_V7A-v1/AODSIM/PAT_CMG_V5_16_0/cmgTuple_31_1_QT6.root
p290
(lp291
I01
aI10000
asV/store/cmst3/group/cmgtools/CMG/GluGluToHToTauTau_M-145_8TeV-powheg-pythia6/Summer12_DR53X-PU_S10_START53_V7A-v1/AODSIM/PAT_CMG_V5_16_0/cmgTuple_23_1_hIs.root
p292
(lp293
I01
aI10000
asV/store/cmst3/group/cmgtools/CMG/GluGluToHToTauTau_M-145_8TeV-powheg-pythia6/Summer12_DR53X-PU_S10_START53_V7A-v1/AODSIM/PAT_CMG_V5_16_0/cmgTuple_51_1_y4e.root
p294
(lp295
I01
aI10000
asV/store/cmst3/group/cmgtools/CMG/GluGluToHToTauTau_M-145_8TeV-powheg-pythia6/Summer12_DR53X-PU_S10_START53_V7A-v1/AODSIM/PAT_CMG_V5_16_0/cmgTuple_90_1_95Q.root
p296
(lp297
I01
aI10000
asV/store/cmst3/group/cmgtools/CMG/GluGluToHToTauTau_M-145_8TeV-powheg-pythia6/Summer12_DR53X-PU_S10_START53_V7A-v1/AODSIM/PAT_CMG_V5_16_0/cmgTuple_54_1_sx0.root
p298
(lp299
I01
aI10000
asV/store/cmst3/group/cmgtools/CMG/GluGluToHToTauTau_M-145_8TeV-powheg-pythia6/Summer12_DR53X-PU_S10_START53_V7A-v1/AODSIM/PAT_CMG_V5_16_0/cmgTuple_78_1_Ax6.root
p300
(lp301
I01
aI10000
asV/store/cmst3/group/cmgtools/CMG/GluGluToHToTauTau_M-145_8TeV-powheg-pythia6/Summer12_DR53X-PU_S10_START53_V7A-v1/AODSIM/PAT_CMG_V5_16_0/cmgTuple_42_1_dsp.root
p302
(lp303
I01
aI10000
asV/store/cmst3/group/cmgtools/CMG/GluGluToHToTauTau_M-145_8TeV-powheg-pythia6/Summer12_DR53X-PU_S10_START53_V7A-v1/AODSIM/PAT_CMG_V5_16_0/cmgTuple_86_1_kvS.root
p304
(lp305
I01
aI10000
asV/store/cmst3/group/cmgtools/CMG/GluGluToHToTauTau_M-145_8TeV-powheg-pythia6/Summer12_DR53X-PU_S10_START53_V7A-v1/AODSIM/PAT_CMG_V5_16_0/cmgTuple_33_1_Gxe.root
p306
(lp307
I01
aI10000
asV/store/cmst3/group/cmgtools/CMG/GluGluToHToTauTau_M-145_8TeV-powheg-pythia6/Summer12_DR53X-PU_S10_START53_V7A-v1/AODSIM/PAT_CMG_V5_16_0/cmgTuple_91_1_BPg.root
p308
(lp309
I01
aI10000
asV/store/cmst3/group/cmgtools/CMG/GluGluToHToTauTau_M-145_8TeV-powheg-pythia6/Summer12_DR53X-PU_S10_START53_V7A-v1/AODSIM/PAT_CMG_V5_16_0/cmgTuple_28_1_Fba.root
p310
(lp311
I01
aI10000
asV/store/cmst3/group/cmgtools/CMG/GluGluToHToTauTau_M-145_8TeV-powheg-pythia6/Summer12_DR53X-PU_S10_START53_V7A-v1/AODSIM/PAT_CMG_V5_16_0/cmgTuple_58_1_TCs.root
p312
(lp313
I01
aI10000
asV/store/cmst3/group/cmgtools/CMG/GluGluToHToTauTau_M-145_8TeV-powheg-pythia6/Summer12_DR53X-PU_S10_START53_V7A-v1/AODSIM/PAT_CMG_V5_16_0/cmgTuple_79_1_GNC.root
p314
(lp315
I01
aI10000
asV/store/cmst3/group/cmgtools/CMG/GluGluToHToTauTau_M-145_8TeV-powheg-pythia6/Summer12_DR53X-PU_S10_START53_V7A-v1/AODSIM/PAT_CMG_V5_16_0/cmgTuple_39_1_mnH.root
p316
(lp317
I01
aI10000
asV/store/cmst3/group/cmgtools/CMG/GluGluToHToTauTau_M-145_8TeV-powheg-pythia6/Summer12_DR53X-PU_S10_START53_V7A-v1/AODSIM/PAT_CMG_V5_16_0/cmgTuple_55_1_wSY.root
p318
(lp319
I01
aI10000
asV/store/cmst3/group/cmgtools/CMG/GluGluToHToTauTau_M-145_8TeV-powheg-pythia6/Summer12_DR53X-PU_S10_START53_V7A-v1/AODSIM/PAT_CMG_V5_16_0/cmgTuple_3_1_rJF.root
p320
(lp321
I01
aI10000
asV/store/cmst3/group/cmgtools/CMG/GluGluToHToTauTau_M-145_8TeV-powheg-pythia6/Summer12_DR53X-PU_S10_START53_V7A-v1/AODSIM/PAT_CMG_V5_16_0/cmgTuple_84_1_130.root
p322
(lp323
I01
aI10000
assVPhysicsGroup
p324
VCMG
p325
sVFilesCount
p326
I98
sVFilesEntries
p327
I962119
sVRunList
p328
(lp329
sVValidDuplicates
p330
(dp331
sVPrimaryDataset
p332
V/GluGluToHToTauTau_M-145_8TeV-powheg-pythia6/Summer12_DR53X-PU_S10_START53_V7A-v1/AODSIM
p333
sVStatus
p334
VVALID
p335
sVName
p336
V/GluGluToHToTauTau_M-145_8TeV-powheg-pythia6/Summer12_DR53X-PU_S10_START53_V7A-v1/AODSIM/PAT_CMG_V5_16_0
p337
sVTopdir
p338
V/eos/cms/store/cmst3/group/cmgtools/CMG
p339
sVdata
p340
(dp341
sVFilesBad
p342
I0
sVMinRun
p343
I-1
sVAlgoList
p344
(lp345
sVTierList
p346
(lp347
sVDateCreated
p348
V1370943235
p349
sVCreatedBy
p350
Vcmgtools_group
p351
sVMaxRun
p352
I-1
sVBadJobs
p353
(lp354
ssg87
I01
ssS'MonitorJobs'
p355
(dp356
S'LSFJobStatus'
p357
(dp358
g90
S'GluGluToHToTauTau_M-145_8TeV-powheg-pythia6/Summer12_DR53X-PU_S10_START53_V7A-v1/AODSIM/PAT_CMG_V5_16_0_1377467472/HTT_24Jul_newTES_manzoni_Up_Jobs/Job_9/LSFJOB_440972040/STDOUT.gz'
p359
sg91
S'GluGluToHToTauTau_M-145_8TeV-powheg-pythia6/Summer12_DR53X-PU_S10_START53_V7A-v1/AODSIM/PAT_CMG_V5_16_0_1377467472/HTT_24Jul_newTES_manzoni_Up_Jobs/Job_8/LSFJOB_440971906/STDOUT.gz'
p360
sg100
S'GluGluToHToTauTau_M-145_8TeV-powheg-pythia6/Summer12_DR53X-PU_S10_START53_V7A-v1/AODSIM/PAT_CMG_V5_16_0_1377467472/HTT_24Jul_newTES_manzoni_Up_Jobs/Job_14/LSFJOB_440972473/STDOUT.gz'
p361
sg92
S'GluGluToHToTauTau_M-145_8TeV-powheg-pythia6/Summer12_DR53X-PU_S10_START53_V7A-v1/AODSIM/PAT_CMG_V5_16_0_1377467472/HTT_24Jul_newTES_manzoni_Up_Jobs/Job_20/LSFJOB_440973071/STDOUT.gz'
p362
sg93
S'GluGluToHToTauTau_M-145_8TeV-powheg-pythia6/Summer12_DR53X-PU_S10_START53_V7A-v1/AODSIM/PAT_CMG_V5_16_0_1377467472/HTT_24Jul_newTES_manzoni_Up_Jobs/Job_4/LSFJOB_440971517/STDOUT.gz'
p363
sg94
S'GluGluToHToTauTau_M-145_8TeV-powheg-pythia6/Summer12_DR53X-PU_S10_START53_V7A-v1/AODSIM/PAT_CMG_V5_16_0_1377467472/HTT_24Jul_newTES_manzoni_Up_Jobs/Job_7/LSFJOB_440971809/STDOUT.gz'
p364
sg95
S'GluGluToHToTauTau_M-145_8TeV-powheg-pythia6/Summer12_DR53X-PU_S10_START53_V7A-v1/AODSIM/PAT_CMG_V5_16_0_1377467472/HTT_24Jul_newTES_manzoni_Up_Jobs/Job_6/LSFJOB_440971690/STDOUT.gz'
p365
sg96
S'GluGluToHToTauTau_M-145_8TeV-powheg-pythia6/Summer12_DR53X-PU_S10_START53_V7A-v1/AODSIM/PAT_CMG_V5_16_0_1377467472/HTT_24Jul_newTES_manzoni_Up_Jobs/Job_1/LSFJOB_440971304/STDOUT.gz'
p366
sg97
S'GluGluToHToTauTau_M-145_8TeV-powheg-pythia6/Summer12_DR53X-PU_S10_START53_V7A-v1/AODSIM/PAT_CMG_V5_16_0_1377467472/HTT_24Jul_newTES_manzoni_Up_Jobs/Job_3/LSFJOB_440971431/STDOUT.gz'
p367
sg98
S'GluGluToHToTauTau_M-145_8TeV-powheg-pythia6/Summer12_DR53X-PU_S10_START53_V7A-v1/AODSIM/PAT_CMG_V5_16_0_1377467472/HTT_24Jul_newTES_manzoni_Up_Jobs/Job_2/LSFJOB_440971365/STDOUT.gz'
p368
sg99
S'GluGluToHToTauTau_M-145_8TeV-powheg-pythia6/Summer12_DR53X-PU_S10_START53_V7A-v1/AODSIM/PAT_CMG_V5_16_0_1377467472/HTT_24Jul_newTES_manzoni_Up_Jobs/Job_15/LSFJOB_440972580/STDOUT.gz'
p369
sg107
S'GluGluToHToTauTau_M-145_8TeV-powheg-pythia6/Summer12_DR53X-PU_S10_START53_V7A-v1/AODSIM/PAT_CMG_V5_16_0_1377467472/HTT_24Jul_newTES_manzoni_Up_Jobs/Job_5/LSFJOB_440971603/STDOUT.gz'
p370
sg101
S'GluGluToHToTauTau_M-145_8TeV-powheg-pythia6/Summer12_DR53X-PU_S10_START53_V7A-v1/AODSIM/PAT_CMG_V5_16_0_1377467472/HTT_24Jul_newTES_manzoni_Up_Jobs/Job_17/LSFJOB_440972748/STDOUT.gz'
p371
sg102
S'GluGluToHToTauTau_M-145_8TeV-powheg-pythia6/Summer12_DR53X-PU_S10_START53_V7A-v1/AODSIM/PAT_CMG_V5_16_0_1377467472/HTT_24Jul_newTES_manzoni_Up_Jobs/Job_16/LSFJOB_440972678/STDOUT.gz'
p372
sg103
S'GluGluToHToTauTau_M-145_8TeV-powheg-pythia6/Summer12_DR53X-PU_S10_START53_V7A-v1/AODSIM/PAT_CMG_V5_16_0_1377467472/HTT_24Jul_newTES_manzoni_Up_Jobs/Job_11/LSFJOB_440972213/STDOUT.gz'
p373
sg104
S'GluGluToHToTauTau_M-145_8TeV-powheg-pythia6/Summer12_DR53X-PU_S10_START53_V7A-v1/AODSIM/PAT_CMG_V5_16_0_1377467472/HTT_24Jul_newTES_manzoni_Up_Jobs/Job_10/LSFJOB_440972119/STDOUT.gz'
p374
sg105
S'GluGluToHToTauTau_M-145_8TeV-powheg-pythia6/Summer12_DR53X-PU_S10_START53_V7A-v1/AODSIM/PAT_CMG_V5_16_0_1377467472/HTT_24Jul_newTES_manzoni_Up_Jobs/Job_13/LSFJOB_440972395/STDOUT.gz'
p375
sg106
S'GluGluToHToTauTau_M-145_8TeV-powheg-pythia6/Summer12_DR53X-PU_S10_START53_V7A-v1/AODSIM/PAT_CMG_V5_16_0_1377467472/HTT_24Jul_newTES_manzoni_Up_Jobs/Job_12/LSFJOB_440972302/STDOUT.gz'
p376
sg108
S'GluGluToHToTauTau_M-145_8TeV-powheg-pythia6/Summer12_DR53X-PU_S10_START53_V7A-v1/AODSIM/PAT_CMG_V5_16_0_1377467472/HTT_24Jul_newTES_manzoni_Up_Jobs/Job_19/LSFJOB_440972963/STDOUT.gz'
p377
sg109
S'GluGluToHToTauTau_M-145_8TeV-powheg-pythia6/Summer12_DR53X-PU_S10_START53_V7A-v1/AODSIM/PAT_CMG_V5_16_0_1377467472/HTT_24Jul_newTES_manzoni_Up_Jobs/Job_18/LSFJOB_440972856/STDOUT.gz'
p378
ssS'LSFJobIDs'
p379
(dp380
g92
S'440973071'
p381
sg90
S'440972040'
p382
sg91
S'440971906'
p383
sg107
S'440971603'
p384
sg93
S'440971517'
p385
sg94
S'440971809'
p386
sg95
S'440971690'
p387
sg96
S'440971304'
p388
sg97
S'440971431'
p389
sg98
S'440971365'
p390
sg99
S'440972580'
p391
sg100
S'440972473'
p392
sg101
S'440972748'
p393
sg102
S'440972678'
p394
sg103
S'440972213'
p395
sg104
S'440972119'
p396
sg105
S'440972395'
p397
sg106
S'440972302'
p398
sg108
S'440972963'
p399
sg109
S'440972856'
p400
sssS'FindOnCastor'
p401
(dp402
g49
S'/eos/cms/store/cmst3/group/cmgtools/CMG'
p403
sS'Directory'
p404
S'/eos/cms/store/cmst3/group/cmgtools/CMG/GluGluToHToTauTau_M-145_8TeV-powheg-pythia6/Summer12_DR53X-PU_S10_START53_V7A-v1/AODSIM/PAT_CMG_V5_16_0'
p405
ssS'CheckConfig'
p406
(dp407
g65
g66
ssS'FullCFG'
p408
(dp409
S'FullCFG'
p410
S'GluGluToHToTauTau_M-145_8TeV-powheg-pythia6/Summer12_DR53X-PU_S10_START53_V7A-v1/AODSIM/PAT_CMG_V5_16_0_1377467472/full_cfg.py'
p411
ssS'WriteJobReport'
p412
(dp413
S'SummaryFile'
p414
S'GluGluToHToTauTau_M-145_8TeV-powheg-pythia6/Summer12_DR53X-PU_S10_START53_V7A-v1/AODSIM/PAT_CMG_V5_16_0_1377467472/resubmit.sh'
p415
ssS'ExpandConfig'
p416
(dp417
S'ExpandedFullCFG'
p418
S'GluGluToHToTauTau_M-145_8TeV-powheg-pythia6/Summer12_DR53X-PU_S10_START53_V7A-v1/AODSIM/PAT_CMG_V5_16_0_1377467472/Expandedfull_cfg.py'
p419
ssS'RunTestEvents'
p420
(dp421
g65
g66
sS'TestCFG'
p422
S'GluGluToHToTauTau_M-145_8TeV-powheg-pythia6/Summer12_DR53X-PU_S10_START53_V7A-v1/AODSIM/PAT_CMG_V5_16_0_1377467472/test_cfg.py'
p423
ssS'SourceCFG'
p424
(dp425
S'SourceCFG'
p426
S'GluGluToHToTauTau_M-145_8TeV-powheg-pythia6/Summer12_DR53X-PU_S10_START53_V7A-v1/AODSIM/PAT_CMG_V5_16_0_1377467472/source_cfg.py'
p427
ssS'CheckForWrite'
p428
(dp429
g404
g405
sS'WriteAccess'
p430
I01
ssS'WriteToDatasets'
p431
(dp432
S'Added'
p433
I00
sg47
S'/GluGluToHToTauTau_M-145_8TeV-powheg-pythia6/Summer12_DR53X-PU_S10_START53_V7A-v1/AODSIM/PAT_CMG_V5_16_0/HTT_24Jul_newTES_manzoni_Up'
p434
sS'User'
p435
g80
ssS'RunCMSBatch'
p436
(dp437
S'BatchUser'
p438
g80
sS'SampleOutputDir'
p439
S'/store/cmst3/user/manzoni/CMG/GluGluToHToTauTau_M-145_8TeV-powheg-pythia6/Summer12_DR53X-PU_S10_START53_V7A-v1/AODSIM/PAT_CMG_V5_16_0/HTT_24Jul_newTES_manzoni_Up'
p440
sS'SampleDataset'
p441
g48
sS'LSFJobsTopDir'
p442
S'GluGluToHToTauTau_M-145_8TeV-powheg-pythia6/Summer12_DR53X-PU_S10_START53_V7A-v1/AODSIM/PAT_CMG_V5_16_0_1377467472/HTT_24Jul_newTES_manzoni_Up_Jobs'
p443
ssS'CreateJobDirectory'
p444
(dp445
S'JobDir'
p446
S'GluGluToHToTauTau_M-145_8TeV-powheg-pythia6/Summer12_DR53X-PU_S10_START53_V7A-v1/AODSIM/PAT_CMG_V5_16_0_1377467472'
p447
sS'PWD'
p448
S'/afs/cern.ch/user/m/manzoni/summer13/CMGTools/CMSSW_5_3_9/src/CMGTools/H2TauTau/prod/25aug_corrMC/up/mc'
p449
ssS'CleanJobFiles'
p450
(dp451
S'Compressed'
p452
(dp453
S'CompressedFiles'
p454
(lp455
ssS'Cleaned'
p456
(dp457
S'CleanedFiles'
p458
(lp459
g419
ag423
aS'GluGluToHToTauTau_M-145_8TeV-powheg-pythia6/Summer12_DR53X-PU_S10_START53_V7A-v1/AODSIM/PAT_CMG_V5_16_0_1377467472/diTau_fullsel_tree_CMG.root'
p460
aS'GluGluToHToTauTau_M-145_8TeV-powheg-pythia6/Summer12_DR53X-PU_S10_START53_V7A-v1/AODSIM/PAT_CMG_V5_16_0_1377467472/source_cfg.pyc'
p461
aS'GluGluToHToTauTau_M-145_8TeV-powheg-pythia6/Summer12_DR53X-PU_S10_START53_V7A-v1/AODSIM/PAT_CMG_V5_16_0_1377467472/Expandedfull_cfg.pyc'
p462
asssS'CheckForMask'
p463
(dp464
g3
g116
sg87
I01
ss.