(dp0
S'CheckJobStatus'
p1
(dp2
S'Report'
p3
(dp4
S'Files'
p5
(dp6
S'/store/cmst3/user/manzoni/CMG/VBF_HToTauTau_M-110_8TeV-powheg-pythia6/Summer12_DR53X-PU_S10_START53_V7A-v1/AODSIM/PAT_CMG_V5_16_0/HTT_24Jul_newTES_manzoni_Up/diTau_fullsel_tree_CMG_7.root'
p7
(I01
I1636
tp8
sS'/store/cmst3/user/manzoni/CMG/VBF_HToTauTau_M-110_8TeV-powheg-pythia6/Summer12_DR53X-PU_S10_START53_V7A-v1/AODSIM/PAT_CMG_V5_16_0/HTT_24Jul_newTES_manzoni_Up/diTau_fullsel_tree_CMG_9.root'
p9
(I01
I1676
tp10
sS'/store/cmst3/user/manzoni/CMG/VBF_HToTauTau_M-110_8TeV-powheg-pythia6/Summer12_DR53X-PU_S10_START53_V7A-v1/AODSIM/PAT_CMG_V5_16_0/HTT_24Jul_newTES_manzoni_Up/diTau_fullsel_tree_CMG_2.root'
p11
(I01
I1578
tp12
sS'/store/cmst3/user/manzoni/CMG/VBF_HToTauTau_M-110_8TeV-powheg-pythia6/Summer12_DR53X-PU_S10_START53_V7A-v1/AODSIM/PAT_CMG_V5_16_0/HTT_24Jul_newTES_manzoni_Up/diTau_fullsel_tree_CMG_11.root'
p13
(I01
I320
tp14
sS'/store/cmst3/user/manzoni/CMG/VBF_HToTauTau_M-110_8TeV-powheg-pythia6/Summer12_DR53X-PU_S10_START53_V7A-v1/AODSIM/PAT_CMG_V5_16_0/HTT_24Jul_newTES_manzoni_Up/diTau_fullsel_tree_CMG_5.root'
p15
(I01
I1599
tp16
sS'/store/cmst3/user/manzoni/CMG/VBF_HToTauTau_M-110_8TeV-powheg-pythia6/Summer12_DR53X-PU_S10_START53_V7A-v1/AODSIM/PAT_CMG_V5_16_0/HTT_24Jul_newTES_manzoni_Up/diTau_fullsel_tree_CMG_6.root'
p17
(I01
I1583
tp18
sS'/store/cmst3/user/manzoni/CMG/VBF_HToTauTau_M-110_8TeV-powheg-pythia6/Summer12_DR53X-PU_S10_START53_V7A-v1/AODSIM/PAT_CMG_V5_16_0/HTT_24Jul_newTES_manzoni_Up/diTau_fullsel_tree_CMG_8.root'
p19
(I01
I1650
tp20
sS'/store/cmst3/user/manzoni/CMG/VBF_HToTauTau_M-110_8TeV-powheg-pythia6/Summer12_DR53X-PU_S10_START53_V7A-v1/AODSIM/PAT_CMG_V5_16_0/HTT_24Jul_newTES_manzoni_Up/diTau_fullsel_tree_CMG_10.root'
p21
(I01
I1240
tp22
sS'/store/cmst3/user/manzoni/CMG/VBF_HToTauTau_M-110_8TeV-powheg-pythia6/Summer12_DR53X-PU_S10_START53_V7A-v1/AODSIM/PAT_CMG_V5_16_0/HTT_24Jul_newTES_manzoni_Up/diTau_fullsel_tree_CMG_3.root'
p23
(I01
I1601
tp24
sS'/store/cmst3/user/manzoni/CMG/VBF_HToTauTau_M-110_8TeV-powheg-pythia6/Summer12_DR53X-PU_S10_START53_V7A-v1/AODSIM/PAT_CMG_V5_16_0/HTT_24Jul_newTES_manzoni_Up/diTau_fullsel_tree_CMG_4.root'
p25
(I01
I1649
tp26
sS'/store/cmst3/user/manzoni/CMG/VBF_HToTauTau_M-110_8TeV-powheg-pythia6/Summer12_DR53X-PU_S10_START53_V7A-v1/AODSIM/PAT_CMG_V5_16_0/HTT_24Jul_newTES_manzoni_Up/diTau_fullsel_tree_CMG_1.root'
p27
(I01
I1637
tp28
ssS'Name'
p29
S'/VBF_HToTauTau_M-110_8TeV-powheg-pythia6/Summer12_DR53X-PU_S10_START53_V7A-v1/AODSIM/PAT_CMG_V5_16_0/HTT_24Jul_newTES_manzoni_Up'
p30
sS'Topdir'
p31
S'/eos/cms/store/cmst3/user/manzoni/CMG'
p32
sS'RunList'
p33
(lp34
sS'PathList'
p35
(lp36
S'/store/cmst3/user/manzoni/CMG/VBF_HToTauTau_M-110_8TeV-powheg-pythia6/Summer12_DR53X-PU_S10_START53_V7A-v1/AODSIM/PAT_CMG_V5_16_0/HTT_24Jul_newTES_manzoni_Up'
p37
asS'AlgoList'
p38
(lp39
sS'PrimaryDatasetFraction'
p40
F0.032377824724411024
sS'FilesGood'
p41
I11
sS'PrimaryDatasetEntries'
p42
I499385
sS'data'
p43
(dp44
sS'FilesBad'
p45
I0
sS'ReportVersion'
p46
I3
sS'Status'
p47
S'VALID'
p48
sS'MaxRun'
p49
I-1
sS'PhysicsGroup'
p50
S'CMG'
p51
sS'MinRun'
p52
I-1
sS'StageHost'
p53
S'castorcms'
p54
sS'FilesCount'
p55
I11
sS'FilesEntries'
p56
I16169
sS'TierList'
p57
(lp58
sS'DateCreated'
p59
S'1377472197'
p60
sS'CreatedBy'
p61
S'manzoni'
p62
sS'ValidDuplicates'
p63
(dp64
sS'PrimaryDataset'
p65
S'/VBF_HToTauTau_M-110_8TeV-powheg-pythia6/Summer12_DR53X-PU_S10_START53_V7A-v1/AODSIM'
p66
sS'BadJobs'
p67
(lp68
ssS'MaskPresent'
p69
I01
sS'LSFJobStatusCheck'
p70
(dp71
S'VBF_HToTauTau_M-110_8TeV-powheg-pythia6/Summer12_DR53X-PU_S10_START53_V7A-v1/AODSIM/PAT_CMG_V5_16_0_1377467483/HTT_24Jul_newTES_manzoni_Up_Jobs/Job_11'
p72
g48
sS'VBF_HToTauTau_M-110_8TeV-powheg-pythia6/Summer12_DR53X-PU_S10_START53_V7A-v1/AODSIM/PAT_CMG_V5_16_0_1377467483/HTT_24Jul_newTES_manzoni_Up_Jobs/Job_10'
p73
g48
sS'VBF_HToTauTau_M-110_8TeV-powheg-pythia6/Summer12_DR53X-PU_S10_START53_V7A-v1/AODSIM/PAT_CMG_V5_16_0_1377467483/HTT_24Jul_newTES_manzoni_Up_Jobs/Job_9'
p74
g48
sS'VBF_HToTauTau_M-110_8TeV-powheg-pythia6/Summer12_DR53X-PU_S10_START53_V7A-v1/AODSIM/PAT_CMG_V5_16_0_1377467483/HTT_24Jul_newTES_manzoni_Up_Jobs/Job_8'
p75
g48
sS'VBF_HToTauTau_M-110_8TeV-powheg-pythia6/Summer12_DR53X-PU_S10_START53_V7A-v1/AODSIM/PAT_CMG_V5_16_0_1377467483/HTT_24Jul_newTES_manzoni_Up_Jobs/Job_1'
p76
g48
sS'VBF_HToTauTau_M-110_8TeV-powheg-pythia6/Summer12_DR53X-PU_S10_START53_V7A-v1/AODSIM/PAT_CMG_V5_16_0_1377467483/HTT_24Jul_newTES_manzoni_Up_Jobs/Job_3'
p77
g48
sS'VBF_HToTauTau_M-110_8TeV-powheg-pythia6/Summer12_DR53X-PU_S10_START53_V7A-v1/AODSIM/PAT_CMG_V5_16_0_1377467483/HTT_24Jul_newTES_manzoni_Up_Jobs/Job_2'
p78
g48
sS'VBF_HToTauTau_M-110_8TeV-powheg-pythia6/Summer12_DR53X-PU_S10_START53_V7A-v1/AODSIM/PAT_CMG_V5_16_0_1377467483/HTT_24Jul_newTES_manzoni_Up_Jobs/Job_5'
p79
g48
sS'VBF_HToTauTau_M-110_8TeV-powheg-pythia6/Summer12_DR53X-PU_S10_START53_V7A-v1/AODSIM/PAT_CMG_V5_16_0_1377467483/HTT_24Jul_newTES_manzoni_Up_Jobs/Job_4'
p80
g48
sS'VBF_HToTauTau_M-110_8TeV-powheg-pythia6/Summer12_DR53X-PU_S10_START53_V7A-v1/AODSIM/PAT_CMG_V5_16_0_1377467483/HTT_24Jul_newTES_manzoni_Up_Jobs/Job_7'
p81
g48
sS'VBF_HToTauTau_M-110_8TeV-powheg-pythia6/Summer12_DR53X-PU_S10_START53_V7A-v1/AODSIM/PAT_CMG_V5_16_0_1377467483/HTT_24Jul_newTES_manzoni_Up_Jobs/Job_6'
p82
g48
sssS'CheckDatasetExists'
p83
(dp84
S'Dataset'
p85
S'/VBF_HToTauTau_M-110_8TeV-powheg-pythia6/Summer12_DR53X-PU_S10_START53_V7A-v1/AODSIM/PAT_CMG_V5_16_0'
p86
ssS'GenerateMask'
p87
(dp88
g3
(dp89
VPathList
p90
(lp91
V/store/cmst3/group/cmgtools/CMG/VBF_HToTauTau_M-110_8TeV-powheg-pythia6/Summer12_DR53X-PU_S10_START53_V7A-v1/AODSIM/PAT_CMG_V5_16_0
p92
asVStageHost
p93
Vcastorcms
p94
sVPrimaryDatasetFraction
p95
F1.0
sVFilesGood
p96
I54
sVPrimaryDatasetEntries
p97
I499385
sVReportVersion
p98
I3
sVFiles
p99
(dp100
V/store/cmst3/group/cmgtools/CMG/VBF_HToTauTau_M-110_8TeV-powheg-pythia6/Summer12_DR53X-PU_S10_START53_V7A-v1/AODSIM/PAT_CMG_V5_16_0/cmgTuple_30_1_MAf.root
p101
(lp102
I01
aI10000
asV/store/cmst3/group/cmgtools/CMG/VBF_HToTauTau_M-110_8TeV-powheg-pythia6/Summer12_DR53X-PU_S10_START53_V7A-v1/AODSIM/PAT_CMG_V5_16_0/cmgTuple_20_1_fd6.root
p103
(lp104
I01
aI10000
asV/store/cmst3/group/cmgtools/CMG/VBF_HToTauTau_M-110_8TeV-powheg-pythia6/Summer12_DR53X-PU_S10_START53_V7A-v1/AODSIM/PAT_CMG_V5_16_0/cmgTuple_49_1_1Ld.root
p105
(lp106
I01
aI8594
asV/store/cmst3/group/cmgtools/CMG/VBF_HToTauTau_M-110_8TeV-powheg-pythia6/Summer12_DR53X-PU_S10_START53_V7A-v1/AODSIM/PAT_CMG_V5_16_0/cmgTuple_9_1_kfl.root
p107
(lp108
I01
aI10000
asV/store/cmst3/group/cmgtools/CMG/VBF_HToTauTau_M-110_8TeV-powheg-pythia6/Summer12_DR53X-PU_S10_START53_V7A-v1/AODSIM/PAT_CMG_V5_16_0/cmgTuple_32_1_dmo.root
p109
(lp110
I01
aI10000
asV/store/cmst3/group/cmgtools/CMG/VBF_HToTauTau_M-110_8TeV-powheg-pythia6/Summer12_DR53X-PU_S10_START53_V7A-v1/AODSIM/PAT_CMG_V5_16_0/cmgTuple_5_1_Su5.root
p111
(lp112
I01
aI10000
asV/store/cmst3/group/cmgtools/CMG/VBF_HToTauTau_M-110_8TeV-powheg-pythia6/Summer12_DR53X-PU_S10_START53_V7A-v1/AODSIM/PAT_CMG_V5_16_0/cmgTuple_46_1_Foa.root
p113
(lp114
I01
aI10000
asV/store/cmst3/group/cmgtools/CMG/VBF_HToTauTau_M-110_8TeV-powheg-pythia6/Summer12_DR53X-PU_S10_START53_V7A-v1/AODSIM/PAT_CMG_V5_16_0/cmgTuple_34_1_BU4.root
p115
(lp116
I01
aI10000
asV/store/cmst3/group/cmgtools/CMG/VBF_HToTauTau_M-110_8TeV-powheg-pythia6/Summer12_DR53X-PU_S10_START53_V7A-v1/AODSIM/PAT_CMG_V5_16_0/cmgTuple_10_1_KkT.root
p117
(lp118
I01
aI10000
asV/store/cmst3/group/cmgtools/CMG/VBF_HToTauTau_M-110_8TeV-powheg-pythia6/Summer12_DR53X-PU_S10_START53_V7A-v1/AODSIM/PAT_CMG_V5_16_0/cmgTuple_27_1_9rH.root
p119
(lp120
I01
aI10000
asV/store/cmst3/group/cmgtools/CMG/VBF_HToTauTau_M-110_8TeV-powheg-pythia6/Summer12_DR53X-PU_S10_START53_V7A-v1/AODSIM/PAT_CMG_V5_16_0/cmgTuple_22_1_3AL.root
p121
(lp122
I01
aI10000
asV/store/cmst3/group/cmgtools/CMG/VBF_HToTauTau_M-110_8TeV-powheg-pythia6/Summer12_DR53X-PU_S10_START53_V7A-v1/AODSIM/PAT_CMG_V5_16_0/cmgTuple_14_1_jXV.root
p123
(lp124
I01
aI10000
asV/store/cmst3/group/cmgtools/CMG/VBF_HToTauTau_M-110_8TeV-powheg-pythia6/Summer12_DR53X-PU_S10_START53_V7A-v1/AODSIM/PAT_CMG_V5_16_0/cmgTuple_11_1_BZ2.root
p125
(lp126
I01
aI10000
asV/store/cmst3/group/cmgtools/CMG/VBF_HToTauTau_M-110_8TeV-powheg-pythia6/Summer12_DR53X-PU_S10_START53_V7A-v1/AODSIM/PAT_CMG_V5_16_0/cmgTuple_41_1_TXS.root
p127
(lp128
I01
aI10000
asV/store/cmst3/group/cmgtools/CMG/VBF_HToTauTau_M-110_8TeV-powheg-pythia6/Summer12_DR53X-PU_S10_START53_V7A-v1/AODSIM/PAT_CMG_V5_16_0/cmgTuple_44_1_3Bz.root
p129
(lp130
I01
aI10000
asV/store/cmst3/group/cmgtools/CMG/VBF_HToTauTau_M-110_8TeV-powheg-pythia6/Summer12_DR53X-PU_S10_START53_V7A-v1/AODSIM/PAT_CMG_V5_16_0/cmgTuple_31_1_VET.root
p131
(lp132
I01
aI10000
asV/store/cmst3/group/cmgtools/CMG/VBF_HToTauTau_M-110_8TeV-powheg-pythia6/Summer12_DR53X-PU_S10_START53_V7A-v1/AODSIM/PAT_CMG_V5_16_0/cmgTuple_17_1_c8i.root
p133
(lp134
I01
aI10000
asV/store/cmst3/group/cmgtools/CMG/VBF_HToTauTau_M-110_8TeV-powheg-pythia6/Summer12_DR53X-PU_S10_START53_V7A-v1/AODSIM/PAT_CMG_V5_16_0/cmgTuple_51_1_I8A.root
p135
(lp136
I01
aI791
asV/store/cmst3/group/cmgtools/CMG/VBF_HToTauTau_M-110_8TeV-powheg-pythia6/Summer12_DR53X-PU_S10_START53_V7A-v1/AODSIM/PAT_CMG_V5_16_0/cmgTuple_50_1_aJs.root
p137
(lp138
I01
aI10000
asV/store/cmst3/group/cmgtools/CMG/VBF_HToTauTau_M-110_8TeV-powheg-pythia6/Summer12_DR53X-PU_S10_START53_V7A-v1/AODSIM/PAT_CMG_V5_16_0/cmgTuple_28_1_xzm.root
p139
(lp140
I01
aI10000
asV/store/cmst3/group/cmgtools/CMG/VBF_HToTauTau_M-110_8TeV-powheg-pythia6/Summer12_DR53X-PU_S10_START53_V7A-v1/AODSIM/PAT_CMG_V5_16_0/cmgTuple_40_2_pB3.root
p141
(lp142
I01
aI10000
asV/store/cmst3/group/cmgtools/CMG/VBF_HToTauTau_M-110_8TeV-powheg-pythia6/Summer12_DR53X-PU_S10_START53_V7A-v1/AODSIM/PAT_CMG_V5_16_0/cmgTuple_2_1_MBu.root
p143
(lp144
I01
aI10000
asV/store/cmst3/group/cmgtools/CMG/VBF_HToTauTau_M-110_8TeV-powheg-pythia6/Summer12_DR53X-PU_S10_START53_V7A-v1/AODSIM/PAT_CMG_V5_16_0/cmgTuple_16_1_1e0.root
p145
(lp146
I01
aI10000
asV/store/cmst3/group/cmgtools/CMG/VBF_HToTauTau_M-110_8TeV-powheg-pythia6/Summer12_DR53X-PU_S10_START53_V7A-v1/AODSIM/PAT_CMG_V5_16_0/cmgTuple_35_1_9OT.root
p147
(lp148
I01
aI10000
asV/store/cmst3/group/cmgtools/CMG/VBF_HToTauTau_M-110_8TeV-powheg-pythia6/Summer12_DR53X-PU_S10_START53_V7A-v1/AODSIM/PAT_CMG_V5_16_0/cmgTuple_29_1_EZ3.root
p149
(lp150
I01
aI10000
asV/store/cmst3/group/cmgtools/CMG/VBF_HToTauTau_M-110_8TeV-powheg-pythia6/Summer12_DR53X-PU_S10_START53_V7A-v1/AODSIM/PAT_CMG_V5_16_0/cmgTuple_8_1_DhU.root
p151
(lp152
I01
aI10000
asV/store/cmst3/group/cmgtools/CMG/VBF_HToTauTau_M-110_8TeV-powheg-pythia6/Summer12_DR53X-PU_S10_START53_V7A-v1/AODSIM/PAT_CMG_V5_16_0/cmgTuple_7_1_NvW.root
p153
(lp154
I01
aI10000
asV/store/cmst3/group/cmgtools/CMG/VBF_HToTauTau_M-110_8TeV-powheg-pythia6/Summer12_DR53X-PU_S10_START53_V7A-v1/AODSIM/PAT_CMG_V5_16_0/cmgTuple_23_1_Js8.root
p155
(lp156
I01
aI10000
asV/store/cmst3/group/cmgtools/CMG/VBF_HToTauTau_M-110_8TeV-powheg-pythia6/Summer12_DR53X-PU_S10_START53_V7A-v1/AODSIM/PAT_CMG_V5_16_0/cmgTuple_6_1_LVM.root
p157
(lp158
I01
aI10000
asV/store/cmst3/group/cmgtools/CMG/VBF_HToTauTau_M-110_8TeV-powheg-pythia6/Summer12_DR53X-PU_S10_START53_V7A-v1/AODSIM/PAT_CMG_V5_16_0/cmgTuple_1_1_tiu.root
p159
(lp160
I01
aI10000
asV/store/cmst3/group/cmgtools/CMG/VBF_HToTauTau_M-110_8TeV-powheg-pythia6/Summer12_DR53X-PU_S10_START53_V7A-v1/AODSIM/PAT_CMG_V5_16_0/cmgTuple_24_1_ylt.root
p161
(lp162
I01
aI10000
asV/store/cmst3/group/cmgtools/CMG/VBF_HToTauTau_M-110_8TeV-powheg-pythia6/Summer12_DR53X-PU_S10_START53_V7A-v1/AODSIM/PAT_CMG_V5_16_0/cmgTuple_48_1_xXA.root
p163
(lp164
I01
aI10000
asV/store/cmst3/group/cmgtools/CMG/VBF_HToTauTau_M-110_8TeV-powheg-pythia6/Summer12_DR53X-PU_S10_START53_V7A-v1/AODSIM/PAT_CMG_V5_16_0/cmgTuple_25_1_hqx.root
p165
(lp166
I01
aI10000
asV/store/cmst3/group/cmgtools/CMG/VBF_HToTauTau_M-110_8TeV-powheg-pythia6/Summer12_DR53X-PU_S10_START53_V7A-v1/AODSIM/PAT_CMG_V5_16_0/cmgTuple_40_1_mFR.root
p167
(lp168
I01
aI10000
asV/store/cmst3/group/cmgtools/CMG/VBF_HToTauTau_M-110_8TeV-powheg-pythia6/Summer12_DR53X-PU_S10_START53_V7A-v1/AODSIM/PAT_CMG_V5_16_0/cmgTuple_15_1_mBp.root
p169
(lp170
I01
aI10000
asV/store/cmst3/group/cmgtools/CMG/VBF_HToTauTau_M-110_8TeV-powheg-pythia6/Summer12_DR53X-PU_S10_START53_V7A-v1/AODSIM/PAT_CMG_V5_16_0/cmgTuple_12_1_oMf.root
p171
(lp172
I01
aI10000
asV/store/cmst3/group/cmgtools/CMG/VBF_HToTauTau_M-110_8TeV-powheg-pythia6/Summer12_DR53X-PU_S10_START53_V7A-v1/AODSIM/PAT_CMG_V5_16_0/cmgTuple_37_1_eUh.root
p173
(lp174
I01
aI10000
asV/store/cmst3/group/cmgtools/CMG/VBF_HToTauTau_M-110_8TeV-powheg-pythia6/Summer12_DR53X-PU_S10_START53_V7A-v1/AODSIM/PAT_CMG_V5_16_0/cmgTuple_47_1_VYa.root
p175
(lp176
I01
aI10000
asV/store/cmst3/group/cmgtools/CMG/VBF_HToTauTau_M-110_8TeV-powheg-pythia6/Summer12_DR53X-PU_S10_START53_V7A-v1/AODSIM/PAT_CMG_V5_16_0/cmgTuple_26_1_7VH.root
p177
(lp178
I01
aI10000
asV/store/cmst3/group/cmgtools/CMG/VBF_HToTauTau_M-110_8TeV-powheg-pythia6/Summer12_DR53X-PU_S10_START53_V7A-v1/AODSIM/PAT_CMG_V5_16_0/cmgTuple_20_2_LIy.root
p179
(lp180
I01
aI10000
asV/store/cmst3/group/cmgtools/CMG/VBF_HToTauTau_M-110_8TeV-powheg-pythia6/Summer12_DR53X-PU_S10_START53_V7A-v1/AODSIM/PAT_CMG_V5_16_0/cmgTuple_18_1_FgL.root
p181
(lp182
I01
aI10000
asV/store/cmst3/group/cmgtools/CMG/VBF_HToTauTau_M-110_8TeV-powheg-pythia6/Summer12_DR53X-PU_S10_START53_V7A-v1/AODSIM/PAT_CMG_V5_16_0/cmgTuple_38_1_R6w.root
p183
(lp184
I01
aI10000
asV/store/cmst3/group/cmgtools/CMG/VBF_HToTauTau_M-110_8TeV-powheg-pythia6/Summer12_DR53X-PU_S10_START53_V7A-v1/AODSIM/PAT_CMG_V5_16_0/cmgTuple_4_1_ITG.root
p185
(lp186
I01
aI10000
asV/store/cmst3/group/cmgtools/CMG/VBF_HToTauTau_M-110_8TeV-powheg-pythia6/Summer12_DR53X-PU_S10_START53_V7A-v1/AODSIM/PAT_CMG_V5_16_0/cmgTuple_13_1_Kjo.root
p187
(lp188
I01
aI10000
asV/store/cmst3/group/cmgtools/CMG/VBF_HToTauTau_M-110_8TeV-powheg-pythia6/Summer12_DR53X-PU_S10_START53_V7A-v1/AODSIM/PAT_CMG_V5_16_0/cmgTuple_19_1_RJe.root
p189
(lp190
I01
aI10000
asV/store/cmst3/group/cmgtools/CMG/VBF_HToTauTau_M-110_8TeV-powheg-pythia6/Summer12_DR53X-PU_S10_START53_V7A-v1/AODSIM/PAT_CMG_V5_16_0/cmgTuple_45_1_ymO.root
p191
(lp192
I01
aI10000
asV/store/cmst3/group/cmgtools/CMG/VBF_HToTauTau_M-110_8TeV-powheg-pythia6/Summer12_DR53X-PU_S10_START53_V7A-v1/AODSIM/PAT_CMG_V5_16_0/cmgTuple_43_1_tKv.root
p193
(lp194
I01
aI10000
asV/store/cmst3/group/cmgtools/CMG/VBF_HToTauTau_M-110_8TeV-powheg-pythia6/Summer12_DR53X-PU_S10_START53_V7A-v1/AODSIM/PAT_CMG_V5_16_0/cmgTuple_3_1_lP6.root
p195
(lp196
I01
aI10000
asV/store/cmst3/group/cmgtools/CMG/VBF_HToTauTau_M-110_8TeV-powheg-pythia6/Summer12_DR53X-PU_S10_START53_V7A-v1/AODSIM/PAT_CMG_V5_16_0/cmgTuple_19_2_024.root
p197
(lp198
I01
aI10000
asV/store/cmst3/group/cmgtools/CMG/VBF_HToTauTau_M-110_8TeV-powheg-pythia6/Summer12_DR53X-PU_S10_START53_V7A-v1/AODSIM/PAT_CMG_V5_16_0/cmgTuple_33_1_0Tz.root
p199
(lp200
I01
aI10000
asV/store/cmst3/group/cmgtools/CMG/VBF_HToTauTau_M-110_8TeV-powheg-pythia6/Summer12_DR53X-PU_S10_START53_V7A-v1/AODSIM/PAT_CMG_V5_16_0/cmgTuple_39_1_j54.root
p201
(lp202
I01
aI10000
asV/store/cmst3/group/cmgtools/CMG/VBF_HToTauTau_M-110_8TeV-powheg-pythia6/Summer12_DR53X-PU_S10_START53_V7A-v1/AODSIM/PAT_CMG_V5_16_0/cmgTuple_36_1_jS1.root
p203
(lp204
I01
aI10000
asV/store/cmst3/group/cmgtools/CMG/VBF_HToTauTau_M-110_8TeV-powheg-pythia6/Summer12_DR53X-PU_S10_START53_V7A-v1/AODSIM/PAT_CMG_V5_16_0/cmgTuple_42_1_8V2.root
p205
(lp206
I01
aI10000
asV/store/cmst3/group/cmgtools/CMG/VBF_HToTauTau_M-110_8TeV-powheg-pythia6/Summer12_DR53X-PU_S10_START53_V7A-v1/AODSIM/PAT_CMG_V5_16_0/cmgTuple_21_1_cwa.root
p207
(lp208
I01
aI10000
assVPhysicsGroup
p209
VCMG
p210
sVFilesCount
p211
I54
sVFilesEntries
p212
I499385
sVRunList
p213
(lp214
sVValidDuplicates
p215
(dp216
V/store/cmst3/group/cmgtools/CMG/VBF_HToTauTau_M-110_8TeV-powheg-pythia6/Summer12_DR53X-PU_S10_START53_V7A-v1/AODSIM/PAT_CMG_V5_16_0/cmgTuple_20_1_fd6.root
p217
I10000
sV/store/cmst3/group/cmgtools/CMG/VBF_HToTauTau_M-110_8TeV-powheg-pythia6/Summer12_DR53X-PU_S10_START53_V7A-v1/AODSIM/PAT_CMG_V5_16_0/cmgTuple_19_1_RJe.root
p218
I10000
sV/store/cmst3/group/cmgtools/CMG/VBF_HToTauTau_M-110_8TeV-powheg-pythia6/Summer12_DR53X-PU_S10_START53_V7A-v1/AODSIM/PAT_CMG_V5_16_0/cmgTuple_40_1_mFR.root
p219
I10000
ssVPrimaryDataset
p220
V/VBF_HToTauTau_M-110_8TeV-powheg-pythia6/Summer12_DR53X-PU_S10_START53_V7A-v1/AODSIM
p221
sVStatus
p222
VVALID
p223
sVName
p224
V/VBF_HToTauTau_M-110_8TeV-powheg-pythia6/Summer12_DR53X-PU_S10_START53_V7A-v1/AODSIM/PAT_CMG_V5_16_0
p225
sVTopdir
p226
V/eos/cms/store/cmst3/group/cmgtools/CMG
p227
sVdata
p228
(dp229
sVFilesBad
p230
I0
sVMinRun
p231
I-1
sVAlgoList
p232
(lp233
sVTierList
p234
(lp235
sVDateCreated
p236
V1370942967
p237
sVCreatedBy
p238
Vcmgtools_group
p239
sVMaxRun
p240
I-1
sVBadJobs
p241
(lp242
ssg69
I01
ssS'MonitorJobs'
p243
(dp244
S'LSFJobStatus'
p245
(dp246
g72
S'VBF_HToTauTau_M-110_8TeV-powheg-pythia6/Summer12_DR53X-PU_S10_START53_V7A-v1/AODSIM/PAT_CMG_V5_16_0_1377467483/HTT_24Jul_newTES_manzoni_Up_Jobs/Job_11/LSFJOB_440971592/STDOUT.gz'
p247
sg73
S'VBF_HToTauTau_M-110_8TeV-powheg-pythia6/Summer12_DR53X-PU_S10_START53_V7A-v1/AODSIM/PAT_CMG_V5_16_0_1377467483/HTT_24Jul_newTES_manzoni_Up_Jobs/Job_10/LSFJOB_440971478/STDOUT.gz'
p248
sg74
S'VBF_HToTauTau_M-110_8TeV-powheg-pythia6/Summer12_DR53X-PU_S10_START53_V7A-v1/AODSIM/PAT_CMG_V5_16_0_1377467483/HTT_24Jul_newTES_manzoni_Up_Jobs/Job_9/LSFJOB_440971413/STDOUT.gz'
p249
sg75
S'VBF_HToTauTau_M-110_8TeV-powheg-pythia6/Summer12_DR53X-PU_S10_START53_V7A-v1/AODSIM/PAT_CMG_V5_16_0_1377467483/HTT_24Jul_newTES_manzoni_Up_Jobs/Job_8/LSFJOB_440971336/STDOUT.gz'
p250
sg76
S'VBF_HToTauTau_M-110_8TeV-powheg-pythia6/Summer12_DR53X-PU_S10_START53_V7A-v1/AODSIM/PAT_CMG_V5_16_0_1377467483/HTT_24Jul_newTES_manzoni_Up_Jobs/Job_1/LSFJOB_440970598/STDOUT.gz'
p251
sg77
S'VBF_HToTauTau_M-110_8TeV-powheg-pythia6/Summer12_DR53X-PU_S10_START53_V7A-v1/AODSIM/PAT_CMG_V5_16_0_1377467483/HTT_24Jul_newTES_manzoni_Up_Jobs/Job_3/LSFJOB_440970860/STDOUT.gz'
p252
sg78
S'VBF_HToTauTau_M-110_8TeV-powheg-pythia6/Summer12_DR53X-PU_S10_START53_V7A-v1/AODSIM/PAT_CMG_V5_16_0_1377467483/HTT_24Jul_newTES_manzoni_Up_Jobs/Job_2/LSFJOB_440970731/STDOUT.gz'
p253
sg79
S'VBF_HToTauTau_M-110_8TeV-powheg-pythia6/Summer12_DR53X-PU_S10_START53_V7A-v1/AODSIM/PAT_CMG_V5_16_0_1377467483/HTT_24Jul_newTES_manzoni_Up_Jobs/Job_5/LSFJOB_440971028/STDOUT.gz'
p254
sg80
S'VBF_HToTauTau_M-110_8TeV-powheg-pythia6/Summer12_DR53X-PU_S10_START53_V7A-v1/AODSIM/PAT_CMG_V5_16_0_1377467483/HTT_24Jul_newTES_manzoni_Up_Jobs/Job_4/LSFJOB_440970936/STDOUT.gz'
p255
sg81
S'VBF_HToTauTau_M-110_8TeV-powheg-pythia6/Summer12_DR53X-PU_S10_START53_V7A-v1/AODSIM/PAT_CMG_V5_16_0_1377467483/HTT_24Jul_newTES_manzoni_Up_Jobs/Job_7/LSFJOB_440971213/STDOUT.gz'
p256
sg82
S'VBF_HToTauTau_M-110_8TeV-powheg-pythia6/Summer12_DR53X-PU_S10_START53_V7A-v1/AODSIM/PAT_CMG_V5_16_0_1377467483/HTT_24Jul_newTES_manzoni_Up_Jobs/Job_6/LSFJOB_440971117/STDOUT.gz'
p257
ssS'LSFJobIDs'
p258
(dp259
g72
S'440971592'
p260
sg73
S'440971478'
p261
sg74
S'440971413'
p262
sg75
S'440971336'
p263
sg76
S'440970598'
p264
sg77
S'440970860'
p265
sg78
S'440970731'
p266
sg79
S'440971028'
p267
sg80
S'440970936'
p268
sg81
S'440971213'
p269
sg82
S'440971117'
p270
sssS'FindOnCastor'
p271
(dp272
g31
S'/eos/cms/store/cmst3/group/cmgtools/CMG'
p273
sS'Directory'
p274
S'/eos/cms/store/cmst3/group/cmgtools/CMG/VBF_HToTauTau_M-110_8TeV-powheg-pythia6/Summer12_DR53X-PU_S10_START53_V7A-v1/AODSIM/PAT_CMG_V5_16_0'
p275
ssS'CheckConfig'
p276
(dp277
g47
g48
ssS'FullCFG'
p278
(dp279
S'FullCFG'
p280
S'VBF_HToTauTau_M-110_8TeV-powheg-pythia6/Summer12_DR53X-PU_S10_START53_V7A-v1/AODSIM/PAT_CMG_V5_16_0_1377467483/full_cfg.py'
p281
ssS'WriteJobReport'
p282
(dp283
S'SummaryFile'
p284
S'VBF_HToTauTau_M-110_8TeV-powheg-pythia6/Summer12_DR53X-PU_S10_START53_V7A-v1/AODSIM/PAT_CMG_V5_16_0_1377467483/resubmit.sh'
p285
ssS'ExpandConfig'
p286
(dp287
S'ExpandedFullCFG'
p288
S'VBF_HToTauTau_M-110_8TeV-powheg-pythia6/Summer12_DR53X-PU_S10_START53_V7A-v1/AODSIM/PAT_CMG_V5_16_0_1377467483/Expandedfull_cfg.py'
p289
ssS'RunTestEvents'
p290
(dp291
g47
g48
sS'TestCFG'
p292
S'VBF_HToTauTau_M-110_8TeV-powheg-pythia6/Summer12_DR53X-PU_S10_START53_V7A-v1/AODSIM/PAT_CMG_V5_16_0_1377467483/test_cfg.py'
p293
ssS'SourceCFG'
p294
(dp295
S'SourceCFG'
p296
S'VBF_HToTauTau_M-110_8TeV-powheg-pythia6/Summer12_DR53X-PU_S10_START53_V7A-v1/AODSIM/PAT_CMG_V5_16_0_1377467483/source_cfg.py'
p297
ssS'CheckForWrite'
p298
(dp299
g274
g275
sS'WriteAccess'
p300
I01
ssS'WriteToDatasets'
p301
(dp302
S'Added'
p303
I00
sg29
S'/VBF_HToTauTau_M-110_8TeV-powheg-pythia6/Summer12_DR53X-PU_S10_START53_V7A-v1/AODSIM/PAT_CMG_V5_16_0/HTT_24Jul_newTES_manzoni_Up'
p304
sS'User'
p305
g62
ssS'RunCMSBatch'
p306
(dp307
S'BatchUser'
p308
g62
sS'SampleOutputDir'
p309
S'/store/cmst3/user/manzoni/CMG/VBF_HToTauTau_M-110_8TeV-powheg-pythia6/Summer12_DR53X-PU_S10_START53_V7A-v1/AODSIM/PAT_CMG_V5_16_0/HTT_24Jul_newTES_manzoni_Up'
p310
sS'SampleDataset'
p311
g30
sS'LSFJobsTopDir'
p312
S'VBF_HToTauTau_M-110_8TeV-powheg-pythia6/Summer12_DR53X-PU_S10_START53_V7A-v1/AODSIM/PAT_CMG_V5_16_0_1377467483/HTT_24Jul_newTES_manzoni_Up_Jobs'
p313
ssS'CreateJobDirectory'
p314
(dp315
S'JobDir'
p316
S'VBF_HToTauTau_M-110_8TeV-powheg-pythia6/Summer12_DR53X-PU_S10_START53_V7A-v1/AODSIM/PAT_CMG_V5_16_0_1377467483'
p317
sS'PWD'
p318
S'/afs/cern.ch/user/m/manzoni/summer13/CMGTools/CMSSW_5_3_9/src/CMGTools/H2TauTau/prod/25aug_corrMC/up/mc'
p319
ssS'CleanJobFiles'
p320
(dp321
S'Compressed'
p322
(dp323
S'CompressedFiles'
p324
(lp325
ssS'Cleaned'
p326
(dp327
S'CleanedFiles'
p328
(lp329
g289
ag293
aS'VBF_HToTauTau_M-110_8TeV-powheg-pythia6/Summer12_DR53X-PU_S10_START53_V7A-v1/AODSIM/PAT_CMG_V5_16_0_1377467483/diTau_fullsel_tree_CMG.root'
p330
aS'VBF_HToTauTau_M-110_8TeV-powheg-pythia6/Summer12_DR53X-PU_S10_START53_V7A-v1/AODSIM/PAT_CMG_V5_16_0_1377467483/source_cfg.pyc'
p331
aS'VBF_HToTauTau_M-110_8TeV-powheg-pythia6/Summer12_DR53X-PU_S10_START53_V7A-v1/AODSIM/PAT_CMG_V5_16_0_1377467483/Expandedfull_cfg.pyc'
p332
asssS'CheckForMask'
p333
(dp334
g3
g89
sg69
I01
ss.