(dp0
S'CheckJobStatus'
p1
(dp2
S'Report'
p3
(dp4
S'Files'
p5
(dp6
S'/store/cmst3/user/manzoni/CMG/VBF_HToTauTau_M-130_8TeV-powheg-pythia6/Summer12_DR53X-PU_S10_START53_V7A-v1/AODSIM/PAT_CMG_V5_16_0/HTT_24Jul_newTES_manzoni_Up/diTau_fullsel_tree_CMG_5.root'
p7
(I01
I2380
tp8
sS'/store/cmst3/user/manzoni/CMG/VBF_HToTauTau_M-130_8TeV-powheg-pythia6/Summer12_DR53X-PU_S10_START53_V7A-v1/AODSIM/PAT_CMG_V5_16_0/HTT_24Jul_newTES_manzoni_Up/diTau_fullsel_tree_CMG_17.root'
p9
(I01
I2426
tp10
sS'/store/cmst3/user/manzoni/CMG/VBF_HToTauTau_M-130_8TeV-powheg-pythia6/Summer12_DR53X-PU_S10_START53_V7A-v1/AODSIM/PAT_CMG_V5_16_0/HTT_24Jul_newTES_manzoni_Up/diTau_fullsel_tree_CMG_12.root'
p11
(I01
I2338
tp12
sS'/store/cmst3/user/manzoni/CMG/VBF_HToTauTau_M-130_8TeV-powheg-pythia6/Summer12_DR53X-PU_S10_START53_V7A-v1/AODSIM/PAT_CMG_V5_16_0/HTT_24Jul_newTES_manzoni_Up/diTau_fullsel_tree_CMG_7.root'
p13
(I01
I2297
tp14
sS'/store/cmst3/user/manzoni/CMG/VBF_HToTauTau_M-130_8TeV-powheg-pythia6/Summer12_DR53X-PU_S10_START53_V7A-v1/AODSIM/PAT_CMG_V5_16_0/HTT_24Jul_newTES_manzoni_Up/diTau_fullsel_tree_CMG_11.root'
p15
(I01
I2324
tp16
sS'/store/cmst3/user/manzoni/CMG/VBF_HToTauTau_M-130_8TeV-powheg-pythia6/Summer12_DR53X-PU_S10_START53_V7A-v1/AODSIM/PAT_CMG_V5_16_0/HTT_24Jul_newTES_manzoni_Up/diTau_fullsel_tree_CMG_9.root'
p17
(I01
I2407
tp18
sS'/store/cmst3/user/manzoni/CMG/VBF_HToTauTau_M-130_8TeV-powheg-pythia6/Summer12_DR53X-PU_S10_START53_V7A-v1/AODSIM/PAT_CMG_V5_16_0/HTT_24Jul_newTES_manzoni_Up/diTau_fullsel_tree_CMG_15.root'
p19
(I01
I1811
tp20
sS'/store/cmst3/user/manzoni/CMG/VBF_HToTauTau_M-130_8TeV-powheg-pythia6/Summer12_DR53X-PU_S10_START53_V7A-v1/AODSIM/PAT_CMG_V5_16_0/HTT_24Jul_newTES_manzoni_Up/diTau_fullsel_tree_CMG_8.root'
p21
(I01
I2351
tp22
sS'/store/cmst3/user/manzoni/CMG/VBF_HToTauTau_M-130_8TeV-powheg-pythia6/Summer12_DR53X-PU_S10_START53_V7A-v1/AODSIM/PAT_CMG_V5_16_0/HTT_24Jul_newTES_manzoni_Up/diTau_fullsel_tree_CMG_10.root'
p23
(I01
I2398
tp24
sS'/store/cmst3/user/manzoni/CMG/VBF_HToTauTau_M-130_8TeV-powheg-pythia6/Summer12_DR53X-PU_S10_START53_V7A-v1/AODSIM/PAT_CMG_V5_16_0/HTT_24Jul_newTES_manzoni_Up/diTau_fullsel_tree_CMG_18.root'
p25
(I01
I2332
tp26
sS'/store/cmst3/user/manzoni/CMG/VBF_HToTauTau_M-130_8TeV-powheg-pythia6/Summer12_DR53X-PU_S10_START53_V7A-v1/AODSIM/PAT_CMG_V5_16_0/HTT_24Jul_newTES_manzoni_Up/diTau_fullsel_tree_CMG_20.root'
p27
(I01
I2371
tp28
sS'/store/cmst3/user/manzoni/CMG/VBF_HToTauTau_M-130_8TeV-powheg-pythia6/Summer12_DR53X-PU_S10_START53_V7A-v1/AODSIM/PAT_CMG_V5_16_0/HTT_24Jul_newTES_manzoni_Up/diTau_fullsel_tree_CMG_4.root'
p29
(I01
I2304
tp30
sS'/store/cmst3/user/manzoni/CMG/VBF_HToTauTau_M-130_8TeV-powheg-pythia6/Summer12_DR53X-PU_S10_START53_V7A-v1/AODSIM/PAT_CMG_V5_16_0/HTT_24Jul_newTES_manzoni_Up/diTau_fullsel_tree_CMG_1.root'
p31
(I01
I1936
tp32
sS'/store/cmst3/user/manzoni/CMG/VBF_HToTauTau_M-130_8TeV-powheg-pythia6/Summer12_DR53X-PU_S10_START53_V7A-v1/AODSIM/PAT_CMG_V5_16_0/HTT_24Jul_newTES_manzoni_Up/diTau_fullsel_tree_CMG_6.root'
p33
(I01
I2302
tp34
sS'/store/cmst3/user/manzoni/CMG/VBF_HToTauTau_M-130_8TeV-powheg-pythia6/Summer12_DR53X-PU_S10_START53_V7A-v1/AODSIM/PAT_CMG_V5_16_0/HTT_24Jul_newTES_manzoni_Up/diTau_fullsel_tree_CMG_2.root'
p35
(I01
I2357
tp36
sS'/store/cmst3/user/manzoni/CMG/VBF_HToTauTau_M-130_8TeV-powheg-pythia6/Summer12_DR53X-PU_S10_START53_V7A-v1/AODSIM/PAT_CMG_V5_16_0/HTT_24Jul_newTES_manzoni_Up/diTau_fullsel_tree_CMG_14.root'
p37
(I01
I2324
tp38
sS'/store/cmst3/user/manzoni/CMG/VBF_HToTauTau_M-130_8TeV-powheg-pythia6/Summer12_DR53X-PU_S10_START53_V7A-v1/AODSIM/PAT_CMG_V5_16_0/HTT_24Jul_newTES_manzoni_Up/diTau_fullsel_tree_CMG_3.root'
p39
(I01
I2331
tp40
sS'/store/cmst3/user/manzoni/CMG/VBF_HToTauTau_M-130_8TeV-powheg-pythia6/Summer12_DR53X-PU_S10_START53_V7A-v1/AODSIM/PAT_CMG_V5_16_0/HTT_24Jul_newTES_manzoni_Up/diTau_fullsel_tree_CMG_13.root'
p41
(I01
I2243
tp42
sS'/store/cmst3/user/manzoni/CMG/VBF_HToTauTau_M-130_8TeV-powheg-pythia6/Summer12_DR53X-PU_S10_START53_V7A-v1/AODSIM/PAT_CMG_V5_16_0/HTT_24Jul_newTES_manzoni_Up/diTau_fullsel_tree_CMG_21.root'
p43
(I01
I933
tp44
sS'/store/cmst3/user/manzoni/CMG/VBF_HToTauTau_M-130_8TeV-powheg-pythia6/Summer12_DR53X-PU_S10_START53_V7A-v1/AODSIM/PAT_CMG_V5_16_0/HTT_24Jul_newTES_manzoni_Up/diTau_fullsel_tree_CMG_19.root'
p45
(I01
I2352
tp46
sS'/store/cmst3/user/manzoni/CMG/VBF_HToTauTau_M-130_8TeV-powheg-pythia6/Summer12_DR53X-PU_S10_START53_V7A-v1/AODSIM/PAT_CMG_V5_16_0/HTT_24Jul_newTES_manzoni_Up/diTau_fullsel_tree_CMG_16.root'
p47
(I01
I2350
tp48
ssS'Name'
p49
S'/VBF_HToTauTau_M-130_8TeV-powheg-pythia6/Summer12_DR53X-PU_S10_START53_V7A-v1/AODSIM/PAT_CMG_V5_16_0/HTT_24Jul_newTES_manzoni_Up'
p50
sS'Topdir'
p51
S'/eos/cms/store/cmst3/user/manzoni/CMG'
p52
sS'RunList'
p53
(lp54
sS'PathList'
p55
(lp56
S'/store/cmst3/user/manzoni/CMG/VBF_HToTauTau_M-130_8TeV-powheg-pythia6/Summer12_DR53X-PU_S10_START53_V7A-v1/AODSIM/PAT_CMG_V5_16_0/HTT_24Jul_newTES_manzoni_Up'
p57
asS'AlgoList'
p58
(lp59
sS'PrimaryDatasetFraction'
p60
F0.046923777771103035
sS'FilesGood'
p61
I21
sS'PrimaryDatasetEntries'
p62
I998790
sS'data'
p63
(dp64
sS'FilesBad'
p65
I0
sS'ReportVersion'
p66
I3
sS'Status'
p67
S'VALID'
p68
sS'MaxRun'
p69
I-1
sS'PhysicsGroup'
p70
S'CMG'
p71
sS'MinRun'
p72
I-1
sS'StageHost'
p73
S'castorcms'
p74
sS'FilesCount'
p75
I21
sS'FilesEntries'
p76
I46867
sS'TierList'
p77
(lp78
sS'DateCreated'
p79
S'1377479632'
p80
sS'CreatedBy'
p81
S'manzoni'
p82
sS'ValidDuplicates'
p83
(dp84
sS'PrimaryDataset'
p85
S'/VBF_HToTauTau_M-130_8TeV-powheg-pythia6/Summer12_DR53X-PU_S10_START53_V7A-v1/AODSIM'
p86
sS'BadJobs'
p87
(lp88
ssS'MaskPresent'
p89
I01
sS'LSFJobStatusCheck'
p90
(dp91
S'VBF_HToTauTau_M-130_8TeV-powheg-pythia6/Summer12_DR53X-PU_S10_START53_V7A-v1/AODSIM/PAT_CMG_V5_16_0_1377467447/HTT_24Jul_newTES_manzoni_Up_Jobs/Job_3'
p92
g68
sS'VBF_HToTauTau_M-130_8TeV-powheg-pythia6/Summer12_DR53X-PU_S10_START53_V7A-v1/AODSIM/PAT_CMG_V5_16_0_1377467447/HTT_24Jul_newTES_manzoni_Up_Jobs/Job_2'
p93
g68
sS'VBF_HToTauTau_M-130_8TeV-powheg-pythia6/Summer12_DR53X-PU_S10_START53_V7A-v1/AODSIM/PAT_CMG_V5_16_0_1377467447/HTT_24Jul_newTES_manzoni_Up_Jobs/Job_1'
p94
g68
sS'VBF_HToTauTau_M-130_8TeV-powheg-pythia6/Summer12_DR53X-PU_S10_START53_V7A-v1/AODSIM/PAT_CMG_V5_16_0_1377467447/HTT_24Jul_newTES_manzoni_Up_Jobs/Job_10'
p95
g68
sS'VBF_HToTauTau_M-130_8TeV-powheg-pythia6/Summer12_DR53X-PU_S10_START53_V7A-v1/AODSIM/PAT_CMG_V5_16_0_1377467447/HTT_24Jul_newTES_manzoni_Up_Jobs/Job_7'
p96
g68
sS'VBF_HToTauTau_M-130_8TeV-powheg-pythia6/Summer12_DR53X-PU_S10_START53_V7A-v1/AODSIM/PAT_CMG_V5_16_0_1377467447/HTT_24Jul_newTES_manzoni_Up_Jobs/Job_6'
p97
g68
sS'VBF_HToTauTau_M-130_8TeV-powheg-pythia6/Summer12_DR53X-PU_S10_START53_V7A-v1/AODSIM/PAT_CMG_V5_16_0_1377467447/HTT_24Jul_newTES_manzoni_Up_Jobs/Job_5'
p98
g68
sS'VBF_HToTauTau_M-130_8TeV-powheg-pythia6/Summer12_DR53X-PU_S10_START53_V7A-v1/AODSIM/PAT_CMG_V5_16_0_1377467447/HTT_24Jul_newTES_manzoni_Up_Jobs/Job_4'
p99
g68
sS'VBF_HToTauTau_M-130_8TeV-powheg-pythia6/Summer12_DR53X-PU_S10_START53_V7A-v1/AODSIM/PAT_CMG_V5_16_0_1377467447/HTT_24Jul_newTES_manzoni_Up_Jobs/Job_9'
p100
g68
sS'VBF_HToTauTau_M-130_8TeV-powheg-pythia6/Summer12_DR53X-PU_S10_START53_V7A-v1/AODSIM/PAT_CMG_V5_16_0_1377467447/HTT_24Jul_newTES_manzoni_Up_Jobs/Job_8'
p101
g68
sS'VBF_HToTauTau_M-130_8TeV-powheg-pythia6/Summer12_DR53X-PU_S10_START53_V7A-v1/AODSIM/PAT_CMG_V5_16_0_1377467447/HTT_24Jul_newTES_manzoni_Up_Jobs/Job_11'
p102
g68
sS'VBF_HToTauTau_M-130_8TeV-powheg-pythia6/Summer12_DR53X-PU_S10_START53_V7A-v1/AODSIM/PAT_CMG_V5_16_0_1377467447/HTT_24Jul_newTES_manzoni_Up_Jobs/Job_14'
p103
g68
sS'VBF_HToTauTau_M-130_8TeV-powheg-pythia6/Summer12_DR53X-PU_S10_START53_V7A-v1/AODSIM/PAT_CMG_V5_16_0_1377467447/HTT_24Jul_newTES_manzoni_Up_Jobs/Job_15'
p104
g68
sS'VBF_HToTauTau_M-130_8TeV-powheg-pythia6/Summer12_DR53X-PU_S10_START53_V7A-v1/AODSIM/PAT_CMG_V5_16_0_1377467447/HTT_24Jul_newTES_manzoni_Up_Jobs/Job_18'
p105
g68
sS'VBF_HToTauTau_M-130_8TeV-powheg-pythia6/Summer12_DR53X-PU_S10_START53_V7A-v1/AODSIM/PAT_CMG_V5_16_0_1377467447/HTT_24Jul_newTES_manzoni_Up_Jobs/Job_17'
p106
g68
sS'VBF_HToTauTau_M-130_8TeV-powheg-pythia6/Summer12_DR53X-PU_S10_START53_V7A-v1/AODSIM/PAT_CMG_V5_16_0_1377467447/HTT_24Jul_newTES_manzoni_Up_Jobs/Job_12'
p107
g68
sS'VBF_HToTauTau_M-130_8TeV-powheg-pythia6/Summer12_DR53X-PU_S10_START53_V7A-v1/AODSIM/PAT_CMG_V5_16_0_1377467447/HTT_24Jul_newTES_manzoni_Up_Jobs/Job_21'
p108
g68
sS'VBF_HToTauTau_M-130_8TeV-powheg-pythia6/Summer12_DR53X-PU_S10_START53_V7A-v1/AODSIM/PAT_CMG_V5_16_0_1377467447/HTT_24Jul_newTES_manzoni_Up_Jobs/Job_13'
p109
g68
sS'VBF_HToTauTau_M-130_8TeV-powheg-pythia6/Summer12_DR53X-PU_S10_START53_V7A-v1/AODSIM/PAT_CMG_V5_16_0_1377467447/HTT_24Jul_newTES_manzoni_Up_Jobs/Job_19'
p110
g68
sS'VBF_HToTauTau_M-130_8TeV-powheg-pythia6/Summer12_DR53X-PU_S10_START53_V7A-v1/AODSIM/PAT_CMG_V5_16_0_1377467447/HTT_24Jul_newTES_manzoni_Up_Jobs/Job_20'
p111
g68
sS'VBF_HToTauTau_M-130_8TeV-powheg-pythia6/Summer12_DR53X-PU_S10_START53_V7A-v1/AODSIM/PAT_CMG_V5_16_0_1377467447/HTT_24Jul_newTES_manzoni_Up_Jobs/Job_16'
p112
g68
sssS'CheckDatasetExists'
p113
(dp114
S'Dataset'
p115
S'/VBF_HToTauTau_M-130_8TeV-powheg-pythia6/Summer12_DR53X-PU_S10_START53_V7A-v1/AODSIM/PAT_CMG_V5_16_0'
p116
ssS'GenerateMask'
p117
(dp118
g3
(dp119
VPathList
p120
(lp121
V/store/cmst3/group/cmgtools/CMG/VBF_HToTauTau_M-130_8TeV-powheg-pythia6/Summer12_DR53X-PU_S10_START53_V7A-v1/AODSIM/PAT_CMG_V5_16_0
p122
asVStageHost
p123
Vcastorcms
p124
sVPrimaryDatasetFraction
p125
F1.0
sVFilesGood
p126
I102
sVPrimaryDatasetEntries
p127
I998790
sVReportVersion
p128
I3
sVFiles
p129
(dp130
V/store/cmst3/group/cmgtools/CMG/VBF_HToTauTau_M-130_8TeV-powheg-pythia6/Summer12_DR53X-PU_S10_START53_V7A-v1/AODSIM/PAT_CMG_V5_16_0/cmgTuple_43_1_jYB.root
p131
(lp132
I01
aI10000
asV/store/cmst3/group/cmgtools/CMG/VBF_HToTauTau_M-130_8TeV-powheg-pythia6/Summer12_DR53X-PU_S10_START53_V7A-v1/AODSIM/PAT_CMG_V5_16_0/cmgTuple_102_1_wpE.root
p133
(lp134
I01
aI9888
asV/store/cmst3/group/cmgtools/CMG/VBF_HToTauTau_M-130_8TeV-powheg-pythia6/Summer12_DR53X-PU_S10_START53_V7A-v1/AODSIM/PAT_CMG_V5_16_0/cmgTuple_95_1_vqV.root
p135
(lp136
I01
aI10000
asV/store/cmst3/group/cmgtools/CMG/VBF_HToTauTau_M-130_8TeV-powheg-pythia6/Summer12_DR53X-PU_S10_START53_V7A-v1/AODSIM/PAT_CMG_V5_16_0/cmgTuple_97_1_7mr.root
p137
(lp138
I01
aI10000
asV/store/cmst3/group/cmgtools/CMG/VBF_HToTauTau_M-130_8TeV-powheg-pythia6/Summer12_DR53X-PU_S10_START53_V7A-v1/AODSIM/PAT_CMG_V5_16_0/cmgTuple_36_1_Frd.root
p139
(lp140
I01
aI10000
asV/store/cmst3/group/cmgtools/CMG/VBF_HToTauTau_M-130_8TeV-powheg-pythia6/Summer12_DR53X-PU_S10_START53_V7A-v1/AODSIM/PAT_CMG_V5_16_0/cmgTuple_15_1_cwO.root
p141
(lp142
I01
aI10000
asV/store/cmst3/group/cmgtools/CMG/VBF_HToTauTau_M-130_8TeV-powheg-pythia6/Summer12_DR53X-PU_S10_START53_V7A-v1/AODSIM/PAT_CMG_V5_16_0/cmgTuple_75_1_TIb.root
p143
(lp144
I01
aI10000
asV/store/cmst3/group/cmgtools/CMG/VBF_HToTauTau_M-130_8TeV-powheg-pythia6/Summer12_DR53X-PU_S10_START53_V7A-v1/AODSIM/PAT_CMG_V5_16_0/cmgTuple_53_1_OBj.root
p145
(lp146
I01
aI10000
asV/store/cmst3/group/cmgtools/CMG/VBF_HToTauTau_M-130_8TeV-powheg-pythia6/Summer12_DR53X-PU_S10_START53_V7A-v1/AODSIM/PAT_CMG_V5_16_0/cmgTuple_4_1_5SQ.root
p147
(lp148
I01
aI10000
asV/store/cmst3/group/cmgtools/CMG/VBF_HToTauTau_M-130_8TeV-powheg-pythia6/Summer12_DR53X-PU_S10_START53_V7A-v1/AODSIM/PAT_CMG_V5_16_0/cmgTuple_62_1_fFJ.root
p149
(lp150
I01
aI10000
asV/store/cmst3/group/cmgtools/CMG/VBF_HToTauTau_M-130_8TeV-powheg-pythia6/Summer12_DR53X-PU_S10_START53_V7A-v1/AODSIM/PAT_CMG_V5_16_0/cmgTuple_74_1_WZu.root
p151
(lp152
I01
aI4495
asV/store/cmst3/group/cmgtools/CMG/VBF_HToTauTau_M-130_8TeV-powheg-pythia6/Summer12_DR53X-PU_S10_START53_V7A-v1/AODSIM/PAT_CMG_V5_16_0/cmgTuple_63_1_QB4.root
p153
(lp154
I01
aI10000
asV/store/cmst3/group/cmgtools/CMG/VBF_HToTauTau_M-130_8TeV-powheg-pythia6/Summer12_DR53X-PU_S10_START53_V7A-v1/AODSIM/PAT_CMG_V5_16_0/cmgTuple_59_1_w51.root
p155
(lp156
I01
aI10000
asV/store/cmst3/group/cmgtools/CMG/VBF_HToTauTau_M-130_8TeV-powheg-pythia6/Summer12_DR53X-PU_S10_START53_V7A-v1/AODSIM/PAT_CMG_V5_16_0/cmgTuple_17_1_GZI.root
p157
(lp158
I01
aI10000
asV/store/cmst3/group/cmgtools/CMG/VBF_HToTauTau_M-130_8TeV-powheg-pythia6/Summer12_DR53X-PU_S10_START53_V7A-v1/AODSIM/PAT_CMG_V5_16_0/cmgTuple_86_1_8AA.root
p159
(lp160
I01
aI10000
asV/store/cmst3/group/cmgtools/CMG/VBF_HToTauTau_M-130_8TeV-powheg-pythia6/Summer12_DR53X-PU_S10_START53_V7A-v1/AODSIM/PAT_CMG_V5_16_0/cmgTuple_48_1_RIP.root
p161
(lp162
I01
aI10000
asV/store/cmst3/group/cmgtools/CMG/VBF_HToTauTau_M-130_8TeV-powheg-pythia6/Summer12_DR53X-PU_S10_START53_V7A-v1/AODSIM/PAT_CMG_V5_16_0/cmgTuple_29_1_35q.root
p163
(lp164
I01
aI10000
asV/store/cmst3/group/cmgtools/CMG/VBF_HToTauTau_M-130_8TeV-powheg-pythia6/Summer12_DR53X-PU_S10_START53_V7A-v1/AODSIM/PAT_CMG_V5_16_0/cmgTuple_77_1_FYd.root
p165
(lp166
I01
aI10000
asV/store/cmst3/group/cmgtools/CMG/VBF_HToTauTau_M-130_8TeV-powheg-pythia6/Summer12_DR53X-PU_S10_START53_V7A-v1/AODSIM/PAT_CMG_V5_16_0/cmgTuple_20_1_WGL.root
p167
(lp168
I01
aI10000
asV/store/cmst3/group/cmgtools/CMG/VBF_HToTauTau_M-130_8TeV-powheg-pythia6/Summer12_DR53X-PU_S10_START53_V7A-v1/AODSIM/PAT_CMG_V5_16_0/cmgTuple_12_1_kcJ.root
p169
(lp170
I01
aI10000
asV/store/cmst3/group/cmgtools/CMG/VBF_HToTauTau_M-130_8TeV-powheg-pythia6/Summer12_DR53X-PU_S10_START53_V7A-v1/AODSIM/PAT_CMG_V5_16_0/cmgTuple_19_1_QZ6.root
p171
(lp172
I01
aI10000
asV/store/cmst3/group/cmgtools/CMG/VBF_HToTauTau_M-130_8TeV-powheg-pythia6/Summer12_DR53X-PU_S10_START53_V7A-v1/AODSIM/PAT_CMG_V5_16_0/cmgTuple_83_1_WK9.root
p173
(lp174
I01
aI10000
asV/store/cmst3/group/cmgtools/CMG/VBF_HToTauTau_M-130_8TeV-powheg-pythia6/Summer12_DR53X-PU_S10_START53_V7A-v1/AODSIM/PAT_CMG_V5_16_0/cmgTuple_1_1_HAj.root
p175
(lp176
I01
aI10000
asV/store/cmst3/group/cmgtools/CMG/VBF_HToTauTau_M-130_8TeV-powheg-pythia6/Summer12_DR53X-PU_S10_START53_V7A-v1/AODSIM/PAT_CMG_V5_16_0/cmgTuple_70_1_3N8.root
p177
(lp178
I01
aI10000
asV/store/cmst3/group/cmgtools/CMG/VBF_HToTauTau_M-130_8TeV-powheg-pythia6/Summer12_DR53X-PU_S10_START53_V7A-v1/AODSIM/PAT_CMG_V5_16_0/cmgTuple_50_1_OrG.root
p179
(lp180
I01
aI10000
asV/store/cmst3/group/cmgtools/CMG/VBF_HToTauTau_M-130_8TeV-powheg-pythia6/Summer12_DR53X-PU_S10_START53_V7A-v1/AODSIM/PAT_CMG_V5_16_0/cmgTuple_88_1_uQT.root
p181
(lp182
I01
aI10000
asV/store/cmst3/group/cmgtools/CMG/VBF_HToTauTau_M-130_8TeV-powheg-pythia6/Summer12_DR53X-PU_S10_START53_V7A-v1/AODSIM/PAT_CMG_V5_16_0/cmgTuple_55_1_fl4.root
p183
(lp184
I01
aI10000
asV/store/cmst3/group/cmgtools/CMG/VBF_HToTauTau_M-130_8TeV-powheg-pythia6/Summer12_DR53X-PU_S10_START53_V7A-v1/AODSIM/PAT_CMG_V5_16_0/cmgTuple_23_1_J5i.root
p185
(lp186
I01
aI10000
asV/store/cmst3/group/cmgtools/CMG/VBF_HToTauTau_M-130_8TeV-powheg-pythia6/Summer12_DR53X-PU_S10_START53_V7A-v1/AODSIM/PAT_CMG_V5_16_0/cmgTuple_84_1_lWK.root
p187
(lp188
I01
aI10000
asV/store/cmst3/group/cmgtools/CMG/VBF_HToTauTau_M-130_8TeV-powheg-pythia6/Summer12_DR53X-PU_S10_START53_V7A-v1/AODSIM/PAT_CMG_V5_16_0/cmgTuple_26_1_ZDN.root
p189
(lp190
I01
aI10000
asV/store/cmst3/group/cmgtools/CMG/VBF_HToTauTau_M-130_8TeV-powheg-pythia6/Summer12_DR53X-PU_S10_START53_V7A-v1/AODSIM/PAT_CMG_V5_16_0/cmgTuple_58_1_990.root
p191
(lp192
I01
aI10000
asV/store/cmst3/group/cmgtools/CMG/VBF_HToTauTau_M-130_8TeV-powheg-pythia6/Summer12_DR53X-PU_S10_START53_V7A-v1/AODSIM/PAT_CMG_V5_16_0/cmgTuple_28_1_NPF.root
p193
(lp194
I01
aI10000
asV/store/cmst3/group/cmgtools/CMG/VBF_HToTauTau_M-130_8TeV-powheg-pythia6/Summer12_DR53X-PU_S10_START53_V7A-v1/AODSIM/PAT_CMG_V5_16_0/cmgTuple_39_1_PM0.root
p195
(lp196
I01
aI10000
asV/store/cmst3/group/cmgtools/CMG/VBF_HToTauTau_M-130_8TeV-powheg-pythia6/Summer12_DR53X-PU_S10_START53_V7A-v1/AODSIM/PAT_CMG_V5_16_0/cmgTuple_31_1_z99.root
p197
(lp198
I01
aI10000
asV/store/cmst3/group/cmgtools/CMG/VBF_HToTauTau_M-130_8TeV-powheg-pythia6/Summer12_DR53X-PU_S10_START53_V7A-v1/AODSIM/PAT_CMG_V5_16_0/cmgTuple_14_1_mDc.root
p199
(lp200
I01
aI10000
asV/store/cmst3/group/cmgtools/CMG/VBF_HToTauTau_M-130_8TeV-powheg-pythia6/Summer12_DR53X-PU_S10_START53_V7A-v1/AODSIM/PAT_CMG_V5_16_0/cmgTuple_6_1_WQf.root
p201
(lp202
I01
aI10000
asV/store/cmst3/group/cmgtools/CMG/VBF_HToTauTau_M-130_8TeV-powheg-pythia6/Summer12_DR53X-PU_S10_START53_V7A-v1/AODSIM/PAT_CMG_V5_16_0/cmgTuple_47_1_sG4.root
p203
(lp204
I01
aI10000
asV/store/cmst3/group/cmgtools/CMG/VBF_HToTauTau_M-130_8TeV-powheg-pythia6/Summer12_DR53X-PU_S10_START53_V7A-v1/AODSIM/PAT_CMG_V5_16_0/cmgTuple_93_1_veB.root
p205
(lp206
I01
aI10000
asV/store/cmst3/group/cmgtools/CMG/VBF_HToTauTau_M-130_8TeV-powheg-pythia6/Summer12_DR53X-PU_S10_START53_V7A-v1/AODSIM/PAT_CMG_V5_16_0/cmgTuple_30_1_A6v.root
p207
(lp208
I01
aI10000
asV/store/cmst3/group/cmgtools/CMG/VBF_HToTauTau_M-130_8TeV-powheg-pythia6/Summer12_DR53X-PU_S10_START53_V7A-v1/AODSIM/PAT_CMG_V5_16_0/cmgTuple_38_1_IyS.root
p209
(lp210
I01
aI10000
asV/store/cmst3/group/cmgtools/CMG/VBF_HToTauTau_M-130_8TeV-powheg-pythia6/Summer12_DR53X-PU_S10_START53_V7A-v1/AODSIM/PAT_CMG_V5_16_0/cmgTuple_52_1_YeW.root
p211
(lp212
I01
aI10000
asV/store/cmst3/group/cmgtools/CMG/VBF_HToTauTau_M-130_8TeV-powheg-pythia6/Summer12_DR53X-PU_S10_START53_V7A-v1/AODSIM/PAT_CMG_V5_16_0/cmgTuple_69_1_5gg.root
p213
(lp214
I01
aI10000
asV/store/cmst3/group/cmgtools/CMG/VBF_HToTauTau_M-130_8TeV-powheg-pythia6/Summer12_DR53X-PU_S10_START53_V7A-v1/AODSIM/PAT_CMG_V5_16_0/cmgTuple_8_1_45y.root
p215
(lp216
I01
aI10000
asV/store/cmst3/group/cmgtools/CMG/VBF_HToTauTau_M-130_8TeV-powheg-pythia6/Summer12_DR53X-PU_S10_START53_V7A-v1/AODSIM/PAT_CMG_V5_16_0/cmgTuple_42_1_mue.root
p217
(lp218
I01
aI10000
asV/store/cmst3/group/cmgtools/CMG/VBF_HToTauTau_M-130_8TeV-powheg-pythia6/Summer12_DR53X-PU_S10_START53_V7A-v1/AODSIM/PAT_CMG_V5_16_0/cmgTuple_65_1_vPK.root
p219
(lp220
I01
aI10000
asV/store/cmst3/group/cmgtools/CMG/VBF_HToTauTau_M-130_8TeV-powheg-pythia6/Summer12_DR53X-PU_S10_START53_V7A-v1/AODSIM/PAT_CMG_V5_16_0/cmgTuple_79_1_c3M.root
p221
(lp222
I01
aI10000
asV/store/cmst3/group/cmgtools/CMG/VBF_HToTauTau_M-130_8TeV-powheg-pythia6/Summer12_DR53X-PU_S10_START53_V7A-v1/AODSIM/PAT_CMG_V5_16_0/cmgTuple_18_1_hEz.root
p223
(lp224
I01
aI10000
asV/store/cmst3/group/cmgtools/CMG/VBF_HToTauTau_M-130_8TeV-powheg-pythia6/Summer12_DR53X-PU_S10_START53_V7A-v1/AODSIM/PAT_CMG_V5_16_0/cmgTuple_78_1_Lo1.root
p225
(lp226
I01
aI10000
asV/store/cmst3/group/cmgtools/CMG/VBF_HToTauTau_M-130_8TeV-powheg-pythia6/Summer12_DR53X-PU_S10_START53_V7A-v1/AODSIM/PAT_CMG_V5_16_0/cmgTuple_24_1_7B7.root
p227
(lp228
I01
aI10000
asV/store/cmst3/group/cmgtools/CMG/VBF_HToTauTau_M-130_8TeV-powheg-pythia6/Summer12_DR53X-PU_S10_START53_V7A-v1/AODSIM/PAT_CMG_V5_16_0/cmgTuple_45_1_H7U.root
p229
(lp230
I01
aI10000
asV/store/cmst3/group/cmgtools/CMG/VBF_HToTauTau_M-130_8TeV-powheg-pythia6/Summer12_DR53X-PU_S10_START53_V7A-v1/AODSIM/PAT_CMG_V5_16_0/cmgTuple_71_1_mVe.root
p231
(lp232
I01
aI10000
asV/store/cmst3/group/cmgtools/CMG/VBF_HToTauTau_M-130_8TeV-powheg-pythia6/Summer12_DR53X-PU_S10_START53_V7A-v1/AODSIM/PAT_CMG_V5_16_0/cmgTuple_33_1_LpU.root
p233
(lp234
I01
aI10000
asV/store/cmst3/group/cmgtools/CMG/VBF_HToTauTau_M-130_8TeV-powheg-pythia6/Summer12_DR53X-PU_S10_START53_V7A-v1/AODSIM/PAT_CMG_V5_16_0/cmgTuple_27_1_tCC.root
p235
(lp236
I01
aI10000
asV/store/cmst3/group/cmgtools/CMG/VBF_HToTauTau_M-130_8TeV-powheg-pythia6/Summer12_DR53X-PU_S10_START53_V7A-v1/AODSIM/PAT_CMG_V5_16_0/cmgTuple_68_1_Pa2.root
p237
(lp238
I01
aI10000
asV/store/cmst3/group/cmgtools/CMG/VBF_HToTauTau_M-130_8TeV-powheg-pythia6/Summer12_DR53X-PU_S10_START53_V7A-v1/AODSIM/PAT_CMG_V5_16_0/cmgTuple_67_1_i7K.root
p239
(lp240
I01
aI10000
asV/store/cmst3/group/cmgtools/CMG/VBF_HToTauTau_M-130_8TeV-powheg-pythia6/Summer12_DR53X-PU_S10_START53_V7A-v1/AODSIM/PAT_CMG_V5_16_0/cmgTuple_44_1_v8u.root
p241
(lp242
I01
aI10000
asV/store/cmst3/group/cmgtools/CMG/VBF_HToTauTau_M-130_8TeV-powheg-pythia6/Summer12_DR53X-PU_S10_START53_V7A-v1/AODSIM/PAT_CMG_V5_16_0/cmgTuple_49_1_CgE.root
p243
(lp244
I01
aI10000
asV/store/cmst3/group/cmgtools/CMG/VBF_HToTauTau_M-130_8TeV-powheg-pythia6/Summer12_DR53X-PU_S10_START53_V7A-v1/AODSIM/PAT_CMG_V5_16_0/cmgTuple_61_1_kQA.root
p245
(lp246
I01
aI10000
asV/store/cmst3/group/cmgtools/CMG/VBF_HToTauTau_M-130_8TeV-powheg-pythia6/Summer12_DR53X-PU_S10_START53_V7A-v1/AODSIM/PAT_CMG_V5_16_0/cmgTuple_11_1_PdO.root
p247
(lp248
I01
aI10000
asV/store/cmst3/group/cmgtools/CMG/VBF_HToTauTau_M-130_8TeV-powheg-pythia6/Summer12_DR53X-PU_S10_START53_V7A-v1/AODSIM/PAT_CMG_V5_16_0/cmgTuple_13_1_gbk.root
p249
(lp250
I01
aI10000
asV/store/cmst3/group/cmgtools/CMG/VBF_HToTauTau_M-130_8TeV-powheg-pythia6/Summer12_DR53X-PU_S10_START53_V7A-v1/AODSIM/PAT_CMG_V5_16_0/cmgTuple_25_1_OM7.root
p251
(lp252
I01
aI10000
asV/store/cmst3/group/cmgtools/CMG/VBF_HToTauTau_M-130_8TeV-powheg-pythia6/Summer12_DR53X-PU_S10_START53_V7A-v1/AODSIM/PAT_CMG_V5_16_0/cmgTuple_66_1_WXd.root
p253
(lp254
I01
aI10000
asV/store/cmst3/group/cmgtools/CMG/VBF_HToTauTau_M-130_8TeV-powheg-pythia6/Summer12_DR53X-PU_S10_START53_V7A-v1/AODSIM/PAT_CMG_V5_16_0/cmgTuple_82_1_9YG.root
p255
(lp256
I01
aI10000
asV/store/cmst3/group/cmgtools/CMG/VBF_HToTauTau_M-130_8TeV-powheg-pythia6/Summer12_DR53X-PU_S10_START53_V7A-v1/AODSIM/PAT_CMG_V5_16_0/cmgTuple_91_1_aCD.root
p257
(lp258
I01
aI10000
asV/store/cmst3/group/cmgtools/CMG/VBF_HToTauTau_M-130_8TeV-powheg-pythia6/Summer12_DR53X-PU_S10_START53_V7A-v1/AODSIM/PAT_CMG_V5_16_0/cmgTuple_85_1_ngs.root
p259
(lp260
I01
aI10000
asV/store/cmst3/group/cmgtools/CMG/VBF_HToTauTau_M-130_8TeV-powheg-pythia6/Summer12_DR53X-PU_S10_START53_V7A-v1/AODSIM/PAT_CMG_V5_16_0/cmgTuple_60_1_Zs6.root
p261
(lp262
I01
aI10000
asV/store/cmst3/group/cmgtools/CMG/VBF_HToTauTau_M-130_8TeV-powheg-pythia6/Summer12_DR53X-PU_S10_START53_V7A-v1/AODSIM/PAT_CMG_V5_16_0/cmgTuple_16_1_EsE.root
p263
(lp264
I01
aI10000
asV/store/cmst3/group/cmgtools/CMG/VBF_HToTauTau_M-130_8TeV-powheg-pythia6/Summer12_DR53X-PU_S10_START53_V7A-v1/AODSIM/PAT_CMG_V5_16_0/cmgTuple_99_1_Nuz.root
p265
(lp266
I01
aI10000
asV/store/cmst3/group/cmgtools/CMG/VBF_HToTauTau_M-130_8TeV-powheg-pythia6/Summer12_DR53X-PU_S10_START53_V7A-v1/AODSIM/PAT_CMG_V5_16_0/cmgTuple_40_1_dsI.root
p267
(lp268
I01
aI10000
asV/store/cmst3/group/cmgtools/CMG/VBF_HToTauTau_M-130_8TeV-powheg-pythia6/Summer12_DR53X-PU_S10_START53_V7A-v1/AODSIM/PAT_CMG_V5_16_0/cmgTuple_96_1_YkZ.root
p269
(lp270
I01
aI10000
asV/store/cmst3/group/cmgtools/CMG/VBF_HToTauTau_M-130_8TeV-powheg-pythia6/Summer12_DR53X-PU_S10_START53_V7A-v1/AODSIM/PAT_CMG_V5_16_0/cmgTuple_9_1_HrL.root
p271
(lp272
I01
aI10000
asV/store/cmst3/group/cmgtools/CMG/VBF_HToTauTau_M-130_8TeV-powheg-pythia6/Summer12_DR53X-PU_S10_START53_V7A-v1/AODSIM/PAT_CMG_V5_16_0/cmgTuple_81_1_vc2.root
p273
(lp274
I01
aI10000
asV/store/cmst3/group/cmgtools/CMG/VBF_HToTauTau_M-130_8TeV-powheg-pythia6/Summer12_DR53X-PU_S10_START53_V7A-v1/AODSIM/PAT_CMG_V5_16_0/cmgTuple_64_1_JZr.root
p275
(lp276
I01
aI10000
asV/store/cmst3/group/cmgtools/CMG/VBF_HToTauTau_M-130_8TeV-powheg-pythia6/Summer12_DR53X-PU_S10_START53_V7A-v1/AODSIM/PAT_CMG_V5_16_0/cmgTuple_94_1_Vn4.root
p277
(lp278
I01
aI10000
asV/store/cmst3/group/cmgtools/CMG/VBF_HToTauTau_M-130_8TeV-powheg-pythia6/Summer12_DR53X-PU_S10_START53_V7A-v1/AODSIM/PAT_CMG_V5_16_0/cmgTuple_2_1_tkW.root
p279
(lp280
I01
aI10000
asV/store/cmst3/group/cmgtools/CMG/VBF_HToTauTau_M-130_8TeV-powheg-pythia6/Summer12_DR53X-PU_S10_START53_V7A-v1/AODSIM/PAT_CMG_V5_16_0/cmgTuple_73_1_4UU.root
p281
(lp282
I01
aI2551
asV/store/cmst3/group/cmgtools/CMG/VBF_HToTauTau_M-130_8TeV-powheg-pythia6/Summer12_DR53X-PU_S10_START53_V7A-v1/AODSIM/PAT_CMG_V5_16_0/cmgTuple_76_1_BSz.root
p283
(lp284
I01
aI10000
asV/store/cmst3/group/cmgtools/CMG/VBF_HToTauTau_M-130_8TeV-powheg-pythia6/Summer12_DR53X-PU_S10_START53_V7A-v1/AODSIM/PAT_CMG_V5_16_0/cmgTuple_87_1_2gx.root
p285
(lp286
I01
aI10000
asV/store/cmst3/group/cmgtools/CMG/VBF_HToTauTau_M-130_8TeV-powheg-pythia6/Summer12_DR53X-PU_S10_START53_V7A-v1/AODSIM/PAT_CMG_V5_16_0/cmgTuple_92_1_l3T.root
p287
(lp288
I01
aI10000
asV/store/cmst3/group/cmgtools/CMG/VBF_HToTauTau_M-130_8TeV-powheg-pythia6/Summer12_DR53X-PU_S10_START53_V7A-v1/AODSIM/PAT_CMG_V5_16_0/cmgTuple_54_1_qjP.root
p289
(lp290
I01
aI10000
asV/store/cmst3/group/cmgtools/CMG/VBF_HToTauTau_M-130_8TeV-powheg-pythia6/Summer12_DR53X-PU_S10_START53_V7A-v1/AODSIM/PAT_CMG_V5_16_0/cmgTuple_37_1_umS.root
p291
(lp292
I01
aI10000
asV/store/cmst3/group/cmgtools/CMG/VBF_HToTauTau_M-130_8TeV-powheg-pythia6/Summer12_DR53X-PU_S10_START53_V7A-v1/AODSIM/PAT_CMG_V5_16_0/cmgTuple_46_1_o1m.root
p293
(lp294
I01
aI10000
asV/store/cmst3/group/cmgtools/CMG/VBF_HToTauTau_M-130_8TeV-powheg-pythia6/Summer12_DR53X-PU_S10_START53_V7A-v1/AODSIM/PAT_CMG_V5_16_0/cmgTuple_35_1_N8c.root
p295
(lp296
I01
aI10000
asV/store/cmst3/group/cmgtools/CMG/VBF_HToTauTau_M-130_8TeV-powheg-pythia6/Summer12_DR53X-PU_S10_START53_V7A-v1/AODSIM/PAT_CMG_V5_16_0/cmgTuple_80_1_QdB.root
p297
(lp298
I01
aI10000
asV/store/cmst3/group/cmgtools/CMG/VBF_HToTauTau_M-130_8TeV-powheg-pythia6/Summer12_DR53X-PU_S10_START53_V7A-v1/AODSIM/PAT_CMG_V5_16_0/cmgTuple_5_1_mkL.root
p299
(lp300
I01
aI10000
asV/store/cmst3/group/cmgtools/CMG/VBF_HToTauTau_M-130_8TeV-powheg-pythia6/Summer12_DR53X-PU_S10_START53_V7A-v1/AODSIM/PAT_CMG_V5_16_0/cmgTuple_41_1_diL.root
p301
(lp302
I01
aI10000
asV/store/cmst3/group/cmgtools/CMG/VBF_HToTauTau_M-130_8TeV-powheg-pythia6/Summer12_DR53X-PU_S10_START53_V7A-v1/AODSIM/PAT_CMG_V5_16_0/cmgTuple_32_1_tzF.root
p303
(lp304
I01
aI10000
asV/store/cmst3/group/cmgtools/CMG/VBF_HToTauTau_M-130_8TeV-powheg-pythia6/Summer12_DR53X-PU_S10_START53_V7A-v1/AODSIM/PAT_CMG_V5_16_0/cmgTuple_90_1_hbg.root
p305
(lp306
I01
aI10000
asV/store/cmst3/group/cmgtools/CMG/VBF_HToTauTau_M-130_8TeV-powheg-pythia6/Summer12_DR53X-PU_S10_START53_V7A-v1/AODSIM/PAT_CMG_V5_16_0/cmgTuple_3_1_VBS.root
p307
(lp308
I01
aI10000
asV/store/cmst3/group/cmgtools/CMG/VBF_HToTauTau_M-130_8TeV-powheg-pythia6/Summer12_DR53X-PU_S10_START53_V7A-v1/AODSIM/PAT_CMG_V5_16_0/cmgTuple_89_1_Ejv.root
p309
(lp310
I01
aI10000
asV/store/cmst3/group/cmgtools/CMG/VBF_HToTauTau_M-130_8TeV-powheg-pythia6/Summer12_DR53X-PU_S10_START53_V7A-v1/AODSIM/PAT_CMG_V5_16_0/cmgTuple_22_1_oSm.root
p311
(lp312
I01
aI10000
asV/store/cmst3/group/cmgtools/CMG/VBF_HToTauTau_M-130_8TeV-powheg-pythia6/Summer12_DR53X-PU_S10_START53_V7A-v1/AODSIM/PAT_CMG_V5_16_0/cmgTuple_10_1_7pe.root
p313
(lp314
I01
aI10000
asV/store/cmst3/group/cmgtools/CMG/VBF_HToTauTau_M-130_8TeV-powheg-pythia6/Summer12_DR53X-PU_S10_START53_V7A-v1/AODSIM/PAT_CMG_V5_16_0/cmgTuple_72_1_u8d.root
p315
(lp316
I01
aI10000
asV/store/cmst3/group/cmgtools/CMG/VBF_HToTauTau_M-130_8TeV-powheg-pythia6/Summer12_DR53X-PU_S10_START53_V7A-v1/AODSIM/PAT_CMG_V5_16_0/cmgTuple_7_1_JHA.root
p317
(lp318
I01
aI10000
asV/store/cmst3/group/cmgtools/CMG/VBF_HToTauTau_M-130_8TeV-powheg-pythia6/Summer12_DR53X-PU_S10_START53_V7A-v1/AODSIM/PAT_CMG_V5_16_0/cmgTuple_98_1_5dx.root
p319
(lp320
I01
aI10000
asV/store/cmst3/group/cmgtools/CMG/VBF_HToTauTau_M-130_8TeV-powheg-pythia6/Summer12_DR53X-PU_S10_START53_V7A-v1/AODSIM/PAT_CMG_V5_16_0/cmgTuple_57_1_aPz.root
p321
(lp322
I01
aI10000
asV/store/cmst3/group/cmgtools/CMG/VBF_HToTauTau_M-130_8TeV-powheg-pythia6/Summer12_DR53X-PU_S10_START53_V7A-v1/AODSIM/PAT_CMG_V5_16_0/cmgTuple_34_1_JEW.root
p323
(lp324
I01
aI10000
asV/store/cmst3/group/cmgtools/CMG/VBF_HToTauTau_M-130_8TeV-powheg-pythia6/Summer12_DR53X-PU_S10_START53_V7A-v1/AODSIM/PAT_CMG_V5_16_0/cmgTuple_21_1_2nF.root
p325
(lp326
I01
aI10000
asV/store/cmst3/group/cmgtools/CMG/VBF_HToTauTau_M-130_8TeV-powheg-pythia6/Summer12_DR53X-PU_S10_START53_V7A-v1/AODSIM/PAT_CMG_V5_16_0/cmgTuple_100_1_m0u.root
p327
(lp328
I01
aI10000
asV/store/cmst3/group/cmgtools/CMG/VBF_HToTauTau_M-130_8TeV-powheg-pythia6/Summer12_DR53X-PU_S10_START53_V7A-v1/AODSIM/PAT_CMG_V5_16_0/cmgTuple_101_1_JeO.root
p329
(lp330
I01
aI1856
asV/store/cmst3/group/cmgtools/CMG/VBF_HToTauTau_M-130_8TeV-powheg-pythia6/Summer12_DR53X-PU_S10_START53_V7A-v1/AODSIM/PAT_CMG_V5_16_0/cmgTuple_56_1_H7v.root
p331
(lp332
I01
aI10000
asV/store/cmst3/group/cmgtools/CMG/VBF_HToTauTau_M-130_8TeV-powheg-pythia6/Summer12_DR53X-PU_S10_START53_V7A-v1/AODSIM/PAT_CMG_V5_16_0/cmgTuple_51_1_o7o.root
p333
(lp334
I01
aI10000
assVPhysicsGroup
p335
VCMG
p336
sVFilesCount
p337
I102
sVFilesEntries
p338
I998790
sVRunList
p339
(lp340
sVValidDuplicates
p341
(dp342
sVPrimaryDataset
p343
V/VBF_HToTauTau_M-130_8TeV-powheg-pythia6/Summer12_DR53X-PU_S10_START53_V7A-v1/AODSIM
p344
sVStatus
p345
VVALID
p346
sVName
p347
V/VBF_HToTauTau_M-130_8TeV-powheg-pythia6/Summer12_DR53X-PU_S10_START53_V7A-v1/AODSIM/PAT_CMG_V5_16_0
p348
sVTopdir
p349
V/eos/cms/store/cmst3/group/cmgtools/CMG
p350
sVdata
p351
(dp352
sVFilesBad
p353
I0
sVMinRun
p354
I-1
sVAlgoList
p355
(lp356
sVTierList
p357
(lp358
sVDateCreated
p359
V1370943227
p360
sVCreatedBy
p361
Vcmgtools_group
p362
sVMaxRun
p363
I-1
sVBadJobs
p364
(lp365
ssg89
I01
ssS'MonitorJobs'
p366
(dp367
S'LSFJobStatus'
p368
(dp369
g92
S'VBF_HToTauTau_M-130_8TeV-powheg-pythia6/Summer12_DR53X-PU_S10_START53_V7A-v1/AODSIM/PAT_CMG_V5_16_0_1377467447/HTT_24Jul_newTES_manzoni_Up_Jobs/Job_3/LSFJOB_440970856/STDOUT.gz'
p370
sg93
S'VBF_HToTauTau_M-130_8TeV-powheg-pythia6/Summer12_DR53X-PU_S10_START53_V7A-v1/AODSIM/PAT_CMG_V5_16_0_1377467447/HTT_24Jul_newTES_manzoni_Up_Jobs/Job_2/LSFJOB_440970733/STDOUT.gz'
p371
sg94
S'VBF_HToTauTau_M-130_8TeV-powheg-pythia6/Summer12_DR53X-PU_S10_START53_V7A-v1/AODSIM/PAT_CMG_V5_16_0_1377467447/HTT_24Jul_newTES_manzoni_Up_Jobs/Job_1/LSFJOB_440970601/STDOUT.gz'
p372
sg95
S'VBF_HToTauTau_M-130_8TeV-powheg-pythia6/Summer12_DR53X-PU_S10_START53_V7A-v1/AODSIM/PAT_CMG_V5_16_0_1377467447/HTT_24Jul_newTES_manzoni_Up_Jobs/Job_10/LSFJOB_440971472/STDOUT.gz'
p373
sg96
S'VBF_HToTauTau_M-130_8TeV-powheg-pythia6/Summer12_DR53X-PU_S10_START53_V7A-v1/AODSIM/PAT_CMG_V5_16_0_1377467447/HTT_24Jul_newTES_manzoni_Up_Jobs/Job_7/LSFJOB_440971216/STDOUT.gz'
p374
sg97
S'VBF_HToTauTau_M-130_8TeV-powheg-pythia6/Summer12_DR53X-PU_S10_START53_V7A-v1/AODSIM/PAT_CMG_V5_16_0_1377467447/HTT_24Jul_newTES_manzoni_Up_Jobs/Job_6/LSFJOB_440971118/STDOUT.gz'
p375
sg98
S'VBF_HToTauTau_M-130_8TeV-powheg-pythia6/Summer12_DR53X-PU_S10_START53_V7A-v1/AODSIM/PAT_CMG_V5_16_0_1377467447/HTT_24Jul_newTES_manzoni_Up_Jobs/Job_5/LSFJOB_440971031/STDOUT.gz'
p376
sg99
S'VBF_HToTauTau_M-130_8TeV-powheg-pythia6/Summer12_DR53X-PU_S10_START53_V7A-v1/AODSIM/PAT_CMG_V5_16_0_1377467447/HTT_24Jul_newTES_manzoni_Up_Jobs/Job_4/LSFJOB_440970945/STDOUT.gz'
p377
sg100
S'VBF_HToTauTau_M-130_8TeV-powheg-pythia6/Summer12_DR53X-PU_S10_START53_V7A-v1/AODSIM/PAT_CMG_V5_16_0_1377467447/HTT_24Jul_newTES_manzoni_Up_Jobs/Job_9/LSFJOB_440971399/STDOUT.gz'
p378
sg101
S'VBF_HToTauTau_M-130_8TeV-powheg-pythia6/Summer12_DR53X-PU_S10_START53_V7A-v1/AODSIM/PAT_CMG_V5_16_0_1377467447/HTT_24Jul_newTES_manzoni_Up_Jobs/Job_8/LSFJOB_440971327/STDOUT.gz'
p379
sg102
S'VBF_HToTauTau_M-130_8TeV-powheg-pythia6/Summer12_DR53X-PU_S10_START53_V7A-v1/AODSIM/PAT_CMG_V5_16_0_1377467447/HTT_24Jul_newTES_manzoni_Up_Jobs/Job_11/LSFJOB_440971586/STDOUT.gz'
p380
sg103
S'VBF_HToTauTau_M-130_8TeV-powheg-pythia6/Summer12_DR53X-PU_S10_START53_V7A-v1/AODSIM/PAT_CMG_V5_16_0_1377467447/HTT_24Jul_newTES_manzoni_Up_Jobs/Job_14/LSFJOB_440971893/STDOUT.gz'
p381
sg104
S'VBF_HToTauTau_M-130_8TeV-powheg-pythia6/Summer12_DR53X-PU_S10_START53_V7A-v1/AODSIM/PAT_CMG_V5_16_0_1377467447/HTT_24Jul_newTES_manzoni_Up_Jobs/Job_15/LSFJOB_440972014/STDOUT.gz'
p382
sg105
S'VBF_HToTauTau_M-130_8TeV-powheg-pythia6/Summer12_DR53X-PU_S10_START53_V7A-v1/AODSIM/PAT_CMG_V5_16_0_1377467447/HTT_24Jul_newTES_manzoni_Up_Jobs/Job_18/LSFJOB_440972252/STDOUT.gz'
p383
sg106
S'VBF_HToTauTau_M-130_8TeV-powheg-pythia6/Summer12_DR53X-PU_S10_START53_V7A-v1/AODSIM/PAT_CMG_V5_16_0_1377467447/HTT_24Jul_newTES_manzoni_Up_Jobs/Job_17/LSFJOB_440972173/STDOUT.gz'
p384
sg107
S'VBF_HToTauTau_M-130_8TeV-powheg-pythia6/Summer12_DR53X-PU_S10_START53_V7A-v1/AODSIM/PAT_CMG_V5_16_0_1377467447/HTT_24Jul_newTES_manzoni_Up_Jobs/Job_12/LSFJOB_440971671/STDOUT.gz'
p385
sg108
S'VBF_HToTauTau_M-130_8TeV-powheg-pythia6/Summer12_DR53X-PU_S10_START53_V7A-v1/AODSIM/PAT_CMG_V5_16_0_1377467447/HTT_24Jul_newTES_manzoni_Up_Jobs/Job_21/LSFJOB_440972566/STDOUT.gz'
p386
sg109
S'VBF_HToTauTau_M-130_8TeV-powheg-pythia6/Summer12_DR53X-PU_S10_START53_V7A-v1/AODSIM/PAT_CMG_V5_16_0_1377467447/HTT_24Jul_newTES_manzoni_Up_Jobs/Job_13/LSFJOB_440971793/STDOUT.gz'
p387
sg110
S'VBF_HToTauTau_M-130_8TeV-powheg-pythia6/Summer12_DR53X-PU_S10_START53_V7A-v1/AODSIM/PAT_CMG_V5_16_0_1377467447/HTT_24Jul_newTES_manzoni_Up_Jobs/Job_19/LSFJOB_440972353/STDOUT.gz'
p388
sg111
S'VBF_HToTauTau_M-130_8TeV-powheg-pythia6/Summer12_DR53X-PU_S10_START53_V7A-v1/AODSIM/PAT_CMG_V5_16_0_1377467447/HTT_24Jul_newTES_manzoni_Up_Jobs/Job_20/LSFJOB_440972465/STDOUT.gz'
p389
sg112
S'VBF_HToTauTau_M-130_8TeV-powheg-pythia6/Summer12_DR53X-PU_S10_START53_V7A-v1/AODSIM/PAT_CMG_V5_16_0_1377467447/HTT_24Jul_newTES_manzoni_Up_Jobs/Job_16/LSFJOB_440972091/STDOUT.gz'
p390
ssS'LSFJobIDs'
p391
(dp392
g92
S'440970856'
p393
sg93
S'440970733'
p394
sg94
S'440970601'
p395
sg95
S'440971472'
p396
sg96
S'440971216'
p397
sg97
S'440971118'
p398
sg98
S'440971031'
p399
sg99
S'440970945'
p400
sg100
S'440971399'
p401
sg101
S'440971327'
p402
sg102
S'440971586'
p403
sg103
S'440971893'
p404
sg104
S'440972014'
p405
sg105
S'440972252'
p406
sg106
S'440972173'
p407
sg107
S'440971671'
p408
sg108
S'440972566'
p409
sg109
S'440971793'
p410
sg110
S'440972353'
p411
sg111
S'440972465'
p412
sg112
S'440972091'
p413
sssS'FindOnCastor'
p414
(dp415
g51
S'/eos/cms/store/cmst3/group/cmgtools/CMG'
p416
sS'Directory'
p417
S'/eos/cms/store/cmst3/group/cmgtools/CMG/VBF_HToTauTau_M-130_8TeV-powheg-pythia6/Summer12_DR53X-PU_S10_START53_V7A-v1/AODSIM/PAT_CMG_V5_16_0'
p418
ssS'CheckConfig'
p419
(dp420
g67
g68
ssS'FullCFG'
p421
(dp422
S'FullCFG'
p423
S'VBF_HToTauTau_M-130_8TeV-powheg-pythia6/Summer12_DR53X-PU_S10_START53_V7A-v1/AODSIM/PAT_CMG_V5_16_0_1377467447/full_cfg.py'
p424
ssS'WriteJobReport'
p425
(dp426
S'SummaryFile'
p427
S'VBF_HToTauTau_M-130_8TeV-powheg-pythia6/Summer12_DR53X-PU_S10_START53_V7A-v1/AODSIM/PAT_CMG_V5_16_0_1377467447/resubmit.sh'
p428
ssS'ExpandConfig'
p429
(dp430
S'ExpandedFullCFG'
p431
S'VBF_HToTauTau_M-130_8TeV-powheg-pythia6/Summer12_DR53X-PU_S10_START53_V7A-v1/AODSIM/PAT_CMG_V5_16_0_1377467447/Expandedfull_cfg.py'
p432
ssS'RunTestEvents'
p433
(dp434
g67
g68
sS'TestCFG'
p435
S'VBF_HToTauTau_M-130_8TeV-powheg-pythia6/Summer12_DR53X-PU_S10_START53_V7A-v1/AODSIM/PAT_CMG_V5_16_0_1377467447/test_cfg.py'
p436
ssS'SourceCFG'
p437
(dp438
S'SourceCFG'
p439
S'VBF_HToTauTau_M-130_8TeV-powheg-pythia6/Summer12_DR53X-PU_S10_START53_V7A-v1/AODSIM/PAT_CMG_V5_16_0_1377467447/source_cfg.py'
p440
ssS'CheckForWrite'
p441
(dp442
g417
g418
sS'WriteAccess'
p443
I01
ssS'WriteToDatasets'
p444
(dp445
S'Added'
p446
I00
sg49
S'/VBF_HToTauTau_M-130_8TeV-powheg-pythia6/Summer12_DR53X-PU_S10_START53_V7A-v1/AODSIM/PAT_CMG_V5_16_0/HTT_24Jul_newTES_manzoni_Up'
p447
sS'User'
p448
g82
ssS'RunCMSBatch'
p449
(dp450
S'BatchUser'
p451
g82
sS'SampleOutputDir'
p452
S'/store/cmst3/user/manzoni/CMG/VBF_HToTauTau_M-130_8TeV-powheg-pythia6/Summer12_DR53X-PU_S10_START53_V7A-v1/AODSIM/PAT_CMG_V5_16_0/HTT_24Jul_newTES_manzoni_Up'
p453
sS'SampleDataset'
p454
g50
sS'LSFJobsTopDir'
p455
S'VBF_HToTauTau_M-130_8TeV-powheg-pythia6/Summer12_DR53X-PU_S10_START53_V7A-v1/AODSIM/PAT_CMG_V5_16_0_1377467447/HTT_24Jul_newTES_manzoni_Up_Jobs'
p456
ssS'CreateJobDirectory'
p457
(dp458
S'JobDir'
p459
S'VBF_HToTauTau_M-130_8TeV-powheg-pythia6/Summer12_DR53X-PU_S10_START53_V7A-v1/AODSIM/PAT_CMG_V5_16_0_1377467447'
p460
sS'PWD'
p461
S'/afs/cern.ch/user/m/manzoni/summer13/CMGTools/CMSSW_5_3_9/src/CMGTools/H2TauTau/prod/25aug_corrMC/up/mc'
p462
ssS'CleanJobFiles'
p463
(dp464
S'Compressed'
p465
(dp466
S'CompressedFiles'
p467
(lp468
ssS'Cleaned'
p469
(dp470
S'CleanedFiles'
p471
(lp472
g432
ag436
aS'VBF_HToTauTau_M-130_8TeV-powheg-pythia6/Summer12_DR53X-PU_S10_START53_V7A-v1/AODSIM/PAT_CMG_V5_16_0_1377467447/diTau_fullsel_tree_CMG.root'
p473
aS'VBF_HToTauTau_M-130_8TeV-powheg-pythia6/Summer12_DR53X-PU_S10_START53_V7A-v1/AODSIM/PAT_CMG_V5_16_0_1377467447/source_cfg.pyc'
p474
aS'VBF_HToTauTau_M-130_8TeV-powheg-pythia6/Summer12_DR53X-PU_S10_START53_V7A-v1/AODSIM/PAT_CMG_V5_16_0_1377467447/Expandedfull_cfg.pyc'
p475
asssS'CheckForMask'
p476
(dp477
g3
g119
sg89
I01
ss.