(dp0
S'CheckJobStatus'
p1
(dp2
S'Report'
p3
(dp4
S'Files'
p5
(dp6
S'/store/cmst3/user/manzoni/CMG/WH_ZH_TTH_HToTauTau_M-100_8TeV-pythia6-tauola/Summer12_DR53X-PU_S10_START53_V7C-v1/AODSIM/PAT_CMG_V5_16_0/HTT_24Jul_newTES_manzoni_Up/diTau_fullsel_tree_CMG_3.root'
p7
(I01
I2463
tp8
sS'/store/cmst3/user/manzoni/CMG/WH_ZH_TTH_HToTauTau_M-100_8TeV-pythia6-tauola/Summer12_DR53X-PU_S10_START53_V7C-v1/AODSIM/PAT_CMG_V5_16_0/HTT_24Jul_newTES_manzoni_Up/diTau_fullsel_tree_CMG_2.root'
p9
(I01
I2532
tp10
sS'/store/cmst3/user/manzoni/CMG/WH_ZH_TTH_HToTauTau_M-100_8TeV-pythia6-tauola/Summer12_DR53X-PU_S10_START53_V7C-v1/AODSIM/PAT_CMG_V5_16_0/HTT_24Jul_newTES_manzoni_Up/diTau_fullsel_tree_CMG_4.root'
p11
(I01
I2503
tp12
sS'/store/cmst3/user/manzoni/CMG/WH_ZH_TTH_HToTauTau_M-100_8TeV-pythia6-tauola/Summer12_DR53X-PU_S10_START53_V7C-v1/AODSIM/PAT_CMG_V5_16_0/HTT_24Jul_newTES_manzoni_Up/diTau_fullsel_tree_CMG_1.root'
p13
(I01
I2583
tp14
ssS'Name'
p15
S'/WH_ZH_TTH_HToTauTau_M-100_8TeV-pythia6-tauola/Summer12_DR53X-PU_S10_START53_V7C-v1/AODSIM/PAT_CMG_V5_16_0/HTT_24Jul_newTES_manzoni_Up'
p16
sS'Topdir'
p17
S'/eos/cms/store/cmst3/user/manzoni/CMG'
p18
sS'RunList'
p19
(lp20
sS'PathList'
p21
(lp22
S'/store/cmst3/user/manzoni/CMG/WH_ZH_TTH_HToTauTau_M-100_8TeV-pythia6-tauola/Summer12_DR53X-PU_S10_START53_V7C-v1/AODSIM/PAT_CMG_V5_16_0/HTT_24Jul_newTES_manzoni_Up'
p23
asS'AlgoList'
p24
(lp25
sS'PrimaryDatasetFraction'
p26
F0.050404999999999998
sS'FilesGood'
p27
I4
sS'PrimaryDatasetEntries'
p28
I200000
sS'data'
p29
(dp30
sS'FilesBad'
p31
I0
sS'ReportVersion'
p32
I3
sS'Status'
p33
S'VALID'
p34
sS'MaxRun'
p35
I-1
sS'PhysicsGroup'
p36
S'CMG'
p37
sS'MinRun'
p38
I-1
sS'StageHost'
p39
S'castorcms'
p40
sS'FilesCount'
p41
I4
sS'FilesEntries'
p42
I10081
sS'TierList'
p43
(lp44
sS'DateCreated'
p45
S'1377472146'
p46
sS'CreatedBy'
p47
S'manzoni'
p48
sS'ValidDuplicates'
p49
(dp50
sS'PrimaryDataset'
p51
S'/WH_ZH_TTH_HToTauTau_M-100_8TeV-pythia6-tauola/Summer12_DR53X-PU_S10_START53_V7C-v1/AODSIM'
p52
sS'BadJobs'
p53
(lp54
ssS'MaskPresent'
p55
I01
sS'LSFJobStatusCheck'
p56
(dp57
S'WH_ZH_TTH_HToTauTau_M-100_8TeV-pythia6-tauola/Summer12_DR53X-PU_S10_START53_V7C-v1/AODSIM/PAT_CMG_V5_16_0_1377467464/HTT_24Jul_newTES_manzoni_Up_Jobs/Job_4'
p58
g34
sS'WH_ZH_TTH_HToTauTau_M-100_8TeV-pythia6-tauola/Summer12_DR53X-PU_S10_START53_V7C-v1/AODSIM/PAT_CMG_V5_16_0_1377467464/HTT_24Jul_newTES_manzoni_Up_Jobs/Job_2'
p59
g34
sS'WH_ZH_TTH_HToTauTau_M-100_8TeV-pythia6-tauola/Summer12_DR53X-PU_S10_START53_V7C-v1/AODSIM/PAT_CMG_V5_16_0_1377467464/HTT_24Jul_newTES_manzoni_Up_Jobs/Job_3'
p60
g34
sS'WH_ZH_TTH_HToTauTau_M-100_8TeV-pythia6-tauola/Summer12_DR53X-PU_S10_START53_V7C-v1/AODSIM/PAT_CMG_V5_16_0_1377467464/HTT_24Jul_newTES_manzoni_Up_Jobs/Job_1'
p61
g34
sssS'CheckDatasetExists'
p62
(dp63
S'Dataset'
p64
S'/WH_ZH_TTH_HToTauTau_M-100_8TeV-pythia6-tauola/Summer12_DR53X-PU_S10_START53_V7C-v1/AODSIM/PAT_CMG_V5_16_0'
p65
ssS'GenerateMask'
p66
(dp67
g3
(dp68
VPathList
p69
(lp70
V/store/cmst3/group/cmgtools/CMG/WH_ZH_TTH_HToTauTau_M-100_8TeV-pythia6-tauola/Summer12_DR53X-PU_S10_START53_V7C-v1/AODSIM/PAT_CMG_V5_16_0
p71
asVStageHost
p72
Vcastorcms
p73
sVPrimaryDatasetFraction
p74
F1.0
sVFilesGood
p75
I20
sVPrimaryDatasetEntries
p76
I200000
sVReportVersion
p77
I3
sVFiles
p78
(dp79
V/store/cmst3/group/cmgtools/CMG/WH_ZH_TTH_HToTauTau_M-100_8TeV-pythia6-tauola/Summer12_DR53X-PU_S10_START53_V7C-v1/AODSIM/PAT_CMG_V5_16_0/cmgTuple_16_1_rmf.root
p80
(lp81
I01
aI10000
asV/store/cmst3/group/cmgtools/CMG/WH_ZH_TTH_HToTauTau_M-100_8TeV-pythia6-tauola/Summer12_DR53X-PU_S10_START53_V7C-v1/AODSIM/PAT_CMG_V5_16_0/cmgTuple_9_1_t9P.root
p82
(lp83
I01
aI10000
asV/store/cmst3/group/cmgtools/CMG/WH_ZH_TTH_HToTauTau_M-100_8TeV-pythia6-tauola/Summer12_DR53X-PU_S10_START53_V7C-v1/AODSIM/PAT_CMG_V5_16_0/cmgTuple_11_1_zsw.root
p84
(lp85
I01
aI10000
asV/store/cmst3/group/cmgtools/CMG/WH_ZH_TTH_HToTauTau_M-100_8TeV-pythia6-tauola/Summer12_DR53X-PU_S10_START53_V7C-v1/AODSIM/PAT_CMG_V5_16_0/cmgTuple_20_1_Ipx.root
p86
(lp87
I01
aI10000
asV/store/cmst3/group/cmgtools/CMG/WH_ZH_TTH_HToTauTau_M-100_8TeV-pythia6-tauola/Summer12_DR53X-PU_S10_START53_V7C-v1/AODSIM/PAT_CMG_V5_16_0/cmgTuple_6_1_Hrp.root
p88
(lp89
I01
aI10000
asV/store/cmst3/group/cmgtools/CMG/WH_ZH_TTH_HToTauTau_M-100_8TeV-pythia6-tauola/Summer12_DR53X-PU_S10_START53_V7C-v1/AODSIM/PAT_CMG_V5_16_0/cmgTuple_17_1_e8G.root
p90
(lp91
I01
aI10000
asV/store/cmst3/group/cmgtools/CMG/WH_ZH_TTH_HToTauTau_M-100_8TeV-pythia6-tauola/Summer12_DR53X-PU_S10_START53_V7C-v1/AODSIM/PAT_CMG_V5_16_0/cmgTuple_13_1_ycC.root
p92
(lp93
I01
aI10000
asV/store/cmst3/group/cmgtools/CMG/WH_ZH_TTH_HToTauTau_M-100_8TeV-pythia6-tauola/Summer12_DR53X-PU_S10_START53_V7C-v1/AODSIM/PAT_CMG_V5_16_0/cmgTuple_10_1_MpF.root
p94
(lp95
I01
aI10000
asV/store/cmst3/group/cmgtools/CMG/WH_ZH_TTH_HToTauTau_M-100_8TeV-pythia6-tauola/Summer12_DR53X-PU_S10_START53_V7C-v1/AODSIM/PAT_CMG_V5_16_0/cmgTuple_8_1_X4c.root
p96
(lp97
I01
aI10000
asV/store/cmst3/group/cmgtools/CMG/WH_ZH_TTH_HToTauTau_M-100_8TeV-pythia6-tauola/Summer12_DR53X-PU_S10_START53_V7C-v1/AODSIM/PAT_CMG_V5_16_0/cmgTuple_3_1_hd0.root
p98
(lp99
I01
aI10000
asV/store/cmst3/group/cmgtools/CMG/WH_ZH_TTH_HToTauTau_M-100_8TeV-pythia6-tauola/Summer12_DR53X-PU_S10_START53_V7C-v1/AODSIM/PAT_CMG_V5_16_0/cmgTuple_12_1_pRp.root
p100
(lp101
I01
aI10000
asV/store/cmst3/group/cmgtools/CMG/WH_ZH_TTH_HToTauTau_M-100_8TeV-pythia6-tauola/Summer12_DR53X-PU_S10_START53_V7C-v1/AODSIM/PAT_CMG_V5_16_0/cmgTuple_18_1_Y8q.root
p102
(lp103
I01
aI10000
asV/store/cmst3/group/cmgtools/CMG/WH_ZH_TTH_HToTauTau_M-100_8TeV-pythia6-tauola/Summer12_DR53X-PU_S10_START53_V7C-v1/AODSIM/PAT_CMG_V5_16_0/cmgTuple_15_1_1Zb.root
p104
(lp105
I01
aI10000
asV/store/cmst3/group/cmgtools/CMG/WH_ZH_TTH_HToTauTau_M-100_8TeV-pythia6-tauola/Summer12_DR53X-PU_S10_START53_V7C-v1/AODSIM/PAT_CMG_V5_16_0/cmgTuple_5_1_1Rk.root
p106
(lp107
I01
aI10000
asV/store/cmst3/group/cmgtools/CMG/WH_ZH_TTH_HToTauTau_M-100_8TeV-pythia6-tauola/Summer12_DR53X-PU_S10_START53_V7C-v1/AODSIM/PAT_CMG_V5_16_0/cmgTuple_7_1_bUS.root
p108
(lp109
I01
aI10000
asV/store/cmst3/group/cmgtools/CMG/WH_ZH_TTH_HToTauTau_M-100_8TeV-pythia6-tauola/Summer12_DR53X-PU_S10_START53_V7C-v1/AODSIM/PAT_CMG_V5_16_0/cmgTuple_2_1_6dZ.root
p110
(lp111
I01
aI10000
asV/store/cmst3/group/cmgtools/CMG/WH_ZH_TTH_HToTauTau_M-100_8TeV-pythia6-tauola/Summer12_DR53X-PU_S10_START53_V7C-v1/AODSIM/PAT_CMG_V5_16_0/cmgTuple_4_1_CFH.root
p112
(lp113
I01
aI10000
asV/store/cmst3/group/cmgtools/CMG/WH_ZH_TTH_HToTauTau_M-100_8TeV-pythia6-tauola/Summer12_DR53X-PU_S10_START53_V7C-v1/AODSIM/PAT_CMG_V5_16_0/cmgTuple_19_1_Rgf.root
p114
(lp115
I01
aI10000
asV/store/cmst3/group/cmgtools/CMG/WH_ZH_TTH_HToTauTau_M-100_8TeV-pythia6-tauola/Summer12_DR53X-PU_S10_START53_V7C-v1/AODSIM/PAT_CMG_V5_16_0/cmgTuple_14_1_GGb.root
p116
(lp117
I01
aI10000
asV/store/cmst3/group/cmgtools/CMG/WH_ZH_TTH_HToTauTau_M-100_8TeV-pythia6-tauola/Summer12_DR53X-PU_S10_START53_V7C-v1/AODSIM/PAT_CMG_V5_16_0/cmgTuple_1_1_u7R.root
p118
(lp119
I01
aI10000
assVPhysicsGroup
p120
VCMG
p121
sVFilesCount
p122
I20
sVFilesEntries
p123
I200000
sVRunList
p124
(lp125
sVValidDuplicates
p126
(dp127
sVPrimaryDataset
p128
V/WH_ZH_TTH_HToTauTau_M-100_8TeV-pythia6-tauola/Summer12_DR53X-PU_S10_START53_V7C-v1/AODSIM
p129
sVStatus
p130
VVALID
p131
sVName
p132
V/WH_ZH_TTH_HToTauTau_M-100_8TeV-pythia6-tauola/Summer12_DR53X-PU_S10_START53_V7C-v1/AODSIM/PAT_CMG_V5_16_0
p133
sVTopdir
p134
V/eos/cms/store/cmst3/group/cmgtools/CMG
p135
sVdata
p136
(dp137
sVFilesBad
p138
I0
sVMinRun
p139
I-1
sVAlgoList
p140
(lp141
sVTierList
p142
(lp143
sVDateCreated
p144
V1370942720
p145
sVCreatedBy
p146
Vcmgtools_group
p147
sVMaxRun
p148
I-1
sVBadJobs
p149
(lp150
ssg55
I01
ssS'MonitorJobs'
p151
(dp152
S'LSFJobStatus'
p153
(dp154
g58
S'WH_ZH_TTH_HToTauTau_M-100_8TeV-pythia6-tauola/Summer12_DR53X-PU_S10_START53_V7C-v1/AODSIM/PAT_CMG_V5_16_0_1377467464/HTT_24Jul_newTES_manzoni_Up_Jobs/Job_4/LSFJOB_440970901/STDOUT.gz'
p155
sg59
S'WH_ZH_TTH_HToTauTau_M-100_8TeV-pythia6-tauola/Summer12_DR53X-PU_S10_START53_V7C-v1/AODSIM/PAT_CMG_V5_16_0_1377467464/HTT_24Jul_newTES_manzoni_Up_Jobs/Job_2/LSFJOB_440970671/STDOUT.gz'
p156
sg60
S'WH_ZH_TTH_HToTauTau_M-100_8TeV-pythia6-tauola/Summer12_DR53X-PU_S10_START53_V7C-v1/AODSIM/PAT_CMG_V5_16_0_1377467464/HTT_24Jul_newTES_manzoni_Up_Jobs/Job_3/LSFJOB_440970796/STDOUT.gz'
p157
sg61
S'WH_ZH_TTH_HToTauTau_M-100_8TeV-pythia6-tauola/Summer12_DR53X-PU_S10_START53_V7C-v1/AODSIM/PAT_CMG_V5_16_0_1377467464/HTT_24Jul_newTES_manzoni_Up_Jobs/Job_1/LSFJOB_440970524/STDOUT.gz'
p158
ssS'LSFJobIDs'
p159
(dp160
g58
S'440970901'
p161
sg59
S'440970671'
p162
sg60
S'440970796'
p163
sg61
S'440970524'
p164
sssS'FindOnCastor'
p165
(dp166
g17
S'/eos/cms/store/cmst3/group/cmgtools/CMG'
p167
sS'Directory'
p168
S'/eos/cms/store/cmst3/group/cmgtools/CMG/WH_ZH_TTH_HToTauTau_M-100_8TeV-pythia6-tauola/Summer12_DR53X-PU_S10_START53_V7C-v1/AODSIM/PAT_CMG_V5_16_0'
p169
ssS'CheckConfig'
p170
(dp171
g33
g34
ssS'FullCFG'
p172
(dp173
S'FullCFG'
p174
S'WH_ZH_TTH_HToTauTau_M-100_8TeV-pythia6-tauola/Summer12_DR53X-PU_S10_START53_V7C-v1/AODSIM/PAT_CMG_V5_16_0_1377467464/full_cfg.py'
p175
ssS'WriteJobReport'
p176
(dp177
S'SummaryFile'
p178
S'WH_ZH_TTH_HToTauTau_M-100_8TeV-pythia6-tauola/Summer12_DR53X-PU_S10_START53_V7C-v1/AODSIM/PAT_CMG_V5_16_0_1377467464/resubmit.sh'
p179
ssS'ExpandConfig'
p180
(dp181
S'ExpandedFullCFG'
p182
S'WH_ZH_TTH_HToTauTau_M-100_8TeV-pythia6-tauola/Summer12_DR53X-PU_S10_START53_V7C-v1/AODSIM/PAT_CMG_V5_16_0_1377467464/Expandedfull_cfg.py'
p183
ssS'RunTestEvents'
p184
(dp185
g33
g34
sS'TestCFG'
p186
S'WH_ZH_TTH_HToTauTau_M-100_8TeV-pythia6-tauola/Summer12_DR53X-PU_S10_START53_V7C-v1/AODSIM/PAT_CMG_V5_16_0_1377467464/test_cfg.py'
p187
ssS'SourceCFG'
p188
(dp189
S'SourceCFG'
p190
S'WH_ZH_TTH_HToTauTau_M-100_8TeV-pythia6-tauola/Summer12_DR53X-PU_S10_START53_V7C-v1/AODSIM/PAT_CMG_V5_16_0_1377467464/source_cfg.py'
p191
ssS'CheckForWrite'
p192
(dp193
g168
g169
sS'WriteAccess'
p194
I01
ssS'WriteToDatasets'
p195
(dp196
S'Added'
p197
I00
sg15
S'/WH_ZH_TTH_HToTauTau_M-100_8TeV-pythia6-tauola/Summer12_DR53X-PU_S10_START53_V7C-v1/AODSIM/PAT_CMG_V5_16_0/HTT_24Jul_newTES_manzoni_Up'
p198
sS'User'
p199
g48
ssS'RunCMSBatch'
p200
(dp201
S'BatchUser'
p202
g48
sS'SampleOutputDir'
p203
S'/store/cmst3/user/manzoni/CMG/WH_ZH_TTH_HToTauTau_M-100_8TeV-pythia6-tauola/Summer12_DR53X-PU_S10_START53_V7C-v1/AODSIM/PAT_CMG_V5_16_0/HTT_24Jul_newTES_manzoni_Up'
p204
sS'SampleDataset'
p205
g16
sS'LSFJobsTopDir'
p206
S'WH_ZH_TTH_HToTauTau_M-100_8TeV-pythia6-tauola/Summer12_DR53X-PU_S10_START53_V7C-v1/AODSIM/PAT_CMG_V5_16_0_1377467464/HTT_24Jul_newTES_manzoni_Up_Jobs'
p207
ssS'CreateJobDirectory'
p208
(dp209
S'JobDir'
p210
S'WH_ZH_TTH_HToTauTau_M-100_8TeV-pythia6-tauola/Summer12_DR53X-PU_S10_START53_V7C-v1/AODSIM/PAT_CMG_V5_16_0_1377467464'
p211
sS'PWD'
p212
S'/afs/cern.ch/user/m/manzoni/summer13/CMGTools/CMSSW_5_3_9/src/CMGTools/H2TauTau/prod/25aug_corrMC/up/mc'
p213
ssS'CleanJobFiles'
p214
(dp215
S'Compressed'
p216
(dp217
S'CompressedFiles'
p218
(lp219
ssS'Cleaned'
p220
(dp221
S'CleanedFiles'
p222
(lp223
g183
ag187
aS'WH_ZH_TTH_HToTauTau_M-100_8TeV-pythia6-tauola/Summer12_DR53X-PU_S10_START53_V7C-v1/AODSIM/PAT_CMG_V5_16_0_1377467464/diTau_fullsel_tree_CMG.root'
p224
aS'WH_ZH_TTH_HToTauTau_M-100_8TeV-pythia6-tauola/Summer12_DR53X-PU_S10_START53_V7C-v1/AODSIM/PAT_CMG_V5_16_0_1377467464/source_cfg.pyc'
p225
aS'WH_ZH_TTH_HToTauTau_M-100_8TeV-pythia6-tauola/Summer12_DR53X-PU_S10_START53_V7C-v1/AODSIM/PAT_CMG_V5_16_0_1377467464/Expandedfull_cfg.pyc'
p226
asssS'CheckForMask'
p227
(dp228
g3
g68
sg55
I01
ss.