(dp0
S'CheckJobStatus'
p1
(dp2
S'Report'
p3
(dp4
S'Files'
p5
(dp6
S'/store/cmst3/user/manzoni/CMG/SUSYBBHToTauTau_M-900_8TeV-pythia6-tauola/Summer12_DR53X-PU_S10_START53_V7A-v1/AODSIM/PAT_CMG_V5_16_0/HTT_24Jul_newTES_manzoni_Up/diTau_fullsel_tree_CMG_17.root'
p7
(I01
I13279
tp8
sS'/store/cmst3/user/manzoni/CMG/SUSYBBHToTauTau_M-900_8TeV-pythia6-tauola/Summer12_DR53X-PU_S10_START53_V7A-v1/AODSIM/PAT_CMG_V5_16_0/HTT_24Jul_newTES_manzoni_Up/diTau_fullsel_tree_CMG_25.root'
p9
(I01
I13441
tp10
sS'/store/cmst3/user/manzoni/CMG/SUSYBBHToTauTau_M-900_8TeV-pythia6-tauola/Summer12_DR53X-PU_S10_START53_V7A-v1/AODSIM/PAT_CMG_V5_16_0/HTT_24Jul_newTES_manzoni_Up/diTau_fullsel_tree_CMG_26.root'
p11
(I01
I13310
tp12
sS'/store/cmst3/user/manzoni/CMG/SUSYBBHToTauTau_M-900_8TeV-pythia6-tauola/Summer12_DR53X-PU_S10_START53_V7A-v1/AODSIM/PAT_CMG_V5_16_0/HTT_24Jul_newTES_manzoni_Up/diTau_fullsel_tree_CMG_18.root'
p13
(I01
I13213
tp14
sS'/store/cmst3/user/manzoni/CMG/SUSYBBHToTauTau_M-900_8TeV-pythia6-tauola/Summer12_DR53X-PU_S10_START53_V7A-v1/AODSIM/PAT_CMG_V5_16_0/HTT_24Jul_newTES_manzoni_Up/diTau_fullsel_tree_CMG_19.root'
p15
(I01
I13241
tp16
sS'/store/cmst3/user/manzoni/CMG/SUSYBBHToTauTau_M-900_8TeV-pythia6-tauola/Summer12_DR53X-PU_S10_START53_V7A-v1/AODSIM/PAT_CMG_V5_16_0/HTT_24Jul_newTES_manzoni_Up/diTau_fullsel_tree_CMG_16.root'
p17
(I01
I13169
tp18
sS'/store/cmst3/user/manzoni/CMG/SUSYBBHToTauTau_M-900_8TeV-pythia6-tauola/Summer12_DR53X-PU_S10_START53_V7A-v1/AODSIM/PAT_CMG_V5_16_0/HTT_24Jul_newTES_manzoni_Up/diTau_fullsel_tree_CMG_21.root'
p19
(I01
I13198
tp20
sS'/store/cmst3/user/manzoni/CMG/SUSYBBHToTauTau_M-900_8TeV-pythia6-tauola/Summer12_DR53X-PU_S10_START53_V7A-v1/AODSIM/PAT_CMG_V5_16_0/HTT_24Jul_newTES_manzoni_Up/diTau_fullsel_tree_CMG_34.root'
p21
(I01
I4427
tp22
sS'/store/cmst3/user/manzoni/CMG/SUSYBBHToTauTau_M-900_8TeV-pythia6-tauola/Summer12_DR53X-PU_S10_START53_V7A-v1/AODSIM/PAT_CMG_V5_16_0/HTT_24Jul_newTES_manzoni_Up/diTau_fullsel_tree_CMG_22.root'
p23
(I01
I13283
tp24
sS'/store/cmst3/user/manzoni/CMG/SUSYBBHToTauTau_M-900_8TeV-pythia6-tauola/Summer12_DR53X-PU_S10_START53_V7A-v1/AODSIM/PAT_CMG_V5_16_0/HTT_24Jul_newTES_manzoni_Up/diTau_fullsel_tree_CMG_33.root'
p25
(I01
I13332
tp26
sS'/store/cmst3/user/manzoni/CMG/SUSYBBHToTauTau_M-900_8TeV-pythia6-tauola/Summer12_DR53X-PU_S10_START53_V7A-v1/AODSIM/PAT_CMG_V5_16_0/HTT_24Jul_newTES_manzoni_Up/diTau_fullsel_tree_CMG_8.root'
p27
(I01
I13183
tp28
sS'/store/cmst3/user/manzoni/CMG/SUSYBBHToTauTau_M-900_8TeV-pythia6-tauola/Summer12_DR53X-PU_S10_START53_V7A-v1/AODSIM/PAT_CMG_V5_16_0/HTT_24Jul_newTES_manzoni_Up/diTau_fullsel_tree_CMG_30.root'
p29
(I01
I13197
tp30
sS'/store/cmst3/user/manzoni/CMG/SUSYBBHToTauTau_M-900_8TeV-pythia6-tauola/Summer12_DR53X-PU_S10_START53_V7A-v1/AODSIM/PAT_CMG_V5_16_0/HTT_24Jul_newTES_manzoni_Up/diTau_fullsel_tree_CMG_6.root'
p31
(I01
I13283
tp32
sS'/store/cmst3/user/manzoni/CMG/SUSYBBHToTauTau_M-900_8TeV-pythia6-tauola/Summer12_DR53X-PU_S10_START53_V7A-v1/AODSIM/PAT_CMG_V5_16_0/HTT_24Jul_newTES_manzoni_Up/diTau_fullsel_tree_CMG_28.root'
p33
(I01
I13297
tp34
sS'/store/cmst3/user/manzoni/CMG/SUSYBBHToTauTau_M-900_8TeV-pythia6-tauola/Summer12_DR53X-PU_S10_START53_V7A-v1/AODSIM/PAT_CMG_V5_16_0/HTT_24Jul_newTES_manzoni_Up/diTau_fullsel_tree_CMG_10.root'
p35
(I01
I13277
tp36
sS'/store/cmst3/user/manzoni/CMG/SUSYBBHToTauTau_M-900_8TeV-pythia6-tauola/Summer12_DR53X-PU_S10_START53_V7A-v1/AODSIM/PAT_CMG_V5_16_0/HTT_24Jul_newTES_manzoni_Up/diTau_fullsel_tree_CMG_14.root'
p37
(I01
I13147
tp38
sS'/store/cmst3/user/manzoni/CMG/SUSYBBHToTauTau_M-900_8TeV-pythia6-tauola/Summer12_DR53X-PU_S10_START53_V7A-v1/AODSIM/PAT_CMG_V5_16_0/HTT_24Jul_newTES_manzoni_Up/diTau_fullsel_tree_CMG_13.root'
p39
(I01
I13111
tp40
sS'/store/cmst3/user/manzoni/CMG/SUSYBBHToTauTau_M-900_8TeV-pythia6-tauola/Summer12_DR53X-PU_S10_START53_V7A-v1/AODSIM/PAT_CMG_V5_16_0/HTT_24Jul_newTES_manzoni_Up/diTau_fullsel_tree_CMG_5.root'
p41
(I01
I13312
tp42
sS'/store/cmst3/user/manzoni/CMG/SUSYBBHToTauTau_M-900_8TeV-pythia6-tauola/Summer12_DR53X-PU_S10_START53_V7A-v1/AODSIM/PAT_CMG_V5_16_0/HTT_24Jul_newTES_manzoni_Up/diTau_fullsel_tree_CMG_29.root'
p43
(I01
I13127
tp44
sS'/store/cmst3/user/manzoni/CMG/SUSYBBHToTauTau_M-900_8TeV-pythia6-tauola/Summer12_DR53X-PU_S10_START53_V7A-v1/AODSIM/PAT_CMG_V5_16_0/HTT_24Jul_newTES_manzoni_Up/diTau_fullsel_tree_CMG_15.root'
p45
(I01
I13254
tp46
sS'/store/cmst3/user/manzoni/CMG/SUSYBBHToTauTau_M-900_8TeV-pythia6-tauola/Summer12_DR53X-PU_S10_START53_V7A-v1/AODSIM/PAT_CMG_V5_16_0/HTT_24Jul_newTES_manzoni_Up/diTau_fullsel_tree_CMG_12.root'
p47
(I01
I13302
tp48
sS'/store/cmst3/user/manzoni/CMG/SUSYBBHToTauTau_M-900_8TeV-pythia6-tauola/Summer12_DR53X-PU_S10_START53_V7A-v1/AODSIM/PAT_CMG_V5_16_0/HTT_24Jul_newTES_manzoni_Up/diTau_fullsel_tree_CMG_2.root'
p49
(I01
I13226
tp50
sS'/store/cmst3/user/manzoni/CMG/SUSYBBHToTauTau_M-900_8TeV-pythia6-tauola/Summer12_DR53X-PU_S10_START53_V7A-v1/AODSIM/PAT_CMG_V5_16_0/HTT_24Jul_newTES_manzoni_Up/diTau_fullsel_tree_CMG_24.root'
p51
(I01
I13297
tp52
sS'/store/cmst3/user/manzoni/CMG/SUSYBBHToTauTau_M-900_8TeV-pythia6-tauola/Summer12_DR53X-PU_S10_START53_V7A-v1/AODSIM/PAT_CMG_V5_16_0/HTT_24Jul_newTES_manzoni_Up/diTau_fullsel_tree_CMG_1.root'
p53
(I01
I12116
tp54
sS'/store/cmst3/user/manzoni/CMG/SUSYBBHToTauTau_M-900_8TeV-pythia6-tauola/Summer12_DR53X-PU_S10_START53_V7A-v1/AODSIM/PAT_CMG_V5_16_0/HTT_24Jul_newTES_manzoni_Up/diTau_fullsel_tree_CMG_32.root'
p55
(I01
I13142
tp56
sS'/store/cmst3/user/manzoni/CMG/SUSYBBHToTauTau_M-900_8TeV-pythia6-tauola/Summer12_DR53X-PU_S10_START53_V7A-v1/AODSIM/PAT_CMG_V5_16_0/HTT_24Jul_newTES_manzoni_Up/diTau_fullsel_tree_CMG_7.root'
p57
(I01
I13263
tp58
sS'/store/cmst3/user/manzoni/CMG/SUSYBBHToTauTau_M-900_8TeV-pythia6-tauola/Summer12_DR53X-PU_S10_START53_V7A-v1/AODSIM/PAT_CMG_V5_16_0/HTT_24Jul_newTES_manzoni_Up/diTau_fullsel_tree_CMG_11.root'
p59
(I01
I13334
tp60
sS'/store/cmst3/user/manzoni/CMG/SUSYBBHToTauTau_M-900_8TeV-pythia6-tauola/Summer12_DR53X-PU_S10_START53_V7A-v1/AODSIM/PAT_CMG_V5_16_0/HTT_24Jul_newTES_manzoni_Up/diTau_fullsel_tree_CMG_27.root'
p61
(I01
I13220
tp62
sS'/store/cmst3/user/manzoni/CMG/SUSYBBHToTauTau_M-900_8TeV-pythia6-tauola/Summer12_DR53X-PU_S10_START53_V7A-v1/AODSIM/PAT_CMG_V5_16_0/HTT_24Jul_newTES_manzoni_Up/diTau_fullsel_tree_CMG_31.root'
p63
(I01
I13303
tp64
sS'/store/cmst3/user/manzoni/CMG/SUSYBBHToTauTau_M-900_8TeV-pythia6-tauola/Summer12_DR53X-PU_S10_START53_V7A-v1/AODSIM/PAT_CMG_V5_16_0/HTT_24Jul_newTES_manzoni_Up/diTau_fullsel_tree_CMG_4.root'
p65
(I01
I13328
tp66
sS'/store/cmst3/user/manzoni/CMG/SUSYBBHToTauTau_M-900_8TeV-pythia6-tauola/Summer12_DR53X-PU_S10_START53_V7A-v1/AODSIM/PAT_CMG_V5_16_0/HTT_24Jul_newTES_manzoni_Up/diTau_fullsel_tree_CMG_20.root'
p67
(I01
I13437
tp68
sS'/store/cmst3/user/manzoni/CMG/SUSYBBHToTauTau_M-900_8TeV-pythia6-tauola/Summer12_DR53X-PU_S10_START53_V7A-v1/AODSIM/PAT_CMG_V5_16_0/HTT_24Jul_newTES_manzoni_Up/diTau_fullsel_tree_CMG_23.root'
p69
(I01
I13232
tp70
sS'/store/cmst3/user/manzoni/CMG/SUSYBBHToTauTau_M-900_8TeV-pythia6-tauola/Summer12_DR53X-PU_S10_START53_V7A-v1/AODSIM/PAT_CMG_V5_16_0/HTT_24Jul_newTES_manzoni_Up/diTau_fullsel_tree_CMG_9.root'
p71
(I01
I13191
tp72
sS'/store/cmst3/user/manzoni/CMG/SUSYBBHToTauTau_M-900_8TeV-pythia6-tauola/Summer12_DR53X-PU_S10_START53_V7A-v1/AODSIM/PAT_CMG_V5_16_0/HTT_24Jul_newTES_manzoni_Up/diTau_fullsel_tree_CMG_3.root'
p73
(I01
I13218
tp74
ssS'Name'
p75
S'/SUSYBBHToTauTau_M-900_8TeV-pythia6-tauola/Summer12_DR53X-PU_S10_START53_V7A-v1/AODSIM/PAT_CMG_V5_16_0/HTT_24Jul_newTES_manzoni_Up'
p76
sS'Topdir'
p77
S'/eos/cms/store/cmst3/user/manzoni/CMG'
p78
sS'RunList'
p79
(lp80
sS'PathList'
p81
(lp82
S'/store/cmst3/user/manzoni/CMG/SUSYBBHToTauTau_M-900_8TeV-pythia6-tauola/Summer12_DR53X-PU_S10_START53_V7A-v1/AODSIM/PAT_CMG_V5_16_0/HTT_24Jul_newTES_manzoni_Up'
p83
asS'AlgoList'
p84
(lp85
sS'PrimaryDatasetFraction'
p86
F0.44171743475323605
sS'FilesGood'
p87
I34
sS'PrimaryDatasetEntries'
p88
I997674
sS'data'
p89
(dp90
sS'FilesBad'
p91
I0
sS'ReportVersion'
p92
I3
sS'Status'
p93
S'VALID'
p94
sS'MaxRun'
p95
I-1
sS'PhysicsGroup'
p96
S'CMG'
p97
sS'MinRun'
p98
I-1
sS'StageHost'
p99
S'castorcms'
p100
sS'FilesCount'
p101
I34
sS'FilesEntries'
p102
I440690
sS'TierList'
p103
(lp104
sS'DateCreated'
p105
S'1377490407'
p106
sS'CreatedBy'
p107
S'manzoni'
p108
sS'ValidDuplicates'
p109
(dp110
sS'PrimaryDataset'
p111
S'/SUSYBBHToTauTau_M-900_8TeV-pythia6-tauola/Summer12_DR53X-PU_S10_START53_V7A-v1/AODSIM'
p112
sS'BadJobs'
p113
(lp114
ssS'MaskPresent'
p115
I01
sS'LSFJobStatusCheck'
p116
(dp117
S'SUSYBBHToTauTau_M-900_8TeV-pythia6-tauola/Summer12_DR53X-PU_S10_START53_V7A-v1/AODSIM/PAT_CMG_V5_16_0_1377467562/HTT_24Jul_newTES_manzoni_Up_Jobs/Job_26'
p118
g94
sS'SUSYBBHToTauTau_M-900_8TeV-pythia6-tauola/Summer12_DR53X-PU_S10_START53_V7A-v1/AODSIM/PAT_CMG_V5_16_0_1377467562/HTT_24Jul_newTES_manzoni_Up_Jobs/Job_27'
p119
g94
sS'SUSYBBHToTauTau_M-900_8TeV-pythia6-tauola/Summer12_DR53X-PU_S10_START53_V7A-v1/AODSIM/PAT_CMG_V5_16_0_1377467562/HTT_24Jul_newTES_manzoni_Up_Jobs/Job_24'
p120
g94
sS'SUSYBBHToTauTau_M-900_8TeV-pythia6-tauola/Summer12_DR53X-PU_S10_START53_V7A-v1/AODSIM/PAT_CMG_V5_16_0_1377467562/HTT_24Jul_newTES_manzoni_Up_Jobs/Job_25'
p121
g94
sS'SUSYBBHToTauTau_M-900_8TeV-pythia6-tauola/Summer12_DR53X-PU_S10_START53_V7A-v1/AODSIM/PAT_CMG_V5_16_0_1377467562/HTT_24Jul_newTES_manzoni_Up_Jobs/Job_22'
p122
g94
sS'SUSYBBHToTauTau_M-900_8TeV-pythia6-tauola/Summer12_DR53X-PU_S10_START53_V7A-v1/AODSIM/PAT_CMG_V5_16_0_1377467562/HTT_24Jul_newTES_manzoni_Up_Jobs/Job_23'
p123
g94
sS'SUSYBBHToTauTau_M-900_8TeV-pythia6-tauola/Summer12_DR53X-PU_S10_START53_V7A-v1/AODSIM/PAT_CMG_V5_16_0_1377467562/HTT_24Jul_newTES_manzoni_Up_Jobs/Job_20'
p124
g94
sS'SUSYBBHToTauTau_M-900_8TeV-pythia6-tauola/Summer12_DR53X-PU_S10_START53_V7A-v1/AODSIM/PAT_CMG_V5_16_0_1377467562/HTT_24Jul_newTES_manzoni_Up_Jobs/Job_21'
p125
g94
sS'SUSYBBHToTauTau_M-900_8TeV-pythia6-tauola/Summer12_DR53X-PU_S10_START53_V7A-v1/AODSIM/PAT_CMG_V5_16_0_1377467562/HTT_24Jul_newTES_manzoni_Up_Jobs/Job_28'
p126
g94
sS'SUSYBBHToTauTau_M-900_8TeV-pythia6-tauola/Summer12_DR53X-PU_S10_START53_V7A-v1/AODSIM/PAT_CMG_V5_16_0_1377467562/HTT_24Jul_newTES_manzoni_Up_Jobs/Job_29'
p127
g94
sS'SUSYBBHToTauTau_M-900_8TeV-pythia6-tauola/Summer12_DR53X-PU_S10_START53_V7A-v1/AODSIM/PAT_CMG_V5_16_0_1377467562/HTT_24Jul_newTES_manzoni_Up_Jobs/Job_9'
p128
g94
sS'SUSYBBHToTauTau_M-900_8TeV-pythia6-tauola/Summer12_DR53X-PU_S10_START53_V7A-v1/AODSIM/PAT_CMG_V5_16_0_1377467562/HTT_24Jul_newTES_manzoni_Up_Jobs/Job_8'
p129
g94
sS'SUSYBBHToTauTau_M-900_8TeV-pythia6-tauola/Summer12_DR53X-PU_S10_START53_V7A-v1/AODSIM/PAT_CMG_V5_16_0_1377467562/HTT_24Jul_newTES_manzoni_Up_Jobs/Job_7'
p130
g94
sS'SUSYBBHToTauTau_M-900_8TeV-pythia6-tauola/Summer12_DR53X-PU_S10_START53_V7A-v1/AODSIM/PAT_CMG_V5_16_0_1377467562/HTT_24Jul_newTES_manzoni_Up_Jobs/Job_6'
p131
g94
sS'SUSYBBHToTauTau_M-900_8TeV-pythia6-tauola/Summer12_DR53X-PU_S10_START53_V7A-v1/AODSIM/PAT_CMG_V5_16_0_1377467562/HTT_24Jul_newTES_manzoni_Up_Jobs/Job_5'
p132
g94
sS'SUSYBBHToTauTau_M-900_8TeV-pythia6-tauola/Summer12_DR53X-PU_S10_START53_V7A-v1/AODSIM/PAT_CMG_V5_16_0_1377467562/HTT_24Jul_newTES_manzoni_Up_Jobs/Job_4'
p133
g94
sS'SUSYBBHToTauTau_M-900_8TeV-pythia6-tauola/Summer12_DR53X-PU_S10_START53_V7A-v1/AODSIM/PAT_CMG_V5_16_0_1377467562/HTT_24Jul_newTES_manzoni_Up_Jobs/Job_3'
p134
g94
sS'SUSYBBHToTauTau_M-900_8TeV-pythia6-tauola/Summer12_DR53X-PU_S10_START53_V7A-v1/AODSIM/PAT_CMG_V5_16_0_1377467562/HTT_24Jul_newTES_manzoni_Up_Jobs/Job_2'
p135
g94
sS'SUSYBBHToTauTau_M-900_8TeV-pythia6-tauola/Summer12_DR53X-PU_S10_START53_V7A-v1/AODSIM/PAT_CMG_V5_16_0_1377467562/HTT_24Jul_newTES_manzoni_Up_Jobs/Job_1'
p136
g94
sS'SUSYBBHToTauTau_M-900_8TeV-pythia6-tauola/Summer12_DR53X-PU_S10_START53_V7A-v1/AODSIM/PAT_CMG_V5_16_0_1377467562/HTT_24Jul_newTES_manzoni_Up_Jobs/Job_13'
p137
g94
sS'SUSYBBHToTauTau_M-900_8TeV-pythia6-tauola/Summer12_DR53X-PU_S10_START53_V7A-v1/AODSIM/PAT_CMG_V5_16_0_1377467562/HTT_24Jul_newTES_manzoni_Up_Jobs/Job_12'
p138
g94
sS'SUSYBBHToTauTau_M-900_8TeV-pythia6-tauola/Summer12_DR53X-PU_S10_START53_V7A-v1/AODSIM/PAT_CMG_V5_16_0_1377467562/HTT_24Jul_newTES_manzoni_Up_Jobs/Job_11'
p139
g94
sS'SUSYBBHToTauTau_M-900_8TeV-pythia6-tauola/Summer12_DR53X-PU_S10_START53_V7A-v1/AODSIM/PAT_CMG_V5_16_0_1377467562/HTT_24Jul_newTES_manzoni_Up_Jobs/Job_10'
p140
g94
sS'SUSYBBHToTauTau_M-900_8TeV-pythia6-tauola/Summer12_DR53X-PU_S10_START53_V7A-v1/AODSIM/PAT_CMG_V5_16_0_1377467562/HTT_24Jul_newTES_manzoni_Up_Jobs/Job_17'
p141
g94
sS'SUSYBBHToTauTau_M-900_8TeV-pythia6-tauola/Summer12_DR53X-PU_S10_START53_V7A-v1/AODSIM/PAT_CMG_V5_16_0_1377467562/HTT_24Jul_newTES_manzoni_Up_Jobs/Job_16'
p142
g94
sS'SUSYBBHToTauTau_M-900_8TeV-pythia6-tauola/Summer12_DR53X-PU_S10_START53_V7A-v1/AODSIM/PAT_CMG_V5_16_0_1377467562/HTT_24Jul_newTES_manzoni_Up_Jobs/Job_15'
p143
g94
sS'SUSYBBHToTauTau_M-900_8TeV-pythia6-tauola/Summer12_DR53X-PU_S10_START53_V7A-v1/AODSIM/PAT_CMG_V5_16_0_1377467562/HTT_24Jul_newTES_manzoni_Up_Jobs/Job_14'
p144
g94
sS'SUSYBBHToTauTau_M-900_8TeV-pythia6-tauola/Summer12_DR53X-PU_S10_START53_V7A-v1/AODSIM/PAT_CMG_V5_16_0_1377467562/HTT_24Jul_newTES_manzoni_Up_Jobs/Job_19'
p145
g94
sS'SUSYBBHToTauTau_M-900_8TeV-pythia6-tauola/Summer12_DR53X-PU_S10_START53_V7A-v1/AODSIM/PAT_CMG_V5_16_0_1377467562/HTT_24Jul_newTES_manzoni_Up_Jobs/Job_18'
p146
g94
sS'SUSYBBHToTauTau_M-900_8TeV-pythia6-tauola/Summer12_DR53X-PU_S10_START53_V7A-v1/AODSIM/PAT_CMG_V5_16_0_1377467562/HTT_24Jul_newTES_manzoni_Up_Jobs/Job_31'
p147
g94
sS'SUSYBBHToTauTau_M-900_8TeV-pythia6-tauola/Summer12_DR53X-PU_S10_START53_V7A-v1/AODSIM/PAT_CMG_V5_16_0_1377467562/HTT_24Jul_newTES_manzoni_Up_Jobs/Job_30'
p148
g94
sS'SUSYBBHToTauTau_M-900_8TeV-pythia6-tauola/Summer12_DR53X-PU_S10_START53_V7A-v1/AODSIM/PAT_CMG_V5_16_0_1377467562/HTT_24Jul_newTES_manzoni_Up_Jobs/Job_33'
p149
g94
sS'SUSYBBHToTauTau_M-900_8TeV-pythia6-tauola/Summer12_DR53X-PU_S10_START53_V7A-v1/AODSIM/PAT_CMG_V5_16_0_1377467562/HTT_24Jul_newTES_manzoni_Up_Jobs/Job_32'
p150
g94
sS'SUSYBBHToTauTau_M-900_8TeV-pythia6-tauola/Summer12_DR53X-PU_S10_START53_V7A-v1/AODSIM/PAT_CMG_V5_16_0_1377467562/HTT_24Jul_newTES_manzoni_Up_Jobs/Job_34'
p151
g94
sssS'CheckDatasetExists'
p152
(dp153
S'Dataset'
p154
S'/SUSYBBHToTauTau_M-900_8TeV-pythia6-tauola/Summer12_DR53X-PU_S10_START53_V7A-v1/AODSIM/PAT_CMG_V5_16_0'
p155
ssS'GenerateMask'
p156
(dp157
g3
(dp158
VPathList
p159
(lp160
V/store/cmst3/group/cmgtools/CMG/SUSYBBHToTauTau_M-900_8TeV-pythia6-tauola/Summer12_DR53X-PU_S10_START53_V7A-v1/AODSIM/PAT_CMG_V5_16_0
p161
asVStageHost
p162
Vcastorcms
p163
sVPrimaryDatasetFraction
p164
F1.0
sVFilesGood
p165
I100
sVPrimaryDatasetEntries
p166
I997674
sVReportVersion
p167
I3
sVFiles
p168
(dp169
V/store/cmst3/group/cmgtools/CMG/SUSYBBHToTauTau_M-900_8TeV-pythia6-tauola/Summer12_DR53X-PU_S10_START53_V7A-v1/AODSIM/PAT_CMG_V5_16_0/cmgTuple_4_1_cZ4.root
p170
(lp171
I01
aI10000
asV/store/cmst3/group/cmgtools/CMG/SUSYBBHToTauTau_M-900_8TeV-pythia6-tauola/Summer12_DR53X-PU_S10_START53_V7A-v1/AODSIM/PAT_CMG_V5_16_0/cmgTuple_54_1_z9b.root
p172
(lp173
I01
aI10000
asV/store/cmst3/group/cmgtools/CMG/SUSYBBHToTauTau_M-900_8TeV-pythia6-tauola/Summer12_DR53X-PU_S10_START53_V7A-v1/AODSIM/PAT_CMG_V5_16_0/cmgTuple_30_1_XsS.root
p174
(lp175
I01
aI10000
asV/store/cmst3/group/cmgtools/CMG/SUSYBBHToTauTau_M-900_8TeV-pythia6-tauola/Summer12_DR53X-PU_S10_START53_V7A-v1/AODSIM/PAT_CMG_V5_16_0/cmgTuple_93_1_Htt.root
p176
(lp177
I01
aI10000
asV/store/cmst3/group/cmgtools/CMG/SUSYBBHToTauTau_M-900_8TeV-pythia6-tauola/Summer12_DR53X-PU_S10_START53_V7A-v1/AODSIM/PAT_CMG_V5_16_0/cmgTuple_59_1_JO1.root
p178
(lp179
I01
aI10000
asV/store/cmst3/group/cmgtools/CMG/SUSYBBHToTauTau_M-900_8TeV-pythia6-tauola/Summer12_DR53X-PU_S10_START53_V7A-v1/AODSIM/PAT_CMG_V5_16_0/cmgTuple_34_1_nA3.root
p180
(lp181
I01
aI10000
asV/store/cmst3/group/cmgtools/CMG/SUSYBBHToTauTau_M-900_8TeV-pythia6-tauola/Summer12_DR53X-PU_S10_START53_V7A-v1/AODSIM/PAT_CMG_V5_16_0/cmgTuple_10_1_IxE.root
p182
(lp183
I01
aI10000
asV/store/cmst3/group/cmgtools/CMG/SUSYBBHToTauTau_M-900_8TeV-pythia6-tauola/Summer12_DR53X-PU_S10_START53_V7A-v1/AODSIM/PAT_CMG_V5_16_0/cmgTuple_82_1_ZVa.root
p184
(lp185
I01
aI10000
asV/store/cmst3/group/cmgtools/CMG/SUSYBBHToTauTau_M-900_8TeV-pythia6-tauola/Summer12_DR53X-PU_S10_START53_V7A-v1/AODSIM/PAT_CMG_V5_16_0/cmgTuple_44_1_Wxl.root
p186
(lp187
I01
aI10000
asV/store/cmst3/group/cmgtools/CMG/SUSYBBHToTauTau_M-900_8TeV-pythia6-tauola/Summer12_DR53X-PU_S10_START53_V7A-v1/AODSIM/PAT_CMG_V5_16_0/cmgTuple_47_1_53i.root
p188
(lp189
I01
aI10000
asV/store/cmst3/group/cmgtools/CMG/SUSYBBHToTauTau_M-900_8TeV-pythia6-tauola/Summer12_DR53X-PU_S10_START53_V7A-v1/AODSIM/PAT_CMG_V5_16_0/cmgTuple_69_1_P5l.root
p190
(lp191
I01
aI10000
asV/store/cmst3/group/cmgtools/CMG/SUSYBBHToTauTau_M-900_8TeV-pythia6-tauola/Summer12_DR53X-PU_S10_START53_V7A-v1/AODSIM/PAT_CMG_V5_16_0/cmgTuple_62_1_oXg.root
p192
(lp193
I01
aI10000
asV/store/cmst3/group/cmgtools/CMG/SUSYBBHToTauTau_M-900_8TeV-pythia6-tauola/Summer12_DR53X-PU_S10_START53_V7A-v1/AODSIM/PAT_CMG_V5_16_0/cmgTuple_3_1_Pxc.root
p194
(lp195
I01
aI10000
asV/store/cmst3/group/cmgtools/CMG/SUSYBBHToTauTau_M-900_8TeV-pythia6-tauola/Summer12_DR53X-PU_S10_START53_V7A-v1/AODSIM/PAT_CMG_V5_16_0/cmgTuple_51_1_v5C.root
p196
(lp197
I01
aI10000
asV/store/cmst3/group/cmgtools/CMG/SUSYBBHToTauTau_M-900_8TeV-pythia6-tauola/Summer12_DR53X-PU_S10_START53_V7A-v1/AODSIM/PAT_CMG_V5_16_0/cmgTuple_60_1_ACf.root
p198
(lp199
I01
aI10000
asV/store/cmst3/group/cmgtools/CMG/SUSYBBHToTauTau_M-900_8TeV-pythia6-tauola/Summer12_DR53X-PU_S10_START53_V7A-v1/AODSIM/PAT_CMG_V5_16_0/cmgTuple_61_1_utU.root
p200
(lp201
I01
aI10000
asV/store/cmst3/group/cmgtools/CMG/SUSYBBHToTauTau_M-900_8TeV-pythia6-tauola/Summer12_DR53X-PU_S10_START53_V7A-v1/AODSIM/PAT_CMG_V5_16_0/cmgTuple_35_1_GGe.root
p202
(lp203
I01
aI10000
asV/store/cmst3/group/cmgtools/CMG/SUSYBBHToTauTau_M-900_8TeV-pythia6-tauola/Summer12_DR53X-PU_S10_START53_V7A-v1/AODSIM/PAT_CMG_V5_16_0/cmgTuple_96_1_QFN.root
p204
(lp205
I01
aI10000
asV/store/cmst3/group/cmgtools/CMG/SUSYBBHToTauTau_M-900_8TeV-pythia6-tauola/Summer12_DR53X-PU_S10_START53_V7A-v1/AODSIM/PAT_CMG_V5_16_0/cmgTuple_75_1_XLM.root
p206
(lp207
I01
aI10000
asV/store/cmst3/group/cmgtools/CMG/SUSYBBHToTauTau_M-900_8TeV-pythia6-tauola/Summer12_DR53X-PU_S10_START53_V7A-v1/AODSIM/PAT_CMG_V5_16_0/cmgTuple_20_1_PNh.root
p208
(lp209
I01
aI10000
asV/store/cmst3/group/cmgtools/CMG/SUSYBBHToTauTau_M-900_8TeV-pythia6-tauola/Summer12_DR53X-PU_S10_START53_V7A-v1/AODSIM/PAT_CMG_V5_16_0/cmgTuple_29_1_O1B.root
p210
(lp211
I01
aI10000
asV/store/cmst3/group/cmgtools/CMG/SUSYBBHToTauTau_M-900_8TeV-pythia6-tauola/Summer12_DR53X-PU_S10_START53_V7A-v1/AODSIM/PAT_CMG_V5_16_0/cmgTuple_87_1_IlG.root
p212
(lp213
I01
aI10000
asV/store/cmst3/group/cmgtools/CMG/SUSYBBHToTauTau_M-900_8TeV-pythia6-tauola/Summer12_DR53X-PU_S10_START53_V7A-v1/AODSIM/PAT_CMG_V5_16_0/cmgTuple_46_1_zSa.root
p214
(lp215
I01
aI10000
asV/store/cmst3/group/cmgtools/CMG/SUSYBBHToTauTau_M-900_8TeV-pythia6-tauola/Summer12_DR53X-PU_S10_START53_V7A-v1/AODSIM/PAT_CMG_V5_16_0/cmgTuple_57_1_NqL.root
p216
(lp217
I01
aI10000
asV/store/cmst3/group/cmgtools/CMG/SUSYBBHToTauTau_M-900_8TeV-pythia6-tauola/Summer12_DR53X-PU_S10_START53_V7A-v1/AODSIM/PAT_CMG_V5_16_0/cmgTuple_86_1_NxZ.root
p218
(lp219
I01
aI10000
asV/store/cmst3/group/cmgtools/CMG/SUSYBBHToTauTau_M-900_8TeV-pythia6-tauola/Summer12_DR53X-PU_S10_START53_V7A-v1/AODSIM/PAT_CMG_V5_16_0/cmgTuple_19_1_yQK.root
p220
(lp221
I01
aI10000
asV/store/cmst3/group/cmgtools/CMG/SUSYBBHToTauTau_M-900_8TeV-pythia6-tauola/Summer12_DR53X-PU_S10_START53_V7A-v1/AODSIM/PAT_CMG_V5_16_0/cmgTuple_48_1_z6K.root
p222
(lp223
I01
aI10000
asV/store/cmst3/group/cmgtools/CMG/SUSYBBHToTauTau_M-900_8TeV-pythia6-tauola/Summer12_DR53X-PU_S10_START53_V7A-v1/AODSIM/PAT_CMG_V5_16_0/cmgTuple_41_1_ZuW.root
p224
(lp225
I01
aI10000
asV/store/cmst3/group/cmgtools/CMG/SUSYBBHToTauTau_M-900_8TeV-pythia6-tauola/Summer12_DR53X-PU_S10_START53_V7A-v1/AODSIM/PAT_CMG_V5_16_0/cmgTuple_16_1_ieZ.root
p226
(lp227
I01
aI10000
asV/store/cmst3/group/cmgtools/CMG/SUSYBBHToTauTau_M-900_8TeV-pythia6-tauola/Summer12_DR53X-PU_S10_START53_V7A-v1/AODSIM/PAT_CMG_V5_16_0/cmgTuple_67_1_4JI.root
p228
(lp229
I01
aI10000
asV/store/cmst3/group/cmgtools/CMG/SUSYBBHToTauTau_M-900_8TeV-pythia6-tauola/Summer12_DR53X-PU_S10_START53_V7A-v1/AODSIM/PAT_CMG_V5_16_0/cmgTuple_14_1_7Ai.root
p230
(lp231
I01
aI10000
asV/store/cmst3/group/cmgtools/CMG/SUSYBBHToTauTau_M-900_8TeV-pythia6-tauola/Summer12_DR53X-PU_S10_START53_V7A-v1/AODSIM/PAT_CMG_V5_16_0/cmgTuple_66_1_rHa.root
p232
(lp233
I01
aI10000
asV/store/cmst3/group/cmgtools/CMG/SUSYBBHToTauTau_M-900_8TeV-pythia6-tauola/Summer12_DR53X-PU_S10_START53_V7A-v1/AODSIM/PAT_CMG_V5_16_0/cmgTuple_17_1_NmX.root
p234
(lp235
I01
aI10000
asV/store/cmst3/group/cmgtools/CMG/SUSYBBHToTauTau_M-900_8TeV-pythia6-tauola/Summer12_DR53X-PU_S10_START53_V7A-v1/AODSIM/PAT_CMG_V5_16_0/cmgTuple_98_1_0yv.root
p236
(lp237
I01
aI10000
asV/store/cmst3/group/cmgtools/CMG/SUSYBBHToTauTau_M-900_8TeV-pythia6-tauola/Summer12_DR53X-PU_S10_START53_V7A-v1/AODSIM/PAT_CMG_V5_16_0/cmgTuple_84_1_8CX.root
p238
(lp239
I01
aI10000
asV/store/cmst3/group/cmgtools/CMG/SUSYBBHToTauTau_M-900_8TeV-pythia6-tauola/Summer12_DR53X-PU_S10_START53_V7A-v1/AODSIM/PAT_CMG_V5_16_0/cmgTuple_73_1_BCp.root
p240
(lp241
I01
aI10000
asV/store/cmst3/group/cmgtools/CMG/SUSYBBHToTauTau_M-900_8TeV-pythia6-tauola/Summer12_DR53X-PU_S10_START53_V7A-v1/AODSIM/PAT_CMG_V5_16_0/cmgTuple_5_1_fRe.root
p242
(lp243
I01
aI10000
asV/store/cmst3/group/cmgtools/CMG/SUSYBBHToTauTau_M-900_8TeV-pythia6-tauola/Summer12_DR53X-PU_S10_START53_V7A-v1/AODSIM/PAT_CMG_V5_16_0/cmgTuple_15_1_1Zl.root
p244
(lp245
I01
aI10000
asV/store/cmst3/group/cmgtools/CMG/SUSYBBHToTauTau_M-900_8TeV-pythia6-tauola/Summer12_DR53X-PU_S10_START53_V7A-v1/AODSIM/PAT_CMG_V5_16_0/cmgTuple_97_1_cqb.root
p246
(lp247
I01
aI10000
asV/store/cmst3/group/cmgtools/CMG/SUSYBBHToTauTau_M-900_8TeV-pythia6-tauola/Summer12_DR53X-PU_S10_START53_V7A-v1/AODSIM/PAT_CMG_V5_16_0/cmgTuple_11_1_sQN.root
p248
(lp249
I01
aI10000
asV/store/cmst3/group/cmgtools/CMG/SUSYBBHToTauTau_M-900_8TeV-pythia6-tauola/Summer12_DR53X-PU_S10_START53_V7A-v1/AODSIM/PAT_CMG_V5_16_0/cmgTuple_53_1_IZa.root
p250
(lp251
I01
aI10000
asV/store/cmst3/group/cmgtools/CMG/SUSYBBHToTauTau_M-900_8TeV-pythia6-tauola/Summer12_DR53X-PU_S10_START53_V7A-v1/AODSIM/PAT_CMG_V5_16_0/cmgTuple_100_1_jx8.root
p252
(lp253
I01
aI7674
asV/store/cmst3/group/cmgtools/CMG/SUSYBBHToTauTau_M-900_8TeV-pythia6-tauola/Summer12_DR53X-PU_S10_START53_V7A-v1/AODSIM/PAT_CMG_V5_16_0/cmgTuple_78_1_8Yg.root
p254
(lp255
I01
aI10000
asV/store/cmst3/group/cmgtools/CMG/SUSYBBHToTauTau_M-900_8TeV-pythia6-tauola/Summer12_DR53X-PU_S10_START53_V7A-v1/AODSIM/PAT_CMG_V5_16_0/cmgTuple_26_1_qXb.root
p256
(lp257
I01
aI10000
asV/store/cmst3/group/cmgtools/CMG/SUSYBBHToTauTau_M-900_8TeV-pythia6-tauola/Summer12_DR53X-PU_S10_START53_V7A-v1/AODSIM/PAT_CMG_V5_16_0/cmgTuple_37_1_rg2.root
p258
(lp259
I01
aI10000
asV/store/cmst3/group/cmgtools/CMG/SUSYBBHToTauTau_M-900_8TeV-pythia6-tauola/Summer12_DR53X-PU_S10_START53_V7A-v1/AODSIM/PAT_CMG_V5_16_0/cmgTuple_33_1_akF.root
p260
(lp261
I01
aI10000
asV/store/cmst3/group/cmgtools/CMG/SUSYBBHToTauTau_M-900_8TeV-pythia6-tauola/Summer12_DR53X-PU_S10_START53_V7A-v1/AODSIM/PAT_CMG_V5_16_0/cmgTuple_39_1_ylw.root
p262
(lp263
I01
aI10000
asV/store/cmst3/group/cmgtools/CMG/SUSYBBHToTauTau_M-900_8TeV-pythia6-tauola/Summer12_DR53X-PU_S10_START53_V7A-v1/AODSIM/PAT_CMG_V5_16_0/cmgTuple_32_1_0mY.root
p264
(lp265
I01
aI10000
asV/store/cmst3/group/cmgtools/CMG/SUSYBBHToTauTau_M-900_8TeV-pythia6-tauola/Summer12_DR53X-PU_S10_START53_V7A-v1/AODSIM/PAT_CMG_V5_16_0/cmgTuple_83_1_DtY.root
p266
(lp267
I01
aI10000
asV/store/cmst3/group/cmgtools/CMG/SUSYBBHToTauTau_M-900_8TeV-pythia6-tauola/Summer12_DR53X-PU_S10_START53_V7A-v1/AODSIM/PAT_CMG_V5_16_0/cmgTuple_21_1_xKj.root
p268
(lp269
I01
aI10000
asV/store/cmst3/group/cmgtools/CMG/SUSYBBHToTauTau_M-900_8TeV-pythia6-tauola/Summer12_DR53X-PU_S10_START53_V7A-v1/AODSIM/PAT_CMG_V5_16_0/cmgTuple_50_1_63s.root
p270
(lp271
I01
aI10000
asV/store/cmst3/group/cmgtools/CMG/SUSYBBHToTauTau_M-900_8TeV-pythia6-tauola/Summer12_DR53X-PU_S10_START53_V7A-v1/AODSIM/PAT_CMG_V5_16_0/cmgTuple_23_1_DKy.root
p272
(lp273
I01
aI10000
asV/store/cmst3/group/cmgtools/CMG/SUSYBBHToTauTau_M-900_8TeV-pythia6-tauola/Summer12_DR53X-PU_S10_START53_V7A-v1/AODSIM/PAT_CMG_V5_16_0/cmgTuple_74_1_Qhz.root
p274
(lp275
I01
aI10000
asV/store/cmst3/group/cmgtools/CMG/SUSYBBHToTauTau_M-900_8TeV-pythia6-tauola/Summer12_DR53X-PU_S10_START53_V7A-v1/AODSIM/PAT_CMG_V5_16_0/cmgTuple_79_1_CCQ.root
p276
(lp277
I01
aI10000
asV/store/cmst3/group/cmgtools/CMG/SUSYBBHToTauTau_M-900_8TeV-pythia6-tauola/Summer12_DR53X-PU_S10_START53_V7A-v1/AODSIM/PAT_CMG_V5_16_0/cmgTuple_22_1_PD6.root
p278
(lp279
I01
aI10000
asV/store/cmst3/group/cmgtools/CMG/SUSYBBHToTauTau_M-900_8TeV-pythia6-tauola/Summer12_DR53X-PU_S10_START53_V7A-v1/AODSIM/PAT_CMG_V5_16_0/cmgTuple_2_1_wr3.root
p280
(lp281
I01
aI10000
asV/store/cmst3/group/cmgtools/CMG/SUSYBBHToTauTau_M-900_8TeV-pythia6-tauola/Summer12_DR53X-PU_S10_START53_V7A-v1/AODSIM/PAT_CMG_V5_16_0/cmgTuple_88_1_Law.root
p282
(lp283
I01
aI10000
asV/store/cmst3/group/cmgtools/CMG/SUSYBBHToTauTau_M-900_8TeV-pythia6-tauola/Summer12_DR53X-PU_S10_START53_V7A-v1/AODSIM/PAT_CMG_V5_16_0/cmgTuple_64_1_Fm1.root
p284
(lp285
I01
aI10000
asV/store/cmst3/group/cmgtools/CMG/SUSYBBHToTauTau_M-900_8TeV-pythia6-tauola/Summer12_DR53X-PU_S10_START53_V7A-v1/AODSIM/PAT_CMG_V5_16_0/cmgTuple_52_1_eEb.root
p286
(lp287
I01
aI10000
asV/store/cmst3/group/cmgtools/CMG/SUSYBBHToTauTau_M-900_8TeV-pythia6-tauola/Summer12_DR53X-PU_S10_START53_V7A-v1/AODSIM/PAT_CMG_V5_16_0/cmgTuple_81_1_b72.root
p288
(lp289
I01
aI10000
asV/store/cmst3/group/cmgtools/CMG/SUSYBBHToTauTau_M-900_8TeV-pythia6-tauola/Summer12_DR53X-PU_S10_START53_V7A-v1/AODSIM/PAT_CMG_V5_16_0/cmgTuple_58_1_JQg.root
p290
(lp291
I01
aI10000
asV/store/cmst3/group/cmgtools/CMG/SUSYBBHToTauTau_M-900_8TeV-pythia6-tauola/Summer12_DR53X-PU_S10_START53_V7A-v1/AODSIM/PAT_CMG_V5_16_0/cmgTuple_94_1_Iwx.root
p292
(lp293
I01
aI10000
asV/store/cmst3/group/cmgtools/CMG/SUSYBBHToTauTau_M-900_8TeV-pythia6-tauola/Summer12_DR53X-PU_S10_START53_V7A-v1/AODSIM/PAT_CMG_V5_16_0/cmgTuple_25_1_gdC.root
p294
(lp295
I01
aI10000
asV/store/cmst3/group/cmgtools/CMG/SUSYBBHToTauTau_M-900_8TeV-pythia6-tauola/Summer12_DR53X-PU_S10_START53_V7A-v1/AODSIM/PAT_CMG_V5_16_0/cmgTuple_18_1_n39.root
p296
(lp297
I01
aI10000
asV/store/cmst3/group/cmgtools/CMG/SUSYBBHToTauTau_M-900_8TeV-pythia6-tauola/Summer12_DR53X-PU_S10_START53_V7A-v1/AODSIM/PAT_CMG_V5_16_0/cmgTuple_38_1_tfZ.root
p298
(lp299
I01
aI10000
asV/store/cmst3/group/cmgtools/CMG/SUSYBBHToTauTau_M-900_8TeV-pythia6-tauola/Summer12_DR53X-PU_S10_START53_V7A-v1/AODSIM/PAT_CMG_V5_16_0/cmgTuple_85_1_RAy.root
p300
(lp301
I01
aI10000
asV/store/cmst3/group/cmgtools/CMG/SUSYBBHToTauTau_M-900_8TeV-pythia6-tauola/Summer12_DR53X-PU_S10_START53_V7A-v1/AODSIM/PAT_CMG_V5_16_0/cmgTuple_71_1_VRC.root
p302
(lp303
I01
aI10000
asV/store/cmst3/group/cmgtools/CMG/SUSYBBHToTauTau_M-900_8TeV-pythia6-tauola/Summer12_DR53X-PU_S10_START53_V7A-v1/AODSIM/PAT_CMG_V5_16_0/cmgTuple_45_1_Sc3.root
p304
(lp305
I01
aI10000
asV/store/cmst3/group/cmgtools/CMG/SUSYBBHToTauTau_M-900_8TeV-pythia6-tauola/Summer12_DR53X-PU_S10_START53_V7A-v1/AODSIM/PAT_CMG_V5_16_0/cmgTuple_27_1_wnB.root
p306
(lp307
I01
aI10000
asV/store/cmst3/group/cmgtools/CMG/SUSYBBHToTauTau_M-900_8TeV-pythia6-tauola/Summer12_DR53X-PU_S10_START53_V7A-v1/AODSIM/PAT_CMG_V5_16_0/cmgTuple_40_1_VZC.root
p308
(lp309
I01
aI10000
asV/store/cmst3/group/cmgtools/CMG/SUSYBBHToTauTau_M-900_8TeV-pythia6-tauola/Summer12_DR53X-PU_S10_START53_V7A-v1/AODSIM/PAT_CMG_V5_16_0/cmgTuple_24_1_Goy.root
p310
(lp311
I01
aI10000
asV/store/cmst3/group/cmgtools/CMG/SUSYBBHToTauTau_M-900_8TeV-pythia6-tauola/Summer12_DR53X-PU_S10_START53_V7A-v1/AODSIM/PAT_CMG_V5_16_0/cmgTuple_65_1_ekU.root
p312
(lp313
I01
aI10000
asV/store/cmst3/group/cmgtools/CMG/SUSYBBHToTauTau_M-900_8TeV-pythia6-tauola/Summer12_DR53X-PU_S10_START53_V7A-v1/AODSIM/PAT_CMG_V5_16_0/cmgTuple_77_1_FRp.root
p314
(lp315
I01
aI10000
asV/store/cmst3/group/cmgtools/CMG/SUSYBBHToTauTau_M-900_8TeV-pythia6-tauola/Summer12_DR53X-PU_S10_START53_V7A-v1/AODSIM/PAT_CMG_V5_16_0/cmgTuple_55_1_Qxf.root
p316
(lp317
I01
aI10000
asV/store/cmst3/group/cmgtools/CMG/SUSYBBHToTauTau_M-900_8TeV-pythia6-tauola/Summer12_DR53X-PU_S10_START53_V7A-v1/AODSIM/PAT_CMG_V5_16_0/cmgTuple_70_1_9xf.root
p318
(lp319
I01
aI10000
asV/store/cmst3/group/cmgtools/CMG/SUSYBBHToTauTau_M-900_8TeV-pythia6-tauola/Summer12_DR53X-PU_S10_START53_V7A-v1/AODSIM/PAT_CMG_V5_16_0/cmgTuple_42_1_lRp.root
p320
(lp321
I01
aI10000
asV/store/cmst3/group/cmgtools/CMG/SUSYBBHToTauTau_M-900_8TeV-pythia6-tauola/Summer12_DR53X-PU_S10_START53_V7A-v1/AODSIM/PAT_CMG_V5_16_0/cmgTuple_92_1_uUl.root
p322
(lp323
I01
aI10000
asV/store/cmst3/group/cmgtools/CMG/SUSYBBHToTauTau_M-900_8TeV-pythia6-tauola/Summer12_DR53X-PU_S10_START53_V7A-v1/AODSIM/PAT_CMG_V5_16_0/cmgTuple_68_1_Kyh.root
p324
(lp325
I01
aI10000
asV/store/cmst3/group/cmgtools/CMG/SUSYBBHToTauTau_M-900_8TeV-pythia6-tauola/Summer12_DR53X-PU_S10_START53_V7A-v1/AODSIM/PAT_CMG_V5_16_0/cmgTuple_7_1_Hhc.root
p326
(lp327
I01
aI10000
asV/store/cmst3/group/cmgtools/CMG/SUSYBBHToTauTau_M-900_8TeV-pythia6-tauola/Summer12_DR53X-PU_S10_START53_V7A-v1/AODSIM/PAT_CMG_V5_16_0/cmgTuple_63_1_Axd.root
p328
(lp329
I01
aI10000
asV/store/cmst3/group/cmgtools/CMG/SUSYBBHToTauTau_M-900_8TeV-pythia6-tauola/Summer12_DR53X-PU_S10_START53_V7A-v1/AODSIM/PAT_CMG_V5_16_0/cmgTuple_72_1_2I7.root
p330
(lp331
I01
aI10000
asV/store/cmst3/group/cmgtools/CMG/SUSYBBHToTauTau_M-900_8TeV-pythia6-tauola/Summer12_DR53X-PU_S10_START53_V7A-v1/AODSIM/PAT_CMG_V5_16_0/cmgTuple_91_1_ZCw.root
p332
(lp333
I01
aI10000
asV/store/cmst3/group/cmgtools/CMG/SUSYBBHToTauTau_M-900_8TeV-pythia6-tauola/Summer12_DR53X-PU_S10_START53_V7A-v1/AODSIM/PAT_CMG_V5_16_0/cmgTuple_89_1_liZ.root
p334
(lp335
I01
aI10000
asV/store/cmst3/group/cmgtools/CMG/SUSYBBHToTauTau_M-900_8TeV-pythia6-tauola/Summer12_DR53X-PU_S10_START53_V7A-v1/AODSIM/PAT_CMG_V5_16_0/cmgTuple_99_1_qCU.root
p336
(lp337
I01
aI10000
asV/store/cmst3/group/cmgtools/CMG/SUSYBBHToTauTau_M-900_8TeV-pythia6-tauola/Summer12_DR53X-PU_S10_START53_V7A-v1/AODSIM/PAT_CMG_V5_16_0/cmgTuple_90_1_Jlq.root
p338
(lp339
I01
aI10000
asV/store/cmst3/group/cmgtools/CMG/SUSYBBHToTauTau_M-900_8TeV-pythia6-tauola/Summer12_DR53X-PU_S10_START53_V7A-v1/AODSIM/PAT_CMG_V5_16_0/cmgTuple_43_1_1Ud.root
p340
(lp341
I01
aI10000
asV/store/cmst3/group/cmgtools/CMG/SUSYBBHToTauTau_M-900_8TeV-pythia6-tauola/Summer12_DR53X-PU_S10_START53_V7A-v1/AODSIM/PAT_CMG_V5_16_0/cmgTuple_80_1_egc.root
p342
(lp343
I01
aI10000
asV/store/cmst3/group/cmgtools/CMG/SUSYBBHToTauTau_M-900_8TeV-pythia6-tauola/Summer12_DR53X-PU_S10_START53_V7A-v1/AODSIM/PAT_CMG_V5_16_0/cmgTuple_1_1_ITK.root
p344
(lp345
I01
aI10000
asV/store/cmst3/group/cmgtools/CMG/SUSYBBHToTauTau_M-900_8TeV-pythia6-tauola/Summer12_DR53X-PU_S10_START53_V7A-v1/AODSIM/PAT_CMG_V5_16_0/cmgTuple_28_1_kTP.root
p346
(lp347
I01
aI10000
asV/store/cmst3/group/cmgtools/CMG/SUSYBBHToTauTau_M-900_8TeV-pythia6-tauola/Summer12_DR53X-PU_S10_START53_V7A-v1/AODSIM/PAT_CMG_V5_16_0/cmgTuple_95_1_TN8.root
p348
(lp349
I01
aI10000
asV/store/cmst3/group/cmgtools/CMG/SUSYBBHToTauTau_M-900_8TeV-pythia6-tauola/Summer12_DR53X-PU_S10_START53_V7A-v1/AODSIM/PAT_CMG_V5_16_0/cmgTuple_8_1_XuN.root
p350
(lp351
I01
aI10000
asV/store/cmst3/group/cmgtools/CMG/SUSYBBHToTauTau_M-900_8TeV-pythia6-tauola/Summer12_DR53X-PU_S10_START53_V7A-v1/AODSIM/PAT_CMG_V5_16_0/cmgTuple_12_1_5d6.root
p352
(lp353
I01
aI10000
asV/store/cmst3/group/cmgtools/CMG/SUSYBBHToTauTau_M-900_8TeV-pythia6-tauola/Summer12_DR53X-PU_S10_START53_V7A-v1/AODSIM/PAT_CMG_V5_16_0/cmgTuple_56_1_RRR.root
p354
(lp355
I01
aI10000
asV/store/cmst3/group/cmgtools/CMG/SUSYBBHToTauTau_M-900_8TeV-pythia6-tauola/Summer12_DR53X-PU_S10_START53_V7A-v1/AODSIM/PAT_CMG_V5_16_0/cmgTuple_6_1_0Mi.root
p356
(lp357
I01
aI10000
asV/store/cmst3/group/cmgtools/CMG/SUSYBBHToTauTau_M-900_8TeV-pythia6-tauola/Summer12_DR53X-PU_S10_START53_V7A-v1/AODSIM/PAT_CMG_V5_16_0/cmgTuple_49_1_9os.root
p358
(lp359
I01
aI10000
asV/store/cmst3/group/cmgtools/CMG/SUSYBBHToTauTau_M-900_8TeV-pythia6-tauola/Summer12_DR53X-PU_S10_START53_V7A-v1/AODSIM/PAT_CMG_V5_16_0/cmgTuple_9_1_l5D.root
p360
(lp361
I01
aI10000
asV/store/cmst3/group/cmgtools/CMG/SUSYBBHToTauTau_M-900_8TeV-pythia6-tauola/Summer12_DR53X-PU_S10_START53_V7A-v1/AODSIM/PAT_CMG_V5_16_0/cmgTuple_36_1_nil.root
p362
(lp363
I01
aI10000
asV/store/cmst3/group/cmgtools/CMG/SUSYBBHToTauTau_M-900_8TeV-pythia6-tauola/Summer12_DR53X-PU_S10_START53_V7A-v1/AODSIM/PAT_CMG_V5_16_0/cmgTuple_13_1_QFM.root
p364
(lp365
I01
aI10000
asV/store/cmst3/group/cmgtools/CMG/SUSYBBHToTauTau_M-900_8TeV-pythia6-tauola/Summer12_DR53X-PU_S10_START53_V7A-v1/AODSIM/PAT_CMG_V5_16_0/cmgTuple_31_1_Evf.root
p366
(lp367
I01
aI10000
asV/store/cmst3/group/cmgtools/CMG/SUSYBBHToTauTau_M-900_8TeV-pythia6-tauola/Summer12_DR53X-PU_S10_START53_V7A-v1/AODSIM/PAT_CMG_V5_16_0/cmgTuple_76_1_qhw.root
p368
(lp369
I01
aI10000
assVPhysicsGroup
p370
VCMG
p371
sVFilesCount
p372
I100
sVFilesEntries
p373
I997674
sVRunList
p374
(lp375
sVValidDuplicates
p376
(dp377
sVPrimaryDataset
p378
V/SUSYBBHToTauTau_M-900_8TeV-pythia6-tauola/Summer12_DR53X-PU_S10_START53_V7A-v1/AODSIM
p379
sVStatus
p380
VVALID
p381
sVName
p382
V/SUSYBBHToTauTau_M-900_8TeV-pythia6-tauola/Summer12_DR53X-PU_S10_START53_V7A-v1/AODSIM/PAT_CMG_V5_16_0
p383
sVTopdir
p384
V/eos/cms/store/cmst3/group/cmgtools/CMG
p385
sVdata
p386
(dp387
sVFilesBad
p388
I0
sVMinRun
p389
I-1
sVAlgoList
p390
(lp391
sVTierList
p392
(lp393
sVDateCreated
p394
V1371077220
p395
sVCreatedBy
p396
Vcmgtools_group
p397
sVMaxRun
p398
I-1
sVBadJobs
p399
(lp400
ssg115
I01
ssS'MonitorJobs'
p401
(dp402
S'LSFJobStatus'
p403
(dp404
g118
S'SUSYBBHToTauTau_M-900_8TeV-pythia6-tauola/Summer12_DR53X-PU_S10_START53_V7A-v1/AODSIM/PAT_CMG_V5_16_0_1377467562/HTT_24Jul_newTES_manzoni_Up_Jobs/Job_26/LSFJOB_440973958/STDOUT.gz'
p405
sg119
S'SUSYBBHToTauTau_M-900_8TeV-pythia6-tauola/Summer12_DR53X-PU_S10_START53_V7A-v1/AODSIM/PAT_CMG_V5_16_0_1377467562/HTT_24Jul_newTES_manzoni_Up_Jobs/Job_27/LSFJOB_440974036/STDOUT.gz'
p406
sg120
S'SUSYBBHToTauTau_M-900_8TeV-pythia6-tauola/Summer12_DR53X-PU_S10_START53_V7A-v1/AODSIM/PAT_CMG_V5_16_0_1377467562/HTT_24Jul_newTES_manzoni_Up_Jobs/Job_24/LSFJOB_440973785/STDOUT.gz'
p407
sg121
S'SUSYBBHToTauTau_M-900_8TeV-pythia6-tauola/Summer12_DR53X-PU_S10_START53_V7A-v1/AODSIM/PAT_CMG_V5_16_0_1377467562/HTT_24Jul_newTES_manzoni_Up_Jobs/Job_25/LSFJOB_440973861/STDOUT.gz'
p408
sg122
S'SUSYBBHToTauTau_M-900_8TeV-pythia6-tauola/Summer12_DR53X-PU_S10_START53_V7A-v1/AODSIM/PAT_CMG_V5_16_0_1377467562/HTT_24Jul_newTES_manzoni_Up_Jobs/Job_22/LSFJOB_440973623/STDOUT.gz'
p409
sg123
S'SUSYBBHToTauTau_M-900_8TeV-pythia6-tauola/Summer12_DR53X-PU_S10_START53_V7A-v1/AODSIM/PAT_CMG_V5_16_0_1377467562/HTT_24Jul_newTES_manzoni_Up_Jobs/Job_23/LSFJOB_440973702/STDOUT.gz'
p410
sg124
S'SUSYBBHToTauTau_M-900_8TeV-pythia6-tauola/Summer12_DR53X-PU_S10_START53_V7A-v1/AODSIM/PAT_CMG_V5_16_0_1377467562/HTT_24Jul_newTES_manzoni_Up_Jobs/Job_20/LSFJOB_440973414/STDOUT.gz'
p411
sg125
S'SUSYBBHToTauTau_M-900_8TeV-pythia6-tauola/Summer12_DR53X-PU_S10_START53_V7A-v1/AODSIM/PAT_CMG_V5_16_0_1377467562/HTT_24Jul_newTES_manzoni_Up_Jobs/Job_21/LSFJOB_440973540/STDOUT.gz'
p412
sg126
S'SUSYBBHToTauTau_M-900_8TeV-pythia6-tauola/Summer12_DR53X-PU_S10_START53_V7A-v1/AODSIM/PAT_CMG_V5_16_0_1377467562/HTT_24Jul_newTES_manzoni_Up_Jobs/Job_28/LSFJOB_440974108/STDOUT.gz'
p413
sg127
S'SUSYBBHToTauTau_M-900_8TeV-pythia6-tauola/Summer12_DR53X-PU_S10_START53_V7A-v1/AODSIM/PAT_CMG_V5_16_0_1377467562/HTT_24Jul_newTES_manzoni_Up_Jobs/Job_29/LSFJOB_440974189/STDOUT.gz'
p414
sg128
S'SUSYBBHToTauTau_M-900_8TeV-pythia6-tauola/Summer12_DR53X-PU_S10_START53_V7A-v1/AODSIM/PAT_CMG_V5_16_0_1377467562/HTT_24Jul_newTES_manzoni_Up_Jobs/Job_9/LSFJOB_440972504/STDOUT.gz'
p415
sg129
S'SUSYBBHToTauTau_M-900_8TeV-pythia6-tauola/Summer12_DR53X-PU_S10_START53_V7A-v1/AODSIM/PAT_CMG_V5_16_0_1377467562/HTT_24Jul_newTES_manzoni_Up_Jobs/Job_8/LSFJOB_440972399/STDOUT.gz'
p416
sg130
S'SUSYBBHToTauTau_M-900_8TeV-pythia6-tauola/Summer12_DR53X-PU_S10_START53_V7A-v1/AODSIM/PAT_CMG_V5_16_0_1377467562/HTT_24Jul_newTES_manzoni_Up_Jobs/Job_7/LSFJOB_440972330/STDOUT.gz'
p417
sg131
S'SUSYBBHToTauTau_M-900_8TeV-pythia6-tauola/Summer12_DR53X-PU_S10_START53_V7A-v1/AODSIM/PAT_CMG_V5_16_0_1377467562/HTT_24Jul_newTES_manzoni_Up_Jobs/Job_6/LSFJOB_440972239/STDOUT.gz'
p418
sg132
S'SUSYBBHToTauTau_M-900_8TeV-pythia6-tauola/Summer12_DR53X-PU_S10_START53_V7A-v1/AODSIM/PAT_CMG_V5_16_0_1377467562/HTT_24Jul_newTES_manzoni_Up_Jobs/Job_5/LSFJOB_440972151/STDOUT.gz'
p419
sg133
S'SUSYBBHToTauTau_M-900_8TeV-pythia6-tauola/Summer12_DR53X-PU_S10_START53_V7A-v1/AODSIM/PAT_CMG_V5_16_0_1377467562/HTT_24Jul_newTES_manzoni_Up_Jobs/Job_4/LSFJOB_440972055/STDOUT.gz'
p420
sg134
S'SUSYBBHToTauTau_M-900_8TeV-pythia6-tauola/Summer12_DR53X-PU_S10_START53_V7A-v1/AODSIM/PAT_CMG_V5_16_0_1377467562/HTT_24Jul_newTES_manzoni_Up_Jobs/Job_3/LSFJOB_440971934/STDOUT.gz'
p421
sg135
S'SUSYBBHToTauTau_M-900_8TeV-pythia6-tauola/Summer12_DR53X-PU_S10_START53_V7A-v1/AODSIM/PAT_CMG_V5_16_0_1377467562/HTT_24Jul_newTES_manzoni_Up_Jobs/Job_2/LSFJOB_440971847/STDOUT.gz'
p422
sg136
S'SUSYBBHToTauTau_M-900_8TeV-pythia6-tauola/Summer12_DR53X-PU_S10_START53_V7A-v1/AODSIM/PAT_CMG_V5_16_0_1377467562/HTT_24Jul_newTES_manzoni_Up_Jobs/Job_1/LSFJOB_440971774/STDOUT.gz'
p423
sg137
S'SUSYBBHToTauTau_M-900_8TeV-pythia6-tauola/Summer12_DR53X-PU_S10_START53_V7A-v1/AODSIM/PAT_CMG_V5_16_0_1377467562/HTT_24Jul_newTES_manzoni_Up_Jobs/Job_13/LSFJOB_440972837/STDOUT.gz'
p424
sg138
S'SUSYBBHToTauTau_M-900_8TeV-pythia6-tauola/Summer12_DR53X-PU_S10_START53_V7A-v1/AODSIM/PAT_CMG_V5_16_0_1377467562/HTT_24Jul_newTES_manzoni_Up_Jobs/Job_12/LSFJOB_440972742/STDOUT.gz'
p425
sg139
S'SUSYBBHToTauTau_M-900_8TeV-pythia6-tauola/Summer12_DR53X-PU_S10_START53_V7A-v1/AODSIM/PAT_CMG_V5_16_0_1377467562/HTT_24Jul_newTES_manzoni_Up_Jobs/Job_11/LSFJOB_440972661/STDOUT.gz'
p426
sg140
S'SUSYBBHToTauTau_M-900_8TeV-pythia6-tauola/Summer12_DR53X-PU_S10_START53_V7A-v1/AODSIM/PAT_CMG_V5_16_0_1377467562/HTT_24Jul_newTES_manzoni_Up_Jobs/Job_10/LSFJOB_440972601/STDOUT.gz'
p427
sg141
S'SUSYBBHToTauTau_M-900_8TeV-pythia6-tauola/Summer12_DR53X-PU_S10_START53_V7A-v1/AODSIM/PAT_CMG_V5_16_0_1377467562/HTT_24Jul_newTES_manzoni_Up_Jobs/Job_17/LSFJOB_440973185/STDOUT.gz'
p428
sg142
S'SUSYBBHToTauTau_M-900_8TeV-pythia6-tauola/Summer12_DR53X-PU_S10_START53_V7A-v1/AODSIM/PAT_CMG_V5_16_0_1377467562/HTT_24Jul_newTES_manzoni_Up_Jobs/Job_16/LSFJOB_440973106/STDOUT.gz'
p429
sg143
S'SUSYBBHToTauTau_M-900_8TeV-pythia6-tauola/Summer12_DR53X-PU_S10_START53_V7A-v1/AODSIM/PAT_CMG_V5_16_0_1377467562/HTT_24Jul_newTES_manzoni_Up_Jobs/Job_15/LSFJOB_440973037/STDOUT.gz'
p430
sg144
S'SUSYBBHToTauTau_M-900_8TeV-pythia6-tauola/Summer12_DR53X-PU_S10_START53_V7A-v1/AODSIM/PAT_CMG_V5_16_0_1377467562/HTT_24Jul_newTES_manzoni_Up_Jobs/Job_14/LSFJOB_440972940/STDOUT.gz'
p431
sg145
S'SUSYBBHToTauTau_M-900_8TeV-pythia6-tauola/Summer12_DR53X-PU_S10_START53_V7A-v1/AODSIM/PAT_CMG_V5_16_0_1377467562/HTT_24Jul_newTES_manzoni_Up_Jobs/Job_19/LSFJOB_440973346/STDOUT.gz'
p432
sg146
S'SUSYBBHToTauTau_M-900_8TeV-pythia6-tauola/Summer12_DR53X-PU_S10_START53_V7A-v1/AODSIM/PAT_CMG_V5_16_0_1377467562/HTT_24Jul_newTES_manzoni_Up_Jobs/Job_18/LSFJOB_440973273/STDOUT.gz'
p433
sg147
S'SUSYBBHToTauTau_M-900_8TeV-pythia6-tauola/Summer12_DR53X-PU_S10_START53_V7A-v1/AODSIM/PAT_CMG_V5_16_0_1377467562/HTT_24Jul_newTES_manzoni_Up_Jobs/Job_31/LSFJOB_440974301/STDOUT.gz'
p434
sg148
S'SUSYBBHToTauTau_M-900_8TeV-pythia6-tauola/Summer12_DR53X-PU_S10_START53_V7A-v1/AODSIM/PAT_CMG_V5_16_0_1377467562/HTT_24Jul_newTES_manzoni_Up_Jobs/Job_30/LSFJOB_440974233/STDOUT.gz'
p435
sg149
S'SUSYBBHToTauTau_M-900_8TeV-pythia6-tauola/Summer12_DR53X-PU_S10_START53_V7A-v1/AODSIM/PAT_CMG_V5_16_0_1377467562/HTT_24Jul_newTES_manzoni_Up_Jobs/Job_33/LSFJOB_440974403/STDOUT.gz'
p436
sg150
S'SUSYBBHToTauTau_M-900_8TeV-pythia6-tauola/Summer12_DR53X-PU_S10_START53_V7A-v1/AODSIM/PAT_CMG_V5_16_0_1377467562/HTT_24Jul_newTES_manzoni_Up_Jobs/Job_32/LSFJOB_440974361/STDOUT.gz'
p437
sg151
S'SUSYBBHToTauTau_M-900_8TeV-pythia6-tauola/Summer12_DR53X-PU_S10_START53_V7A-v1/AODSIM/PAT_CMG_V5_16_0_1377467562/HTT_24Jul_newTES_manzoni_Up_Jobs/Job_34/LSFJOB_440974441/STDOUT.gz'
p438
ssS'LSFJobIDs'
p439
(dp440
g118
S'440973958'
p441
sg119
S'440974036'
p442
sg120
S'440973785'
p443
sg121
S'440973861'
p444
sg122
S'440973623'
p445
sg123
S'440973702'
p446
sg124
S'440973414'
p447
sg125
S'440973540'
p448
sg126
S'440974108'
p449
sg127
S'440974189'
p450
sg128
S'440972504'
p451
sg129
S'440972399'
p452
sg130
S'440972330'
p453
sg131
S'440972239'
p454
sg132
S'440972151'
p455
sg133
S'440972055'
p456
sg134
S'440971934'
p457
sg135
S'440971847'
p458
sg136
S'440971774'
p459
sg137
S'440972837'
p460
sg138
S'440972742'
p461
sg139
S'440972661'
p462
sg140
S'440972601'
p463
sg141
S'440973185'
p464
sg142
S'440973106'
p465
sg143
S'440973037'
p466
sg144
S'440972940'
p467
sg145
S'440973346'
p468
sg146
S'440973273'
p469
sg147
S'440974301'
p470
sg148
S'440974233'
p471
sg149
S'440974403'
p472
sg150
S'440974361'
p473
sg151
S'440974441'
p474
sssS'FindOnCastor'
p475
(dp476
g77
S'/eos/cms/store/cmst3/group/cmgtools/CMG'
p477
sS'Directory'
p478
S'/eos/cms/store/cmst3/group/cmgtools/CMG/SUSYBBHToTauTau_M-900_8TeV-pythia6-tauola/Summer12_DR53X-PU_S10_START53_V7A-v1/AODSIM/PAT_CMG_V5_16_0'
p479
ssS'CheckConfig'
p480
(dp481
g93
g94
ssS'FullCFG'
p482
(dp483
S'FullCFG'
p484
S'SUSYBBHToTauTau_M-900_8TeV-pythia6-tauola/Summer12_DR53X-PU_S10_START53_V7A-v1/AODSIM/PAT_CMG_V5_16_0_1377467562/full_cfg.py'
p485
ssS'WriteJobReport'
p486
(dp487
S'SummaryFile'
p488
S'SUSYBBHToTauTau_M-900_8TeV-pythia6-tauola/Summer12_DR53X-PU_S10_START53_V7A-v1/AODSIM/PAT_CMG_V5_16_0_1377467562/resubmit.sh'
p489
ssS'ExpandConfig'
p490
(dp491
S'ExpandedFullCFG'
p492
S'SUSYBBHToTauTau_M-900_8TeV-pythia6-tauola/Summer12_DR53X-PU_S10_START53_V7A-v1/AODSIM/PAT_CMG_V5_16_0_1377467562/Expandedfull_cfg.py'
p493
ssS'RunTestEvents'
p494
(dp495
g93
g94
sS'TestCFG'
p496
S'SUSYBBHToTauTau_M-900_8TeV-pythia6-tauola/Summer12_DR53X-PU_S10_START53_V7A-v1/AODSIM/PAT_CMG_V5_16_0_1377467562/test_cfg.py'
p497
ssS'SourceCFG'
p498
(dp499
S'SourceCFG'
p500
S'SUSYBBHToTauTau_M-900_8TeV-pythia6-tauola/Summer12_DR53X-PU_S10_START53_V7A-v1/AODSIM/PAT_CMG_V5_16_0_1377467562/source_cfg.py'
p501
ssS'CheckForWrite'
p502
(dp503
g478
g479
sS'WriteAccess'
p504
I01
ssS'WriteToDatasets'
p505
(dp506
S'Added'
p507
I00
sg75
S'/SUSYBBHToTauTau_M-900_8TeV-pythia6-tauola/Summer12_DR53X-PU_S10_START53_V7A-v1/AODSIM/PAT_CMG_V5_16_0/HTT_24Jul_newTES_manzoni_Up'
p508
sS'User'
p509
g108
ssS'RunCMSBatch'
p510
(dp511
S'BatchUser'
p512
g108
sS'SampleOutputDir'
p513
S'/store/cmst3/user/manzoni/CMG/SUSYBBHToTauTau_M-900_8TeV-pythia6-tauola/Summer12_DR53X-PU_S10_START53_V7A-v1/AODSIM/PAT_CMG_V5_16_0/HTT_24Jul_newTES_manzoni_Up'
p514
sS'SampleDataset'
p515
g76
sS'LSFJobsTopDir'
p516
S'SUSYBBHToTauTau_M-900_8TeV-pythia6-tauola/Summer12_DR53X-PU_S10_START53_V7A-v1/AODSIM/PAT_CMG_V5_16_0_1377467562/HTT_24Jul_newTES_manzoni_Up_Jobs'
p517
ssS'CreateJobDirectory'
p518
(dp519
S'JobDir'
p520
S'SUSYBBHToTauTau_M-900_8TeV-pythia6-tauola/Summer12_DR53X-PU_S10_START53_V7A-v1/AODSIM/PAT_CMG_V5_16_0_1377467562'
p521
sS'PWD'
p522
S'/afs/cern.ch/user/m/manzoni/summer13/CMGTools/CMSSW_5_3_9/src/CMGTools/H2TauTau/prod/25aug_corrMC/up/mc'
p523
ssS'CleanJobFiles'
p524
(dp525
S'Compressed'
p526
(dp527
S'CompressedFiles'
p528
(lp529
ssS'Cleaned'
p530
(dp531
S'CleanedFiles'
p532
(lp533
g493
ag497
aS'SUSYBBHToTauTau_M-900_8TeV-pythia6-tauola/Summer12_DR53X-PU_S10_START53_V7A-v1/AODSIM/PAT_CMG_V5_16_0_1377467562/diTau_fullsel_tree_CMG.root'
p534
aS'SUSYBBHToTauTau_M-900_8TeV-pythia6-tauola/Summer12_DR53X-PU_S10_START53_V7A-v1/AODSIM/PAT_CMG_V5_16_0_1377467562/source_cfg.pyc'
p535
aS'SUSYBBHToTauTau_M-900_8TeV-pythia6-tauola/Summer12_DR53X-PU_S10_START53_V7A-v1/AODSIM/PAT_CMG_V5_16_0_1377467562/Expandedfull_cfg.pyc'
p536
asssS'CheckForMask'
p537
(dp538
g3
g158
sg115
I01
ss.