(dp0
S'CheckJobStatus'
p1
(dp2
S'Report'
p3
(dp4
S'Files'
p5
(dp6
S'/store/cmst3/user/manzoni/CMG/VBF_HToTauTau_M-120_8TeV-powheg-pythia6/Summer12_DR53X-PU_S10_START53_V7A-v1/AODSIM/V5_B/PAT_CMG_V5_16_0/HTT_24Jul_newTES_manzoni_Up/diTau_fullsel_tree_CMG_34.root'
p7
(I01
I2199
tp8
sS'/store/cmst3/user/manzoni/CMG/VBF_HToTauTau_M-120_8TeV-powheg-pythia6/Summer12_DR53X-PU_S10_START53_V7A-v1/AODSIM/V5_B/PAT_CMG_V5_16_0/HTT_24Jul_newTES_manzoni_Up/diTau_fullsel_tree_CMG_4.root'
p9
(I01
I2084
tp10
sS'/store/cmst3/user/manzoni/CMG/VBF_HToTauTau_M-120_8TeV-powheg-pythia6/Summer12_DR53X-PU_S10_START53_V7A-v1/AODSIM/V5_B/PAT_CMG_V5_16_0/HTT_24Jul_newTES_manzoni_Up/diTau_fullsel_tree_CMG_14.root'
p11
(I01
I1989
tp12
sS'/store/cmst3/user/manzoni/CMG/VBF_HToTauTau_M-120_8TeV-powheg-pythia6/Summer12_DR53X-PU_S10_START53_V7A-v1/AODSIM/V5_B/PAT_CMG_V5_16_0/HTT_24Jul_newTES_manzoni_Up/diTau_fullsel_tree_CMG_28.root'
p13
(I01
I2308
tp14
sS'/store/cmst3/user/manzoni/CMG/VBF_HToTauTau_M-120_8TeV-powheg-pythia6/Summer12_DR53X-PU_S10_START53_V7A-v1/AODSIM/V5_B/PAT_CMG_V5_16_0/HTT_24Jul_newTES_manzoni_Up/diTau_fullsel_tree_CMG_19.root'
p15
(I01
I2202
tp16
sS'/store/cmst3/user/manzoni/CMG/VBF_HToTauTau_M-120_8TeV-powheg-pythia6/Summer12_DR53X-PU_S10_START53_V7A-v1/AODSIM/V5_B/PAT_CMG_V5_16_0/HTT_24Jul_newTES_manzoni_Up/diTau_fullsel_tree_CMG_66.root'
p17
(I01
I2126
tp18
sS'/store/cmst3/user/manzoni/CMG/VBF_HToTauTau_M-120_8TeV-powheg-pythia6/Summer12_DR53X-PU_S10_START53_V7A-v1/AODSIM/V5_B/PAT_CMG_V5_16_0/HTT_24Jul_newTES_manzoni_Up/diTau_fullsel_tree_CMG_42.root'
p19
(I01
I2140
tp20
sS'/store/cmst3/user/manzoni/CMG/VBF_HToTauTau_M-120_8TeV-powheg-pythia6/Summer12_DR53X-PU_S10_START53_V7A-v1/AODSIM/V5_B/PAT_CMG_V5_16_0/HTT_24Jul_newTES_manzoni_Up/diTau_fullsel_tree_CMG_1.root'
p21
(I01
I1893
tp22
sS'/store/cmst3/user/manzoni/CMG/VBF_HToTauTau_M-120_8TeV-powheg-pythia6/Summer12_DR53X-PU_S10_START53_V7A-v1/AODSIM/V5_B/PAT_CMG_V5_16_0/HTT_24Jul_newTES_manzoni_Up/diTau_fullsel_tree_CMG_35.root'
p23
(I01
I2099
tp24
sS'/store/cmst3/user/manzoni/CMG/VBF_HToTauTau_M-120_8TeV-powheg-pythia6/Summer12_DR53X-PU_S10_START53_V7A-v1/AODSIM/V5_B/PAT_CMG_V5_16_0/HTT_24Jul_newTES_manzoni_Up/diTau_fullsel_tree_CMG_18.root'
p25
(I01
I1919
tp26
sS'/store/cmst3/user/manzoni/CMG/VBF_HToTauTau_M-120_8TeV-powheg-pythia6/Summer12_DR53X-PU_S10_START53_V7A-v1/AODSIM/V5_B/PAT_CMG_V5_16_0/HTT_24Jul_newTES_manzoni_Up/diTau_fullsel_tree_CMG_29.root'
p27
(I01
I2189
tp28
sS'/store/cmst3/user/manzoni/CMG/VBF_HToTauTau_M-120_8TeV-powheg-pythia6/Summer12_DR53X-PU_S10_START53_V7A-v1/AODSIM/V5_B/PAT_CMG_V5_16_0/HTT_24Jul_newTES_manzoni_Up/diTau_fullsel_tree_CMG_77.root'
p29
(I01
I2249
tp30
sS'/store/cmst3/user/manzoni/CMG/VBF_HToTauTau_M-120_8TeV-powheg-pythia6/Summer12_DR53X-PU_S10_START53_V7A-v1/AODSIM/V5_B/PAT_CMG_V5_16_0/HTT_24Jul_newTES_manzoni_Up/diTau_fullsel_tree_CMG_31.root'
p31
(I01
I2105
tp32
sS'/store/cmst3/user/manzoni/CMG/VBF_HToTauTau_M-120_8TeV-powheg-pythia6/Summer12_DR53X-PU_S10_START53_V7A-v1/AODSIM/V5_B/PAT_CMG_V5_16_0/HTT_24Jul_newTES_manzoni_Up/diTau_fullsel_tree_CMG_12.root'
p33
(I01
I1983
tp34
sS'/store/cmst3/user/manzoni/CMG/VBF_HToTauTau_M-120_8TeV-powheg-pythia6/Summer12_DR53X-PU_S10_START53_V7A-v1/AODSIM/V5_B/PAT_CMG_V5_16_0/HTT_24Jul_newTES_manzoni_Up/diTau_fullsel_tree_CMG_24.root'
p35
(I01
I2187
tp36
sS'/store/cmst3/user/manzoni/CMG/VBF_HToTauTau_M-120_8TeV-powheg-pythia6/Summer12_DR53X-PU_S10_START53_V7A-v1/AODSIM/V5_B/PAT_CMG_V5_16_0/HTT_24Jul_newTES_manzoni_Up/diTau_fullsel_tree_CMG_85.root'
p37
(I01
I1771
tp38
sS'/store/cmst3/user/manzoni/CMG/VBF_HToTauTau_M-120_8TeV-powheg-pythia6/Summer12_DR53X-PU_S10_START53_V7A-v1/AODSIM/V5_B/PAT_CMG_V5_16_0/HTT_24Jul_newTES_manzoni_Up/diTau_fullsel_tree_CMG_51.root'
p39
(I01
I1855
tp40
sS'/store/cmst3/user/manzoni/CMG/VBF_HToTauTau_M-120_8TeV-powheg-pythia6/Summer12_DR53X-PU_S10_START53_V7A-v1/AODSIM/V5_B/PAT_CMG_V5_16_0/HTT_24Jul_newTES_manzoni_Up/diTau_fullsel_tree_CMG_21.root'
p41
(I01
I2154
tp42
sS'/store/cmst3/user/manzoni/CMG/VBF_HToTauTau_M-120_8TeV-powheg-pythia6/Summer12_DR53X-PU_S10_START53_V7A-v1/AODSIM/V5_B/PAT_CMG_V5_16_0/HTT_24Jul_newTES_manzoni_Up/diTau_fullsel_tree_CMG_76.root'
p43
(I01
I2178
tp44
sS'/store/cmst3/user/manzoni/CMG/VBF_HToTauTau_M-120_8TeV-powheg-pythia6/Summer12_DR53X-PU_S10_START53_V7A-v1/AODSIM/V5_B/PAT_CMG_V5_16_0/HTT_24Jul_newTES_manzoni_Up/diTau_fullsel_tree_CMG_37.root'
p45
(I01
I2321
tp46
sS'/store/cmst3/user/manzoni/CMG/VBF_HToTauTau_M-120_8TeV-powheg-pythia6/Summer12_DR53X-PU_S10_START53_V7A-v1/AODSIM/V5_B/PAT_CMG_V5_16_0/HTT_24Jul_newTES_manzoni_Up/diTau_fullsel_tree_CMG_81.root'
p47
(I01
I1826
tp48
sS'/store/cmst3/user/manzoni/CMG/VBF_HToTauTau_M-120_8TeV-powheg-pythia6/Summer12_DR53X-PU_S10_START53_V7A-v1/AODSIM/V5_B/PAT_CMG_V5_16_0/HTT_24Jul_newTES_manzoni_Up/diTau_fullsel_tree_CMG_62.root'
p49
(I01
I2153
tp50
sS'/store/cmst3/user/manzoni/CMG/VBF_HToTauTau_M-120_8TeV-powheg-pythia6/Summer12_DR53X-PU_S10_START53_V7A-v1/AODSIM/V5_B/PAT_CMG_V5_16_0/HTT_24Jul_newTES_manzoni_Up/diTau_fullsel_tree_CMG_55.root'
p51
(I01
I1967
tp52
sS'/store/cmst3/user/manzoni/CMG/VBF_HToTauTau_M-120_8TeV-powheg-pythia6/Summer12_DR53X-PU_S10_START53_V7A-v1/AODSIM/V5_B/PAT_CMG_V5_16_0/HTT_24Jul_newTES_manzoni_Up/diTau_fullsel_tree_CMG_6.root'
p53
(I01
I1979
tp54
sS'/store/cmst3/user/manzoni/CMG/VBF_HToTauTau_M-120_8TeV-powheg-pythia6/Summer12_DR53X-PU_S10_START53_V7A-v1/AODSIM/V5_B/PAT_CMG_V5_16_0/HTT_24Jul_newTES_manzoni_Up/diTau_fullsel_tree_CMG_87.root'
p55
(I01
I1968
tp56
sS'/store/cmst3/user/manzoni/CMG/VBF_HToTauTau_M-120_8TeV-powheg-pythia6/Summer12_DR53X-PU_S10_START53_V7A-v1/AODSIM/V5_B/PAT_CMG_V5_16_0/HTT_24Jul_newTES_manzoni_Up/diTau_fullsel_tree_CMG_33.root'
p57
(I01
I2002
tp58
sS'/store/cmst3/user/manzoni/CMG/VBF_HToTauTau_M-120_8TeV-powheg-pythia6/Summer12_DR53X-PU_S10_START53_V7A-v1/AODSIM/V5_B/PAT_CMG_V5_16_0/HTT_24Jul_newTES_manzoni_Up/diTau_fullsel_tree_CMG_69.root'
p59
(I01
I2067
tp60
sS'/store/cmst3/user/manzoni/CMG/VBF_HToTauTau_M-120_8TeV-powheg-pythia6/Summer12_DR53X-PU_S10_START53_V7A-v1/AODSIM/V5_B/PAT_CMG_V5_16_0/HTT_24Jul_newTES_manzoni_Up/diTau_fullsel_tree_CMG_64.root'
p61
(I01
I2187
tp62
sS'/store/cmst3/user/manzoni/CMG/VBF_HToTauTau_M-120_8TeV-powheg-pythia6/Summer12_DR53X-PU_S10_START53_V7A-v1/AODSIM/V5_B/PAT_CMG_V5_16_0/HTT_24Jul_newTES_manzoni_Up/diTau_fullsel_tree_CMG_54.root'
p63
(I01
I2057
tp64
sS'/store/cmst3/user/manzoni/CMG/VBF_HToTauTau_M-120_8TeV-powheg-pythia6/Summer12_DR53X-PU_S10_START53_V7A-v1/AODSIM/V5_B/PAT_CMG_V5_16_0/HTT_24Jul_newTES_manzoni_Up/diTau_fullsel_tree_CMG_89.root'
p65
(I01
I1808
tp66
sS'/store/cmst3/user/manzoni/CMG/VBF_HToTauTau_M-120_8TeV-powheg-pythia6/Summer12_DR53X-PU_S10_START53_V7A-v1/AODSIM/V5_B/PAT_CMG_V5_16_0/HTT_24Jul_newTES_manzoni_Up/diTau_fullsel_tree_CMG_32.root'
p67
(I01
I2069
tp68
sS'/store/cmst3/user/manzoni/CMG/VBF_HToTauTau_M-120_8TeV-powheg-pythia6/Summer12_DR53X-PU_S10_START53_V7A-v1/AODSIM/V5_B/PAT_CMG_V5_16_0/HTT_24Jul_newTES_manzoni_Up/diTau_fullsel_tree_CMG_68.root'
p69
(I01
I1812
tp70
sS'/store/cmst3/user/manzoni/CMG/VBF_HToTauTau_M-120_8TeV-powheg-pythia6/Summer12_DR53X-PU_S10_START53_V7A-v1/AODSIM/V5_B/PAT_CMG_V5_16_0/HTT_24Jul_newTES_manzoni_Up/diTau_fullsel_tree_CMG_7.root'
p71
(I01
I2010
tp72
sS'/store/cmst3/user/manzoni/CMG/VBF_HToTauTau_M-120_8TeV-powheg-pythia6/Summer12_DR53X-PU_S10_START53_V7A-v1/AODSIM/V5_B/PAT_CMG_V5_16_0/HTT_24Jul_newTES_manzoni_Up/diTau_fullsel_tree_CMG_75.root'
p73
(I01
I2180
tp74
sS'/store/cmst3/user/manzoni/CMG/VBF_HToTauTau_M-120_8TeV-powheg-pythia6/Summer12_DR53X-PU_S10_START53_V7A-v1/AODSIM/V5_B/PAT_CMG_V5_16_0/HTT_24Jul_newTES_manzoni_Up/diTau_fullsel_tree_CMG_45.root'
p75
(I01
I2088
tp76
sS'/store/cmst3/user/manzoni/CMG/VBF_HToTauTau_M-120_8TeV-powheg-pythia6/Summer12_DR53X-PU_S10_START53_V7A-v1/AODSIM/V5_B/PAT_CMG_V5_16_0/HTT_24Jul_newTES_manzoni_Up/diTau_fullsel_tree_CMG_11.root'
p77
(I01
I2094
tp78
sS'/store/cmst3/user/manzoni/CMG/VBF_HToTauTau_M-120_8TeV-powheg-pythia6/Summer12_DR53X-PU_S10_START53_V7A-v1/AODSIM/V5_B/PAT_CMG_V5_16_0/HTT_24Jul_newTES_manzoni_Up/diTau_fullsel_tree_CMG_38.root'
p79
(I01
I2253
tp80
sS'/store/cmst3/user/manzoni/CMG/VBF_HToTauTau_M-120_8TeV-powheg-pythia6/Summer12_DR53X-PU_S10_START53_V7A-v1/AODSIM/V5_B/PAT_CMG_V5_16_0/HTT_24Jul_newTES_manzoni_Up/diTau_fullsel_tree_CMG_70.root'
p81
(I01
I2168
tp82
sS'/store/cmst3/user/manzoni/CMG/VBF_HToTauTau_M-120_8TeV-powheg-pythia6/Summer12_DR53X-PU_S10_START53_V7A-v1/AODSIM/V5_B/PAT_CMG_V5_16_0/HTT_24Jul_newTES_manzoni_Up/diTau_fullsel_tree_CMG_48.root'
p83
(I01
I2163
tp84
sS'/store/cmst3/user/manzoni/CMG/VBF_HToTauTau_M-120_8TeV-powheg-pythia6/Summer12_DR53X-PU_S10_START53_V7A-v1/AODSIM/V5_B/PAT_CMG_V5_16_0/HTT_24Jul_newTES_manzoni_Up/diTau_fullsel_tree_CMG_27.root'
p85
(I01
I2086
tp86
sS'/store/cmst3/user/manzoni/CMG/VBF_HToTauTau_M-120_8TeV-powheg-pythia6/Summer12_DR53X-PU_S10_START53_V7A-v1/AODSIM/V5_B/PAT_CMG_V5_16_0/HTT_24Jul_newTES_manzoni_Up/diTau_fullsel_tree_CMG_53.root'
p87
(I01
I1660
tp88
sS'/store/cmst3/user/manzoni/CMG/VBF_HToTauTau_M-120_8TeV-powheg-pythia6/Summer12_DR53X-PU_S10_START53_V7A-v1/AODSIM/V5_B/PAT_CMG_V5_16_0/HTT_24Jul_newTES_manzoni_Up/diTau_fullsel_tree_CMG_71.root'
p89
(I01
I2231
tp90
sS'/store/cmst3/user/manzoni/CMG/VBF_HToTauTau_M-120_8TeV-powheg-pythia6/Summer12_DR53X-PU_S10_START53_V7A-v1/AODSIM/V5_B/PAT_CMG_V5_16_0/HTT_24Jul_newTES_manzoni_Up/diTau_fullsel_tree_CMG_10.root'
p91
(I01
I2030
tp92
sS'/store/cmst3/user/manzoni/CMG/VBF_HToTauTau_M-120_8TeV-powheg-pythia6/Summer12_DR53X-PU_S10_START53_V7A-v1/AODSIM/V5_B/PAT_CMG_V5_16_0/HTT_24Jul_newTES_manzoni_Up/diTau_fullsel_tree_CMG_82.root'
p93
(I01
I1856
tp94
sS'/store/cmst3/user/manzoni/CMG/VBF_HToTauTau_M-120_8TeV-powheg-pythia6/Summer12_DR53X-PU_S10_START53_V7A-v1/AODSIM/V5_B/PAT_CMG_V5_16_0/HTT_24Jul_newTES_manzoni_Up/diTau_fullsel_tree_CMG_78.root'
p95
(I01
I1969
tp96
sS'/store/cmst3/user/manzoni/CMG/VBF_HToTauTau_M-120_8TeV-powheg-pythia6/Summer12_DR53X-PU_S10_START53_V7A-v1/AODSIM/V5_B/PAT_CMG_V5_16_0/HTT_24Jul_newTES_manzoni_Up/diTau_fullsel_tree_CMG_56.root'
p97
(I01
I2252
tp98
sS'/store/cmst3/user/manzoni/CMG/VBF_HToTauTau_M-120_8TeV-powheg-pythia6/Summer12_DR53X-PU_S10_START53_V7A-v1/AODSIM/V5_B/PAT_CMG_V5_16_0/HTT_24Jul_newTES_manzoni_Up/diTau_fullsel_tree_CMG_26.root'
p99
(I01
I2193
tp100
sS'/store/cmst3/user/manzoni/CMG/VBF_HToTauTau_M-120_8TeV-powheg-pythia6/Summer12_DR53X-PU_S10_START53_V7A-v1/AODSIM/V5_B/PAT_CMG_V5_16_0/HTT_24Jul_newTES_manzoni_Up/diTau_fullsel_tree_CMG_84.root'
p101
(I01
I1892
tp102
sS'/store/cmst3/user/manzoni/CMG/VBF_HToTauTau_M-120_8TeV-powheg-pythia6/Summer12_DR53X-PU_S10_START53_V7A-v1/AODSIM/V5_B/PAT_CMG_V5_16_0/HTT_24Jul_newTES_manzoni_Up/diTau_fullsel_tree_CMG_30.root'
p103
(I01
I2052
tp104
sS'/store/cmst3/user/manzoni/CMG/VBF_HToTauTau_M-120_8TeV-powheg-pythia6/Summer12_DR53X-PU_S10_START53_V7A-v1/AODSIM/V5_B/PAT_CMG_V5_16_0/HTT_24Jul_newTES_manzoni_Up/diTau_fullsel_tree_CMG_41.root'
p105
(I01
I1879
tp106
sS'/store/cmst3/user/manzoni/CMG/VBF_HToTauTau_M-120_8TeV-powheg-pythia6/Summer12_DR53X-PU_S10_START53_V7A-v1/AODSIM/V5_B/PAT_CMG_V5_16_0/HTT_24Jul_newTES_manzoni_Up/diTau_fullsel_tree_CMG_49.root'
p107
(I01
I1914
tp108
sS'/store/cmst3/user/manzoni/CMG/VBF_HToTauTau_M-120_8TeV-powheg-pythia6/Summer12_DR53X-PU_S10_START53_V7A-v1/AODSIM/V5_B/PAT_CMG_V5_16_0/HTT_24Jul_newTES_manzoni_Up/diTau_fullsel_tree_CMG_79.root'
p109
(I01
I1923
tp110
sS'/store/cmst3/user/manzoni/CMG/VBF_HToTauTau_M-120_8TeV-powheg-pythia6/Summer12_DR53X-PU_S10_START53_V7A-v1/AODSIM/V5_B/PAT_CMG_V5_16_0/HTT_24Jul_newTES_manzoni_Up/diTau_fullsel_tree_CMG_58.root'
p111
(I01
I2079
tp112
sS'/store/cmst3/user/manzoni/CMG/VBF_HToTauTau_M-120_8TeV-powheg-pythia6/Summer12_DR53X-PU_S10_START53_V7A-v1/AODSIM/V5_B/PAT_CMG_V5_16_0/HTT_24Jul_newTES_manzoni_Up/diTau_fullsel_tree_CMG_20.root'
p113
(I01
I1842
tp114
sS'/store/cmst3/user/manzoni/CMG/VBF_HToTauTau_M-120_8TeV-powheg-pythia6/Summer12_DR53X-PU_S10_START53_V7A-v1/AODSIM/V5_B/PAT_CMG_V5_16_0/HTT_24Jul_newTES_manzoni_Up/diTau_fullsel_tree_CMG_57.root'
p115
(I01
I1991
tp116
sS'/store/cmst3/user/manzoni/CMG/VBF_HToTauTau_M-120_8TeV-powheg-pythia6/Summer12_DR53X-PU_S10_START53_V7A-v1/AODSIM/V5_B/PAT_CMG_V5_16_0/HTT_24Jul_newTES_manzoni_Up/diTau_fullsel_tree_CMG_59.root'
p117
(I01
I1996
tp118
sS'/store/cmst3/user/manzoni/CMG/VBF_HToTauTau_M-120_8TeV-powheg-pythia6/Summer12_DR53X-PU_S10_START53_V7A-v1/AODSIM/V5_B/PAT_CMG_V5_16_0/HTT_24Jul_newTES_manzoni_Up/diTau_fullsel_tree_CMG_46.root'
p119
(I01
I2252
tp120
sS'/store/cmst3/user/manzoni/CMG/VBF_HToTauTau_M-120_8TeV-powheg-pythia6/Summer12_DR53X-PU_S10_START53_V7A-v1/AODSIM/V5_B/PAT_CMG_V5_16_0/HTT_24Jul_newTES_manzoni_Up/diTau_fullsel_tree_CMG_13.root'
p121
(I01
I1964
tp122
sS'/store/cmst3/user/manzoni/CMG/VBF_HToTauTau_M-120_8TeV-powheg-pythia6/Summer12_DR53X-PU_S10_START53_V7A-v1/AODSIM/V5_B/PAT_CMG_V5_16_0/HTT_24Jul_newTES_manzoni_Up/diTau_fullsel_tree_CMG_3.root'
p123
(I01
I1765
tp124
sS'/store/cmst3/user/manzoni/CMG/VBF_HToTauTau_M-120_8TeV-powheg-pythia6/Summer12_DR53X-PU_S10_START53_V7A-v1/AODSIM/V5_B/PAT_CMG_V5_16_0/HTT_24Jul_newTES_manzoni_Up/diTau_fullsel_tree_CMG_63.root'
p125
(I01
I2294
tp126
sS'/store/cmst3/user/manzoni/CMG/VBF_HToTauTau_M-120_8TeV-powheg-pythia6/Summer12_DR53X-PU_S10_START53_V7A-v1/AODSIM/V5_B/PAT_CMG_V5_16_0/HTT_24Jul_newTES_manzoni_Up/diTau_fullsel_tree_CMG_73.root'
p127
(I01
I1908
tp128
sS'/store/cmst3/user/manzoni/CMG/VBF_HToTauTau_M-120_8TeV-powheg-pythia6/Summer12_DR53X-PU_S10_START53_V7A-v1/AODSIM/V5_B/PAT_CMG_V5_16_0/HTT_24Jul_newTES_manzoni_Up/diTau_fullsel_tree_CMG_8.root'
p129
(I01
I1823
tp130
sS'/store/cmst3/user/manzoni/CMG/VBF_HToTauTau_M-120_8TeV-powheg-pythia6/Summer12_DR53X-PU_S10_START53_V7A-v1/AODSIM/V5_B/PAT_CMG_V5_16_0/HTT_24Jul_newTES_manzoni_Up/diTau_fullsel_tree_CMG_16.root'
p131
(I01
I2348
tp132
sS'/store/cmst3/user/manzoni/CMG/VBF_HToTauTau_M-120_8TeV-powheg-pythia6/Summer12_DR53X-PU_S10_START53_V7A-v1/AODSIM/V5_B/PAT_CMG_V5_16_0/HTT_24Jul_newTES_manzoni_Up/diTau_fullsel_tree_CMG_86.root'
p133
(I01
I1939
tp134
sS'/store/cmst3/user/manzoni/CMG/VBF_HToTauTau_M-120_8TeV-powheg-pythia6/Summer12_DR53X-PU_S10_START53_V7A-v1/AODSIM/V5_B/PAT_CMG_V5_16_0/HTT_24Jul_newTES_manzoni_Up/diTau_fullsel_tree_CMG_43.root'
p135
(I01
I2134
tp136
sS'/store/cmst3/user/manzoni/CMG/VBF_HToTauTau_M-120_8TeV-powheg-pythia6/Summer12_DR53X-PU_S10_START53_V7A-v1/AODSIM/V5_B/PAT_CMG_V5_16_0/HTT_24Jul_newTES_manzoni_Up/diTau_fullsel_tree_CMG_9.root'
p137
(I01
I1889
tp138
sS'/store/cmst3/user/manzoni/CMG/VBF_HToTauTau_M-120_8TeV-powheg-pythia6/Summer12_DR53X-PU_S10_START53_V7A-v1/AODSIM/V5_B/PAT_CMG_V5_16_0/HTT_24Jul_newTES_manzoni_Up/diTau_fullsel_tree_CMG_47.root'
p139
(I01
I1972
tp140
sS'/store/cmst3/user/manzoni/CMG/VBF_HToTauTau_M-120_8TeV-powheg-pythia6/Summer12_DR53X-PU_S10_START53_V7A-v1/AODSIM/V5_B/PAT_CMG_V5_16_0/HTT_24Jul_newTES_manzoni_Up/diTau_fullsel_tree_CMG_17.root'
p141
(I01
I2214
tp142
sS'/store/cmst3/user/manzoni/CMG/VBF_HToTauTau_M-120_8TeV-powheg-pythia6/Summer12_DR53X-PU_S10_START53_V7A-v1/AODSIM/V5_B/PAT_CMG_V5_16_0/HTT_24Jul_newTES_manzoni_Up/diTau_fullsel_tree_CMG_52.root'
p143
(I01
I2162
tp144
sS'/store/cmst3/user/manzoni/CMG/VBF_HToTauTau_M-120_8TeV-powheg-pythia6/Summer12_DR53X-PU_S10_START53_V7A-v1/AODSIM/V5_B/PAT_CMG_V5_16_0/HTT_24Jul_newTES_manzoni_Up/diTau_fullsel_tree_CMG_25.root'
p145
(I01
I1981
tp146
sS'/store/cmst3/user/manzoni/CMG/VBF_HToTauTau_M-120_8TeV-powheg-pythia6/Summer12_DR53X-PU_S10_START53_V7A-v1/AODSIM/V5_B/PAT_CMG_V5_16_0/HTT_24Jul_newTES_manzoni_Up/diTau_fullsel_tree_CMG_72.root'
p147
(I01
I1825
tp148
sS'/store/cmst3/user/manzoni/CMG/VBF_HToTauTau_M-120_8TeV-powheg-pythia6/Summer12_DR53X-PU_S10_START53_V7A-v1/AODSIM/V5_B/PAT_CMG_V5_16_0/HTT_24Jul_newTES_manzoni_Up/diTau_fullsel_tree_CMG_5.root'
p149
(I01
I2140
tp150
sS'/store/cmst3/user/manzoni/CMG/VBF_HToTauTau_M-120_8TeV-powheg-pythia6/Summer12_DR53X-PU_S10_START53_V7A-v1/AODSIM/V5_B/PAT_CMG_V5_16_0/HTT_24Jul_newTES_manzoni_Up/diTau_fullsel_tree_CMG_83.root'
p151
(I01
I2080
tp152
sS'/store/cmst3/user/manzoni/CMG/VBF_HToTauTau_M-120_8TeV-powheg-pythia6/Summer12_DR53X-PU_S10_START53_V7A-v1/AODSIM/V5_B/PAT_CMG_V5_16_0/HTT_24Jul_newTES_manzoni_Up/diTau_fullsel_tree_CMG_50.root'
p153
(I01
I2282
tp154
sS'/store/cmst3/user/manzoni/CMG/VBF_HToTauTau_M-120_8TeV-powheg-pythia6/Summer12_DR53X-PU_S10_START53_V7A-v1/AODSIM/V5_B/PAT_CMG_V5_16_0/HTT_24Jul_newTES_manzoni_Up/diTau_fullsel_tree_CMG_40.root'
p155
(I01
I1961
tp156
sS'/store/cmst3/user/manzoni/CMG/VBF_HToTauTau_M-120_8TeV-powheg-pythia6/Summer12_DR53X-PU_S10_START53_V7A-v1/AODSIM/V5_B/PAT_CMG_V5_16_0/HTT_24Jul_newTES_manzoni_Up/diTau_fullsel_tree_CMG_2.root'
p157
(I01
I2208
tp158
sS'/store/cmst3/user/manzoni/CMG/VBF_HToTauTau_M-120_8TeV-powheg-pythia6/Summer12_DR53X-PU_S10_START53_V7A-v1/AODSIM/V5_B/PAT_CMG_V5_16_0/HTT_24Jul_newTES_manzoni_Up/diTau_fullsel_tree_CMG_88.root'
p159
(I01
I2086
tp160
sS'/store/cmst3/user/manzoni/CMG/VBF_HToTauTau_M-120_8TeV-powheg-pythia6/Summer12_DR53X-PU_S10_START53_V7A-v1/AODSIM/V5_B/PAT_CMG_V5_16_0/HTT_24Jul_newTES_manzoni_Up/diTau_fullsel_tree_CMG_36.root'
p161
(I01
I2375
tp162
sS'/store/cmst3/user/manzoni/CMG/VBF_HToTauTau_M-120_8TeV-powheg-pythia6/Summer12_DR53X-PU_S10_START53_V7A-v1/AODSIM/V5_B/PAT_CMG_V5_16_0/HTT_24Jul_newTES_manzoni_Up/diTau_fullsel_tree_CMG_80.root'
p163
(I01
I2228
tp164
sS'/store/cmst3/user/manzoni/CMG/VBF_HToTauTau_M-120_8TeV-powheg-pythia6/Summer12_DR53X-PU_S10_START53_V7A-v1/AODSIM/V5_B/PAT_CMG_V5_16_0/HTT_24Jul_newTES_manzoni_Up/diTau_fullsel_tree_CMG_67.root'
p165
(I01
I1896
tp166
sS'/store/cmst3/user/manzoni/CMG/VBF_HToTauTau_M-120_8TeV-powheg-pythia6/Summer12_DR53X-PU_S10_START53_V7A-v1/AODSIM/V5_B/PAT_CMG_V5_16_0/HTT_24Jul_newTES_manzoni_Up/diTau_fullsel_tree_CMG_23.root'
p167
(I01
I1963
tp168
sS'/store/cmst3/user/manzoni/CMG/VBF_HToTauTau_M-120_8TeV-powheg-pythia6/Summer12_DR53X-PU_S10_START53_V7A-v1/AODSIM/V5_B/PAT_CMG_V5_16_0/HTT_24Jul_newTES_manzoni_Up/diTau_fullsel_tree_CMG_60.root'
p169
(I01
I1886
tp170
sS'/store/cmst3/user/manzoni/CMG/VBF_HToTauTau_M-120_8TeV-powheg-pythia6/Summer12_DR53X-PU_S10_START53_V7A-v1/AODSIM/V5_B/PAT_CMG_V5_16_0/HTT_24Jul_newTES_manzoni_Up/diTau_fullsel_tree_CMG_39.root'
p171
(I01
I1974
tp172
sS'/store/cmst3/user/manzoni/CMG/VBF_HToTauTau_M-120_8TeV-powheg-pythia6/Summer12_DR53X-PU_S10_START53_V7A-v1/AODSIM/V5_B/PAT_CMG_V5_16_0/HTT_24Jul_newTES_manzoni_Up/diTau_fullsel_tree_CMG_15.root'
p173
(I01
I1993
tp174
sS'/store/cmst3/user/manzoni/CMG/VBF_HToTauTau_M-120_8TeV-powheg-pythia6/Summer12_DR53X-PU_S10_START53_V7A-v1/AODSIM/V5_B/PAT_CMG_V5_16_0/HTT_24Jul_newTES_manzoni_Up/diTau_fullsel_tree_CMG_74.root'
p175
(I01
I2227
tp176
sS'/store/cmst3/user/manzoni/CMG/VBF_HToTauTau_M-120_8TeV-powheg-pythia6/Summer12_DR53X-PU_S10_START53_V7A-v1/AODSIM/V5_B/PAT_CMG_V5_16_0/HTT_24Jul_newTES_manzoni_Up/diTau_fullsel_tree_CMG_90.root'
p177
(I01
I2145
tp178
sS'/store/cmst3/user/manzoni/CMG/VBF_HToTauTau_M-120_8TeV-powheg-pythia6/Summer12_DR53X-PU_S10_START53_V7A-v1/AODSIM/V5_B/PAT_CMG_V5_16_0/HTT_24Jul_newTES_manzoni_Up/diTau_fullsel_tree_CMG_65.root'
p179
(I01
I2079
tp180
sS'/store/cmst3/user/manzoni/CMG/VBF_HToTauTau_M-120_8TeV-powheg-pythia6/Summer12_DR53X-PU_S10_START53_V7A-v1/AODSIM/V5_B/PAT_CMG_V5_16_0/HTT_24Jul_newTES_manzoni_Up/diTau_fullsel_tree_CMG_61.root'
p181
(I01
I2112
tp182
sS'/store/cmst3/user/manzoni/CMG/VBF_HToTauTau_M-120_8TeV-powheg-pythia6/Summer12_DR53X-PU_S10_START53_V7A-v1/AODSIM/V5_B/PAT_CMG_V5_16_0/HTT_24Jul_newTES_manzoni_Up/diTau_fullsel_tree_CMG_22.root'
p183
(I01
I1979
tp184
sS'/store/cmst3/user/manzoni/CMG/VBF_HToTauTau_M-120_8TeV-powheg-pythia6/Summer12_DR53X-PU_S10_START53_V7A-v1/AODSIM/V5_B/PAT_CMG_V5_16_0/HTT_24Jul_newTES_manzoni_Up/diTau_fullsel_tree_CMG_44.root'
p185
(I01
I1976
tp186
ssS'Name'
p187
S'/VBF_HToTauTau_M-120_8TeV-powheg-pythia6/Summer12_DR53X-PU_S10_START53_V7A-v1/AODSIM/V5_B/PAT_CMG_V5_16_0/HTT_24Jul_newTES_manzoni_Up'
p188
sS'Topdir'
p189
S'/eos/cms/store/cmst3/user/manzoni/CMG'
p190
sS'RunList'
p191
(lp192
sS'PathList'
p193
(lp194
S'/store/cmst3/user/manzoni/CMG/VBF_HToTauTau_M-120_8TeV-powheg-pythia6/Summer12_DR53X-PU_S10_START53_V7A-v1/AODSIM/V5_B/PAT_CMG_V5_16_0/HTT_24Jul_newTES_manzoni_Up'
p195
asS'AlgoList'
p196
(lp197
sS'PrimaryDatasetFraction'
p198
F0.038483358921956749
sS'FilesGood'
p199
I90
sS'PrimaryDatasetEntries'
p200
I4799659
sS'data'
p201
(dp202
sS'FilesBad'
p203
I0
sS'ReportVersion'
p204
I3
sS'Status'
p205
S'VALID'
p206
sS'MaxRun'
p207
I-1
sS'PhysicsGroup'
p208
S'CMG'
p209
sS'MinRun'
p210
I-1
sS'StageHost'
p211
S'castorcms'
p212
sS'FilesCount'
p213
I90
sS'FilesEntries'
p214
I184707
sS'TierList'
p215
(lp216
sS'DateCreated'
p217
S'1377481862'
p218
sS'CreatedBy'
p219
S'manzoni'
p220
sS'ValidDuplicates'
p221
(dp222
sS'PrimaryDataset'
p223
S'/VBF_HToTauTau_M-120_8TeV-powheg-pythia6/Summer12_DR53X-PU_S10_START53_V7A-v1/AODSIM'
p224
sS'BadJobs'
p225
(lp226
ssS'MaskPresent'
p227
I01
sS'LSFJobStatusCheck'
p228
(dp229
S'VBF_HToTauTau_M-120_8TeV-powheg-pythia6/Summer12_DR53X-PU_S10_START53_V7A-v1/AODSIM/V5_B/PAT_CMG_V5_16_0_1377467448/HTT_24Jul_newTES_manzoni_Up_Jobs/Job_88'
p230
g206
sS'VBF_HToTauTau_M-120_8TeV-powheg-pythia6/Summer12_DR53X-PU_S10_START53_V7A-v1/AODSIM/V5_B/PAT_CMG_V5_16_0_1377467448/HTT_24Jul_newTES_manzoni_Up_Jobs/Job_89'
p231
g206
sS'VBF_HToTauTau_M-120_8TeV-powheg-pythia6/Summer12_DR53X-PU_S10_START53_V7A-v1/AODSIM/V5_B/PAT_CMG_V5_16_0_1377467448/HTT_24Jul_newTES_manzoni_Up_Jobs/Job_86'
p232
g206
sS'VBF_HToTauTau_M-120_8TeV-powheg-pythia6/Summer12_DR53X-PU_S10_START53_V7A-v1/AODSIM/V5_B/PAT_CMG_V5_16_0_1377467448/HTT_24Jul_newTES_manzoni_Up_Jobs/Job_87'
p233
g206
sS'VBF_HToTauTau_M-120_8TeV-powheg-pythia6/Summer12_DR53X-PU_S10_START53_V7A-v1/AODSIM/V5_B/PAT_CMG_V5_16_0_1377467448/HTT_24Jul_newTES_manzoni_Up_Jobs/Job_84'
p234
g206
sS'VBF_HToTauTau_M-120_8TeV-powheg-pythia6/Summer12_DR53X-PU_S10_START53_V7A-v1/AODSIM/V5_B/PAT_CMG_V5_16_0_1377467448/HTT_24Jul_newTES_manzoni_Up_Jobs/Job_85'
p235
g206
sS'VBF_HToTauTau_M-120_8TeV-powheg-pythia6/Summer12_DR53X-PU_S10_START53_V7A-v1/AODSIM/V5_B/PAT_CMG_V5_16_0_1377467448/HTT_24Jul_newTES_manzoni_Up_Jobs/Job_82'
p236
g206
sS'VBF_HToTauTau_M-120_8TeV-powheg-pythia6/Summer12_DR53X-PU_S10_START53_V7A-v1/AODSIM/V5_B/PAT_CMG_V5_16_0_1377467448/HTT_24Jul_newTES_manzoni_Up_Jobs/Job_83'
p237
g206
sS'VBF_HToTauTau_M-120_8TeV-powheg-pythia6/Summer12_DR53X-PU_S10_START53_V7A-v1/AODSIM/V5_B/PAT_CMG_V5_16_0_1377467448/HTT_24Jul_newTES_manzoni_Up_Jobs/Job_80'
p238
g206
sS'VBF_HToTauTau_M-120_8TeV-powheg-pythia6/Summer12_DR53X-PU_S10_START53_V7A-v1/AODSIM/V5_B/PAT_CMG_V5_16_0_1377467448/HTT_24Jul_newTES_manzoni_Up_Jobs/Job_81'
p239
g206
sS'VBF_HToTauTau_M-120_8TeV-powheg-pythia6/Summer12_DR53X-PU_S10_START53_V7A-v1/AODSIM/V5_B/PAT_CMG_V5_16_0_1377467448/HTT_24Jul_newTES_manzoni_Up_Jobs/Job_73'
p240
g206
sS'VBF_HToTauTau_M-120_8TeV-powheg-pythia6/Summer12_DR53X-PU_S10_START53_V7A-v1/AODSIM/V5_B/PAT_CMG_V5_16_0_1377467448/HTT_24Jul_newTES_manzoni_Up_Jobs/Job_72'
p241
g206
sS'VBF_HToTauTau_M-120_8TeV-powheg-pythia6/Summer12_DR53X-PU_S10_START53_V7A-v1/AODSIM/V5_B/PAT_CMG_V5_16_0_1377467448/HTT_24Jul_newTES_manzoni_Up_Jobs/Job_71'
p242
g206
sS'VBF_HToTauTau_M-120_8TeV-powheg-pythia6/Summer12_DR53X-PU_S10_START53_V7A-v1/AODSIM/V5_B/PAT_CMG_V5_16_0_1377467448/HTT_24Jul_newTES_manzoni_Up_Jobs/Job_70'
p243
g206
sS'VBF_HToTauTau_M-120_8TeV-powheg-pythia6/Summer12_DR53X-PU_S10_START53_V7A-v1/AODSIM/V5_B/PAT_CMG_V5_16_0_1377467448/HTT_24Jul_newTES_manzoni_Up_Jobs/Job_77'
p244
g206
sS'VBF_HToTauTau_M-120_8TeV-powheg-pythia6/Summer12_DR53X-PU_S10_START53_V7A-v1/AODSIM/V5_B/PAT_CMG_V5_16_0_1377467448/HTT_24Jul_newTES_manzoni_Up_Jobs/Job_76'
p245
g206
sS'VBF_HToTauTau_M-120_8TeV-powheg-pythia6/Summer12_DR53X-PU_S10_START53_V7A-v1/AODSIM/V5_B/PAT_CMG_V5_16_0_1377467448/HTT_24Jul_newTES_manzoni_Up_Jobs/Job_75'
p246
g206
sS'VBF_HToTauTau_M-120_8TeV-powheg-pythia6/Summer12_DR53X-PU_S10_START53_V7A-v1/AODSIM/V5_B/PAT_CMG_V5_16_0_1377467448/HTT_24Jul_newTES_manzoni_Up_Jobs/Job_74'
p247
g206
sS'VBF_HToTauTau_M-120_8TeV-powheg-pythia6/Summer12_DR53X-PU_S10_START53_V7A-v1/AODSIM/V5_B/PAT_CMG_V5_16_0_1377467448/HTT_24Jul_newTES_manzoni_Up_Jobs/Job_79'
p248
g206
sS'VBF_HToTauTau_M-120_8TeV-powheg-pythia6/Summer12_DR53X-PU_S10_START53_V7A-v1/AODSIM/V5_B/PAT_CMG_V5_16_0_1377467448/HTT_24Jul_newTES_manzoni_Up_Jobs/Job_78'
p249
g206
sS'VBF_HToTauTau_M-120_8TeV-powheg-pythia6/Summer12_DR53X-PU_S10_START53_V7A-v1/AODSIM/V5_B/PAT_CMG_V5_16_0_1377467448/HTT_24Jul_newTES_manzoni_Up_Jobs/Job_28'
p250
g206
sS'VBF_HToTauTau_M-120_8TeV-powheg-pythia6/Summer12_DR53X-PU_S10_START53_V7A-v1/AODSIM/V5_B/PAT_CMG_V5_16_0_1377467448/HTT_24Jul_newTES_manzoni_Up_Jobs/Job_29'
p251
g206
sS'VBF_HToTauTau_M-120_8TeV-powheg-pythia6/Summer12_DR53X-PU_S10_START53_V7A-v1/AODSIM/V5_B/PAT_CMG_V5_16_0_1377467448/HTT_24Jul_newTES_manzoni_Up_Jobs/Job_24'
p252
g206
sS'VBF_HToTauTau_M-120_8TeV-powheg-pythia6/Summer12_DR53X-PU_S10_START53_V7A-v1/AODSIM/V5_B/PAT_CMG_V5_16_0_1377467448/HTT_24Jul_newTES_manzoni_Up_Jobs/Job_25'
p253
g206
sS'VBF_HToTauTau_M-120_8TeV-powheg-pythia6/Summer12_DR53X-PU_S10_START53_V7A-v1/AODSIM/V5_B/PAT_CMG_V5_16_0_1377467448/HTT_24Jul_newTES_manzoni_Up_Jobs/Job_26'
p254
g206
sS'VBF_HToTauTau_M-120_8TeV-powheg-pythia6/Summer12_DR53X-PU_S10_START53_V7A-v1/AODSIM/V5_B/PAT_CMG_V5_16_0_1377467448/HTT_24Jul_newTES_manzoni_Up_Jobs/Job_27'
p255
g206
sS'VBF_HToTauTau_M-120_8TeV-powheg-pythia6/Summer12_DR53X-PU_S10_START53_V7A-v1/AODSIM/V5_B/PAT_CMG_V5_16_0_1377467448/HTT_24Jul_newTES_manzoni_Up_Jobs/Job_20'
p256
g206
sS'VBF_HToTauTau_M-120_8TeV-powheg-pythia6/Summer12_DR53X-PU_S10_START53_V7A-v1/AODSIM/V5_B/PAT_CMG_V5_16_0_1377467448/HTT_24Jul_newTES_manzoni_Up_Jobs/Job_21'
p257
g206
sS'VBF_HToTauTau_M-120_8TeV-powheg-pythia6/Summer12_DR53X-PU_S10_START53_V7A-v1/AODSIM/V5_B/PAT_CMG_V5_16_0_1377467448/HTT_24Jul_newTES_manzoni_Up_Jobs/Job_22'
p258
g206
sS'VBF_HToTauTau_M-120_8TeV-powheg-pythia6/Summer12_DR53X-PU_S10_START53_V7A-v1/AODSIM/V5_B/PAT_CMG_V5_16_0_1377467448/HTT_24Jul_newTES_manzoni_Up_Jobs/Job_23'
p259
g206
sS'VBF_HToTauTau_M-120_8TeV-powheg-pythia6/Summer12_DR53X-PU_S10_START53_V7A-v1/AODSIM/V5_B/PAT_CMG_V5_16_0_1377467448/HTT_24Jul_newTES_manzoni_Up_Jobs/Job_90'
p260
g206
sS'VBF_HToTauTau_M-120_8TeV-powheg-pythia6/Summer12_DR53X-PU_S10_START53_V7A-v1/AODSIM/V5_B/PAT_CMG_V5_16_0_1377467448/HTT_24Jul_newTES_manzoni_Up_Jobs/Job_11'
p261
g206
sS'VBF_HToTauTau_M-120_8TeV-powheg-pythia6/Summer12_DR53X-PU_S10_START53_V7A-v1/AODSIM/V5_B/PAT_CMG_V5_16_0_1377467448/HTT_24Jul_newTES_manzoni_Up_Jobs/Job_10'
p262
g206
sS'VBF_HToTauTau_M-120_8TeV-powheg-pythia6/Summer12_DR53X-PU_S10_START53_V7A-v1/AODSIM/V5_B/PAT_CMG_V5_16_0_1377467448/HTT_24Jul_newTES_manzoni_Up_Jobs/Job_13'
p263
g206
sS'VBF_HToTauTau_M-120_8TeV-powheg-pythia6/Summer12_DR53X-PU_S10_START53_V7A-v1/AODSIM/V5_B/PAT_CMG_V5_16_0_1377467448/HTT_24Jul_newTES_manzoni_Up_Jobs/Job_12'
p264
g206
sS'VBF_HToTauTau_M-120_8TeV-powheg-pythia6/Summer12_DR53X-PU_S10_START53_V7A-v1/AODSIM/V5_B/PAT_CMG_V5_16_0_1377467448/HTT_24Jul_newTES_manzoni_Up_Jobs/Job_15'
p265
g206
sS'VBF_HToTauTau_M-120_8TeV-powheg-pythia6/Summer12_DR53X-PU_S10_START53_V7A-v1/AODSIM/V5_B/PAT_CMG_V5_16_0_1377467448/HTT_24Jul_newTES_manzoni_Up_Jobs/Job_14'
p266
g206
sS'VBF_HToTauTau_M-120_8TeV-powheg-pythia6/Summer12_DR53X-PU_S10_START53_V7A-v1/AODSIM/V5_B/PAT_CMG_V5_16_0_1377467448/HTT_24Jul_newTES_manzoni_Up_Jobs/Job_17'
p267
g206
sS'VBF_HToTauTau_M-120_8TeV-powheg-pythia6/Summer12_DR53X-PU_S10_START53_V7A-v1/AODSIM/V5_B/PAT_CMG_V5_16_0_1377467448/HTT_24Jul_newTES_manzoni_Up_Jobs/Job_16'
p268
g206
sS'VBF_HToTauTau_M-120_8TeV-powheg-pythia6/Summer12_DR53X-PU_S10_START53_V7A-v1/AODSIM/V5_B/PAT_CMG_V5_16_0_1377467448/HTT_24Jul_newTES_manzoni_Up_Jobs/Job_19'
p269
g206
sS'VBF_HToTauTau_M-120_8TeV-powheg-pythia6/Summer12_DR53X-PU_S10_START53_V7A-v1/AODSIM/V5_B/PAT_CMG_V5_16_0_1377467448/HTT_24Jul_newTES_manzoni_Up_Jobs/Job_18'
p270
g206
sS'VBF_HToTauTau_M-120_8TeV-powheg-pythia6/Summer12_DR53X-PU_S10_START53_V7A-v1/AODSIM/V5_B/PAT_CMG_V5_16_0_1377467448/HTT_24Jul_newTES_manzoni_Up_Jobs/Job_5'
p271
g206
sS'VBF_HToTauTau_M-120_8TeV-powheg-pythia6/Summer12_DR53X-PU_S10_START53_V7A-v1/AODSIM/V5_B/PAT_CMG_V5_16_0_1377467448/HTT_24Jul_newTES_manzoni_Up_Jobs/Job_4'
p272
g206
sS'VBF_HToTauTau_M-120_8TeV-powheg-pythia6/Summer12_DR53X-PU_S10_START53_V7A-v1/AODSIM/V5_B/PAT_CMG_V5_16_0_1377467448/HTT_24Jul_newTES_manzoni_Up_Jobs/Job_7'
p273
g206
sS'VBF_HToTauTau_M-120_8TeV-powheg-pythia6/Summer12_DR53X-PU_S10_START53_V7A-v1/AODSIM/V5_B/PAT_CMG_V5_16_0_1377467448/HTT_24Jul_newTES_manzoni_Up_Jobs/Job_6'
p274
g206
sS'VBF_HToTauTau_M-120_8TeV-powheg-pythia6/Summer12_DR53X-PU_S10_START53_V7A-v1/AODSIM/V5_B/PAT_CMG_V5_16_0_1377467448/HTT_24Jul_newTES_manzoni_Up_Jobs/Job_1'
p275
g206
sS'VBF_HToTauTau_M-120_8TeV-powheg-pythia6/Summer12_DR53X-PU_S10_START53_V7A-v1/AODSIM/V5_B/PAT_CMG_V5_16_0_1377467448/HTT_24Jul_newTES_manzoni_Up_Jobs/Job_3'
p276
g206
sS'VBF_HToTauTau_M-120_8TeV-powheg-pythia6/Summer12_DR53X-PU_S10_START53_V7A-v1/AODSIM/V5_B/PAT_CMG_V5_16_0_1377467448/HTT_24Jul_newTES_manzoni_Up_Jobs/Job_2'
p277
g206
sS'VBF_HToTauTau_M-120_8TeV-powheg-pythia6/Summer12_DR53X-PU_S10_START53_V7A-v1/AODSIM/V5_B/PAT_CMG_V5_16_0_1377467448/HTT_24Jul_newTES_manzoni_Up_Jobs/Job_9'
p278
g206
sS'VBF_HToTauTau_M-120_8TeV-powheg-pythia6/Summer12_DR53X-PU_S10_START53_V7A-v1/AODSIM/V5_B/PAT_CMG_V5_16_0_1377467448/HTT_24Jul_newTES_manzoni_Up_Jobs/Job_8'
p279
g206
sS'VBF_HToTauTau_M-120_8TeV-powheg-pythia6/Summer12_DR53X-PU_S10_START53_V7A-v1/AODSIM/V5_B/PAT_CMG_V5_16_0_1377467448/HTT_24Jul_newTES_manzoni_Up_Jobs/Job_48'
p280
g206
sS'VBF_HToTauTau_M-120_8TeV-powheg-pythia6/Summer12_DR53X-PU_S10_START53_V7A-v1/AODSIM/V5_B/PAT_CMG_V5_16_0_1377467448/HTT_24Jul_newTES_manzoni_Up_Jobs/Job_49'
p281
g206
sS'VBF_HToTauTau_M-120_8TeV-powheg-pythia6/Summer12_DR53X-PU_S10_START53_V7A-v1/AODSIM/V5_B/PAT_CMG_V5_16_0_1377467448/HTT_24Jul_newTES_manzoni_Up_Jobs/Job_42'
p282
g206
sS'VBF_HToTauTau_M-120_8TeV-powheg-pythia6/Summer12_DR53X-PU_S10_START53_V7A-v1/AODSIM/V5_B/PAT_CMG_V5_16_0_1377467448/HTT_24Jul_newTES_manzoni_Up_Jobs/Job_43'
p283
g206
sS'VBF_HToTauTau_M-120_8TeV-powheg-pythia6/Summer12_DR53X-PU_S10_START53_V7A-v1/AODSIM/V5_B/PAT_CMG_V5_16_0_1377467448/HTT_24Jul_newTES_manzoni_Up_Jobs/Job_40'
p284
g206
sS'VBF_HToTauTau_M-120_8TeV-powheg-pythia6/Summer12_DR53X-PU_S10_START53_V7A-v1/AODSIM/V5_B/PAT_CMG_V5_16_0_1377467448/HTT_24Jul_newTES_manzoni_Up_Jobs/Job_41'
p285
g206
sS'VBF_HToTauTau_M-120_8TeV-powheg-pythia6/Summer12_DR53X-PU_S10_START53_V7A-v1/AODSIM/V5_B/PAT_CMG_V5_16_0_1377467448/HTT_24Jul_newTES_manzoni_Up_Jobs/Job_46'
p286
g206
sS'VBF_HToTauTau_M-120_8TeV-powheg-pythia6/Summer12_DR53X-PU_S10_START53_V7A-v1/AODSIM/V5_B/PAT_CMG_V5_16_0_1377467448/HTT_24Jul_newTES_manzoni_Up_Jobs/Job_47'
p287
g206
sS'VBF_HToTauTau_M-120_8TeV-powheg-pythia6/Summer12_DR53X-PU_S10_START53_V7A-v1/AODSIM/V5_B/PAT_CMG_V5_16_0_1377467448/HTT_24Jul_newTES_manzoni_Up_Jobs/Job_44'
p288
g206
sS'VBF_HToTauTau_M-120_8TeV-powheg-pythia6/Summer12_DR53X-PU_S10_START53_V7A-v1/AODSIM/V5_B/PAT_CMG_V5_16_0_1377467448/HTT_24Jul_newTES_manzoni_Up_Jobs/Job_45'
p289
g206
sS'VBF_HToTauTau_M-120_8TeV-powheg-pythia6/Summer12_DR53X-PU_S10_START53_V7A-v1/AODSIM/V5_B/PAT_CMG_V5_16_0_1377467448/HTT_24Jul_newTES_manzoni_Up_Jobs/Job_39'
p290
g206
sS'VBF_HToTauTau_M-120_8TeV-powheg-pythia6/Summer12_DR53X-PU_S10_START53_V7A-v1/AODSIM/V5_B/PAT_CMG_V5_16_0_1377467448/HTT_24Jul_newTES_manzoni_Up_Jobs/Job_38'
p291
g206
sS'VBF_HToTauTau_M-120_8TeV-powheg-pythia6/Summer12_DR53X-PU_S10_START53_V7A-v1/AODSIM/V5_B/PAT_CMG_V5_16_0_1377467448/HTT_24Jul_newTES_manzoni_Up_Jobs/Job_37'
p292
g206
sS'VBF_HToTauTau_M-120_8TeV-powheg-pythia6/Summer12_DR53X-PU_S10_START53_V7A-v1/AODSIM/V5_B/PAT_CMG_V5_16_0_1377467448/HTT_24Jul_newTES_manzoni_Up_Jobs/Job_36'
p293
g206
sS'VBF_HToTauTau_M-120_8TeV-powheg-pythia6/Summer12_DR53X-PU_S10_START53_V7A-v1/AODSIM/V5_B/PAT_CMG_V5_16_0_1377467448/HTT_24Jul_newTES_manzoni_Up_Jobs/Job_35'
p294
g206
sS'VBF_HToTauTau_M-120_8TeV-powheg-pythia6/Summer12_DR53X-PU_S10_START53_V7A-v1/AODSIM/V5_B/PAT_CMG_V5_16_0_1377467448/HTT_24Jul_newTES_manzoni_Up_Jobs/Job_34'
p295
g206
sS'VBF_HToTauTau_M-120_8TeV-powheg-pythia6/Summer12_DR53X-PU_S10_START53_V7A-v1/AODSIM/V5_B/PAT_CMG_V5_16_0_1377467448/HTT_24Jul_newTES_manzoni_Up_Jobs/Job_33'
p296
g206
sS'VBF_HToTauTau_M-120_8TeV-powheg-pythia6/Summer12_DR53X-PU_S10_START53_V7A-v1/AODSIM/V5_B/PAT_CMG_V5_16_0_1377467448/HTT_24Jul_newTES_manzoni_Up_Jobs/Job_32'
p297
g206
sS'VBF_HToTauTau_M-120_8TeV-powheg-pythia6/Summer12_DR53X-PU_S10_START53_V7A-v1/AODSIM/V5_B/PAT_CMG_V5_16_0_1377467448/HTT_24Jul_newTES_manzoni_Up_Jobs/Job_31'
p298
g206
sS'VBF_HToTauTau_M-120_8TeV-powheg-pythia6/Summer12_DR53X-PU_S10_START53_V7A-v1/AODSIM/V5_B/PAT_CMG_V5_16_0_1377467448/HTT_24Jul_newTES_manzoni_Up_Jobs/Job_30'
p299
g206
sS'VBF_HToTauTau_M-120_8TeV-powheg-pythia6/Summer12_DR53X-PU_S10_START53_V7A-v1/AODSIM/V5_B/PAT_CMG_V5_16_0_1377467448/HTT_24Jul_newTES_manzoni_Up_Jobs/Job_60'
p300
g206
sS'VBF_HToTauTau_M-120_8TeV-powheg-pythia6/Summer12_DR53X-PU_S10_START53_V7A-v1/AODSIM/V5_B/PAT_CMG_V5_16_0_1377467448/HTT_24Jul_newTES_manzoni_Up_Jobs/Job_61'
p301
g206
sS'VBF_HToTauTau_M-120_8TeV-powheg-pythia6/Summer12_DR53X-PU_S10_START53_V7A-v1/AODSIM/V5_B/PAT_CMG_V5_16_0_1377467448/HTT_24Jul_newTES_manzoni_Up_Jobs/Job_62'
p302
g206
sS'VBF_HToTauTau_M-120_8TeV-powheg-pythia6/Summer12_DR53X-PU_S10_START53_V7A-v1/AODSIM/V5_B/PAT_CMG_V5_16_0_1377467448/HTT_24Jul_newTES_manzoni_Up_Jobs/Job_63'
p303
g206
sS'VBF_HToTauTau_M-120_8TeV-powheg-pythia6/Summer12_DR53X-PU_S10_START53_V7A-v1/AODSIM/V5_B/PAT_CMG_V5_16_0_1377467448/HTT_24Jul_newTES_manzoni_Up_Jobs/Job_64'
p304
g206
sS'VBF_HToTauTau_M-120_8TeV-powheg-pythia6/Summer12_DR53X-PU_S10_START53_V7A-v1/AODSIM/V5_B/PAT_CMG_V5_16_0_1377467448/HTT_24Jul_newTES_manzoni_Up_Jobs/Job_65'
p305
g206
sS'VBF_HToTauTau_M-120_8TeV-powheg-pythia6/Summer12_DR53X-PU_S10_START53_V7A-v1/AODSIM/V5_B/PAT_CMG_V5_16_0_1377467448/HTT_24Jul_newTES_manzoni_Up_Jobs/Job_66'
p306
g206
sS'VBF_HToTauTau_M-120_8TeV-powheg-pythia6/Summer12_DR53X-PU_S10_START53_V7A-v1/AODSIM/V5_B/PAT_CMG_V5_16_0_1377467448/HTT_24Jul_newTES_manzoni_Up_Jobs/Job_67'
p307
g206
sS'VBF_HToTauTau_M-120_8TeV-powheg-pythia6/Summer12_DR53X-PU_S10_START53_V7A-v1/AODSIM/V5_B/PAT_CMG_V5_16_0_1377467448/HTT_24Jul_newTES_manzoni_Up_Jobs/Job_68'
p308
g206
sS'VBF_HToTauTau_M-120_8TeV-powheg-pythia6/Summer12_DR53X-PU_S10_START53_V7A-v1/AODSIM/V5_B/PAT_CMG_V5_16_0_1377467448/HTT_24Jul_newTES_manzoni_Up_Jobs/Job_69'
p309
g206
sS'VBF_HToTauTau_M-120_8TeV-powheg-pythia6/Summer12_DR53X-PU_S10_START53_V7A-v1/AODSIM/V5_B/PAT_CMG_V5_16_0_1377467448/HTT_24Jul_newTES_manzoni_Up_Jobs/Job_55'
p310
g206
sS'VBF_HToTauTau_M-120_8TeV-powheg-pythia6/Summer12_DR53X-PU_S10_START53_V7A-v1/AODSIM/V5_B/PAT_CMG_V5_16_0_1377467448/HTT_24Jul_newTES_manzoni_Up_Jobs/Job_54'
p311
g206
sS'VBF_HToTauTau_M-120_8TeV-powheg-pythia6/Summer12_DR53X-PU_S10_START53_V7A-v1/AODSIM/V5_B/PAT_CMG_V5_16_0_1377467448/HTT_24Jul_newTES_manzoni_Up_Jobs/Job_57'
p312
g206
sS'VBF_HToTauTau_M-120_8TeV-powheg-pythia6/Summer12_DR53X-PU_S10_START53_V7A-v1/AODSIM/V5_B/PAT_CMG_V5_16_0_1377467448/HTT_24Jul_newTES_manzoni_Up_Jobs/Job_56'
p313
g206
sS'VBF_HToTauTau_M-120_8TeV-powheg-pythia6/Summer12_DR53X-PU_S10_START53_V7A-v1/AODSIM/V5_B/PAT_CMG_V5_16_0_1377467448/HTT_24Jul_newTES_manzoni_Up_Jobs/Job_51'
p314
g206
sS'VBF_HToTauTau_M-120_8TeV-powheg-pythia6/Summer12_DR53X-PU_S10_START53_V7A-v1/AODSIM/V5_B/PAT_CMG_V5_16_0_1377467448/HTT_24Jul_newTES_manzoni_Up_Jobs/Job_50'
p315
g206
sS'VBF_HToTauTau_M-120_8TeV-powheg-pythia6/Summer12_DR53X-PU_S10_START53_V7A-v1/AODSIM/V5_B/PAT_CMG_V5_16_0_1377467448/HTT_24Jul_newTES_manzoni_Up_Jobs/Job_53'
p316
g206
sS'VBF_HToTauTau_M-120_8TeV-powheg-pythia6/Summer12_DR53X-PU_S10_START53_V7A-v1/AODSIM/V5_B/PAT_CMG_V5_16_0_1377467448/HTT_24Jul_newTES_manzoni_Up_Jobs/Job_52'
p317
g206
sS'VBF_HToTauTau_M-120_8TeV-powheg-pythia6/Summer12_DR53X-PU_S10_START53_V7A-v1/AODSIM/V5_B/PAT_CMG_V5_16_0_1377467448/HTT_24Jul_newTES_manzoni_Up_Jobs/Job_59'
p318
g206
sS'VBF_HToTauTau_M-120_8TeV-powheg-pythia6/Summer12_DR53X-PU_S10_START53_V7A-v1/AODSIM/V5_B/PAT_CMG_V5_16_0_1377467448/HTT_24Jul_newTES_manzoni_Up_Jobs/Job_58'
p319
g206
sssS'CheckDatasetExists'
p320
(dp321
S'Dataset'
p322
S'/VBF_HToTauTau_M-120_8TeV-powheg-pythia6/Summer12_DR53X-PU_S10_START53_V7A-v1/AODSIM/V5_B/PAT_CMG_V5_16_0'
p323
ssS'GenerateMask'
p324
(dp325
g3
(dp326
VPathList
p327
(lp328
V/store/cmst3/user/cmgtools/CMG/VBF_HToTauTau_M-120_8TeV-powheg-pythia6/Summer12_DR53X-PU_S10_START53_V7A-v1/AODSIM/V5_B/PAT_CMG_V5_16_0
p329
asVStageHost
p330
Vcastorcms
p331
sVPrimaryDatasetFraction
p332
F0.99126083748866323
sVFilesGood
p333
I450
sVPrimaryDatasetEntries
p334
I4799659
sVReportVersion
p335
I3
sVFiles
p336
(dp337
V/store/cmst3/user/cmgtools/CMG/VBF_HToTauTau_M-120_8TeV-powheg-pythia6/Summer12_DR53X-PU_S10_START53_V7A-v1/AODSIM/V5_B/PAT_CMG_V5_16_0/cmgTuple_319.root
p338
(lp339
I01
aI12287
asV/store/cmst3/user/cmgtools/CMG/VBF_HToTauTau_M-120_8TeV-powheg-pythia6/Summer12_DR53X-PU_S10_START53_V7A-v1/AODSIM/V5_B/PAT_CMG_V5_16_0/cmgTuple_128.root
p340
(lp341
I01
aI8989
asV/store/cmst3/user/cmgtools/CMG/VBF_HToTauTau_M-120_8TeV-powheg-pythia6/Summer12_DR53X-PU_S10_START53_V7A-v1/AODSIM/V5_B/PAT_CMG_V5_16_0/cmgTuple_429.root
p342
(lp343
I01
aI8989
asV/store/cmst3/user/cmgtools/CMG/VBF_HToTauTau_M-120_8TeV-powheg-pythia6/Summer12_DR53X-PU_S10_START53_V7A-v1/AODSIM/V5_B/PAT_CMG_V5_16_0/cmgTuple_185.root
p344
(lp345
I01
aI11387
asV/store/cmst3/user/cmgtools/CMG/VBF_HToTauTau_M-120_8TeV-powheg-pythia6/Summer12_DR53X-PU_S10_START53_V7A-v1/AODSIM/V5_B/PAT_CMG_V5_16_0/cmgTuple_131.root
p346
(lp347
I01
aI7187
asV/store/cmst3/user/cmgtools/CMG/VBF_HToTauTau_M-120_8TeV-powheg-pythia6/Summer12_DR53X-PU_S10_START53_V7A-v1/AODSIM/V5_B/PAT_CMG_V5_16_0/cmgTuple_61.root
p348
(lp349
I01
aI10487
asV/store/cmst3/user/cmgtools/CMG/VBF_HToTauTau_M-120_8TeV-powheg-pythia6/Summer12_DR53X-PU_S10_START53_V7A-v1/AODSIM/V5_B/PAT_CMG_V5_16_0/cmgTuple_304.root
p350
(lp351
I01
aI10789
asV/store/cmst3/user/cmgtools/CMG/VBF_HToTauTau_M-120_8TeV-powheg-pythia6/Summer12_DR53X-PU_S10_START53_V7A-v1/AODSIM/V5_B/PAT_CMG_V5_16_0/cmgTuple_417.root
p352
(lp353
I01
aI11984
asV/store/cmst3/user/cmgtools/CMG/VBF_HToTauTau_M-120_8TeV-powheg-pythia6/Summer12_DR53X-PU_S10_START53_V7A-v1/AODSIM/V5_B/PAT_CMG_V5_16_0/cmgTuple_397.root
p354
(lp355
I01
aI8988
asV/store/cmst3/user/cmgtools/CMG/VBF_HToTauTau_M-120_8TeV-powheg-pythia6/Summer12_DR53X-PU_S10_START53_V7A-v1/AODSIM/V5_B/PAT_CMG_V5_16_0/cmgTuple_184.root
p356
(lp357
I01
aI10790
asV/store/cmst3/user/cmgtools/CMG/VBF_HToTauTau_M-120_8TeV-powheg-pythia6/Summer12_DR53X-PU_S10_START53_V7A-v1/AODSIM/V5_B/PAT_CMG_V5_16_0/cmgTuple_402.root
p358
(lp359
I01
aI10785
asV/store/cmst3/user/cmgtools/CMG/VBF_HToTauTau_M-120_8TeV-powheg-pythia6/Summer12_DR53X-PU_S10_START53_V7A-v1/AODSIM/V5_B/PAT_CMG_V5_16_0/cmgTuple_108.root
p360
(lp361
I01
aI10787
asV/store/cmst3/user/cmgtools/CMG/VBF_HToTauTau_M-120_8TeV-powheg-pythia6/Summer12_DR53X-PU_S10_START53_V7A-v1/AODSIM/V5_B/PAT_CMG_V5_16_0/cmgTuple_367.root
p362
(lp363
I01
aI7191
asV/store/cmst3/user/cmgtools/CMG/VBF_HToTauTau_M-120_8TeV-powheg-pythia6/Summer12_DR53X-PU_S10_START53_V7A-v1/AODSIM/V5_B/PAT_CMG_V5_16_0/cmgTuple_13.root
p364
(lp365
I01
aI10792
asV/store/cmst3/user/cmgtools/CMG/VBF_HToTauTau_M-120_8TeV-powheg-pythia6/Summer12_DR53X-PU_S10_START53_V7A-v1/AODSIM/V5_B/PAT_CMG_V5_16_0/cmgTuple_7.root
p366
(lp367
I01
aI12584
asV/store/cmst3/user/cmgtools/CMG/VBF_HToTauTau_M-120_8TeV-powheg-pythia6/Summer12_DR53X-PU_S10_START53_V7A-v1/AODSIM/V5_B/PAT_CMG_V5_16_0/cmgTuple_149.root
p368
(lp369
I01
aI10787
asV/store/cmst3/user/cmgtools/CMG/VBF_HToTauTau_M-120_8TeV-powheg-pythia6/Summer12_DR53X-PU_S10_START53_V7A-v1/AODSIM/V5_B/PAT_CMG_V5_16_0/cmgTuple_386.root
p370
(lp371
I01
aI10489
asV/store/cmst3/user/cmgtools/CMG/VBF_HToTauTau_M-120_8TeV-powheg-pythia6/Summer12_DR53X-PU_S10_START53_V7A-v1/AODSIM/V5_B/PAT_CMG_V5_16_0/cmgTuple_251.root
p372
(lp373
I01
aI10791
asV/store/cmst3/user/cmgtools/CMG/VBF_HToTauTau_M-120_8TeV-powheg-pythia6/Summer12_DR53X-PU_S10_START53_V7A-v1/AODSIM/V5_B/PAT_CMG_V5_16_0/cmgTuple_366.root
p374
(lp375
I01
aI7196
asV/store/cmst3/user/cmgtools/CMG/VBF_HToTauTau_M-120_8TeV-powheg-pythia6/Summer12_DR53X-PU_S10_START53_V7A-v1/AODSIM/V5_B/PAT_CMG_V5_16_0/cmgTuple_173.root
p376
(lp377
I01
aI11687
asV/store/cmst3/user/cmgtools/CMG/VBF_HToTauTau_M-120_8TeV-powheg-pythia6/Summer12_DR53X-PU_S10_START53_V7A-v1/AODSIM/V5_B/PAT_CMG_V5_16_0/cmgTuple_378.root
p378
(lp379
I01
aI10791
asV/store/cmst3/user/cmgtools/CMG/VBF_HToTauTau_M-120_8TeV-powheg-pythia6/Summer12_DR53X-PU_S10_START53_V7A-v1/AODSIM/V5_B/PAT_CMG_V5_16_0/cmgTuple_46.root
p380
(lp381
I01
aI10788
asV/store/cmst3/user/cmgtools/CMG/VBF_HToTauTau_M-120_8TeV-powheg-pythia6/Summer12_DR53X-PU_S10_START53_V7A-v1/AODSIM/V5_B/PAT_CMG_V5_16_0/cmgTuple_57.root
p382
(lp383
I01
aI10779
asV/store/cmst3/user/cmgtools/CMG/VBF_HToTauTau_M-120_8TeV-powheg-pythia6/Summer12_DR53X-PU_S10_START53_V7A-v1/AODSIM/V5_B/PAT_CMG_V5_16_0/cmgTuple_289.root
p384
(lp385
I01
aI6890
asV/store/cmst3/user/cmgtools/CMG/VBF_HToTauTau_M-120_8TeV-powheg-pythia6/Summer12_DR53X-PU_S10_START53_V7A-v1/AODSIM/V5_B/PAT_CMG_V5_16_0/cmgTuple_370.root
p386
(lp387
I01
aI10781
asV/store/cmst3/user/cmgtools/CMG/VBF_HToTauTau_M-120_8TeV-powheg-pythia6/Summer12_DR53X-PU_S10_START53_V7A-v1/AODSIM/V5_B/PAT_CMG_V5_16_0/cmgTuple_193.root
p388
(lp389
I01
aI11986
asV/store/cmst3/user/cmgtools/CMG/VBF_HToTauTau_M-120_8TeV-powheg-pythia6/Summer12_DR53X-PU_S10_START53_V7A-v1/AODSIM/V5_B/PAT_CMG_V5_16_0/cmgTuple_86.root
p390
(lp391
I01
aI11983
asV/store/cmst3/user/cmgtools/CMG/VBF_HToTauTau_M-120_8TeV-powheg-pythia6/Summer12_DR53X-PU_S10_START53_V7A-v1/AODSIM/V5_B/PAT_CMG_V5_16_0/cmgTuple_436.root
p392
(lp393
I01
aI11384
asV/store/cmst3/user/cmgtools/CMG/VBF_HToTauTau_M-120_8TeV-powheg-pythia6/Summer12_DR53X-PU_S10_START53_V7A-v1/AODSIM/V5_B/PAT_CMG_V5_16_0/cmgTuple_276.root
p394
(lp395
I01
aI10784
asV/store/cmst3/user/cmgtools/CMG/VBF_HToTauTau_M-120_8TeV-powheg-pythia6/Summer12_DR53X-PU_S10_START53_V7A-v1/AODSIM/V5_B/PAT_CMG_V5_16_0/cmgTuple_358.root
p396
(lp397
I01
aI10791
asV/store/cmst3/user/cmgtools/CMG/VBF_HToTauTau_M-120_8TeV-powheg-pythia6/Summer12_DR53X-PU_S10_START53_V7A-v1/AODSIM/V5_B/PAT_CMG_V5_16_0/cmgTuple_87.root
p398
(lp399
I01
aI12287
asV/store/cmst3/user/cmgtools/CMG/VBF_HToTauTau_M-120_8TeV-powheg-pythia6/Summer12_DR53X-PU_S10_START53_V7A-v1/AODSIM/V5_B/PAT_CMG_V5_16_0/cmgTuple_137.root
p400
(lp401
I01
aI12585
asV/store/cmst3/user/cmgtools/CMG/VBF_HToTauTau_M-120_8TeV-powheg-pythia6/Summer12_DR53X-PU_S10_START53_V7A-v1/AODSIM/V5_B/PAT_CMG_V5_16_0/cmgTuple_33.root
p402
(lp403
I01
aI11091
asV/store/cmst3/user/cmgtools/CMG/VBF_HToTauTau_M-120_8TeV-powheg-pythia6/Summer12_DR53X-PU_S10_START53_V7A-v1/AODSIM/V5_B/PAT_CMG_V5_16_0/cmgTuple_29.root
p404
(lp405
I01
aI11680
asV/store/cmst3/user/cmgtools/CMG/VBF_HToTauTau_M-120_8TeV-powheg-pythia6/Summer12_DR53X-PU_S10_START53_V7A-v1/AODSIM/V5_B/PAT_CMG_V5_16_0/cmgTuple_379.root
p406
(lp407
I01
aI11982
asV/store/cmst3/user/cmgtools/CMG/VBF_HToTauTau_M-120_8TeV-powheg-pythia6/Summer12_DR53X-PU_S10_START53_V7A-v1/AODSIM/V5_B/PAT_CMG_V5_16_0/cmgTuple_8.root
p408
(lp409
I01
aI7192
asV/store/cmst3/user/cmgtools/CMG/VBF_HToTauTau_M-120_8TeV-powheg-pythia6/Summer12_DR53X-PU_S10_START53_V7A-v1/AODSIM/V5_B/PAT_CMG_V5_16_0/cmgTuple_126.root
p410
(lp411
I01
aI11686
asV/store/cmst3/user/cmgtools/CMG/VBF_HToTauTau_M-120_8TeV-powheg-pythia6/Summer12_DR53X-PU_S10_START53_V7A-v1/AODSIM/V5_B/PAT_CMG_V5_16_0/cmgTuple_347.root
p412
(lp413
I01
aI10794
asV/store/cmst3/user/cmgtools/CMG/VBF_HToTauTau_M-120_8TeV-powheg-pythia6/Summer12_DR53X-PU_S10_START53_V7A-v1/AODSIM/V5_B/PAT_CMG_V5_16_0/cmgTuple_97.root
p414
(lp415
I01
aI10789
asV/store/cmst3/user/cmgtools/CMG/VBF_HToTauTau_M-120_8TeV-powheg-pythia6/Summer12_DR53X-PU_S10_START53_V7A-v1/AODSIM/V5_B/PAT_CMG_V5_16_0/cmgTuple_384.root
p416
(lp417
I01
aI11087
asV/store/cmst3/user/cmgtools/CMG/VBF_HToTauTau_M-120_8TeV-powheg-pythia6/Summer12_DR53X-PU_S10_START53_V7A-v1/AODSIM/V5_B/PAT_CMG_V5_16_0/cmgTuple_240.root
p418
(lp419
I01
aI12282
asV/store/cmst3/user/cmgtools/CMG/VBF_HToTauTau_M-120_8TeV-powheg-pythia6/Summer12_DR53X-PU_S10_START53_V7A-v1/AODSIM/V5_B/PAT_CMG_V5_16_0/cmgTuple_383.root
p420
(lp421
I01
aI10785
asV/store/cmst3/user/cmgtools/CMG/VBF_HToTauTau_M-120_8TeV-powheg-pythia6/Summer12_DR53X-PU_S10_START53_V7A-v1/AODSIM/V5_B/PAT_CMG_V5_16_0/cmgTuple_21.root
p422
(lp423
I01
aI8992
asV/store/cmst3/user/cmgtools/CMG/VBF_HToTauTau_M-120_8TeV-powheg-pythia6/Summer12_DR53X-PU_S10_START53_V7A-v1/AODSIM/V5_B/PAT_CMG_V5_16_0/cmgTuple_221.root
p424
(lp425
I01
aI11885
asV/store/cmst3/user/cmgtools/CMG/VBF_HToTauTau_M-120_8TeV-powheg-pythia6/Summer12_DR53X-PU_S10_START53_V7A-v1/AODSIM/V5_B/PAT_CMG_V5_16_0/cmgTuple_441.root
p426
(lp427
I01
aI12578
asV/store/cmst3/user/cmgtools/CMG/VBF_HToTauTau_M-120_8TeV-powheg-pythia6/Summer12_DR53X-PU_S10_START53_V7A-v1/AODSIM/V5_B/PAT_CMG_V5_16_0/cmgTuple_392.root
p428
(lp429
I01
aI10790
asV/store/cmst3/user/cmgtools/CMG/VBF_HToTauTau_M-120_8TeV-powheg-pythia6/Summer12_DR53X-PU_S10_START53_V7A-v1/AODSIM/V5_B/PAT_CMG_V5_16_0/cmgTuple_410.root
p430
(lp431
I01
aI12576
asV/store/cmst3/user/cmgtools/CMG/VBF_HToTauTau_M-120_8TeV-powheg-pythia6/Summer12_DR53X-PU_S10_START53_V7A-v1/AODSIM/V5_B/PAT_CMG_V5_16_0/cmgTuple_387.root
p432
(lp433
I01
aI10787
asV/store/cmst3/user/cmgtools/CMG/VBF_HToTauTau_M-120_8TeV-powheg-pythia6/Summer12_DR53X-PU_S10_START53_V7A-v1/AODSIM/V5_B/PAT_CMG_V5_16_0/cmgTuple_135.root
p434
(lp435
I01
aI12580
asV/store/cmst3/user/cmgtools/CMG/VBF_HToTauTau_M-120_8TeV-powheg-pythia6/Summer12_DR53X-PU_S10_START53_V7A-v1/AODSIM/V5_B/PAT_CMG_V5_16_0/cmgTuple_146.root
p436
(lp437
I01
aI11983
asV/store/cmst3/user/cmgtools/CMG/VBF_HToTauTau_M-120_8TeV-powheg-pythia6/Summer12_DR53X-PU_S10_START53_V7A-v1/AODSIM/V5_B/PAT_CMG_V5_16_0/cmgTuple_211.root
p438
(lp439
I01
aI11988
asV/store/cmst3/user/cmgtools/CMG/VBF_HToTauTau_M-120_8TeV-powheg-pythia6/Summer12_DR53X-PU_S10_START53_V7A-v1/AODSIM/V5_B/PAT_CMG_V5_16_0/cmgTuple_334.root
p440
(lp441
I01
aI7191
asV/store/cmst3/user/cmgtools/CMG/VBF_HToTauTau_M-120_8TeV-powheg-pythia6/Summer12_DR53X-PU_S10_START53_V7A-v1/AODSIM/V5_B/PAT_CMG_V5_16_0/cmgTuple_329.root
p442
(lp443
I01
aI12586
asV/store/cmst3/user/cmgtools/CMG/VBF_HToTauTau_M-120_8TeV-powheg-pythia6/Summer12_DR53X-PU_S10_START53_V7A-v1/AODSIM/V5_B/PAT_CMG_V5_16_0/cmgTuple_73.root
p444
(lp445
I01
aI10689
asV/store/cmst3/user/cmgtools/CMG/VBF_HToTauTau_M-120_8TeV-powheg-pythia6/Summer12_DR53X-PU_S10_START53_V7A-v1/AODSIM/V5_B/PAT_CMG_V5_16_0/cmgTuple_388.root
p446
(lp447
I01
aI7192
asV/store/cmst3/user/cmgtools/CMG/VBF_HToTauTau_M-120_8TeV-powheg-pythia6/Summer12_DR53X-PU_S10_START53_V7A-v1/AODSIM/V5_B/PAT_CMG_V5_16_0/cmgTuple_440.root
p448
(lp449
I01
aI12284
asV/store/cmst3/user/cmgtools/CMG/VBF_HToTauTau_M-120_8TeV-powheg-pythia6/Summer12_DR53X-PU_S10_START53_V7A-v1/AODSIM/V5_B/PAT_CMG_V5_16_0/cmgTuple_263.root
p450
(lp451
I01
aI12587
asV/store/cmst3/user/cmgtools/CMG/VBF_HToTauTau_M-120_8TeV-powheg-pythia6/Summer12_DR53X-PU_S10_START53_V7A-v1/AODSIM/V5_B/PAT_CMG_V5_16_0/cmgTuple_264.root
p452
(lp453
I01
aI10789
asV/store/cmst3/user/cmgtools/CMG/VBF_HToTauTau_M-120_8TeV-powheg-pythia6/Summer12_DR53X-PU_S10_START53_V7A-v1/AODSIM/V5_B/PAT_CMG_V5_16_0/cmgTuple_346.root
p454
(lp455
I01
aI6588
asV/store/cmst3/user/cmgtools/CMG/VBF_HToTauTau_M-120_8TeV-powheg-pythia6/Summer12_DR53X-PU_S10_START53_V7A-v1/AODSIM/V5_B/PAT_CMG_V5_16_0/cmgTuple_430.root
p456
(lp457
I01
aI12286
asV/store/cmst3/user/cmgtools/CMG/VBF_HToTauTau_M-120_8TeV-powheg-pythia6/Summer12_DR53X-PU_S10_START53_V7A-v1/AODSIM/V5_B/PAT_CMG_V5_16_0/cmgTuple_138.root
p458
(lp459
I01
aI10791
asV/store/cmst3/user/cmgtools/CMG/VBF_HToTauTau_M-120_8TeV-powheg-pythia6/Summer12_DR53X-PU_S10_START53_V7A-v1/AODSIM/V5_B/PAT_CMG_V5_16_0/cmgTuple_75.root
p460
(lp461
I01
aI7193
asV/store/cmst3/user/cmgtools/CMG/VBF_HToTauTau_M-120_8TeV-powheg-pythia6/Summer12_DR53X-PU_S10_START53_V7A-v1/AODSIM/V5_B/PAT_CMG_V5_16_0/cmgTuple_90.root
p462
(lp463
I01
aI12288
asV/store/cmst3/user/cmgtools/CMG/VBF_HToTauTau_M-120_8TeV-powheg-pythia6/Summer12_DR53X-PU_S10_START53_V7A-v1/AODSIM/V5_B/PAT_CMG_V5_16_0/cmgTuple_147.root
p464
(lp465
I01
aI11986
asV/store/cmst3/user/cmgtools/CMG/VBF_HToTauTau_M-120_8TeV-powheg-pythia6/Summer12_DR53X-PU_S10_START53_V7A-v1/AODSIM/V5_B/PAT_CMG_V5_16_0/cmgTuple_58.root
p466
(lp467
I01
aI8991
asV/store/cmst3/user/cmgtools/CMG/VBF_HToTauTau_M-120_8TeV-powheg-pythia6/Summer12_DR53X-PU_S10_START53_V7A-v1/AODSIM/V5_B/PAT_CMG_V5_16_0/cmgTuple_254.root
p468
(lp469
I01
aI12585
asV/store/cmst3/user/cmgtools/CMG/VBF_HToTauTau_M-120_8TeV-powheg-pythia6/Summer12_DR53X-PU_S10_START53_V7A-v1/AODSIM/V5_B/PAT_CMG_V5_16_0/cmgTuple_323.root
p470
(lp471
I01
aI11385
asV/store/cmst3/user/cmgtools/CMG/VBF_HToTauTau_M-120_8TeV-powheg-pythia6/Summer12_DR53X-PU_S10_START53_V7A-v1/AODSIM/V5_B/PAT_CMG_V5_16_0/cmgTuple_60.root
p472
(lp473
I01
aI7191
asV/store/cmst3/user/cmgtools/CMG/VBF_HToTauTau_M-120_8TeV-powheg-pythia6/Summer12_DR53X-PU_S10_START53_V7A-v1/AODSIM/V5_B/PAT_CMG_V5_16_0/cmgTuple_403.root
p474
(lp475
I01
aI10489
asV/store/cmst3/user/cmgtools/CMG/VBF_HToTauTau_M-120_8TeV-powheg-pythia6/Summer12_DR53X-PU_S10_START53_V7A-v1/AODSIM/V5_B/PAT_CMG_V5_16_0/cmgTuple_258.root
p476
(lp477
I01
aI12588
asV/store/cmst3/user/cmgtools/CMG/VBF_HToTauTau_M-120_8TeV-powheg-pythia6/Summer12_DR53X-PU_S10_START53_V7A-v1/AODSIM/V5_B/PAT_CMG_V5_16_0/cmgTuple_125.root
p478
(lp479
I01
aI3598
asV/store/cmst3/user/cmgtools/CMG/VBF_HToTauTau_M-120_8TeV-powheg-pythia6/Summer12_DR53X-PU_S10_START53_V7A-v1/AODSIM/V5_B/PAT_CMG_V5_16_0/cmgTuple_166.root
p480
(lp481
I01
aI12587
asV/store/cmst3/user/cmgtools/CMG/VBF_HToTauTau_M-120_8TeV-powheg-pythia6/Summer12_DR53X-PU_S10_START53_V7A-v1/AODSIM/V5_B/PAT_CMG_V5_16_0/cmgTuple_393.root
p482
(lp483
I01
aI11987
asV/store/cmst3/user/cmgtools/CMG/VBF_HToTauTau_M-120_8TeV-powheg-pythia6/Summer12_DR53X-PU_S10_START53_V7A-v1/AODSIM/V5_B/PAT_CMG_V5_16_0/cmgTuple_68.root
p484
(lp485
I01
aI8987
asV/store/cmst3/user/cmgtools/CMG/VBF_HToTauTau_M-120_8TeV-powheg-pythia6/Summer12_DR53X-PU_S10_START53_V7A-v1/AODSIM/V5_B/PAT_CMG_V5_16_0/cmgTuple_195.root
p486
(lp487
I01
aI10790
asV/store/cmst3/user/cmgtools/CMG/VBF_HToTauTau_M-120_8TeV-powheg-pythia6/Summer12_DR53X-PU_S10_START53_V7A-v1/AODSIM/V5_B/PAT_CMG_V5_16_0/cmgTuple_81.root
p488
(lp489
I01
aI10791
asV/store/cmst3/user/cmgtools/CMG/VBF_HToTauTau_M-120_8TeV-powheg-pythia6/Summer12_DR53X-PU_S10_START53_V7A-v1/AODSIM/V5_B/PAT_CMG_V5_16_0/cmgTuple_363.root
p490
(lp491
I01
aI11384
asV/store/cmst3/user/cmgtools/CMG/VBF_HToTauTau_M-120_8TeV-powheg-pythia6/Summer12_DR53X-PU_S10_START53_V7A-v1/AODSIM/V5_B/PAT_CMG_V5_16_0/cmgTuple_48.root
p492
(lp493
I01
aI10782
asV/store/cmst3/user/cmgtools/CMG/VBF_HToTauTau_M-120_8TeV-powheg-pythia6/Summer12_DR53X-PU_S10_START53_V7A-v1/AODSIM/V5_B/PAT_CMG_V5_16_0/cmgTuple_123.root
p494
(lp495
I01
aI10788
asV/store/cmst3/user/cmgtools/CMG/VBF_HToTauTau_M-120_8TeV-powheg-pythia6/Summer12_DR53X-PU_S10_START53_V7A-v1/AODSIM/V5_B/PAT_CMG_V5_16_0/cmgTuple_148.root
p496
(lp497
I01
aI11985
asV/store/cmst3/user/cmgtools/CMG/VBF_HToTauTau_M-120_8TeV-powheg-pythia6/Summer12_DR53X-PU_S10_START53_V7A-v1/AODSIM/V5_B/PAT_CMG_V5_16_0/cmgTuple_227.root
p498
(lp499
I01
aI11986
asV/store/cmst3/user/cmgtools/CMG/VBF_HToTauTau_M-120_8TeV-powheg-pythia6/Summer12_DR53X-PU_S10_START53_V7A-v1/AODSIM/V5_B/PAT_CMG_V5_16_0/cmgTuple_217.root
p500
(lp501
I01
aI8992
asV/store/cmst3/user/cmgtools/CMG/VBF_HToTauTau_M-120_8TeV-powheg-pythia6/Summer12_DR53X-PU_S10_START53_V7A-v1/AODSIM/V5_B/PAT_CMG_V5_16_0/cmgTuple_325.root
p502
(lp503
I01
aI10783
asV/store/cmst3/user/cmgtools/CMG/VBF_HToTauTau_M-120_8TeV-powheg-pythia6/Summer12_DR53X-PU_S10_START53_V7A-v1/AODSIM/V5_B/PAT_CMG_V5_16_0/cmgTuple_391.root
p504
(lp505
I01
aI10784
asV/store/cmst3/user/cmgtools/CMG/VBF_HToTauTau_M-120_8TeV-powheg-pythia6/Summer12_DR53X-PU_S10_START53_V7A-v1/AODSIM/V5_B/PAT_CMG_V5_16_0/cmgTuple_45.root
p506
(lp507
I01
aI12584
asV/store/cmst3/user/cmgtools/CMG/VBF_HToTauTau_M-120_8TeV-powheg-pythia6/Summer12_DR53X-PU_S10_START53_V7A-v1/AODSIM/V5_B/PAT_CMG_V5_16_0/cmgTuple_132.root
p508
(lp509
I01
aI10788
asV/store/cmst3/user/cmgtools/CMG/VBF_HToTauTau_M-120_8TeV-powheg-pythia6/Summer12_DR53X-PU_S10_START53_V7A-v1/AODSIM/V5_B/PAT_CMG_V5_16_0/cmgTuple_295.root
p510
(lp511
I01
aI10784
asV/store/cmst3/user/cmgtools/CMG/VBF_HToTauTau_M-120_8TeV-powheg-pythia6/Summer12_DR53X-PU_S10_START53_V7A-v1/AODSIM/V5_B/PAT_CMG_V5_16_0/cmgTuple_194.root
p512
(lp513
I01
aI7194
asV/store/cmst3/user/cmgtools/CMG/VBF_HToTauTau_M-120_8TeV-powheg-pythia6/Summer12_DR53X-PU_S10_START53_V7A-v1/AODSIM/V5_B/PAT_CMG_V5_16_0/cmgTuple_275.root
p514
(lp515
I01
aI7191
asV/store/cmst3/user/cmgtools/CMG/VBF_HToTauTau_M-120_8TeV-powheg-pythia6/Summer12_DR53X-PU_S10_START53_V7A-v1/AODSIM/V5_B/PAT_CMG_V5_16_0/cmgTuple_155.root
p516
(lp517
I01
aI11389
asV/store/cmst3/user/cmgtools/CMG/VBF_HToTauTau_M-120_8TeV-powheg-pythia6/Summer12_DR53X-PU_S10_START53_V7A-v1/AODSIM/V5_B/PAT_CMG_V5_16_0/cmgTuple_70.root
p518
(lp519
I01
aI10788
asV/store/cmst3/user/cmgtools/CMG/VBF_HToTauTau_M-120_8TeV-powheg-pythia6/Summer12_DR53X-PU_S10_START53_V7A-v1/AODSIM/V5_B/PAT_CMG_V5_16_0/cmgTuple_359.root
p520
(lp521
I01
aI10788
asV/store/cmst3/user/cmgtools/CMG/VBF_HToTauTau_M-120_8TeV-powheg-pythia6/Summer12_DR53X-PU_S10_START53_V7A-v1/AODSIM/V5_B/PAT_CMG_V5_16_0/cmgTuple_443.root
p522
(lp523
I01
aI8984
asV/store/cmst3/user/cmgtools/CMG/VBF_HToTauTau_M-120_8TeV-powheg-pythia6/Summer12_DR53X-PU_S10_START53_V7A-v1/AODSIM/V5_B/PAT_CMG_V5_16_0/cmgTuple_324.root
p524
(lp525
I01
aI10792
asV/store/cmst3/user/cmgtools/CMG/VBF_HToTauTau_M-120_8TeV-powheg-pythia6/Summer12_DR53X-PU_S10_START53_V7A-v1/AODSIM/V5_B/PAT_CMG_V5_16_0/cmgTuple_144.root
p526
(lp527
I01
aI10782
asV/store/cmst3/user/cmgtools/CMG/VBF_HToTauTau_M-120_8TeV-powheg-pythia6/Summer12_DR53X-PU_S10_START53_V7A-v1/AODSIM/V5_B/PAT_CMG_V5_16_0/cmgTuple_273.root
p528
(lp529
I01
aI12593
asV/store/cmst3/user/cmgtools/CMG/VBF_HToTauTau_M-120_8TeV-powheg-pythia6/Summer12_DR53X-PU_S10_START53_V7A-v1/AODSIM/V5_B/PAT_CMG_V5_16_0/cmgTuple_252.root
p530
(lp531
I01
aI7492
asV/store/cmst3/user/cmgtools/CMG/VBF_HToTauTau_M-120_8TeV-powheg-pythia6/Summer12_DR53X-PU_S10_START53_V7A-v1/AODSIM/V5_B/PAT_CMG_V5_16_0/cmgTuple_63.root
p532
(lp533
I01
aI10490
asV/store/cmst3/user/cmgtools/CMG/VBF_HToTauTau_M-120_8TeV-powheg-pythia6/Summer12_DR53X-PU_S10_START53_V7A-v1/AODSIM/V5_B/PAT_CMG_V5_16_0/cmgTuple_262.root
p534
(lp535
I01
aI12485
asV/store/cmst3/user/cmgtools/CMG/VBF_HToTauTau_M-120_8TeV-powheg-pythia6/Summer12_DR53X-PU_S10_START53_V7A-v1/AODSIM/V5_B/PAT_CMG_V5_16_0/cmgTuple_365.root
p536
(lp537
I01
aI12580
asV/store/cmst3/user/cmgtools/CMG/VBF_HToTauTau_M-120_8TeV-powheg-pythia6/Summer12_DR53X-PU_S10_START53_V7A-v1/AODSIM/V5_B/PAT_CMG_V5_16_0/cmgTuple_41.root
p538
(lp539
I01
aI12284
asV/store/cmst3/user/cmgtools/CMG/VBF_HToTauTau_M-120_8TeV-powheg-pythia6/Summer12_DR53X-PU_S10_START53_V7A-v1/AODSIM/V5_B/PAT_CMG_V5_16_0/cmgTuple_261.root
p540
(lp541
I01
aI11981
asV/store/cmst3/user/cmgtools/CMG/VBF_HToTauTau_M-120_8TeV-powheg-pythia6/Summer12_DR53X-PU_S10_START53_V7A-v1/AODSIM/V5_B/PAT_CMG_V5_16_0/cmgTuple_163.root
p542
(lp543
I01
aI10790
asV/store/cmst3/user/cmgtools/CMG/VBF_HToTauTau_M-120_8TeV-powheg-pythia6/Summer12_DR53X-PU_S10_START53_V7A-v1/AODSIM/V5_B/PAT_CMG_V5_16_0/cmgTuple_133.root
p544
(lp545
I01
aI10782
asV/store/cmst3/user/cmgtools/CMG/VBF_HToTauTau_M-120_8TeV-powheg-pythia6/Summer12_DR53X-PU_S10_START53_V7A-v1/AODSIM/V5_B/PAT_CMG_V5_16_0/cmgTuple_103.root
p546
(lp547
I01
aI12285
asV/store/cmst3/user/cmgtools/CMG/VBF_HToTauTau_M-120_8TeV-powheg-pythia6/Summer12_DR53X-PU_S10_START53_V7A-v1/AODSIM/V5_B/PAT_CMG_V5_16_0/cmgTuple_360.root
p548
(lp549
I01
aI10790
asV/store/cmst3/user/cmgtools/CMG/VBF_HToTauTau_M-120_8TeV-powheg-pythia6/Summer12_DR53X-PU_S10_START53_V7A-v1/AODSIM/V5_B/PAT_CMG_V5_16_0/cmgTuple_153.root
p550
(lp551
I01
aI10787
asV/store/cmst3/user/cmgtools/CMG/VBF_HToTauTau_M-120_8TeV-powheg-pythia6/Summer12_DR53X-PU_S10_START53_V7A-v1/AODSIM/V5_B/PAT_CMG_V5_16_0/cmgTuple_411.root
p552
(lp553
I01
aI11986
asV/store/cmst3/user/cmgtools/CMG/VBF_HToTauTau_M-120_8TeV-powheg-pythia6/Summer12_DR53X-PU_S10_START53_V7A-v1/AODSIM/V5_B/PAT_CMG_V5_16_0/cmgTuple_31.root
p554
(lp555
I01
aI12288
asV/store/cmst3/user/cmgtools/CMG/VBF_HToTauTau_M-120_8TeV-powheg-pythia6/Summer12_DR53X-PU_S10_START53_V7A-v1/AODSIM/V5_B/PAT_CMG_V5_16_0/cmgTuple_47.root
p556
(lp557
I01
aI7187
asV/store/cmst3/user/cmgtools/CMG/VBF_HToTauTau_M-120_8TeV-powheg-pythia6/Summer12_DR53X-PU_S10_START53_V7A-v1/AODSIM/V5_B/PAT_CMG_V5_16_0/cmgTuple_210.root
p558
(lp559
I01
aI8990
asV/store/cmst3/user/cmgtools/CMG/VBF_HToTauTau_M-120_8TeV-powheg-pythia6/Summer12_DR53X-PU_S10_START53_V7A-v1/AODSIM/V5_B/PAT_CMG_V5_16_0/cmgTuple_297.root
p560
(lp561
I01
aI10796
asV/store/cmst3/user/cmgtools/CMG/VBF_HToTauTau_M-120_8TeV-powheg-pythia6/Summer12_DR53X-PU_S10_START53_V7A-v1/AODSIM/V5_B/PAT_CMG_V5_16_0/cmgTuple_338.root
p562
(lp563
I01
aI10782
asV/store/cmst3/user/cmgtools/CMG/VBF_HToTauTau_M-120_8TeV-powheg-pythia6/Summer12_DR53X-PU_S10_START53_V7A-v1/AODSIM/V5_B/PAT_CMG_V5_16_0/cmgTuple_54.root
p564
(lp565
I01
aI6890
asV/store/cmst3/user/cmgtools/CMG/VBF_HToTauTau_M-120_8TeV-powheg-pythia6/Summer12_DR53X-PU_S10_START53_V7A-v1/AODSIM/V5_B/PAT_CMG_V5_16_0/cmgTuple_220.root
p566
(lp567
I01
aI12293
asV/store/cmst3/user/cmgtools/CMG/VBF_HToTauTau_M-120_8TeV-powheg-pythia6/Summer12_DR53X-PU_S10_START53_V7A-v1/AODSIM/V5_B/PAT_CMG_V5_16_0/cmgTuple_229.root
p568
(lp569
I01
aI12581
asV/store/cmst3/user/cmgtools/CMG/VBF_HToTauTau_M-120_8TeV-powheg-pythia6/Summer12_DR53X-PU_S10_START53_V7A-v1/AODSIM/V5_B/PAT_CMG_V5_16_0/cmgTuple_318.root
p570
(lp571
I01
aI6896
asV/store/cmst3/user/cmgtools/CMG/VBF_HToTauTau_M-120_8TeV-powheg-pythia6/Summer12_DR53X-PU_S10_START53_V7A-v1/AODSIM/V5_B/PAT_CMG_V5_16_0/cmgTuple_53.root
p572
(lp573
I01
aI10781
asV/store/cmst3/user/cmgtools/CMG/VBF_HToTauTau_M-120_8TeV-powheg-pythia6/Summer12_DR53X-PU_S10_START53_V7A-v1/AODSIM/V5_B/PAT_CMG_V5_16_0/cmgTuple_290.root
p574
(lp575
I01
aI12288
asV/store/cmst3/user/cmgtools/CMG/VBF_HToTauTau_M-120_8TeV-powheg-pythia6/Summer12_DR53X-PU_S10_START53_V7A-v1/AODSIM/V5_B/PAT_CMG_V5_16_0/cmgTuple_93.root
p576
(lp577
I01
aI7188
asV/store/cmst3/user/cmgtools/CMG/VBF_HToTauTau_M-120_8TeV-powheg-pythia6/Summer12_DR53X-PU_S10_START53_V7A-v1/AODSIM/V5_B/PAT_CMG_V5_16_0/cmgTuple_19.root
p578
(lp579
I01
aI11985
asV/store/cmst3/user/cmgtools/CMG/VBF_HToTauTau_M-120_8TeV-powheg-pythia6/Summer12_DR53X-PU_S10_START53_V7A-v1/AODSIM/V5_B/PAT_CMG_V5_16_0/cmgTuple_333.root
p580
(lp581
I01
aI6896
asV/store/cmst3/user/cmgtools/CMG/VBF_HToTauTau_M-120_8TeV-powheg-pythia6/Summer12_DR53X-PU_S10_START53_V7A-v1/AODSIM/V5_B/PAT_CMG_V5_16_0/cmgTuple_283.root
p582
(lp583
I01
aI10791
asV/store/cmst3/user/cmgtools/CMG/VBF_HToTauTau_M-120_8TeV-powheg-pythia6/Summer12_DR53X-PU_S10_START53_V7A-v1/AODSIM/V5_B/PAT_CMG_V5_16_0/cmgTuple_207.root
p584
(lp585
I01
aI10786
asV/store/cmst3/user/cmgtools/CMG/VBF_HToTauTau_M-120_8TeV-powheg-pythia6/Summer12_DR53X-PU_S10_START53_V7A-v1/AODSIM/V5_B/PAT_CMG_V5_16_0/cmgTuple_190.root
p586
(lp587
I01
aI7194
asV/store/cmst3/user/cmgtools/CMG/VBF_HToTauTau_M-120_8TeV-powheg-pythia6/Summer12_DR53X-PU_S10_START53_V7A-v1/AODSIM/V5_B/PAT_CMG_V5_16_0/cmgTuple_357.root
p588
(lp589
I01
aI11993
asV/store/cmst3/user/cmgtools/CMG/VBF_HToTauTau_M-120_8TeV-powheg-pythia6/Summer12_DR53X-PU_S10_START53_V7A-v1/AODSIM/V5_B/PAT_CMG_V5_16_0/cmgTuple_95.root
p590
(lp591
I01
aI10786
asV/store/cmst3/user/cmgtools/CMG/VBF_HToTauTau_M-120_8TeV-powheg-pythia6/Summer12_DR53X-PU_S10_START53_V7A-v1/AODSIM/V5_B/PAT_CMG_V5_16_0/cmgTuple_216.root
p592
(lp593
I01
aI10787
asV/store/cmst3/user/cmgtools/CMG/VBF_HToTauTau_M-120_8TeV-powheg-pythia6/Summer12_DR53X-PU_S10_START53_V7A-v1/AODSIM/V5_B/PAT_CMG_V5_16_0/cmgTuple_206.root
p594
(lp595
I01
aI11988
asV/store/cmst3/user/cmgtools/CMG/VBF_HToTauTau_M-120_8TeV-powheg-pythia6/Summer12_DR53X-PU_S10_START53_V7A-v1/AODSIM/V5_B/PAT_CMG_V5_16_0/cmgTuple_191.root
p596
(lp597
I01
aI11991
asV/store/cmst3/user/cmgtools/CMG/VBF_HToTauTau_M-120_8TeV-powheg-pythia6/Summer12_DR53X-PU_S10_START53_V7A-v1/AODSIM/V5_B/PAT_CMG_V5_16_0/cmgTuple_321.root
p598
(lp599
I01
aI11387
asV/store/cmst3/user/cmgtools/CMG/VBF_HToTauTau_M-120_8TeV-powheg-pythia6/Summer12_DR53X-PU_S10_START53_V7A-v1/AODSIM/V5_B/PAT_CMG_V5_16_0/cmgTuple_79.root
p600
(lp601
I01
aI8992
asV/store/cmst3/user/cmgtools/CMG/VBF_HToTauTau_M-120_8TeV-powheg-pythia6/Summer12_DR53X-PU_S10_START53_V7A-v1/AODSIM/V5_B/PAT_CMG_V5_16_0/cmgTuple_394.root
p602
(lp603
I01
aI11081
asV/store/cmst3/user/cmgtools/CMG/VBF_HToTauTau_M-120_8TeV-powheg-pythia6/Summer12_DR53X-PU_S10_START53_V7A-v1/AODSIM/V5_B/PAT_CMG_V5_16_0/cmgTuple_416.root
p604
(lp605
I01
aI12287
asV/store/cmst3/user/cmgtools/CMG/VBF_HToTauTau_M-120_8TeV-powheg-pythia6/Summer12_DR53X-PU_S10_START53_V7A-v1/AODSIM/V5_B/PAT_CMG_V5_16_0/cmgTuple_448.root
p606
(lp607
I01
aI10788
asV/store/cmst3/user/cmgtools/CMG/VBF_HToTauTau_M-120_8TeV-powheg-pythia6/Summer12_DR53X-PU_S10_START53_V7A-v1/AODSIM/V5_B/PAT_CMG_V5_16_0/cmgTuple_168.root
p608
(lp609
I01
aI11993
asV/store/cmst3/user/cmgtools/CMG/VBF_HToTauTau_M-120_8TeV-powheg-pythia6/Summer12_DR53X-PU_S10_START53_V7A-v1/AODSIM/V5_B/PAT_CMG_V5_16_0/cmgTuple_224.root
p610
(lp611
I01
aI12280
asV/store/cmst3/user/cmgtools/CMG/VBF_HToTauTau_M-120_8TeV-powheg-pythia6/Summer12_DR53X-PU_S10_START53_V7A-v1/AODSIM/V5_B/PAT_CMG_V5_16_0/cmgTuple_3.root
p612
(lp613
I01
aI10794
asV/store/cmst3/user/cmgtools/CMG/VBF_HToTauTau_M-120_8TeV-powheg-pythia6/Summer12_DR53X-PU_S10_START53_V7A-v1/AODSIM/V5_B/PAT_CMG_V5_16_0/cmgTuple_36.root
p614
(lp615
I01
aI8992
asV/store/cmst3/user/cmgtools/CMG/VBF_HToTauTau_M-120_8TeV-powheg-pythia6/Summer12_DR53X-PU_S10_START53_V7A-v1/AODSIM/V5_B/PAT_CMG_V5_16_0/cmgTuple_362.root
p616
(lp617
I01
aI10791
asV/store/cmst3/user/cmgtools/CMG/VBF_HToTauTau_M-120_8TeV-powheg-pythia6/Summer12_DR53X-PU_S10_START53_V7A-v1/AODSIM/V5_B/PAT_CMG_V5_16_0/cmgTuple_198.root
p618
(lp619
I01
aI10782
asV/store/cmst3/user/cmgtools/CMG/VBF_HToTauTau_M-120_8TeV-powheg-pythia6/Summer12_DR53X-PU_S10_START53_V7A-v1/AODSIM/V5_B/PAT_CMG_V5_16_0/cmgTuple_99.root
p620
(lp621
I01
aI12589
asV/store/cmst3/user/cmgtools/CMG/VBF_HToTauTau_M-120_8TeV-powheg-pythia6/Summer12_DR53X-PU_S10_START53_V7A-v1/AODSIM/V5_B/PAT_CMG_V5_16_0/cmgTuple_395.root
p622
(lp623
I01
aI10788
asV/store/cmst3/user/cmgtools/CMG/VBF_HToTauTau_M-120_8TeV-powheg-pythia6/Summer12_DR53X-PU_S10_START53_V7A-v1/AODSIM/V5_B/PAT_CMG_V5_16_0/cmgTuple_107.root
p624
(lp625
I01
aI12286
asV/store/cmst3/user/cmgtools/CMG/VBF_HToTauTau_M-120_8TeV-powheg-pythia6/Summer12_DR53X-PU_S10_START53_V7A-v1/AODSIM/V5_B/PAT_CMG_V5_16_0/cmgTuple_175.root
p626
(lp627
I01
aI10783
asV/store/cmst3/user/cmgtools/CMG/VBF_HToTauTau_M-120_8TeV-powheg-pythia6/Summer12_DR53X-PU_S10_START53_V7A-v1/AODSIM/V5_B/PAT_CMG_V5_16_0/cmgTuple_66.root
p628
(lp629
I01
aI11684
asV/store/cmst3/user/cmgtools/CMG/VBF_HToTauTau_M-120_8TeV-powheg-pythia6/Summer12_DR53X-PU_S10_START53_V7A-v1/AODSIM/V5_B/PAT_CMG_V5_16_0/cmgTuple_248.root
p630
(lp631
I01
aI8991
asV/store/cmst3/user/cmgtools/CMG/VBF_HToTauTau_M-120_8TeV-powheg-pythia6/Summer12_DR53X-PU_S10_START53_V7A-v1/AODSIM/V5_B/PAT_CMG_V5_16_0/cmgTuple_235.root
p632
(lp633
I01
aI11083
asV/store/cmst3/user/cmgtools/CMG/VBF_HToTauTau_M-120_8TeV-powheg-pythia6/Summer12_DR53X-PU_S10_START53_V7A-v1/AODSIM/V5_B/PAT_CMG_V5_16_0/cmgTuple_106.root
p634
(lp635
I01
aI12296
asV/store/cmst3/user/cmgtools/CMG/VBF_HToTauTau_M-120_8TeV-powheg-pythia6/Summer12_DR53X-PU_S10_START53_V7A-v1/AODSIM/V5_B/PAT_CMG_V5_16_0/cmgTuple_345.root
p636
(lp637
I01
aI10779
asV/store/cmst3/user/cmgtools/CMG/VBF_HToTauTau_M-120_8TeV-powheg-pythia6/Summer12_DR53X-PU_S10_START53_V7A-v1/AODSIM/V5_B/PAT_CMG_V5_16_0/cmgTuple_398.root
p638
(lp639
I01
aI8982
asV/store/cmst3/user/cmgtools/CMG/VBF_HToTauTau_M-120_8TeV-powheg-pythia6/Summer12_DR53X-PU_S10_START53_V7A-v1/AODSIM/V5_B/PAT_CMG_V5_16_0/cmgTuple_374.root
p640
(lp641
I01
aI10789
asV/store/cmst3/user/cmgtools/CMG/VBF_HToTauTau_M-120_8TeV-powheg-pythia6/Summer12_DR53X-PU_S10_START53_V7A-v1/AODSIM/V5_B/PAT_CMG_V5_16_0/cmgTuple_218.root
p642
(lp643
I01
aI10786
asV/store/cmst3/user/cmgtools/CMG/VBF_HToTauTau_M-120_8TeV-powheg-pythia6/Summer12_DR53X-PU_S10_START53_V7A-v1/AODSIM/V5_B/PAT_CMG_V5_16_0/cmgTuple_188.root
p644
(lp645
I01
aI7191
asV/store/cmst3/user/cmgtools/CMG/VBF_HToTauTau_M-120_8TeV-powheg-pythia6/Summer12_DR53X-PU_S10_START53_V7A-v1/AODSIM/V5_B/PAT_CMG_V5_16_0/cmgTuple_375.root
p646
(lp647
I01
aI12285
asV/store/cmst3/user/cmgtools/CMG/VBF_HToTauTau_M-120_8TeV-powheg-pythia6/Summer12_DR53X-PU_S10_START53_V7A-v1/AODSIM/V5_B/PAT_CMG_V5_16_0/cmgTuple_96.root
p648
(lp649
I01
aI11385
asV/store/cmst3/user/cmgtools/CMG/VBF_HToTauTau_M-120_8TeV-powheg-pythia6/Summer12_DR53X-PU_S10_START53_V7A-v1/AODSIM/V5_B/PAT_CMG_V5_16_0/cmgTuple_56.root
p650
(lp651
I01
aI7194
asV/store/cmst3/user/cmgtools/CMG/VBF_HToTauTau_M-120_8TeV-powheg-pythia6/Summer12_DR53X-PU_S10_START53_V7A-v1/AODSIM/V5_B/PAT_CMG_V5_16_0/cmgTuple_257.root
p652
(lp653
I01
aI12288
asV/store/cmst3/user/cmgtools/CMG/VBF_HToTauTau_M-120_8TeV-powheg-pythia6/Summer12_DR53X-PU_S10_START53_V7A-v1/AODSIM/V5_B/PAT_CMG_V5_16_0/cmgTuple_181.root
p654
(lp655
I01
aI10785
asV/store/cmst3/user/cmgtools/CMG/VBF_HToTauTau_M-120_8TeV-powheg-pythia6/Summer12_DR53X-PU_S10_START53_V7A-v1/AODSIM/V5_B/PAT_CMG_V5_16_0/cmgTuple_385.root
p656
(lp657
I01
aI11694
asV/store/cmst3/user/cmgtools/CMG/VBF_HToTauTau_M-120_8TeV-powheg-pythia6/Summer12_DR53X-PU_S10_START53_V7A-v1/AODSIM/V5_B/PAT_CMG_V5_16_0/cmgTuple_170.root
p658
(lp659
I01
aI10791
asV/store/cmst3/user/cmgtools/CMG/VBF_HToTauTau_M-120_8TeV-powheg-pythia6/Summer12_DR53X-PU_S10_START53_V7A-v1/AODSIM/V5_B/PAT_CMG_V5_16_0/cmgTuple_351.root
p660
(lp661
I01
aI8686
asV/store/cmst3/user/cmgtools/CMG/VBF_HToTauTau_M-120_8TeV-powheg-pythia6/Summer12_DR53X-PU_S10_START53_V7A-v1/AODSIM/V5_B/PAT_CMG_V5_16_0/cmgTuple_134.root
p662
(lp663
I01
aI8684
asV/store/cmst3/user/cmgtools/CMG/VBF_HToTauTau_M-120_8TeV-powheg-pythia6/Summer12_DR53X-PU_S10_START53_V7A-v1/AODSIM/V5_B/PAT_CMG_V5_16_0/cmgTuple_250.root
p664
(lp665
I01
aI11982
asV/store/cmst3/user/cmgtools/CMG/VBF_HToTauTau_M-120_8TeV-powheg-pythia6/Summer12_DR53X-PU_S10_START53_V7A-v1/AODSIM/V5_B/PAT_CMG_V5_16_0/cmgTuple_335.root
p666
(lp667
I01
aI9888
asV/store/cmst3/user/cmgtools/CMG/VBF_HToTauTau_M-120_8TeV-powheg-pythia6/Summer12_DR53X-PU_S10_START53_V7A-v1/AODSIM/V5_B/PAT_CMG_V5_16_0/cmgTuple_164.root
p668
(lp669
I01
aI12289
asV/store/cmst3/user/cmgtools/CMG/VBF_HToTauTau_M-120_8TeV-powheg-pythia6/Summer12_DR53X-PU_S10_START53_V7A-v1/AODSIM/V5_B/PAT_CMG_V5_16_0/cmgTuple_286.root
p670
(lp671
I01
aI10791
asV/store/cmst3/user/cmgtools/CMG/VBF_HToTauTau_M-120_8TeV-powheg-pythia6/Summer12_DR53X-PU_S10_START53_V7A-v1/AODSIM/V5_B/PAT_CMG_V5_16_0/cmgTuple_272.root
p672
(lp673
I01
aI8390
asV/store/cmst3/user/cmgtools/CMG/VBF_HToTauTau_M-120_8TeV-powheg-pythia6/Summer12_DR53X-PU_S10_START53_V7A-v1/AODSIM/V5_B/PAT_CMG_V5_16_0/cmgTuple_26.root
p674
(lp675
I01
aI11989
asV/store/cmst3/user/cmgtools/CMG/VBF_HToTauTau_M-120_8TeV-powheg-pythia6/Summer12_DR53X-PU_S10_START53_V7A-v1/AODSIM/V5_B/PAT_CMG_V5_16_0/cmgTuple_332.root
p676
(lp677
I01
aI12289
asV/store/cmst3/user/cmgtools/CMG/VBF_HToTauTau_M-120_8TeV-powheg-pythia6/Summer12_DR53X-PU_S10_START53_V7A-v1/AODSIM/V5_B/PAT_CMG_V5_16_0/cmgTuple_110.root
p678
(lp679
I01
aI10787
asV/store/cmst3/user/cmgtools/CMG/VBF_HToTauTau_M-120_8TeV-powheg-pythia6/Summer12_DR53X-PU_S10_START53_V7A-v1/AODSIM/V5_B/PAT_CMG_V5_16_0/cmgTuple_83.root
p680
(lp681
I01
aI10791
asV/store/cmst3/user/cmgtools/CMG/VBF_HToTauTau_M-120_8TeV-powheg-pythia6/Summer12_DR53X-PU_S10_START53_V7A-v1/AODSIM/V5_B/PAT_CMG_V5_16_0/cmgTuple_160.root
p682
(lp683
I01
aI10792
asV/store/cmst3/user/cmgtools/CMG/VBF_HToTauTau_M-120_8TeV-powheg-pythia6/Summer12_DR53X-PU_S10_START53_V7A-v1/AODSIM/V5_B/PAT_CMG_V5_16_0/cmgTuple_180.root
p684
(lp685
I01
aI11679
asV/store/cmst3/user/cmgtools/CMG/VBF_HToTauTau_M-120_8TeV-powheg-pythia6/Summer12_DR53X-PU_S10_START53_V7A-v1/AODSIM/V5_B/PAT_CMG_V5_16_0/cmgTuple_300.root
p686
(lp687
I01
aI10494
asV/store/cmst3/user/cmgtools/CMG/VBF_HToTauTau_M-120_8TeV-powheg-pythia6/Summer12_DR53X-PU_S10_START53_V7A-v1/AODSIM/V5_B/PAT_CMG_V5_16_0/cmgTuple_72.root
p688
(lp689
I01
aI8686
asV/store/cmst3/user/cmgtools/CMG/VBF_HToTauTau_M-120_8TeV-powheg-pythia6/Summer12_DR53X-PU_S10_START53_V7A-v1/AODSIM/V5_B/PAT_CMG_V5_16_0/cmgTuple_17.root
p690
(lp691
I01
aI12285
asV/store/cmst3/user/cmgtools/CMG/VBF_HToTauTau_M-120_8TeV-powheg-pythia6/Summer12_DR53X-PU_S10_START53_V7A-v1/AODSIM/V5_B/PAT_CMG_V5_16_0/cmgTuple_52.root
p692
(lp693
I01
aI10786
asV/store/cmst3/user/cmgtools/CMG/VBF_HToTauTau_M-120_8TeV-powheg-pythia6/Summer12_DR53X-PU_S10_START53_V7A-v1/AODSIM/V5_B/PAT_CMG_V5_16_0/cmgTuple_116.root
p694
(lp695
I01
aI11687
asV/store/cmst3/user/cmgtools/CMG/VBF_HToTauTau_M-120_8TeV-powheg-pythia6/Summer12_DR53X-PU_S10_START53_V7A-v1/AODSIM/V5_B/PAT_CMG_V5_16_0/cmgTuple_177.root
p696
(lp697
I01
aI12584
asV/store/cmst3/user/cmgtools/CMG/VBF_HToTauTau_M-120_8TeV-powheg-pythia6/Summer12_DR53X-PU_S10_START53_V7A-v1/AODSIM/V5_B/PAT_CMG_V5_16_0/cmgTuple_376.root
p698
(lp699
I01
aI12290
asV/store/cmst3/user/cmgtools/CMG/VBF_HToTauTau_M-120_8TeV-powheg-pythia6/Summer12_DR53X-PU_S10_START53_V7A-v1/AODSIM/V5_B/PAT_CMG_V5_16_0/cmgTuple_299.root
p700
(lp701
I01
aI12585
asV/store/cmst3/user/cmgtools/CMG/VBF_HToTauTau_M-120_8TeV-powheg-pythia6/Summer12_DR53X-PU_S10_START53_V7A-v1/AODSIM/V5_B/PAT_CMG_V5_16_0/cmgTuple_382.root
p702
(lp703
I01
aI11989
asV/store/cmst3/user/cmgtools/CMG/VBF_HToTauTau_M-120_8TeV-powheg-pythia6/Summer12_DR53X-PU_S10_START53_V7A-v1/AODSIM/V5_B/PAT_CMG_V5_16_0/cmgTuple_322.root
p704
(lp705
I01
aI12281
asV/store/cmst3/user/cmgtools/CMG/VBF_HToTauTau_M-120_8TeV-powheg-pythia6/Summer12_DR53X-PU_S10_START53_V7A-v1/AODSIM/V5_B/PAT_CMG_V5_16_0/cmgTuple_337.root
p706
(lp707
I01
aI8997
asV/store/cmst3/user/cmgtools/CMG/VBF_HToTauTau_M-120_8TeV-powheg-pythia6/Summer12_DR53X-PU_S10_START53_V7A-v1/AODSIM/V5_B/PAT_CMG_V5_16_0/cmgTuple_121.root
p708
(lp709
I01
aI10187
asV/store/cmst3/user/cmgtools/CMG/VBF_HToTauTau_M-120_8TeV-powheg-pythia6/Summer12_DR53X-PU_S10_START53_V7A-v1/AODSIM/V5_B/PAT_CMG_V5_16_0/cmgTuple_400.root
p710
(lp711
I01
aI8992
asV/store/cmst3/user/cmgtools/CMG/VBF_HToTauTau_M-120_8TeV-powheg-pythia6/Summer12_DR53X-PU_S10_START53_V7A-v1/AODSIM/V5_B/PAT_CMG_V5_16_0/cmgTuple_336.root
p712
(lp713
I01
aI9886
asV/store/cmst3/user/cmgtools/CMG/VBF_HToTauTau_M-120_8TeV-powheg-pythia6/Summer12_DR53X-PU_S10_START53_V7A-v1/AODSIM/V5_B/PAT_CMG_V5_16_0/cmgTuple_129.root
p714
(lp715
I01
aI10785
asV/store/cmst3/user/cmgtools/CMG/VBF_HToTauTau_M-120_8TeV-powheg-pythia6/Summer12_DR53X-PU_S10_START53_V7A-v1/AODSIM/V5_B/PAT_CMG_V5_16_0/cmgTuple_230.root
p716
(lp717
I01
aI11989
asV/store/cmst3/user/cmgtools/CMG/VBF_HToTauTau_M-120_8TeV-powheg-pythia6/Summer12_DR53X-PU_S10_START53_V7A-v1/AODSIM/V5_B/PAT_CMG_V5_16_0/cmgTuple_40.root
p718
(lp719
I01
aI10790
asV/store/cmst3/user/cmgtools/CMG/VBF_HToTauTau_M-120_8TeV-powheg-pythia6/Summer12_DR53X-PU_S10_START53_V7A-v1/AODSIM/V5_B/PAT_CMG_V5_16_0/cmgTuple_10.root
p720
(lp721
I01
aI11691
asV/store/cmst3/user/cmgtools/CMG/VBF_HToTauTau_M-120_8TeV-powheg-pythia6/Summer12_DR53X-PU_S10_START53_V7A-v1/AODSIM/V5_B/PAT_CMG_V5_16_0/cmgTuple_4.root
p722
(lp723
I01
aI11982
asV/store/cmst3/user/cmgtools/CMG/VBF_HToTauTau_M-120_8TeV-powheg-pythia6/Summer12_DR53X-PU_S10_START53_V7A-v1/AODSIM/V5_B/PAT_CMG_V5_16_0/cmgTuple_373.root
p724
(lp725
I01
aI10787
asV/store/cmst3/user/cmgtools/CMG/VBF_HToTauTau_M-120_8TeV-powheg-pythia6/Summer12_DR53X-PU_S10_START53_V7A-v1/AODSIM/V5_B/PAT_CMG_V5_16_0/cmgTuple_407.root
p726
(lp727
I01
aI8989
asV/store/cmst3/user/cmgtools/CMG/VBF_HToTauTau_M-120_8TeV-powheg-pythia6/Summer12_DR53X-PU_S10_START53_V7A-v1/AODSIM/V5_B/PAT_CMG_V5_16_0/cmgTuple_437.root
p728
(lp729
I01
aI12291
asV/store/cmst3/user/cmgtools/CMG/VBF_HToTauTau_M-120_8TeV-powheg-pythia6/Summer12_DR53X-PU_S10_START53_V7A-v1/AODSIM/V5_B/PAT_CMG_V5_16_0/cmgTuple_219.root
p730
(lp731
I01
aI11384
asV/store/cmst3/user/cmgtools/CMG/VBF_HToTauTau_M-120_8TeV-powheg-pythia6/Summer12_DR53X-PU_S10_START53_V7A-v1/AODSIM/V5_B/PAT_CMG_V5_16_0/cmgTuple_178.root
p732
(lp733
I01
aI6896
asV/store/cmst3/user/cmgtools/CMG/VBF_HToTauTau_M-120_8TeV-powheg-pythia6/Summer12_DR53X-PU_S10_START53_V7A-v1/AODSIM/V5_B/PAT_CMG_V5_16_0/cmgTuple_278.root
p734
(lp735
I01
aI12290
asV/store/cmst3/user/cmgtools/CMG/VBF_HToTauTau_M-120_8TeV-powheg-pythia6/Summer12_DR53X-PU_S10_START53_V7A-v1/AODSIM/V5_B/PAT_CMG_V5_16_0/cmgTuple_11.root
p736
(lp737
I01
aI6594
asV/store/cmst3/user/cmgtools/CMG/VBF_HToTauTau_M-120_8TeV-powheg-pythia6/Summer12_DR53X-PU_S10_START53_V7A-v1/AODSIM/V5_B/PAT_CMG_V5_16_0/cmgTuple_5.root
p738
(lp739
I01
aI11988
asV/store/cmst3/user/cmgtools/CMG/VBF_HToTauTau_M-120_8TeV-powheg-pythia6/Summer12_DR53X-PU_S10_START53_V7A-v1/AODSIM/V5_B/PAT_CMG_V5_16_0/cmgTuple_209.root
p740
(lp741
I01
aI9289
asV/store/cmst3/user/cmgtools/CMG/VBF_HToTauTau_M-120_8TeV-powheg-pythia6/Summer12_DR53X-PU_S10_START53_V7A-v1/AODSIM/V5_B/PAT_CMG_V5_16_0/cmgTuple_409.root
p742
(lp743
I01
aI10190
asV/store/cmst3/user/cmgtools/CMG/VBF_HToTauTau_M-120_8TeV-powheg-pythia6/Summer12_DR53X-PU_S10_START53_V7A-v1/AODSIM/V5_B/PAT_CMG_V5_16_0/cmgTuple_274.root
p744
(lp745
I01
aI12582
asV/store/cmst3/user/cmgtools/CMG/VBF_HToTauTau_M-120_8TeV-powheg-pythia6/Summer12_DR53X-PU_S10_START53_V7A-v1/AODSIM/V5_B/PAT_CMG_V5_16_0/cmgTuple_341.root
p746
(lp747
I01
aI10784
asV/store/cmst3/user/cmgtools/CMG/VBF_HToTauTau_M-120_8TeV-powheg-pythia6/Summer12_DR53X-PU_S10_START53_V7A-v1/AODSIM/V5_B/PAT_CMG_V5_16_0/cmgTuple_423.root
p748
(lp749
I01
aI10785
asV/store/cmst3/user/cmgtools/CMG/VBF_HToTauTau_M-120_8TeV-powheg-pythia6/Summer12_DR53X-PU_S10_START53_V7A-v1/AODSIM/V5_B/PAT_CMG_V5_16_0/cmgTuple_330.root
p750
(lp751
I01
aI10784
asV/store/cmst3/user/cmgtools/CMG/VBF_HToTauTau_M-120_8TeV-powheg-pythia6/Summer12_DR53X-PU_S10_START53_V7A-v1/AODSIM/V5_B/PAT_CMG_V5_16_0/cmgTuple_122.root
p752
(lp753
I01
aI11987
asV/store/cmst3/user/cmgtools/CMG/VBF_HToTauTau_M-120_8TeV-powheg-pythia6/Summer12_DR53X-PU_S10_START53_V7A-v1/AODSIM/V5_B/PAT_CMG_V5_16_0/cmgTuple_204.root
p754
(lp755
I01
aI10790
asV/store/cmst3/user/cmgtools/CMG/VBF_HToTauTau_M-120_8TeV-powheg-pythia6/Summer12_DR53X-PU_S10_START53_V7A-v1/AODSIM/V5_B/PAT_CMG_V5_16_0/cmgTuple_197.root
p756
(lp757
I01
aI10791
asV/store/cmst3/user/cmgtools/CMG/VBF_HToTauTau_M-120_8TeV-powheg-pythia6/Summer12_DR53X-PU_S10_START53_V7A-v1/AODSIM/V5_B/PAT_CMG_V5_16_0/cmgTuple_350.root
p758
(lp759
I01
aI12277
asV/store/cmst3/user/cmgtools/CMG/VBF_HToTauTau_M-120_8TeV-powheg-pythia6/Summer12_DR53X-PU_S10_START53_V7A-v1/AODSIM/V5_B/PAT_CMG_V5_16_0/cmgTuple_243.root
p760
(lp761
I01
aI8985
asV/store/cmst3/user/cmgtools/CMG/VBF_HToTauTau_M-120_8TeV-powheg-pythia6/Summer12_DR53X-PU_S10_START53_V7A-v1/AODSIM/V5_B/PAT_CMG_V5_16_0/cmgTuple_331.root
p762
(lp763
I01
aI8395
asV/store/cmst3/user/cmgtools/CMG/VBF_HToTauTau_M-120_8TeV-powheg-pythia6/Summer12_DR53X-PU_S10_START53_V7A-v1/AODSIM/V5_B/PAT_CMG_V5_16_0/cmgTuple_196.root
p764
(lp765
I01
aI10790
asV/store/cmst3/user/cmgtools/CMG/VBF_HToTauTau_M-120_8TeV-powheg-pythia6/Summer12_DR53X-PU_S10_START53_V7A-v1/AODSIM/V5_B/PAT_CMG_V5_16_0/cmgTuple_119.root
p766
(lp767
I01
aI10785
asV/store/cmst3/user/cmgtools/CMG/VBF_HToTauTau_M-120_8TeV-powheg-pythia6/Summer12_DR53X-PU_S10_START53_V7A-v1/AODSIM/V5_B/PAT_CMG_V5_16_0/cmgTuple_92.root
p768
(lp769
I01
aI10784
asV/store/cmst3/user/cmgtools/CMG/VBF_HToTauTau_M-120_8TeV-powheg-pythia6/Summer12_DR53X-PU_S10_START53_V7A-v1/AODSIM/V5_B/PAT_CMG_V5_16_0/cmgTuple_356.root
p770
(lp771
I01
aI10789
asV/store/cmst3/user/cmgtools/CMG/VBF_HToTauTau_M-120_8TeV-powheg-pythia6/Summer12_DR53X-PU_S10_START53_V7A-v1/AODSIM/V5_B/PAT_CMG_V5_16_0/cmgTuple_212.root
p772
(lp773
I01
aI11686
asV/store/cmst3/user/cmgtools/CMG/VBF_HToTauTau_M-120_8TeV-powheg-pythia6/Summer12_DR53X-PU_S10_START53_V7A-v1/AODSIM/V5_B/PAT_CMG_V5_16_0/cmgTuple_88.root
p774
(lp775
I01
aI12576
asV/store/cmst3/user/cmgtools/CMG/VBF_HToTauTau_M-120_8TeV-powheg-pythia6/Summer12_DR53X-PU_S10_START53_V7A-v1/AODSIM/V5_B/PAT_CMG_V5_16_0/cmgTuple_445.root
p776
(lp777
I01
aI12285
asV/store/cmst3/user/cmgtools/CMG/VBF_HToTauTau_M-120_8TeV-powheg-pythia6/Summer12_DR53X-PU_S10_START53_V7A-v1/AODSIM/V5_B/PAT_CMG_V5_16_0/cmgTuple_348.root
p778
(lp779
I01
aI11685
asV/store/cmst3/user/cmgtools/CMG/VBF_HToTauTau_M-120_8TeV-powheg-pythia6/Summer12_DR53X-PU_S10_START53_V7A-v1/AODSIM/V5_B/PAT_CMG_V5_16_0/cmgTuple_260.root
p780
(lp781
I01
aI10193
asV/store/cmst3/user/cmgtools/CMG/VBF_HToTauTau_M-120_8TeV-powheg-pythia6/Summer12_DR53X-PU_S10_START53_V7A-v1/AODSIM/V5_B/PAT_CMG_V5_16_0/cmgTuple_85.root
p782
(lp783
I01
aI7195
asV/store/cmst3/user/cmgtools/CMG/VBF_HToTauTau_M-120_8TeV-powheg-pythia6/Summer12_DR53X-PU_S10_START53_V7A-v1/AODSIM/V5_B/PAT_CMG_V5_16_0/cmgTuple_77.root
p784
(lp785
I01
aI10785
asV/store/cmst3/user/cmgtools/CMG/VBF_HToTauTau_M-120_8TeV-powheg-pythia6/Summer12_DR53X-PU_S10_START53_V7A-v1/AODSIM/V5_B/PAT_CMG_V5_16_0/cmgTuple_179.root
p786
(lp787
I01
aI11089
asV/store/cmst3/user/cmgtools/CMG/VBF_HToTauTau_M-120_8TeV-powheg-pythia6/Summer12_DR53X-PU_S10_START53_V7A-v1/AODSIM/V5_B/PAT_CMG_V5_16_0/cmgTuple_339.root
p788
(lp789
I01
aI12284
asV/store/cmst3/user/cmgtools/CMG/VBF_HToTauTau_M-120_8TeV-powheg-pythia6/Summer12_DR53X-PU_S10_START53_V7A-v1/AODSIM/V5_B/PAT_CMG_V5_16_0/cmgTuple_408.root
p790
(lp791
I01
aI10791
asV/store/cmst3/user/cmgtools/CMG/VBF_HToTauTau_M-120_8TeV-powheg-pythia6/Summer12_DR53X-PU_S10_START53_V7A-v1/AODSIM/V5_B/PAT_CMG_V5_16_0/cmgTuple_42.root
p792
(lp793
I01
aI10192
asV/store/cmst3/user/cmgtools/CMG/VBF_HToTauTau_M-120_8TeV-powheg-pythia6/Summer12_DR53X-PU_S10_START53_V7A-v1/AODSIM/V5_B/PAT_CMG_V5_16_0/cmgTuple_16.root
p794
(lp795
I01
aI8093
asV/store/cmst3/user/cmgtools/CMG/VBF_HToTauTau_M-120_8TeV-powheg-pythia6/Summer12_DR53X-PU_S10_START53_V7A-v1/AODSIM/V5_B/PAT_CMG_V5_16_0/cmgTuple_380.root
p796
(lp797
I01
aI12284
asV/store/cmst3/user/cmgtools/CMG/VBF_HToTauTau_M-120_8TeV-powheg-pythia6/Summer12_DR53X-PU_S10_START53_V7A-v1/AODSIM/V5_B/PAT_CMG_V5_16_0/cmgTuple_228.root
p798
(lp799
I01
aI6590
asV/store/cmst3/user/cmgtools/CMG/VBF_HToTauTau_M-120_8TeV-powheg-pythia6/Summer12_DR53X-PU_S10_START53_V7A-v1/AODSIM/V5_B/PAT_CMG_V5_16_0/cmgTuple_253.root
p800
(lp801
I01
aI10677
asV/store/cmst3/user/cmgtools/CMG/VBF_HToTauTau_M-120_8TeV-powheg-pythia6/Summer12_DR53X-PU_S10_START53_V7A-v1/AODSIM/V5_B/PAT_CMG_V5_16_0/cmgTuple_152.root
p802
(lp803
I01
aI11979
asV/store/cmst3/user/cmgtools/CMG/VBF_HToTauTau_M-120_8TeV-powheg-pythia6/Summer12_DR53X-PU_S10_START53_V7A-v1/AODSIM/V5_B/PAT_CMG_V5_16_0/cmgTuple_15.root
p804
(lp805
I01
aI10789
asV/store/cmst3/user/cmgtools/CMG/VBF_HToTauTau_M-120_8TeV-powheg-pythia6/Summer12_DR53X-PU_S10_START53_V7A-v1/AODSIM/V5_B/PAT_CMG_V5_16_0/cmgTuple_288.root
p806
(lp807
I01
aI12285
asV/store/cmst3/user/cmgtools/CMG/VBF_HToTauTau_M-120_8TeV-powheg-pythia6/Summer12_DR53X-PU_S10_START53_V7A-v1/AODSIM/V5_B/PAT_CMG_V5_16_0/cmgTuple_174.root
p808
(lp809
I01
aI10786
asV/store/cmst3/user/cmgtools/CMG/VBF_HToTauTau_M-120_8TeV-powheg-pythia6/Summer12_DR53X-PU_S10_START53_V7A-v1/AODSIM/V5_B/PAT_CMG_V5_16_0/cmgTuple_293.root
p810
(lp811
I01
aI12282
asV/store/cmst3/user/cmgtools/CMG/VBF_HToTauTau_M-120_8TeV-powheg-pythia6/Summer12_DR53X-PU_S10_START53_V7A-v1/AODSIM/V5_B/PAT_CMG_V5_16_0/cmgTuple_449.root
p812
(lp813
I01
aI7190
asV/store/cmst3/user/cmgtools/CMG/VBF_HToTauTau_M-120_8TeV-powheg-pythia6/Summer12_DR53X-PU_S10_START53_V7A-v1/AODSIM/V5_B/PAT_CMG_V5_16_0/cmgTuple_9.root
p814
(lp815
I01
aI7195
asV/store/cmst3/user/cmgtools/CMG/VBF_HToTauTau_M-120_8TeV-powheg-pythia6/Summer12_DR53X-PU_S10_START53_V7A-v1/AODSIM/V5_B/PAT_CMG_V5_16_0/cmgTuple_292.root
p816
(lp817
I01
aI11986
asV/store/cmst3/user/cmgtools/CMG/VBF_HToTauTau_M-120_8TeV-powheg-pythia6/Summer12_DR53X-PU_S10_START53_V7A-v1/AODSIM/V5_B/PAT_CMG_V5_16_0/cmgTuple_78.root
p818
(lp819
I01
aI11992
asV/store/cmst3/user/cmgtools/CMG/VBF_HToTauTau_M-120_8TeV-powheg-pythia6/Summer12_DR53X-PU_S10_START53_V7A-v1/AODSIM/V5_B/PAT_CMG_V5_16_0/cmgTuple_172.root
p820
(lp821
I01
aI11686
asV/store/cmst3/user/cmgtools/CMG/VBF_HToTauTau_M-120_8TeV-powheg-pythia6/Summer12_DR53X-PU_S10_START53_V7A-v1/AODSIM/V5_B/PAT_CMG_V5_16_0/cmgTuple_169.root
p822
(lp823
I01
aI12587
asV/store/cmst3/user/cmgtools/CMG/VBF_HToTauTau_M-120_8TeV-powheg-pythia6/Summer12_DR53X-PU_S10_START53_V7A-v1/AODSIM/V5_B/PAT_CMG_V5_16_0/cmgTuple_368.root
p824
(lp825
I01
aI10784
asV/store/cmst3/user/cmgtools/CMG/VBF_HToTauTau_M-120_8TeV-powheg-pythia6/Summer12_DR53X-PU_S10_START53_V7A-v1/AODSIM/V5_B/PAT_CMG_V5_16_0/cmgTuple_49.root
p826
(lp827
I01
aI11680
asV/store/cmst3/user/cmgtools/CMG/VBF_HToTauTau_M-120_8TeV-powheg-pythia6/Summer12_DR53X-PU_S10_START53_V7A-v1/AODSIM/V5_B/PAT_CMG_V5_16_0/cmgTuple_76.root
p828
(lp829
I01
aI11986
asV/store/cmst3/user/cmgtools/CMG/VBF_HToTauTau_M-120_8TeV-powheg-pythia6/Summer12_DR53X-PU_S10_START53_V7A-v1/AODSIM/V5_B/PAT_CMG_V5_16_0/cmgTuple_202.root
p830
(lp831
I01
aI10795
asV/store/cmst3/user/cmgtools/CMG/VBF_HToTauTau_M-120_8TeV-powheg-pythia6/Summer12_DR53X-PU_S10_START53_V7A-v1/AODSIM/V5_B/PAT_CMG_V5_16_0/cmgTuple_313.root
p832
(lp833
I01
aI9293
asV/store/cmst3/user/cmgtools/CMG/VBF_HToTauTau_M-120_8TeV-powheg-pythia6/Summer12_DR53X-PU_S10_START53_V7A-v1/AODSIM/V5_B/PAT_CMG_V5_16_0/cmgTuple_298.root
p834
(lp835
I01
aI8396
asV/store/cmst3/user/cmgtools/CMG/VBF_HToTauTau_M-120_8TeV-powheg-pythia6/Summer12_DR53X-PU_S10_START53_V7A-v1/AODSIM/V5_B/PAT_CMG_V5_16_0/cmgTuple_246.root
p836
(lp837
I01
aI7190
asV/store/cmst3/user/cmgtools/CMG/VBF_HToTauTau_M-120_8TeV-powheg-pythia6/Summer12_DR53X-PU_S10_START53_V7A-v1/AODSIM/V5_B/PAT_CMG_V5_16_0/cmgTuple_426.root
p838
(lp839
I01
aI7189
asV/store/cmst3/user/cmgtools/CMG/VBF_HToTauTau_M-120_8TeV-powheg-pythia6/Summer12_DR53X-PU_S10_START53_V7A-v1/AODSIM/V5_B/PAT_CMG_V5_16_0/cmgTuple_369.root
p840
(lp841
I01
aI11989
asV/store/cmst3/user/cmgtools/CMG/VBF_HToTauTau_M-120_8TeV-powheg-pythia6/Summer12_DR53X-PU_S10_START53_V7A-v1/AODSIM/V5_B/PAT_CMG_V5_16_0/cmgTuple_74.root
p842
(lp843
I01
aI6897
asV/store/cmst3/user/cmgtools/CMG/VBF_HToTauTau_M-120_8TeV-powheg-pythia6/Summer12_DR53X-PU_S10_START53_V7A-v1/AODSIM/V5_B/PAT_CMG_V5_16_0/cmgTuple_162.root
p844
(lp845
I01
aI10788
asV/store/cmst3/user/cmgtools/CMG/VBF_HToTauTau_M-120_8TeV-powheg-pythia6/Summer12_DR53X-PU_S10_START53_V7A-v1/AODSIM/V5_B/PAT_CMG_V5_16_0/cmgTuple_302.root
p846
(lp847
I01
aI11390
asV/store/cmst3/user/cmgtools/CMG/VBF_HToTauTau_M-120_8TeV-powheg-pythia6/Summer12_DR53X-PU_S10_START53_V7A-v1/AODSIM/V5_B/PAT_CMG_V5_16_0/cmgTuple_271.root
p848
(lp849
I01
aI7194
asV/store/cmst3/user/cmgtools/CMG/VBF_HToTauTau_M-120_8TeV-powheg-pythia6/Summer12_DR53X-PU_S10_START53_V7A-v1/AODSIM/V5_B/PAT_CMG_V5_16_0/cmgTuple_312.root
p850
(lp851
I01
aI11684
asV/store/cmst3/user/cmgtools/CMG/VBF_HToTauTau_M-120_8TeV-powheg-pythia6/Summer12_DR53X-PU_S10_START53_V7A-v1/AODSIM/V5_B/PAT_CMG_V5_16_0/cmgTuple_239.root
p852
(lp853
I01
aI8992
asV/store/cmst3/user/cmgtools/CMG/VBF_HToTauTau_M-120_8TeV-powheg-pythia6/Summer12_DR53X-PU_S10_START53_V7A-v1/AODSIM/V5_B/PAT_CMG_V5_16_0/cmgTuple_199.root
p854
(lp855
I01
aI11393
asV/store/cmst3/user/cmgtools/CMG/VBF_HToTauTau_M-120_8TeV-powheg-pythia6/Summer12_DR53X-PU_S10_START53_V7A-v1/AODSIM/V5_B/PAT_CMG_V5_16_0/cmgTuple_303.root
p856
(lp857
I01
aI10779
asV/store/cmst3/user/cmgtools/CMG/VBF_HToTauTau_M-120_8TeV-powheg-pythia6/Summer12_DR53X-PU_S10_START53_V7A-v1/AODSIM/V5_B/PAT_CMG_V5_16_0/cmgTuple_120.root
p858
(lp859
I01
aI8990
asV/store/cmst3/user/cmgtools/CMG/VBF_HToTauTau_M-120_8TeV-powheg-pythia6/Summer12_DR53X-PU_S10_START53_V7A-v1/AODSIM/V5_B/PAT_CMG_V5_16_0/cmgTuple_127.root
p860
(lp861
I01
aI8392
asV/store/cmst3/user/cmgtools/CMG/VBF_HToTauTau_M-120_8TeV-powheg-pythia6/Summer12_DR53X-PU_S10_START53_V7A-v1/AODSIM/V5_B/PAT_CMG_V5_16_0/cmgTuple_320.root
p862
(lp863
I01
aI12287
asV/store/cmst3/user/cmgtools/CMG/VBF_HToTauTau_M-120_8TeV-powheg-pythia6/Summer12_DR53X-PU_S10_START53_V7A-v1/AODSIM/V5_B/PAT_CMG_V5_16_0/cmgTuple_183.root
p864
(lp865
I01
aI11085
asV/store/cmst3/user/cmgtools/CMG/VBF_HToTauTau_M-120_8TeV-powheg-pythia6/Summer12_DR53X-PU_S10_START53_V7A-v1/AODSIM/V5_B/PAT_CMG_V5_16_0/cmgTuple_401.root
p866
(lp867
I01
aI10785
asV/store/cmst3/user/cmgtools/CMG/VBF_HToTauTau_M-120_8TeV-powheg-pythia6/Summer12_DR53X-PU_S10_START53_V7A-v1/AODSIM/V5_B/PAT_CMG_V5_16_0/cmgTuple_439.root
p868
(lp869
I01
aI8990
asV/store/cmst3/user/cmgtools/CMG/VBF_HToTauTau_M-120_8TeV-powheg-pythia6/Summer12_DR53X-PU_S10_START53_V7A-v1/AODSIM/V5_B/PAT_CMG_V5_16_0/cmgTuple_171.root
p870
(lp871
I01
aI11385
asV/store/cmst3/user/cmgtools/CMG/VBF_HToTauTau_M-120_8TeV-powheg-pythia6/Summer12_DR53X-PU_S10_START53_V7A-v1/AODSIM/V5_B/PAT_CMG_V5_16_0/cmgTuple_444.root
p872
(lp873
I01
aI10786
asV/store/cmst3/user/cmgtools/CMG/VBF_HToTauTau_M-120_8TeV-powheg-pythia6/Summer12_DR53X-PU_S10_START53_V7A-v1/AODSIM/V5_B/PAT_CMG_V5_16_0/cmgTuple_381.root
p874
(lp875
I01
aI12581
asV/store/cmst3/user/cmgtools/CMG/VBF_HToTauTau_M-120_8TeV-powheg-pythia6/Summer12_DR53X-PU_S10_START53_V7A-v1/AODSIM/V5_B/PAT_CMG_V5_16_0/cmgTuple_340.root
p876
(lp877
I01
aI11686
asV/store/cmst3/user/cmgtools/CMG/VBF_HToTauTau_M-120_8TeV-powheg-pythia6/Summer12_DR53X-PU_S10_START53_V7A-v1/AODSIM/V5_B/PAT_CMG_V5_16_0/cmgTuple_442.root
p878
(lp879
I01
aI11386
asV/store/cmst3/user/cmgtools/CMG/VBF_HToTauTau_M-120_8TeV-powheg-pythia6/Summer12_DR53X-PU_S10_START53_V7A-v1/AODSIM/V5_B/PAT_CMG_V5_16_0/cmgTuple_101.root
p880
(lp881
I01
aI10785
asV/store/cmst3/user/cmgtools/CMG/VBF_HToTauTau_M-120_8TeV-powheg-pythia6/Summer12_DR53X-PU_S10_START53_V7A-v1/AODSIM/V5_B/PAT_CMG_V5_16_0/cmgTuple_269.root
p882
(lp883
I01
aI12590
asV/store/cmst3/user/cmgtools/CMG/VBF_HToTauTau_M-120_8TeV-powheg-pythia6/Summer12_DR53X-PU_S10_START53_V7A-v1/AODSIM/V5_B/PAT_CMG_V5_16_0/cmgTuple_270.root
p884
(lp885
I01
aI10781
asV/store/cmst3/user/cmgtools/CMG/VBF_HToTauTau_M-120_8TeV-powheg-pythia6/Summer12_DR53X-PU_S10_START53_V7A-v1/AODSIM/V5_B/PAT_CMG_V5_16_0/cmgTuple_389.root
p886
(lp887
I01
aI11991
asV/store/cmst3/user/cmgtools/CMG/VBF_HToTauTau_M-120_8TeV-powheg-pythia6/Summer12_DR53X-PU_S10_START53_V7A-v1/AODSIM/V5_B/PAT_CMG_V5_16_0/cmgTuple_349.root
p888
(lp889
I01
aI11685
asV/store/cmst3/user/cmgtools/CMG/VBF_HToTauTau_M-120_8TeV-powheg-pythia6/Summer12_DR53X-PU_S10_START53_V7A-v1/AODSIM/V5_B/PAT_CMG_V5_16_0/cmgTuple_22.root
p890
(lp891
I01
aI10783
asV/store/cmst3/user/cmgtools/CMG/VBF_HToTauTau_M-120_8TeV-powheg-pythia6/Summer12_DR53X-PU_S10_START53_V7A-v1/AODSIM/V5_B/PAT_CMG_V5_16_0/cmgTuple_214.root
p892
(lp893
I01
aI10787
asV/store/cmst3/user/cmgtools/CMG/VBF_HToTauTau_M-120_8TeV-powheg-pythia6/Summer12_DR53X-PU_S10_START53_V7A-v1/AODSIM/V5_B/PAT_CMG_V5_16_0/cmgTuple_294.root
p894
(lp895
I01
aI6294
asV/store/cmst3/user/cmgtools/CMG/VBF_HToTauTau_M-120_8TeV-powheg-pythia6/Summer12_DR53X-PU_S10_START53_V7A-v1/AODSIM/V5_B/PAT_CMG_V5_16_0/cmgTuple_344.root
p896
(lp897
I01
aI10792
asV/store/cmst3/user/cmgtools/CMG/VBF_HToTauTau_M-120_8TeV-powheg-pythia6/Summer12_DR53X-PU_S10_START53_V7A-v1/AODSIM/V5_B/PAT_CMG_V5_16_0/cmgTuple_354.root
p898
(lp899
I01
aI6292
asV/store/cmst3/user/cmgtools/CMG/VBF_HToTauTau_M-120_8TeV-powheg-pythia6/Summer12_DR53X-PU_S10_START53_V7A-v1/AODSIM/V5_B/PAT_CMG_V5_16_0/cmgTuple_84.root
p900
(lp901
I01
aI11680
asV/store/cmst3/user/cmgtools/CMG/VBF_HToTauTau_M-120_8TeV-powheg-pythia6/Summer12_DR53X-PU_S10_START53_V7A-v1/AODSIM/V5_B/PAT_CMG_V5_16_0/cmgTuple_111.root
p902
(lp903
I01
aI10783
asV/store/cmst3/user/cmgtools/CMG/VBF_HToTauTau_M-120_8TeV-powheg-pythia6/Summer12_DR53X-PU_S10_START53_V7A-v1/AODSIM/V5_B/PAT_CMG_V5_16_0/cmgTuple_55.root
p904
(lp905
I01
aI12582
asV/store/cmst3/user/cmgtools/CMG/VBF_HToTauTau_M-120_8TeV-powheg-pythia6/Summer12_DR53X-PU_S10_START53_V7A-v1/AODSIM/V5_B/PAT_CMG_V5_16_0/cmgTuple_43.root
p906
(lp907
I01
aI12587
asV/store/cmst3/user/cmgtools/CMG/VBF_HToTauTau_M-120_8TeV-powheg-pythia6/Summer12_DR53X-PU_S10_START53_V7A-v1/AODSIM/V5_B/PAT_CMG_V5_16_0/cmgTuple_327.root
p908
(lp909
I01
aI10784
asV/store/cmst3/user/cmgtools/CMG/VBF_HToTauTau_M-120_8TeV-powheg-pythia6/Summer12_DR53X-PU_S10_START53_V7A-v1/AODSIM/V5_B/PAT_CMG_V5_16_0/cmgTuple_364.root
p910
(lp911
I01
aI10781
asV/store/cmst3/user/cmgtools/CMG/VBF_HToTauTau_M-120_8TeV-powheg-pythia6/Summer12_DR53X-PU_S10_START53_V7A-v1/AODSIM/V5_B/PAT_CMG_V5_16_0/cmgTuple_316.root
p912
(lp913
I01
aI6889
asV/store/cmst3/user/cmgtools/CMG/VBF_HToTauTau_M-120_8TeV-powheg-pythia6/Summer12_DR53X-PU_S10_START53_V7A-v1/AODSIM/V5_B/PAT_CMG_V5_16_0/cmgTuple_414.root
p914
(lp915
I01
aI10786
asV/store/cmst3/user/cmgtools/CMG/VBF_HToTauTau_M-120_8TeV-powheg-pythia6/Summer12_DR53X-PU_S10_START53_V7A-v1/AODSIM/V5_B/PAT_CMG_V5_16_0/cmgTuple_280.root
p916
(lp917
I01
aI7183
asV/store/cmst3/user/cmgtools/CMG/VBF_HToTauTau_M-120_8TeV-powheg-pythia6/Summer12_DR53X-PU_S10_START53_V7A-v1/AODSIM/V5_B/PAT_CMG_V5_16_0/cmgTuple_143.root
p918
(lp919
I01
aI11687
asV/store/cmst3/user/cmgtools/CMG/VBF_HToTauTau_M-120_8TeV-powheg-pythia6/Summer12_DR53X-PU_S10_START53_V7A-v1/AODSIM/V5_B/PAT_CMG_V5_16_0/cmgTuple_189.root
p920
(lp921
I01
aI7191
asV/store/cmst3/user/cmgtools/CMG/VBF_HToTauTau_M-120_8TeV-powheg-pythia6/Summer12_DR53X-PU_S10_START53_V7A-v1/AODSIM/V5_B/PAT_CMG_V5_16_0/cmgTuple_265.root
p922
(lp923
I01
aI12579
asV/store/cmst3/user/cmgtools/CMG/VBF_HToTauTau_M-120_8TeV-powheg-pythia6/Summer12_DR53X-PU_S10_START53_V7A-v1/AODSIM/V5_B/PAT_CMG_V5_16_0/cmgTuple_317.root
p924
(lp925
I01
aI12285
asV/store/cmst3/user/cmgtools/CMG/VBF_HToTauTau_M-120_8TeV-powheg-pythia6/Summer12_DR53X-PU_S10_START53_V7A-v1/AODSIM/V5_B/PAT_CMG_V5_16_0/cmgTuple_404.root
p926
(lp927
I01
aI6591
asV/store/cmst3/user/cmgtools/CMG/VBF_HToTauTau_M-120_8TeV-powheg-pythia6/Summer12_DR53X-PU_S10_START53_V7A-v1/AODSIM/V5_B/PAT_CMG_V5_16_0/cmgTuple_281.root
p928
(lp929
I01
aI11388
asV/store/cmst3/user/cmgtools/CMG/VBF_HToTauTau_M-120_8TeV-powheg-pythia6/Summer12_DR53X-PU_S10_START53_V7A-v1/AODSIM/V5_B/PAT_CMG_V5_16_0/cmgTuple_24.root
p930
(lp931
I01
aI10788
asV/store/cmst3/user/cmgtools/CMG/VBF_HToTauTau_M-120_8TeV-powheg-pythia6/Summer12_DR53X-PU_S10_START53_V7A-v1/AODSIM/V5_B/PAT_CMG_V5_16_0/cmgTuple_71.root
p932
(lp933
I01
aI8394
asV/store/cmst3/user/cmgtools/CMG/VBF_HToTauTau_M-120_8TeV-powheg-pythia6/Summer12_DR53X-PU_S10_START53_V7A-v1/AODSIM/V5_B/PAT_CMG_V5_16_0/cmgTuple_100.root
p934
(lp935
I01
aI10790
asV/store/cmst3/user/cmgtools/CMG/VBF_HToTauTau_M-120_8TeV-powheg-pythia6/Summer12_DR53X-PU_S10_START53_V7A-v1/AODSIM/V5_B/PAT_CMG_V5_16_0/cmgTuple_80.root
p936
(lp937
I01
aI10793
asV/store/cmst3/user/cmgtools/CMG/VBF_HToTauTau_M-120_8TeV-powheg-pythia6/Summer12_DR53X-PU_S10_START53_V7A-v1/AODSIM/V5_B/PAT_CMG_V5_16_0/cmgTuple_65.root
p938
(lp939
I01
aI7192
asV/store/cmst3/user/cmgtools/CMG/VBF_HToTauTau_M-120_8TeV-powheg-pythia6/Summer12_DR53X-PU_S10_START53_V7A-v1/AODSIM/V5_B/PAT_CMG_V5_16_0/cmgTuple_69.root
p940
(lp941
I01
aI7193
asV/store/cmst3/user/cmgtools/CMG/VBF_HToTauTau_M-120_8TeV-powheg-pythia6/Summer12_DR53X-PU_S10_START53_V7A-v1/AODSIM/V5_B/PAT_CMG_V5_16_0/cmgTuple_192.root
p942
(lp943
I01
aI12582
asV/store/cmst3/user/cmgtools/CMG/VBF_HToTauTau_M-120_8TeV-powheg-pythia6/Summer12_DR53X-PU_S10_START53_V7A-v1/AODSIM/V5_B/PAT_CMG_V5_16_0/cmgTuple_446.root
p944
(lp945
I01
aI11981
asV/store/cmst3/user/cmgtools/CMG/VBF_HToTauTau_M-120_8TeV-powheg-pythia6/Summer12_DR53X-PU_S10_START53_V7A-v1/AODSIM/V5_B/PAT_CMG_V5_16_0/cmgTuple_390.root
p946
(lp947
I01
aI10791
asV/store/cmst3/user/cmgtools/CMG/VBF_HToTauTau_M-120_8TeV-powheg-pythia6/Summer12_DR53X-PU_S10_START53_V7A-v1/AODSIM/V5_B/PAT_CMG_V5_16_0/cmgTuple_32.root
p948
(lp949
I01
aI11689
asV/store/cmst3/user/cmgtools/CMG/VBF_HToTauTau_M-120_8TeV-powheg-pythia6/Summer12_DR53X-PU_S10_START53_V7A-v1/AODSIM/V5_B/PAT_CMG_V5_16_0/cmgTuple_222.root
p950
(lp951
I01
aI10788
asV/store/cmst3/user/cmgtools/CMG/VBF_HToTauTau_M-120_8TeV-powheg-pythia6/Summer12_DR53X-PU_S10_START53_V7A-v1/AODSIM/V5_B/PAT_CMG_V5_16_0/cmgTuple_98.root
p952
(lp953
I01
aI10489
asV/store/cmst3/user/cmgtools/CMG/VBF_HToTauTau_M-120_8TeV-powheg-pythia6/Summer12_DR53X-PU_S10_START53_V7A-v1/AODSIM/V5_B/PAT_CMG_V5_16_0/cmgTuple_38.root
p954
(lp955
I01
aI10787
asV/store/cmst3/user/cmgtools/CMG/VBF_HToTauTau_M-120_8TeV-powheg-pythia6/Summer12_DR53X-PU_S10_START53_V7A-v1/AODSIM/V5_B/PAT_CMG_V5_16_0/cmgTuple_371.root
p956
(lp957
I01
aI10786
asV/store/cmst3/user/cmgtools/CMG/VBF_HToTauTau_M-120_8TeV-powheg-pythia6/Summer12_DR53X-PU_S10_START53_V7A-v1/AODSIM/V5_B/PAT_CMG_V5_16_0/cmgTuple_226.root
p958
(lp959
I01
aI10790
asV/store/cmst3/user/cmgtools/CMG/VBF_HToTauTau_M-120_8TeV-powheg-pythia6/Summer12_DR53X-PU_S10_START53_V7A-v1/AODSIM/V5_B/PAT_CMG_V5_16_0/cmgTuple_236.root
p960
(lp961
I01
aI10789
asV/store/cmst3/user/cmgtools/CMG/VBF_HToTauTau_M-120_8TeV-powheg-pythia6/Summer12_DR53X-PU_S10_START53_V7A-v1/AODSIM/V5_B/PAT_CMG_V5_16_0/cmgTuple_91.root
p962
(lp963
I01
aI7196
asV/store/cmst3/user/cmgtools/CMG/VBF_HToTauTau_M-120_8TeV-powheg-pythia6/Summer12_DR53X-PU_S10_START53_V7A-v1/AODSIM/V5_B/PAT_CMG_V5_16_0/cmgTuple_328.root
p964
(lp965
I01
aI10783
asV/store/cmst3/user/cmgtools/CMG/VBF_HToTauTau_M-120_8TeV-powheg-pythia6/Summer12_DR53X-PU_S10_START53_V7A-v1/AODSIM/V5_B/PAT_CMG_V5_16_0/cmgTuple_223.root
p966
(lp967
I01
aI10784
asV/store/cmst3/user/cmgtools/CMG/VBF_HToTauTau_M-120_8TeV-powheg-pythia6/Summer12_DR53X-PU_S10_START53_V7A-v1/AODSIM/V5_B/PAT_CMG_V5_16_0/cmgTuple_35.root
p968
(lp969
I01
aI11991
asV/store/cmst3/user/cmgtools/CMG/VBF_HToTauTau_M-120_8TeV-powheg-pythia6/Summer12_DR53X-PU_S10_START53_V7A-v1/AODSIM/V5_B/PAT_CMG_V5_16_0/cmgTuple_428.root
p970
(lp971
I01
aI12583
asV/store/cmst3/user/cmgtools/CMG/VBF_HToTauTau_M-120_8TeV-powheg-pythia6/Summer12_DR53X-PU_S10_START53_V7A-v1/AODSIM/V5_B/PAT_CMG_V5_16_0/cmgTuple_433.root
p972
(lp973
I01
aI10788
asV/store/cmst3/user/cmgtools/CMG/VBF_HToTauTau_M-120_8TeV-powheg-pythia6/Summer12_DR53X-PU_S10_START53_V7A-v1/AODSIM/V5_B/PAT_CMG_V5_16_0/cmgTuple_315.root
p974
(lp975
I01
aI11384
asV/store/cmst3/user/cmgtools/CMG/VBF_HToTauTau_M-120_8TeV-powheg-pythia6/Summer12_DR53X-PU_S10_START53_V7A-v1/AODSIM/V5_B/PAT_CMG_V5_16_0/cmgTuple_187.root
p976
(lp977
I01
aI10789
asV/store/cmst3/user/cmgtools/CMG/VBF_HToTauTau_M-120_8TeV-powheg-pythia6/Summer12_DR53X-PU_S10_START53_V7A-v1/AODSIM/V5_B/PAT_CMG_V5_16_0/cmgTuple_140.root
p978
(lp979
I01
aI10787
asV/store/cmst3/user/cmgtools/CMG/VBF_HToTauTau_M-120_8TeV-powheg-pythia6/Summer12_DR53X-PU_S10_START53_V7A-v1/AODSIM/V5_B/PAT_CMG_V5_16_0/cmgTuple_432.root
p980
(lp981
I01
aI12585
asV/store/cmst3/user/cmgtools/CMG/VBF_HToTauTau_M-120_8TeV-powheg-pythia6/Summer12_DR53X-PU_S10_START53_V7A-v1/AODSIM/V5_B/PAT_CMG_V5_16_0/cmgTuple_141.root
p982
(lp983
I01
aI6892
asV/store/cmst3/user/cmgtools/CMG/VBF_HToTauTau_M-120_8TeV-powheg-pythia6/Summer12_DR53X-PU_S10_START53_V7A-v1/AODSIM/V5_B/PAT_CMG_V5_16_0/cmgTuple_27.root
p984
(lp985
I01
aI10785
asV/store/cmst3/user/cmgtools/CMG/VBF_HToTauTau_M-120_8TeV-powheg-pythia6/Summer12_DR53X-PU_S10_START53_V7A-v1/AODSIM/V5_B/PAT_CMG_V5_16_0/cmgTuple_67.root
p986
(lp987
I01
aI11692
asV/store/cmst3/user/cmgtools/CMG/VBF_HToTauTau_M-120_8TeV-powheg-pythia6/Summer12_DR53X-PU_S10_START53_V7A-v1/AODSIM/V5_B/PAT_CMG_V5_16_0/cmgTuple_233.root
p988
(lp989
I01
aI10788
asV/store/cmst3/user/cmgtools/CMG/VBF_HToTauTau_M-120_8TeV-powheg-pythia6/Summer12_DR53X-PU_S10_START53_V7A-v1/AODSIM/V5_B/PAT_CMG_V5_16_0/cmgTuple_205.root
p990
(lp991
I01
aI12286
asV/store/cmst3/user/cmgtools/CMG/VBF_HToTauTau_M-120_8TeV-powheg-pythia6/Summer12_DR53X-PU_S10_START53_V7A-v1/AODSIM/V5_B/PAT_CMG_V5_16_0/cmgTuple_51.root
p992
(lp993
I01
aI11990
asV/store/cmst3/user/cmgtools/CMG/VBF_HToTauTau_M-120_8TeV-powheg-pythia6/Summer12_DR53X-PU_S10_START53_V7A-v1/AODSIM/V5_B/PAT_CMG_V5_16_0/cmgTuple_277.root
p994
(lp995
I01
aI11393
asV/store/cmst3/user/cmgtools/CMG/VBF_HToTauTau_M-120_8TeV-powheg-pythia6/Summer12_DR53X-PU_S10_START53_V7A-v1/AODSIM/V5_B/PAT_CMG_V5_16_0/cmgTuple_267.root
p996
(lp997
I01
aI10788
asV/store/cmst3/user/cmgtools/CMG/VBF_HToTauTau_M-120_8TeV-powheg-pythia6/Summer12_DR53X-PU_S10_START53_V7A-v1/AODSIM/V5_B/PAT_CMG_V5_16_0/cmgTuple_167.root
p998
(lp999
I01
aI11991
asV/store/cmst3/user/cmgtools/CMG/VBF_HToTauTau_M-120_8TeV-powheg-pythia6/Summer12_DR53X-PU_S10_START53_V7A-v1/AODSIM/V5_B/PAT_CMG_V5_16_0/cmgTuple_438.root
p1000
(lp1001
I01
aI12591
asV/store/cmst3/user/cmgtools/CMG/VBF_HToTauTau_M-120_8TeV-powheg-pythia6/Summer12_DR53X-PU_S10_START53_V7A-v1/AODSIM/V5_B/PAT_CMG_V5_16_0/cmgTuple_109.root
p1002
(lp1003
I01
aI7193
asV/store/cmst3/user/cmgtools/CMG/VBF_HToTauTau_M-120_8TeV-powheg-pythia6/Summer12_DR53X-PU_S10_START53_V7A-v1/AODSIM/V5_B/PAT_CMG_V5_16_0/cmgTuple_361.root
p1004
(lp1005
I01
aI8994
asV/store/cmst3/user/cmgtools/CMG/VBF_HToTauTau_M-120_8TeV-powheg-pythia6/Summer12_DR53X-PU_S10_START53_V7A-v1/AODSIM/V5_B/PAT_CMG_V5_16_0/cmgTuple_343.root
p1006
(lp1007
I01
aI12283
asV/store/cmst3/user/cmgtools/CMG/VBF_HToTauTau_M-120_8TeV-powheg-pythia6/Summer12_DR53X-PU_S10_START53_V7A-v1/AODSIM/V5_B/PAT_CMG_V5_16_0/cmgTuple_104.root
p1008
(lp1009
I01
aI8393
asV/store/cmst3/user/cmgtools/CMG/VBF_HToTauTau_M-120_8TeV-powheg-pythia6/Summer12_DR53X-PU_S10_START53_V7A-v1/AODSIM/V5_B/PAT_CMG_V5_16_0/cmgTuple_114.root
p1010
(lp1011
I01
aI10792
asV/store/cmst3/user/cmgtools/CMG/VBF_HToTauTau_M-120_8TeV-powheg-pythia6/Summer12_DR53X-PU_S10_START53_V7A-v1/AODSIM/V5_B/PAT_CMG_V5_16_0/cmgTuple_353.root
p1012
(lp1013
I01
aI12584
asV/store/cmst3/user/cmgtools/CMG/VBF_HToTauTau_M-120_8TeV-powheg-pythia6/Summer12_DR53X-PU_S10_START53_V7A-v1/AODSIM/V5_B/PAT_CMG_V5_16_0/cmgTuple_372.root
p1014
(lp1015
I01
aI11989
asV/store/cmst3/user/cmgtools/CMG/VBF_HToTauTau_M-120_8TeV-powheg-pythia6/Summer12_DR53X-PU_S10_START53_V7A-v1/AODSIM/V5_B/PAT_CMG_V5_16_0/cmgTuple_156.root
p1016
(lp1017
I01
aI10789
asV/store/cmst3/user/cmgtools/CMG/VBF_HToTauTau_M-120_8TeV-powheg-pythia6/Summer12_DR53X-PU_S10_START53_V7A-v1/AODSIM/V5_B/PAT_CMG_V5_16_0/cmgTuple_396.root
p1018
(lp1019
I01
aI10793
asV/store/cmst3/user/cmgtools/CMG/VBF_HToTauTau_M-120_8TeV-powheg-pythia6/Summer12_DR53X-PU_S10_START53_V7A-v1/AODSIM/V5_B/PAT_CMG_V5_16_0/cmgTuple_176.root
p1020
(lp1021
I01
aI7189
asV/store/cmst3/user/cmgtools/CMG/VBF_HToTauTau_M-120_8TeV-powheg-pythia6/Summer12_DR53X-PU_S10_START53_V7A-v1/AODSIM/V5_B/PAT_CMG_V5_16_0/cmgTuple_377.root
p1022
(lp1023
I01
aI8989
asV/store/cmst3/user/cmgtools/CMG/VBF_HToTauTau_M-120_8TeV-powheg-pythia6/Summer12_DR53X-PU_S10_START53_V7A-v1/AODSIM/V5_B/PAT_CMG_V5_16_0/cmgTuple_2.root
p1024
(lp1025
I01
aI10191
asV/store/cmst3/user/cmgtools/CMG/VBF_HToTauTau_M-120_8TeV-powheg-pythia6/Summer12_DR53X-PU_S10_START53_V7A-v1/AODSIM/V5_B/PAT_CMG_V5_16_0/cmgTuple_342.root
p1026
(lp1027
I01
aI11090
asV/store/cmst3/user/cmgtools/CMG/VBF_HToTauTau_M-120_8TeV-powheg-pythia6/Summer12_DR53X-PU_S10_START53_V7A-v1/AODSIM/V5_B/PAT_CMG_V5_16_0/cmgTuple_25.root
p1028
(lp1029
I01
aI12577
asV/store/cmst3/user/cmgtools/CMG/VBF_HToTauTau_M-120_8TeV-powheg-pythia6/Summer12_DR53X-PU_S10_START53_V7A-v1/AODSIM/V5_B/PAT_CMG_V5_16_0/cmgTuple_203.root
p1030
(lp1031
I01
aI10788
asV/store/cmst3/user/cmgtools/CMG/VBF_HToTauTau_M-120_8TeV-powheg-pythia6/Summer12_DR53X-PU_S10_START53_V7A-v1/AODSIM/V5_B/PAT_CMG_V5_16_0/cmgTuple_259.root
p1032
(lp1033
I01
aI12284
asV/store/cmst3/user/cmgtools/CMG/VBF_HToTauTau_M-120_8TeV-powheg-pythia6/Summer12_DR53X-PU_S10_START53_V7A-v1/AODSIM/V5_B/PAT_CMG_V5_16_0/cmgTuple_234.root
p1034
(lp1035
I01
aI10786
asV/store/cmst3/user/cmgtools/CMG/VBF_HToTauTau_M-120_8TeV-powheg-pythia6/Summer12_DR53X-PU_S10_START53_V7A-v1/AODSIM/V5_B/PAT_CMG_V5_16_0/cmgTuple_431.root
p1036
(lp1037
I01
aI10791
asV/store/cmst3/user/cmgtools/CMG/VBF_HToTauTau_M-120_8TeV-powheg-pythia6/Summer12_DR53X-PU_S10_START53_V7A-v1/AODSIM/V5_B/PAT_CMG_V5_16_0/cmgTuple_14.root
p1038
(lp1039
I01
aI12590
asV/store/cmst3/user/cmgtools/CMG/VBF_HToTauTau_M-120_8TeV-powheg-pythia6/Summer12_DR53X-PU_S10_START53_V7A-v1/AODSIM/V5_B/PAT_CMG_V5_16_0/cmgTuple_413.root
p1040
(lp1041
I01
aI10789
asV/store/cmst3/user/cmgtools/CMG/VBF_HToTauTau_M-120_8TeV-powheg-pythia6/Summer12_DR53X-PU_S10_START53_V7A-v1/AODSIM/V5_B/PAT_CMG_V5_16_0/cmgTuple_89.root
p1042
(lp1043
I01
aI10792
asV/store/cmst3/user/cmgtools/CMG/VBF_HToTauTau_M-120_8TeV-powheg-pythia6/Summer12_DR53X-PU_S10_START53_V7A-v1/AODSIM/V5_B/PAT_CMG_V5_16_0/cmgTuple_307.root
p1044
(lp1045
I01
aI11980
asV/store/cmst3/user/cmgtools/CMG/VBF_HToTauTau_M-120_8TeV-powheg-pythia6/Summer12_DR53X-PU_S10_START53_V7A-v1/AODSIM/V5_B/PAT_CMG_V5_16_0/cmgTuple_244.root
p1046
(lp1047
I01
aI12289
asV/store/cmst3/user/cmgtools/CMG/VBF_HToTauTau_M-120_8TeV-powheg-pythia6/Summer12_DR53X-PU_S10_START53_V7A-v1/AODSIM/V5_B/PAT_CMG_V5_16_0/cmgTuple_326.root
p1048
(lp1049
I01
aI7194
asV/store/cmst3/user/cmgtools/CMG/VBF_HToTauTau_M-120_8TeV-powheg-pythia6/Summer12_DR53X-PU_S10_START53_V7A-v1/AODSIM/V5_B/PAT_CMG_V5_16_0/cmgTuple_422.root
p1050
(lp1051
I01
aI7988
asV/store/cmst3/user/cmgtools/CMG/VBF_HToTauTau_M-120_8TeV-powheg-pythia6/Summer12_DR53X-PU_S10_START53_V7A-v1/AODSIM/V5_B/PAT_CMG_V5_16_0/cmgTuple_301.root
p1052
(lp1053
I01
aI12282
asV/store/cmst3/user/cmgtools/CMG/VBF_HToTauTau_M-120_8TeV-powheg-pythia6/Summer12_DR53X-PU_S10_START53_V7A-v1/AODSIM/V5_B/PAT_CMG_V5_16_0/cmgTuple_115.root
p1054
(lp1055
I01
aI11388
asV/store/cmst3/user/cmgtools/CMG/VBF_HToTauTau_M-120_8TeV-powheg-pythia6/Summer12_DR53X-PU_S10_START53_V7A-v1/AODSIM/V5_B/PAT_CMG_V5_16_0/cmgTuple_165.root
p1056
(lp1057
I01
aI6287
asV/store/cmst3/user/cmgtools/CMG/VBF_HToTauTau_M-120_8TeV-powheg-pythia6/Summer12_DR53X-PU_S10_START53_V7A-v1/AODSIM/V5_B/PAT_CMG_V5_16_0/cmgTuple_94.root
p1058
(lp1059
I01
aI8987
asV/store/cmst3/user/cmgtools/CMG/VBF_HToTauTau_M-120_8TeV-powheg-pythia6/Summer12_DR53X-PU_S10_START53_V7A-v1/AODSIM/V5_B/PAT_CMG_V5_16_0/cmgTuple_427.root
p1060
(lp1061
I01
aI9890
asV/store/cmst3/user/cmgtools/CMG/VBF_HToTauTau_M-120_8TeV-powheg-pythia6/Summer12_DR53X-PU_S10_START53_V7A-v1/AODSIM/V5_B/PAT_CMG_V5_16_0/cmgTuple_159.root
p1062
(lp1063
I01
aI11681
asV/store/cmst3/user/cmgtools/CMG/VBF_HToTauTau_M-120_8TeV-powheg-pythia6/Summer12_DR53X-PU_S10_START53_V7A-v1/AODSIM/V5_B/PAT_CMG_V5_16_0/cmgTuple_284.root
p1064
(lp1065
I01
aI11989
asV/store/cmst3/user/cmgtools/CMG/VBF_HToTauTau_M-120_8TeV-powheg-pythia6/Summer12_DR53X-PU_S10_START53_V7A-v1/AODSIM/V5_B/PAT_CMG_V5_16_0/cmgTuple_102.root
p1066
(lp1067
I01
aI8993
asV/store/cmst3/user/cmgtools/CMG/VBF_HToTauTau_M-120_8TeV-powheg-pythia6/Summer12_DR53X-PU_S10_START53_V7A-v1/AODSIM/V5_B/PAT_CMG_V5_16_0/cmgTuple_434.root
p1068
(lp1069
I01
aI10790
asV/store/cmst3/user/cmgtools/CMG/VBF_HToTauTau_M-120_8TeV-powheg-pythia6/Summer12_DR53X-PU_S10_START53_V7A-v1/AODSIM/V5_B/PAT_CMG_V5_16_0/cmgTuple_150.root
p1070
(lp1071
I01
aI10795
asV/store/cmst3/user/cmgtools/CMG/VBF_HToTauTau_M-120_8TeV-powheg-pythia6/Summer12_DR53X-PU_S10_START53_V7A-v1/AODSIM/V5_B/PAT_CMG_V5_16_0/cmgTuple_117.root
p1072
(lp1073
I01
aI12585
asV/store/cmst3/user/cmgtools/CMG/VBF_HToTauTau_M-120_8TeV-powheg-pythia6/Summer12_DR53X-PU_S10_START53_V7A-v1/AODSIM/V5_B/PAT_CMG_V5_16_0/cmgTuple_314.root
p1074
(lp1075
I01
aI12283
asV/store/cmst3/user/cmgtools/CMG/VBF_HToTauTau_M-120_8TeV-powheg-pythia6/Summer12_DR53X-PU_S10_START53_V7A-v1/AODSIM/V5_B/PAT_CMG_V5_16_0/cmgTuple_158.root
p1076
(lp1077
I01
aI11991
asV/store/cmst3/user/cmgtools/CMG/VBF_HToTauTau_M-120_8TeV-powheg-pythia6/Summer12_DR53X-PU_S10_START53_V7A-v1/AODSIM/V5_B/PAT_CMG_V5_16_0/cmgTuple_447.root
p1078
(lp1079
I01
aI8994
asV/store/cmst3/user/cmgtools/CMG/VBF_HToTauTau_M-120_8TeV-powheg-pythia6/Summer12_DR53X-PU_S10_START53_V7A-v1/AODSIM/V5_B/PAT_CMG_V5_16_0/cmgTuple_435.root
p1080
(lp1081
I01
aI11990
asV/store/cmst3/user/cmgtools/CMG/VBF_HToTauTau_M-120_8TeV-powheg-pythia6/Summer12_DR53X-PU_S10_START53_V7A-v1/AODSIM/V5_B/PAT_CMG_V5_16_0/cmgTuple_136.root
p1082
(lp1083
I01
aI6893
asV/store/cmst3/user/cmgtools/CMG/VBF_HToTauTau_M-120_8TeV-powheg-pythia6/Summer12_DR53X-PU_S10_START53_V7A-v1/AODSIM/V5_B/PAT_CMG_V5_16_0/cmgTuple_238.root
p1084
(lp1085
I01
aI11688
asV/store/cmst3/user/cmgtools/CMG/VBF_HToTauTau_M-120_8TeV-powheg-pythia6/Summer12_DR53X-PU_S10_START53_V7A-v1/AODSIM/V5_B/PAT_CMG_V5_16_0/cmgTuple_1.root
p1086
(lp1087
I01
aI7185
asV/store/cmst3/user/cmgtools/CMG/VBF_HToTauTau_M-120_8TeV-powheg-pythia6/Summer12_DR53X-PU_S10_START53_V7A-v1/AODSIM/V5_B/PAT_CMG_V5_16_0/cmgTuple_130.root
p1088
(lp1089
I01
aI10788
asV/store/cmst3/user/cmgtools/CMG/VBF_HToTauTau_M-120_8TeV-powheg-pythia6/Summer12_DR53X-PU_S10_START53_V7A-v1/AODSIM/V5_B/PAT_CMG_V5_16_0/cmgTuple_291.root
p1090
(lp1091
I01
aI10788
asV/store/cmst3/user/cmgtools/CMG/VBF_HToTauTau_M-120_8TeV-powheg-pythia6/Summer12_DR53X-PU_S10_START53_V7A-v1/AODSIM/V5_B/PAT_CMG_V5_16_0/cmgTuple_44.root
p1092
(lp1093
I01
aI10792
asV/store/cmst3/user/cmgtools/CMG/VBF_HToTauTau_M-120_8TeV-powheg-pythia6/Summer12_DR53X-PU_S10_START53_V7A-v1/AODSIM/V5_B/PAT_CMG_V5_16_0/cmgTuple_247.root
p1094
(lp1095
I01
aI11989
asV/store/cmst3/user/cmgtools/CMG/VBF_HToTauTau_M-120_8TeV-powheg-pythia6/Summer12_DR53X-PU_S10_START53_V7A-v1/AODSIM/V5_B/PAT_CMG_V5_16_0/cmgTuple_420.root
p1096
(lp1097
I01
aI8391
asV/store/cmst3/user/cmgtools/CMG/VBF_HToTauTau_M-120_8TeV-powheg-pythia6/Summer12_DR53X-PU_S10_START53_V7A-v1/AODSIM/V5_B/PAT_CMG_V5_16_0/cmgTuple_39.root
p1098
(lp1099
I01
aI12593
asV/store/cmst3/user/cmgtools/CMG/VBF_HToTauTau_M-120_8TeV-powheg-pythia6/Summer12_DR53X-PU_S10_START53_V7A-v1/AODSIM/V5_B/PAT_CMG_V5_16_0/cmgTuple_311.root
p1100
(lp1101
I01
aI9586
asV/store/cmst3/user/cmgtools/CMG/VBF_HToTauTau_M-120_8TeV-powheg-pythia6/Summer12_DR53X-PU_S10_START53_V7A-v1/AODSIM/V5_B/PAT_CMG_V5_16_0/cmgTuple_186.root
p1102
(lp1103
I01
aI10783
asV/store/cmst3/user/cmgtools/CMG/VBF_HToTauTau_M-120_8TeV-powheg-pythia6/Summer12_DR53X-PU_S10_START53_V7A-v1/AODSIM/V5_B/PAT_CMG_V5_16_0/cmgTuple_282.root
p1104
(lp1105
I01
aI12282
asV/store/cmst3/user/cmgtools/CMG/VBF_HToTauTau_M-120_8TeV-powheg-pythia6/Summer12_DR53X-PU_S10_START53_V7A-v1/AODSIM/V5_B/PAT_CMG_V5_16_0/cmgTuple_241.root
p1106
(lp1107
I01
aI12288
asV/store/cmst3/user/cmgtools/CMG/VBF_HToTauTau_M-120_8TeV-powheg-pythia6/Summer12_DR53X-PU_S10_START53_V7A-v1/AODSIM/V5_B/PAT_CMG_V5_16_0/cmgTuple_208.root
p1108
(lp1109
I01
aI12281
asV/store/cmst3/user/cmgtools/CMG/VBF_HToTauTau_M-120_8TeV-powheg-pythia6/Summer12_DR53X-PU_S10_START53_V7A-v1/AODSIM/V5_B/PAT_CMG_V5_16_0/cmgTuple_421.root
p1110
(lp1111
I01
aI10789
asV/store/cmst3/user/cmgtools/CMG/VBF_HToTauTau_M-120_8TeV-powheg-pythia6/Summer12_DR53X-PU_S10_START53_V7A-v1/AODSIM/V5_B/PAT_CMG_V5_16_0/cmgTuple_310.root
p1112
(lp1113
I01
aI11690
asV/store/cmst3/user/cmgtools/CMG/VBF_HToTauTau_M-120_8TeV-powheg-pythia6/Summer12_DR53X-PU_S10_START53_V7A-v1/AODSIM/V5_B/PAT_CMG_V5_16_0/cmgTuple_256.root
p1114
(lp1115
I01
aI10788
asV/store/cmst3/user/cmgtools/CMG/VBF_HToTauTau_M-120_8TeV-powheg-pythia6/Summer12_DR53X-PU_S10_START53_V7A-v1/AODSIM/V5_B/PAT_CMG_V5_16_0/cmgTuple_287.root
p1116
(lp1117
I01
aI10786
asV/store/cmst3/user/cmgtools/CMG/VBF_HToTauTau_M-120_8TeV-powheg-pythia6/Summer12_DR53X-PU_S10_START53_V7A-v1/AODSIM/V5_B/PAT_CMG_V5_16_0/cmgTuple_415.root
p1118
(lp1119
I01
aI10788
asV/store/cmst3/user/cmgtools/CMG/VBF_HToTauTau_M-120_8TeV-powheg-pythia6/Summer12_DR53X-PU_S10_START53_V7A-v1/AODSIM/V5_B/PAT_CMG_V5_16_0/cmgTuple_50.root
p1120
(lp1121
I01
aI11976
asV/store/cmst3/user/cmgtools/CMG/VBF_HToTauTau_M-120_8TeV-powheg-pythia6/Summer12_DR53X-PU_S10_START53_V7A-v1/AODSIM/V5_B/PAT_CMG_V5_16_0/cmgTuple_352.root
p1122
(lp1123
I01
aI12185
asV/store/cmst3/user/cmgtools/CMG/VBF_HToTauTau_M-120_8TeV-powheg-pythia6/Summer12_DR53X-PU_S10_START53_V7A-v1/AODSIM/V5_B/PAT_CMG_V5_16_0/cmgTuple_157.root
p1124
(lp1125
I01
aI10792
asV/store/cmst3/user/cmgtools/CMG/VBF_HToTauTau_M-120_8TeV-powheg-pythia6/Summer12_DR53X-PU_S10_START53_V7A-v1/AODSIM/V5_B/PAT_CMG_V5_16_0/cmgTuple_305.root
p1126
(lp1127
I01
aI11385
asV/store/cmst3/user/cmgtools/CMG/VBF_HToTauTau_M-120_8TeV-powheg-pythia6/Summer12_DR53X-PU_S10_START53_V7A-v1/AODSIM/V5_B/PAT_CMG_V5_16_0/cmgTuple_182.root
p1128
(lp1129
I01
aI10786
asV/store/cmst3/user/cmgtools/CMG/VBF_HToTauTau_M-120_8TeV-powheg-pythia6/Summer12_DR53X-PU_S10_START53_V7A-v1/AODSIM/V5_B/PAT_CMG_V5_16_0/cmgTuple_425.root
p1130
(lp1131
I01
aI12291
asV/store/cmst3/user/cmgtools/CMG/VBF_HToTauTau_M-120_8TeV-powheg-pythia6/Summer12_DR53X-PU_S10_START53_V7A-v1/AODSIM/V5_B/PAT_CMG_V5_16_0/cmgTuple_18.root
p1132
(lp1133
I01
aI11685
asV/store/cmst3/user/cmgtools/CMG/VBF_HToTauTau_M-120_8TeV-powheg-pythia6/Summer12_DR53X-PU_S10_START53_V7A-v1/AODSIM/V5_B/PAT_CMG_V5_16_0/cmgTuple_161.root
p1134
(lp1135
I01
aI9884
asV/store/cmst3/user/cmgtools/CMG/VBF_HToTauTau_M-120_8TeV-powheg-pythia6/Summer12_DR53X-PU_S10_START53_V7A-v1/AODSIM/V5_B/PAT_CMG_V5_16_0/cmgTuple_308.root
p1136
(lp1137
I01
aI6292
asV/store/cmst3/user/cmgtools/CMG/VBF_HToTauTau_M-120_8TeV-powheg-pythia6/Summer12_DR53X-PU_S10_START53_V7A-v1/AODSIM/V5_B/PAT_CMG_V5_16_0/cmgTuple_12.root
p1138
(lp1139
I01
aI11982
asV/store/cmst3/user/cmgtools/CMG/VBF_HToTauTau_M-120_8TeV-powheg-pythia6/Summer12_DR53X-PU_S10_START53_V7A-v1/AODSIM/V5_B/PAT_CMG_V5_16_0/cmgTuple_296.root
p1140
(lp1141
I01
aI8689
asV/store/cmst3/user/cmgtools/CMG/VBF_HToTauTau_M-120_8TeV-powheg-pythia6/Summer12_DR53X-PU_S10_START53_V7A-v1/AODSIM/V5_B/PAT_CMG_V5_16_0/cmgTuple_105.root
p1142
(lp1143
I01
aI11684
asV/store/cmst3/user/cmgtools/CMG/VBF_HToTauTau_M-120_8TeV-powheg-pythia6/Summer12_DR53X-PU_S10_START53_V7A-v1/AODSIM/V5_B/PAT_CMG_V5_16_0/cmgTuple_399.root
p1144
(lp1145
I01
aI9884
asV/store/cmst3/user/cmgtools/CMG/VBF_HToTauTau_M-120_8TeV-powheg-pythia6/Summer12_DR53X-PU_S10_START53_V7A-v1/AODSIM/V5_B/PAT_CMG_V5_16_0/cmgTuple_249.root
p1146
(lp1147
I01
aI10791
asV/store/cmst3/user/cmgtools/CMG/VBF_HToTauTau_M-120_8TeV-powheg-pythia6/Summer12_DR53X-PU_S10_START53_V7A-v1/AODSIM/V5_B/PAT_CMG_V5_16_0/cmgTuple_215.root
p1148
(lp1149
I01
aI11987
asV/store/cmst3/user/cmgtools/CMG/VBF_HToTauTau_M-120_8TeV-powheg-pythia6/Summer12_DR53X-PU_S10_START53_V7A-v1/AODSIM/V5_B/PAT_CMG_V5_16_0/cmgTuple_59.root
p1150
(lp1151
I01
aI9590
asV/store/cmst3/user/cmgtools/CMG/VBF_HToTauTau_M-120_8TeV-powheg-pythia6/Summer12_DR53X-PU_S10_START53_V7A-v1/AODSIM/V5_B/PAT_CMG_V5_16_0/cmgTuple_406.root
p1152
(lp1153
I01
aI10789
asV/store/cmst3/user/cmgtools/CMG/VBF_HToTauTau_M-120_8TeV-powheg-pythia6/Summer12_DR53X-PU_S10_START53_V7A-v1/AODSIM/V5_B/PAT_CMG_V5_16_0/cmgTuple_237.root
p1154
(lp1155
I01
aI10781
asV/store/cmst3/user/cmgtools/CMG/VBF_HToTauTau_M-120_8TeV-powheg-pythia6/Summer12_DR53X-PU_S10_START53_V7A-v1/AODSIM/V5_B/PAT_CMG_V5_16_0/cmgTuple_419.root
p1156
(lp1157
I01
aI10791
asV/store/cmst3/user/cmgtools/CMG/VBF_HToTauTau_M-120_8TeV-powheg-pythia6/Summer12_DR53X-PU_S10_START53_V7A-v1/AODSIM/V5_B/PAT_CMG_V5_16_0/cmgTuple_309.root
p1158
(lp1159
I01
aI12586
asV/store/cmst3/user/cmgtools/CMG/VBF_HToTauTau_M-120_8TeV-powheg-pythia6/Summer12_DR53X-PU_S10_START53_V7A-v1/AODSIM/V5_B/PAT_CMG_V5_16_0/cmgTuple_6.root
p1160
(lp1161
I01
aI7190
asV/store/cmst3/user/cmgtools/CMG/VBF_HToTauTau_M-120_8TeV-powheg-pythia6/Summer12_DR53X-PU_S10_START53_V7A-v1/AODSIM/V5_B/PAT_CMG_V5_16_0/cmgTuple_418.root
p1162
(lp1163
I01
aI11986
asV/store/cmst3/user/cmgtools/CMG/VBF_HToTauTau_M-120_8TeV-powheg-pythia6/Summer12_DR53X-PU_S10_START53_V7A-v1/AODSIM/V5_B/PAT_CMG_V5_16_0/cmgTuple_231.root
p1164
(lp1165
I01
aI12583
asV/store/cmst3/user/cmgtools/CMG/VBF_HToTauTau_M-120_8TeV-powheg-pythia6/Summer12_DR53X-PU_S10_START53_V7A-v1/AODSIM/V5_B/PAT_CMG_V5_16_0/cmgTuple_151.root
p1166
(lp1167
I01
aI6588
asV/store/cmst3/user/cmgtools/CMG/VBF_HToTauTau_M-120_8TeV-powheg-pythia6/Summer12_DR53X-PU_S10_START53_V7A-v1/AODSIM/V5_B/PAT_CMG_V5_16_0/cmgTuple_266.root
p1168
(lp1169
I01
aI10780
asV/store/cmst3/user/cmgtools/CMG/VBF_HToTauTau_M-120_8TeV-powheg-pythia6/Summer12_DR53X-PU_S10_START53_V7A-v1/AODSIM/V5_B/PAT_CMG_V5_16_0/cmgTuple_64.root
p1170
(lp1171
I01
aI12288
asV/store/cmst3/user/cmgtools/CMG/VBF_HToTauTau_M-120_8TeV-powheg-pythia6/Summer12_DR53X-PU_S10_START53_V7A-v1/AODSIM/V5_B/PAT_CMG_V5_16_0/cmgTuple_255.root
p1172
(lp1173
I01
aI12282
asV/store/cmst3/user/cmgtools/CMG/VBF_HToTauTau_M-120_8TeV-powheg-pythia6/Summer12_DR53X-PU_S10_START53_V7A-v1/AODSIM/V5_B/PAT_CMG_V5_16_0/cmgTuple_142.root
p1174
(lp1175
I01
aI11087
asV/store/cmst3/user/cmgtools/CMG/VBF_HToTauTau_M-120_8TeV-powheg-pythia6/Summer12_DR53X-PU_S10_START53_V7A-v1/AODSIM/V5_B/PAT_CMG_V5_16_0/cmgTuple_37.root
p1176
(lp1177
I01
aI10794
asV/store/cmst3/user/cmgtools/CMG/VBF_HToTauTau_M-120_8TeV-powheg-pythia6/Summer12_DR53X-PU_S10_START53_V7A-v1/AODSIM/V5_B/PAT_CMG_V5_16_0/cmgTuple_112.root
p1178
(lp1179
I01
aI7193
asV/store/cmst3/user/cmgtools/CMG/VBF_HToTauTau_M-120_8TeV-powheg-pythia6/Summer12_DR53X-PU_S10_START53_V7A-v1/AODSIM/V5_B/PAT_CMG_V5_16_0/cmgTuple_355.root
p1180
(lp1181
I01
aI11682
asV/store/cmst3/user/cmgtools/CMG/VBF_HToTauTau_M-120_8TeV-powheg-pythia6/Summer12_DR53X-PU_S10_START53_V7A-v1/AODSIM/V5_B/PAT_CMG_V5_16_0/cmgTuple_450.root
p1182
(lp1183
I01
aI7191
asV/store/cmst3/user/cmgtools/CMG/VBF_HToTauTau_M-120_8TeV-powheg-pythia6/Summer12_DR53X-PU_S10_START53_V7A-v1/AODSIM/V5_B/PAT_CMG_V5_16_0/cmgTuple_124.root
p1184
(lp1185
I01
aI12183
asV/store/cmst3/user/cmgtools/CMG/VBF_HToTauTau_M-120_8TeV-powheg-pythia6/Summer12_DR53X-PU_S10_START53_V7A-v1/AODSIM/V5_B/PAT_CMG_V5_16_0/cmgTuple_268.root
p1186
(lp1187
I01
aI12582
asV/store/cmst3/user/cmgtools/CMG/VBF_HToTauTau_M-120_8TeV-powheg-pythia6/Summer12_DR53X-PU_S10_START53_V7A-v1/AODSIM/V5_B/PAT_CMG_V5_16_0/cmgTuple_412.root
p1188
(lp1189
I01
aI9590
asV/store/cmst3/user/cmgtools/CMG/VBF_HToTauTau_M-120_8TeV-powheg-pythia6/Summer12_DR53X-PU_S10_START53_V7A-v1/AODSIM/V5_B/PAT_CMG_V5_16_0/cmgTuple_213.root
p1190
(lp1191
I01
aI10787
asV/store/cmst3/user/cmgtools/CMG/VBF_HToTauTau_M-120_8TeV-powheg-pythia6/Summer12_DR53X-PU_S10_START53_V7A-v1/AODSIM/V5_B/PAT_CMG_V5_16_0/cmgTuple_62.root
p1192
(lp1193
I01
aI11688
asV/store/cmst3/user/cmgtools/CMG/VBF_HToTauTau_M-120_8TeV-powheg-pythia6/Summer12_DR53X-PU_S10_START53_V7A-v1/AODSIM/V5_B/PAT_CMG_V5_16_0/cmgTuple_306.root
p1194
(lp1195
I01
aI8988
asV/store/cmst3/user/cmgtools/CMG/VBF_HToTauTau_M-120_8TeV-powheg-pythia6/Summer12_DR53X-PU_S10_START53_V7A-v1/AODSIM/V5_B/PAT_CMG_V5_16_0/cmgTuple_285.root
p1196
(lp1197
I01
aI8988
asV/store/cmst3/user/cmgtools/CMG/VBF_HToTauTau_M-120_8TeV-powheg-pythia6/Summer12_DR53X-PU_S10_START53_V7A-v1/AODSIM/V5_B/PAT_CMG_V5_16_0/cmgTuple_154.root
p1198
(lp1199
I01
aI6595
asV/store/cmst3/user/cmgtools/CMG/VBF_HToTauTau_M-120_8TeV-powheg-pythia6/Summer12_DR53X-PU_S10_START53_V7A-v1/AODSIM/V5_B/PAT_CMG_V5_16_0/cmgTuple_113.root
p1200
(lp1201
I01
aI8987
asV/store/cmst3/user/cmgtools/CMG/VBF_HToTauTau_M-120_8TeV-powheg-pythia6/Summer12_DR53X-PU_S10_START53_V7A-v1/AODSIM/V5_B/PAT_CMG_V5_16_0/cmgTuple_201.root
p1202
(lp1203
I01
aI10791
asV/store/cmst3/user/cmgtools/CMG/VBF_HToTauTau_M-120_8TeV-powheg-pythia6/Summer12_DR53X-PU_S10_START53_V7A-v1/AODSIM/V5_B/PAT_CMG_V5_16_0/cmgTuple_139.root
p1204
(lp1205
I01
aI6291
asV/store/cmst3/user/cmgtools/CMG/VBF_HToTauTau_M-120_8TeV-powheg-pythia6/Summer12_DR53X-PU_S10_START53_V7A-v1/AODSIM/V5_B/PAT_CMG_V5_16_0/cmgTuple_28.root
p1206
(lp1207
I01
aI7188
asV/store/cmst3/user/cmgtools/CMG/VBF_HToTauTau_M-120_8TeV-powheg-pythia6/Summer12_DR53X-PU_S10_START53_V7A-v1/AODSIM/V5_B/PAT_CMG_V5_16_0/cmgTuple_245.root
p1208
(lp1209
I01
aI10783
asV/store/cmst3/user/cmgtools/CMG/VBF_HToTauTau_M-120_8TeV-powheg-pythia6/Summer12_DR53X-PU_S10_START53_V7A-v1/AODSIM/V5_B/PAT_CMG_V5_16_0/cmgTuple_242.root
p1210
(lp1211
I01
aI9186
asV/store/cmst3/user/cmgtools/CMG/VBF_HToTauTau_M-120_8TeV-powheg-pythia6/Summer12_DR53X-PU_S10_START53_V7A-v1/AODSIM/V5_B/PAT_CMG_V5_16_0/cmgTuple_405.root
p1212
(lp1213
I01
aI12286
asV/store/cmst3/user/cmgtools/CMG/VBF_HToTauTau_M-120_8TeV-powheg-pythia6/Summer12_DR53X-PU_S10_START53_V7A-v1/AODSIM/V5_B/PAT_CMG_V5_16_0/cmgTuple_279.root
p1214
(lp1215
I01
aI9593
asV/store/cmst3/user/cmgtools/CMG/VBF_HToTauTau_M-120_8TeV-powheg-pythia6/Summer12_DR53X-PU_S10_START53_V7A-v1/AODSIM/V5_B/PAT_CMG_V5_16_0/cmgTuple_200.root
p1216
(lp1217
I01
aI9591
asV/store/cmst3/user/cmgtools/CMG/VBF_HToTauTau_M-120_8TeV-powheg-pythia6/Summer12_DR53X-PU_S10_START53_V7A-v1/AODSIM/V5_B/PAT_CMG_V5_16_0/cmgTuple_232.root
p1218
(lp1219
I01
aI10788
asV/store/cmst3/user/cmgtools/CMG/VBF_HToTauTau_M-120_8TeV-powheg-pythia6/Summer12_DR53X-PU_S10_START53_V7A-v1/AODSIM/V5_B/PAT_CMG_V5_16_0/cmgTuple_30.root
p1220
(lp1221
I01
aI11986
asV/store/cmst3/user/cmgtools/CMG/VBF_HToTauTau_M-120_8TeV-powheg-pythia6/Summer12_DR53X-PU_S10_START53_V7A-v1/AODSIM/V5_B/PAT_CMG_V5_16_0/cmgTuple_118.root
p1222
(lp1223
I01
aI11976
asV/store/cmst3/user/cmgtools/CMG/VBF_HToTauTau_M-120_8TeV-powheg-pythia6/Summer12_DR53X-PU_S10_START53_V7A-v1/AODSIM/V5_B/PAT_CMG_V5_16_0/cmgTuple_34.root
p1224
(lp1225
I01
aI7194
asV/store/cmst3/user/cmgtools/CMG/VBF_HToTauTau_M-120_8TeV-powheg-pythia6/Summer12_DR53X-PU_S10_START53_V7A-v1/AODSIM/V5_B/PAT_CMG_V5_16_0/cmgTuple_225.root
p1226
(lp1227
I01
aI12286
asV/store/cmst3/user/cmgtools/CMG/VBF_HToTauTau_M-120_8TeV-powheg-pythia6/Summer12_DR53X-PU_S10_START53_V7A-v1/AODSIM/V5_B/PAT_CMG_V5_16_0/cmgTuple_23.root
p1228
(lp1229
I01
aI7193
asV/store/cmst3/user/cmgtools/CMG/VBF_HToTauTau_M-120_8TeV-powheg-pythia6/Summer12_DR53X-PU_S10_START53_V7A-v1/AODSIM/V5_B/PAT_CMG_V5_16_0/cmgTuple_82.root
p1230
(lp1231
I01
aI10785
asV/store/cmst3/user/cmgtools/CMG/VBF_HToTauTau_M-120_8TeV-powheg-pythia6/Summer12_DR53X-PU_S10_START53_V7A-v1/AODSIM/V5_B/PAT_CMG_V5_16_0/cmgTuple_145.root
p1232
(lp1233
I01
aI6889
asV/store/cmst3/user/cmgtools/CMG/VBF_HToTauTau_M-120_8TeV-powheg-pythia6/Summer12_DR53X-PU_S10_START53_V7A-v1/AODSIM/V5_B/PAT_CMG_V5_16_0/cmgTuple_20.root
p1234
(lp1235
I01
aI8584
asV/store/cmst3/user/cmgtools/CMG/VBF_HToTauTau_M-120_8TeV-powheg-pythia6/Summer12_DR53X-PU_S10_START53_V7A-v1/AODSIM/V5_B/PAT_CMG_V5_16_0/cmgTuple_424.root
p1236
(lp1237
I01
aI11878
assVPhysicsGroup
p1238
VCMG
p1239
sVFilesCount
p1240
I450
sVFilesEntries
p1241
I4757714
sVRunList
p1242
(lp1243
sVValidDuplicates
p1244
(dp1245
sVPrimaryDataset
p1246
V/VBF_HToTauTau_M-120_8TeV-powheg-pythia6/Summer12_DR53X-PU_S10_START53_V7A-v1/AODSIM
p1247
sVStatus
p1248
VVALID
p1249
sVName
p1250
V/VBF_HToTauTau_M-120_8TeV-powheg-pythia6/Summer12_DR53X-PU_S10_START53_V7A-v1/AODSIM/V5_B/PAT_CMG_V5_16_0
p1251
sVTopdir
p1252
V/eos/cms/store/cmst3/user/cmgtools/CMG
p1253
sVdata
p1254
(dp1255
sVFilesBad
p1256
I0
sVMinRun
p1257
I-1
sVAlgoList
p1258
(lp1259
sVTierList
p1260
(lp1261
sVDateCreated
p1262
V1370611632
p1263
sVCreatedBy
p1264
Vcmgtools
p1265
sVMaxRun
p1266
I-1
sVBadJobs
p1267
(lp1268
ssg227
I01
ssS'MonitorJobs'
p1269
(dp1270
S'LSFJobStatus'
p1271
(dp1272
g230
S'VBF_HToTauTau_M-120_8TeV-powheg-pythia6/Summer12_DR53X-PU_S10_START53_V7A-v1/AODSIM/V5_B/PAT_CMG_V5_16_0_1377467448/HTT_24Jul_newTES_manzoni_Up_Jobs/Job_88/LSFJOB_440974913/STDOUT.gz'
p1273
sg231
S'VBF_HToTauTau_M-120_8TeV-powheg-pythia6/Summer12_DR53X-PU_S10_START53_V7A-v1/AODSIM/V5_B/PAT_CMG_V5_16_0_1377467448/HTT_24Jul_newTES_manzoni_Up_Jobs/Job_89/LSFJOB_440974925/STDOUT.gz'
p1274
sg232
S'VBF_HToTauTau_M-120_8TeV-powheg-pythia6/Summer12_DR53X-PU_S10_START53_V7A-v1/AODSIM/V5_B/PAT_CMG_V5_16_0_1377467448/HTT_24Jul_newTES_manzoni_Up_Jobs/Job_86/LSFJOB_440974894/STDOUT.gz'
p1275
sg233
S'VBF_HToTauTau_M-120_8TeV-powheg-pythia6/Summer12_DR53X-PU_S10_START53_V7A-v1/AODSIM/V5_B/PAT_CMG_V5_16_0_1377467448/HTT_24Jul_newTES_manzoni_Up_Jobs/Job_87/LSFJOB_440974905/STDOUT.gz'
p1276
sg234
S'VBF_HToTauTau_M-120_8TeV-powheg-pythia6/Summer12_DR53X-PU_S10_START53_V7A-v1/AODSIM/V5_B/PAT_CMG_V5_16_0_1377467448/HTT_24Jul_newTES_manzoni_Up_Jobs/Job_84/LSFJOB_440974872/STDOUT.gz'
p1277
sg235
S'VBF_HToTauTau_M-120_8TeV-powheg-pythia6/Summer12_DR53X-PU_S10_START53_V7A-v1/AODSIM/V5_B/PAT_CMG_V5_16_0_1377467448/HTT_24Jul_newTES_manzoni_Up_Jobs/Job_85/LSFJOB_440974882/STDOUT.gz'
p1278
sg236
S'VBF_HToTauTau_M-120_8TeV-powheg-pythia6/Summer12_DR53X-PU_S10_START53_V7A-v1/AODSIM/V5_B/PAT_CMG_V5_16_0_1377467448/HTT_24Jul_newTES_manzoni_Up_Jobs/Job_82/LSFJOB_440974834/STDOUT.gz'
p1279
sg237
S'VBF_HToTauTau_M-120_8TeV-powheg-pythia6/Summer12_DR53X-PU_S10_START53_V7A-v1/AODSIM/V5_B/PAT_CMG_V5_16_0_1377467448/HTT_24Jul_newTES_manzoni_Up_Jobs/Job_83/LSFJOB_440974856/STDOUT.gz'
p1280
sg238
S'VBF_HToTauTau_M-120_8TeV-powheg-pythia6/Summer12_DR53X-PU_S10_START53_V7A-v1/AODSIM/V5_B/PAT_CMG_V5_16_0_1377467448/HTT_24Jul_newTES_manzoni_Up_Jobs/Job_80/LSFJOB_440974819/STDOUT.gz'
p1281
sg239
S'VBF_HToTauTau_M-120_8TeV-powheg-pythia6/Summer12_DR53X-PU_S10_START53_V7A-v1/AODSIM/V5_B/PAT_CMG_V5_16_0_1377467448/HTT_24Jul_newTES_manzoni_Up_Jobs/Job_81/LSFJOB_440974826/STDOUT.gz'
p1282
sg240
S'VBF_HToTauTau_M-120_8TeV-powheg-pythia6/Summer12_DR53X-PU_S10_START53_V7A-v1/AODSIM/V5_B/PAT_CMG_V5_16_0_1377467448/HTT_24Jul_newTES_manzoni_Up_Jobs/Job_73/LSFJOB_440974740/STDOUT.gz'
p1283
sg241
S'VBF_HToTauTau_M-120_8TeV-powheg-pythia6/Summer12_DR53X-PU_S10_START53_V7A-v1/AODSIM/V5_B/PAT_CMG_V5_16_0_1377467448/HTT_24Jul_newTES_manzoni_Up_Jobs/Job_72/LSFJOB_440974732/STDOUT.gz'
p1284
sg242
S'VBF_HToTauTau_M-120_8TeV-powheg-pythia6/Summer12_DR53X-PU_S10_START53_V7A-v1/AODSIM/V5_B/PAT_CMG_V5_16_0_1377467448/HTT_24Jul_newTES_manzoni_Up_Jobs/Job_71/LSFJOB_440974722/STDOUT.gz'
p1285
sg243
S'VBF_HToTauTau_M-120_8TeV-powheg-pythia6/Summer12_DR53X-PU_S10_START53_V7A-v1/AODSIM/V5_B/PAT_CMG_V5_16_0_1377467448/HTT_24Jul_newTES_manzoni_Up_Jobs/Job_70/LSFJOB_440974705/STDOUT.gz'
p1286
sg244
S'VBF_HToTauTau_M-120_8TeV-powheg-pythia6/Summer12_DR53X-PU_S10_START53_V7A-v1/AODSIM/V5_B/PAT_CMG_V5_16_0_1377467448/HTT_24Jul_newTES_manzoni_Up_Jobs/Job_77/LSFJOB_440974784/STDOUT.gz'
p1287
sg245
S'VBF_HToTauTau_M-120_8TeV-powheg-pythia6/Summer12_DR53X-PU_S10_START53_V7A-v1/AODSIM/V5_B/PAT_CMG_V5_16_0_1377467448/HTT_24Jul_newTES_manzoni_Up_Jobs/Job_76/LSFJOB_440974772/STDOUT.gz'
p1288
sg246
S'VBF_HToTauTau_M-120_8TeV-powheg-pythia6/Summer12_DR53X-PU_S10_START53_V7A-v1/AODSIM/V5_B/PAT_CMG_V5_16_0_1377467448/HTT_24Jul_newTES_manzoni_Up_Jobs/Job_75/LSFJOB_440974763/STDOUT.gz'
p1289
sg247
S'VBF_HToTauTau_M-120_8TeV-powheg-pythia6/Summer12_DR53X-PU_S10_START53_V7A-v1/AODSIM/V5_B/PAT_CMG_V5_16_0_1377467448/HTT_24Jul_newTES_manzoni_Up_Jobs/Job_74/LSFJOB_440974752/STDOUT.gz'
p1290
sg248
S'VBF_HToTauTau_M-120_8TeV-powheg-pythia6/Summer12_DR53X-PU_S10_START53_V7A-v1/AODSIM/V5_B/PAT_CMG_V5_16_0_1377467448/HTT_24Jul_newTES_manzoni_Up_Jobs/Job_79/LSFJOB_440974810/STDOUT.gz'
p1291
sg249
S'VBF_HToTauTau_M-120_8TeV-powheg-pythia6/Summer12_DR53X-PU_S10_START53_V7A-v1/AODSIM/V5_B/PAT_CMG_V5_16_0_1377467448/HTT_24Jul_newTES_manzoni_Up_Jobs/Job_78/LSFJOB_440974798/STDOUT.gz'
p1292
sg250
S'VBF_HToTauTau_M-120_8TeV-powheg-pythia6/Summer12_DR53X-PU_S10_START53_V7A-v1/AODSIM/V5_B/PAT_CMG_V5_16_0_1377467448/HTT_24Jul_newTES_manzoni_Up_Jobs/Job_28/LSFJOB_440973762/STDOUT.gz'
p1293
sg251
S'VBF_HToTauTau_M-120_8TeV-powheg-pythia6/Summer12_DR53X-PU_S10_START53_V7A-v1/AODSIM/V5_B/PAT_CMG_V5_16_0_1377467448/HTT_24Jul_newTES_manzoni_Up_Jobs/Job_29/LSFJOB_440973797/STDOUT.gz'
p1294
sg252
S'VBF_HToTauTau_M-120_8TeV-powheg-pythia6/Summer12_DR53X-PU_S10_START53_V7A-v1/AODSIM/V5_B/PAT_CMG_V5_16_0_1377467448/HTT_24Jul_newTES_manzoni_Up_Jobs/Job_24/LSFJOB_440973548/STDOUT.gz'
p1295
sg253
S'VBF_HToTauTau_M-120_8TeV-powheg-pythia6/Summer12_DR53X-PU_S10_START53_V7A-v1/AODSIM/V5_B/PAT_CMG_V5_16_0_1377467448/HTT_24Jul_newTES_manzoni_Up_Jobs/Job_25/LSFJOB_440973580/STDOUT.gz'
p1296
sg254
S'VBF_HToTauTau_M-120_8TeV-powheg-pythia6/Summer12_DR53X-PU_S10_START53_V7A-v1/AODSIM/V5_B/PAT_CMG_V5_16_0_1377467448/HTT_24Jul_newTES_manzoni_Up_Jobs/Job_26/LSFJOB_440973639/STDOUT.gz'
p1297
sg255
S'VBF_HToTauTau_M-120_8TeV-powheg-pythia6/Summer12_DR53X-PU_S10_START53_V7A-v1/AODSIM/V5_B/PAT_CMG_V5_16_0_1377467448/HTT_24Jul_newTES_manzoni_Up_Jobs/Job_27/LSFJOB_440973673/STDOUT.gz'
p1298
sg256
S'VBF_HToTauTau_M-120_8TeV-powheg-pythia6/Summer12_DR53X-PU_S10_START53_V7A-v1/AODSIM/V5_B/PAT_CMG_V5_16_0_1377467448/HTT_24Jul_newTES_manzoni_Up_Jobs/Job_20/LSFJOB_440973338/STDOUT.gz'
p1299
sg257
S'VBF_HToTauTau_M-120_8TeV-powheg-pythia6/Summer12_DR53X-PU_S10_START53_V7A-v1/AODSIM/V5_B/PAT_CMG_V5_16_0_1377467448/HTT_24Jul_newTES_manzoni_Up_Jobs/Job_21/LSFJOB_440973393/STDOUT.gz'
p1300
sg258
S'VBF_HToTauTau_M-120_8TeV-powheg-pythia6/Summer12_DR53X-PU_S10_START53_V7A-v1/AODSIM/V5_B/PAT_CMG_V5_16_0_1377467448/HTT_24Jul_newTES_manzoni_Up_Jobs/Job_22/LSFJOB_440973467/STDOUT.gz'
p1301
sg259
S'VBF_HToTauTau_M-120_8TeV-powheg-pythia6/Summer12_DR53X-PU_S10_START53_V7A-v1/AODSIM/V5_B/PAT_CMG_V5_16_0_1377467448/HTT_24Jul_newTES_manzoni_Up_Jobs/Job_23/LSFJOB_440973489/STDOUT.gz'
p1302
sg260
S'VBF_HToTauTau_M-120_8TeV-powheg-pythia6/Summer12_DR53X-PU_S10_START53_V7A-v1/AODSIM/V5_B/PAT_CMG_V5_16_0_1377467448/HTT_24Jul_newTES_manzoni_Up_Jobs/Job_90/LSFJOB_440974946/STDOUT.gz'
p1303
sg261
S'VBF_HToTauTau_M-120_8TeV-powheg-pythia6/Summer12_DR53X-PU_S10_START53_V7A-v1/AODSIM/V5_B/PAT_CMG_V5_16_0_1377467448/HTT_24Jul_newTES_manzoni_Up_Jobs/Job_11/LSFJOB_440972539/STDOUT.gz'
p1304
sg262
S'VBF_HToTauTau_M-120_8TeV-powheg-pythia6/Summer12_DR53X-PU_S10_START53_V7A-v1/AODSIM/V5_B/PAT_CMG_V5_16_0_1377467448/HTT_24Jul_newTES_manzoni_Up_Jobs/Job_10/LSFJOB_440972441/STDOUT.gz'
p1305
sg263
S'VBF_HToTauTau_M-120_8TeV-powheg-pythia6/Summer12_DR53X-PU_S10_START53_V7A-v1/AODSIM/V5_B/PAT_CMG_V5_16_0_1377467448/HTT_24Jul_newTES_manzoni_Up_Jobs/Job_13/LSFJOB_440972730/STDOUT.gz'
p1306
sg264
S'VBF_HToTauTau_M-120_8TeV-powheg-pythia6/Summer12_DR53X-PU_S10_START53_V7A-v1/AODSIM/V5_B/PAT_CMG_V5_16_0_1377467448/HTT_24Jul_newTES_manzoni_Up_Jobs/Job_12/LSFJOB_440972604/STDOUT.gz'
p1307
sg265
S'VBF_HToTauTau_M-120_8TeV-powheg-pythia6/Summer12_DR53X-PU_S10_START53_V7A-v1/AODSIM/V5_B/PAT_CMG_V5_16_0_1377467448/HTT_24Jul_newTES_manzoni_Up_Jobs/Job_15/LSFJOB_440972968/STDOUT.gz'
p1308
sg266
S'VBF_HToTauTau_M-120_8TeV-powheg-pythia6/Summer12_DR53X-PU_S10_START53_V7A-v1/AODSIM/V5_B/PAT_CMG_V5_16_0_1377467448/HTT_24Jul_newTES_manzoni_Up_Jobs/Job_14/LSFJOB_440972866/STDOUT.gz'
p1309
sg267
S'VBF_HToTauTau_M-120_8TeV-powheg-pythia6/Summer12_DR53X-PU_S10_START53_V7A-v1/AODSIM/V5_B/PAT_CMG_V5_16_0_1377467448/HTT_24Jul_newTES_manzoni_Up_Jobs/Job_17/LSFJOB_440973160/STDOUT.gz'
p1310
sg268
S'VBF_HToTauTau_M-120_8TeV-powheg-pythia6/Summer12_DR53X-PU_S10_START53_V7A-v1/AODSIM/V5_B/PAT_CMG_V5_16_0_1377467448/HTT_24Jul_newTES_manzoni_Up_Jobs/Job_16/LSFJOB_440973073/STDOUT.gz'
p1311
sg269
S'VBF_HToTauTau_M-120_8TeV-powheg-pythia6/Summer12_DR53X-PU_S10_START53_V7A-v1/AODSIM/V5_B/PAT_CMG_V5_16_0_1377467448/HTT_24Jul_newTES_manzoni_Up_Jobs/Job_19/LSFJOB_440973306/STDOUT.gz'
p1312
sg270
S'VBF_HToTauTau_M-120_8TeV-powheg-pythia6/Summer12_DR53X-PU_S10_START53_V7A-v1/AODSIM/V5_B/PAT_CMG_V5_16_0_1377467448/HTT_24Jul_newTES_manzoni_Up_Jobs/Job_18/LSFJOB_440973233/STDOUT.gz'
p1313
sg271
S'VBF_HToTauTau_M-120_8TeV-powheg-pythia6/Summer12_DR53X-PU_S10_START53_V7A-v1/AODSIM/V5_B/PAT_CMG_V5_16_0_1377467448/HTT_24Jul_newTES_manzoni_Up_Jobs/Job_5/LSFJOB_440971914/STDOUT.gz'
p1314
sg272
S'VBF_HToTauTau_M-120_8TeV-powheg-pythia6/Summer12_DR53X-PU_S10_START53_V7A-v1/AODSIM/V5_B/PAT_CMG_V5_16_0_1377467448/HTT_24Jul_newTES_manzoni_Up_Jobs/Job_4/LSFJOB_440971806/STDOUT.gz'
p1315
sg273
S'VBF_HToTauTau_M-120_8TeV-powheg-pythia6/Summer12_DR53X-PU_S10_START53_V7A-v1/AODSIM/V5_B/PAT_CMG_V5_16_0_1377467448/HTT_24Jul_newTES_manzoni_Up_Jobs/Job_7/LSFJOB_440972147/STDOUT.gz'
p1316
sg274
S'VBF_HToTauTau_M-120_8TeV-powheg-pythia6/Summer12_DR53X-PU_S10_START53_V7A-v1/AODSIM/V5_B/PAT_CMG_V5_16_0_1377467448/HTT_24Jul_newTES_manzoni_Up_Jobs/Job_6/LSFJOB_440972042/STDOUT.gz'
p1317
sg275
S'VBF_HToTauTau_M-120_8TeV-powheg-pythia6/Summer12_DR53X-PU_S10_START53_V7A-v1/AODSIM/V5_B/PAT_CMG_V5_16_0_1377467448/HTT_24Jul_newTES_manzoni_Up_Jobs/Job_1/LSFJOB_440971495/STDOUT.gz'
p1318
sg276
S'VBF_HToTauTau_M-120_8TeV-powheg-pythia6/Summer12_DR53X-PU_S10_START53_V7A-v1/AODSIM/V5_B/PAT_CMG_V5_16_0_1377467448/HTT_24Jul_newTES_manzoni_Up_Jobs/Job_3/LSFJOB_440971689/STDOUT.gz'
p1319
sg277
S'VBF_HToTauTau_M-120_8TeV-powheg-pythia6/Summer12_DR53X-PU_S10_START53_V7A-v1/AODSIM/V5_B/PAT_CMG_V5_16_0_1377467448/HTT_24Jul_newTES_manzoni_Up_Jobs/Job_2/LSFJOB_440971600/STDOUT.gz'
p1320
sg278
S'VBF_HToTauTau_M-120_8TeV-powheg-pythia6/Summer12_DR53X-PU_S10_START53_V7A-v1/AODSIM/V5_B/PAT_CMG_V5_16_0_1377467448/HTT_24Jul_newTES_manzoni_Up_Jobs/Job_9/LSFJOB_440972336/STDOUT.gz'
p1321
sg279
S'VBF_HToTauTau_M-120_8TeV-powheg-pythia6/Summer12_DR53X-PU_S10_START53_V7A-v1/AODSIM/V5_B/PAT_CMG_V5_16_0_1377467448/HTT_24Jul_newTES_manzoni_Up_Jobs/Job_8/LSFJOB_440972232/STDOUT.gz'
p1322
sg280
S'VBF_HToTauTau_M-120_8TeV-powheg-pythia6/Summer12_DR53X-PU_S10_START53_V7A-v1/AODSIM/V5_B/PAT_CMG_V5_16_0_1377467448/HTT_24Jul_newTES_manzoni_Up_Jobs/Job_48/LSFJOB_440974357/STDOUT.gz'
p1323
sg281
S'VBF_HToTauTau_M-120_8TeV-powheg-pythia6/Summer12_DR53X-PU_S10_START53_V7A-v1/AODSIM/V5_B/PAT_CMG_V5_16_0_1377467448/HTT_24Jul_newTES_manzoni_Up_Jobs/Job_49/LSFJOB_440974380/STDOUT.gz'
p1324
sg282
S'VBF_HToTauTau_M-120_8TeV-powheg-pythia6/Summer12_DR53X-PU_S10_START53_V7A-v1/AODSIM/V5_B/PAT_CMG_V5_16_0_1377467448/HTT_24Jul_newTES_manzoni_Up_Jobs/Job_42/LSFJOB_440974237/STDOUT.gz'
p1325
sg283
S'VBF_HToTauTau_M-120_8TeV-powheg-pythia6/Summer12_DR53X-PU_S10_START53_V7A-v1/AODSIM/V5_B/PAT_CMG_V5_16_0_1377467448/HTT_24Jul_newTES_manzoni_Up_Jobs/Job_43/LSFJOB_440974246/STDOUT.gz'
p1326
sg284
S'VBF_HToTauTau_M-120_8TeV-powheg-pythia6/Summer12_DR53X-PU_S10_START53_V7A-v1/AODSIM/V5_B/PAT_CMG_V5_16_0_1377467448/HTT_24Jul_newTES_manzoni_Up_Jobs/Job_40/LSFJOB_440974198/STDOUT.gz'
p1327
sg285
S'VBF_HToTauTau_M-120_8TeV-powheg-pythia6/Summer12_DR53X-PU_S10_START53_V7A-v1/AODSIM/V5_B/PAT_CMG_V5_16_0_1377467448/HTT_24Jul_newTES_manzoni_Up_Jobs/Job_41/LSFJOB_440974207/STDOUT.gz'
p1328
sg286
S'VBF_HToTauTau_M-120_8TeV-powheg-pythia6/Summer12_DR53X-PU_S10_START53_V7A-v1/AODSIM/V5_B/PAT_CMG_V5_16_0_1377467448/HTT_24Jul_newTES_manzoni_Up_Jobs/Job_46/LSFJOB_440974324/STDOUT.gz'
p1329
sg287
S'VBF_HToTauTau_M-120_8TeV-powheg-pythia6/Summer12_DR53X-PU_S10_START53_V7A-v1/AODSIM/V5_B/PAT_CMG_V5_16_0_1377467448/HTT_24Jul_newTES_manzoni_Up_Jobs/Job_47/LSFJOB_440974340/STDOUT.gz'
p1330
sg288
S'VBF_HToTauTau_M-120_8TeV-powheg-pythia6/Summer12_DR53X-PU_S10_START53_V7A-v1/AODSIM/V5_B/PAT_CMG_V5_16_0_1377467448/HTT_24Jul_newTES_manzoni_Up_Jobs/Job_44/LSFJOB_440974271/STDOUT.gz'
p1331
sg289
S'VBF_HToTauTau_M-120_8TeV-powheg-pythia6/Summer12_DR53X-PU_S10_START53_V7A-v1/AODSIM/V5_B/PAT_CMG_V5_16_0_1377467448/HTT_24Jul_newTES_manzoni_Up_Jobs/Job_45/LSFJOB_440974289/STDOUT.gz'
p1332
sg290
S'VBF_HToTauTau_M-120_8TeV-powheg-pythia6/Summer12_DR53X-PU_S10_START53_V7A-v1/AODSIM/V5_B/PAT_CMG_V5_16_0_1377467448/HTT_24Jul_newTES_manzoni_Up_Jobs/Job_39/LSFJOB_440974167/STDOUT.gz'
p1333
sg291
S'VBF_HToTauTau_M-120_8TeV-powheg-pythia6/Summer12_DR53X-PU_S10_START53_V7A-v1/AODSIM/V5_B/PAT_CMG_V5_16_0_1377467448/HTT_24Jul_newTES_manzoni_Up_Jobs/Job_38/LSFJOB_440974132/STDOUT.gz'
p1334
sg292
S'VBF_HToTauTau_M-120_8TeV-powheg-pythia6/Summer12_DR53X-PU_S10_START53_V7A-v1/AODSIM/V5_B/PAT_CMG_V5_16_0_1377467448/HTT_24Jul_newTES_manzoni_Up_Jobs/Job_37/LSFJOB_440974110/STDOUT.gz'
p1335
sg293
S'VBF_HToTauTau_M-120_8TeV-powheg-pythia6/Summer12_DR53X-PU_S10_START53_V7A-v1/AODSIM/V5_B/PAT_CMG_V5_16_0_1377467448/HTT_24Jul_newTES_manzoni_Up_Jobs/Job_36/LSFJOB_440974066/STDOUT.gz'
p1336
sg294
S'VBF_HToTauTau_M-120_8TeV-powheg-pythia6/Summer12_DR53X-PU_S10_START53_V7A-v1/AODSIM/V5_B/PAT_CMG_V5_16_0_1377467448/HTT_24Jul_newTES_manzoni_Up_Jobs/Job_35/LSFJOB_440974048/STDOUT.gz'
p1337
sg295
S'VBF_HToTauTau_M-120_8TeV-powheg-pythia6/Summer12_DR53X-PU_S10_START53_V7A-v1/AODSIM/V5_B/PAT_CMG_V5_16_0_1377467448/HTT_24Jul_newTES_manzoni_Up_Jobs/Job_34/LSFJOB_440974020/STDOUT.gz'
p1338
sg296
S'VBF_HToTauTau_M-120_8TeV-powheg-pythia6/Summer12_DR53X-PU_S10_START53_V7A-v1/AODSIM/V5_B/PAT_CMG_V5_16_0_1377467448/HTT_24Jul_newTES_manzoni_Up_Jobs/Job_33/LSFJOB_440973975/STDOUT.gz'
p1339
sg297
S'VBF_HToTauTau_M-120_8TeV-powheg-pythia6/Summer12_DR53X-PU_S10_START53_V7A-v1/AODSIM/V5_B/PAT_CMG_V5_16_0_1377467448/HTT_24Jul_newTES_manzoni_Up_Jobs/Job_32/LSFJOB_440973953/STDOUT.gz'
p1340
sg298
S'VBF_HToTauTau_M-120_8TeV-powheg-pythia6/Summer12_DR53X-PU_S10_START53_V7A-v1/AODSIM/V5_B/PAT_CMG_V5_16_0_1377467448/HTT_24Jul_newTES_manzoni_Up_Jobs/Job_31/LSFJOB_440973898/STDOUT.gz'
p1341
sg299
S'VBF_HToTauTau_M-120_8TeV-powheg-pythia6/Summer12_DR53X-PU_S10_START53_V7A-v1/AODSIM/V5_B/PAT_CMG_V5_16_0_1377467448/HTT_24Jul_newTES_manzoni_Up_Jobs/Job_30/LSFJOB_440973858/STDOUT.gz'
p1342
sg300
S'VBF_HToTauTau_M-120_8TeV-powheg-pythia6/Summer12_DR53X-PU_S10_START53_V7A-v1/AODSIM/V5_B/PAT_CMG_V5_16_0_1377467448/HTT_24Jul_newTES_manzoni_Up_Jobs/Job_60/LSFJOB_440974583/STDOUT.gz'
p1343
sg301
S'VBF_HToTauTau_M-120_8TeV-powheg-pythia6/Summer12_DR53X-PU_S10_START53_V7A-v1/AODSIM/V5_B/PAT_CMG_V5_16_0_1377467448/HTT_24Jul_newTES_manzoni_Up_Jobs/Job_61/LSFJOB_440974591/STDOUT.gz'
p1344
sg302
S'VBF_HToTauTau_M-120_8TeV-powheg-pythia6/Summer12_DR53X-PU_S10_START53_V7A-v1/AODSIM/V5_B/PAT_CMG_V5_16_0_1377467448/HTT_24Jul_newTES_manzoni_Up_Jobs/Job_62/LSFJOB_440974604/STDOUT.gz'
p1345
sg303
S'VBF_HToTauTau_M-120_8TeV-powheg-pythia6/Summer12_DR53X-PU_S10_START53_V7A-v1/AODSIM/V5_B/PAT_CMG_V5_16_0_1377467448/HTT_24Jul_newTES_manzoni_Up_Jobs/Job_63/LSFJOB_440974619/STDOUT.gz'
p1346
sg304
S'VBF_HToTauTau_M-120_8TeV-powheg-pythia6/Summer12_DR53X-PU_S10_START53_V7A-v1/AODSIM/V5_B/PAT_CMG_V5_16_0_1377467448/HTT_24Jul_newTES_manzoni_Up_Jobs/Job_64/LSFJOB_440974632/STDOUT.gz'
p1347
sg305
S'VBF_HToTauTau_M-120_8TeV-powheg-pythia6/Summer12_DR53X-PU_S10_START53_V7A-v1/AODSIM/V5_B/PAT_CMG_V5_16_0_1377467448/HTT_24Jul_newTES_manzoni_Up_Jobs/Job_65/LSFJOB_440974641/STDOUT.gz'
p1348
sg306
S'VBF_HToTauTau_M-120_8TeV-powheg-pythia6/Summer12_DR53X-PU_S10_START53_V7A-v1/AODSIM/V5_B/PAT_CMG_V5_16_0_1377467448/HTT_24Jul_newTES_manzoni_Up_Jobs/Job_66/LSFJOB_440974651/STDOUT.gz'
p1349
sg307
S'VBF_HToTauTau_M-120_8TeV-powheg-pythia6/Summer12_DR53X-PU_S10_START53_V7A-v1/AODSIM/V5_B/PAT_CMG_V5_16_0_1377467448/HTT_24Jul_newTES_manzoni_Up_Jobs/Job_67/LSFJOB_440974661/STDOUT.gz'
p1350
sg308
S'VBF_HToTauTau_M-120_8TeV-powheg-pythia6/Summer12_DR53X-PU_S10_START53_V7A-v1/AODSIM/V5_B/PAT_CMG_V5_16_0_1377467448/HTT_24Jul_newTES_manzoni_Up_Jobs/Job_68/LSFJOB_440974670/STDOUT.gz'
p1351
sg309
S'VBF_HToTauTau_M-120_8TeV-powheg-pythia6/Summer12_DR53X-PU_S10_START53_V7A-v1/AODSIM/V5_B/PAT_CMG_V5_16_0_1377467448/HTT_24Jul_newTES_manzoni_Up_Jobs/Job_69/LSFJOB_440974681/STDOUT.gz'
p1352
sg310
S'VBF_HToTauTau_M-120_8TeV-powheg-pythia6/Summer12_DR53X-PU_S10_START53_V7A-v1/AODSIM/V5_B/PAT_CMG_V5_16_0_1377467448/HTT_24Jul_newTES_manzoni_Up_Jobs/Job_55/LSFJOB_440974500/STDOUT.gz'
p1353
sg311
S'VBF_HToTauTau_M-120_8TeV-powheg-pythia6/Summer12_DR53X-PU_S10_START53_V7A-v1/AODSIM/V5_B/PAT_CMG_V5_16_0_1377467448/HTT_24Jul_newTES_manzoni_Up_Jobs/Job_54/LSFJOB_440974484/STDOUT.gz'
p1354
sg312
S'VBF_HToTauTau_M-120_8TeV-powheg-pythia6/Summer12_DR53X-PU_S10_START53_V7A-v1/AODSIM/V5_B/PAT_CMG_V5_16_0_1377467448/HTT_24Jul_newTES_manzoni_Up_Jobs/Job_57/LSFJOB_440974532/STDOUT.gz'
p1355
sg313
S'VBF_HToTauTau_M-120_8TeV-powheg-pythia6/Summer12_DR53X-PU_S10_START53_V7A-v1/AODSIM/V5_B/PAT_CMG_V5_16_0_1377467448/HTT_24Jul_newTES_manzoni_Up_Jobs/Job_56/LSFJOB_440974515/STDOUT.gz'
p1356
sg314
S'VBF_HToTauTau_M-120_8TeV-powheg-pythia6/Summer12_DR53X-PU_S10_START53_V7A-v1/AODSIM/V5_B/PAT_CMG_V5_16_0_1377467448/HTT_24Jul_newTES_manzoni_Up_Jobs/Job_51/LSFJOB_440974427/STDOUT.gz'
p1357
sg315
S'VBF_HToTauTau_M-120_8TeV-powheg-pythia6/Summer12_DR53X-PU_S10_START53_V7A-v1/AODSIM/V5_B/PAT_CMG_V5_16_0_1377467448/HTT_24Jul_newTES_manzoni_Up_Jobs/Job_50/LSFJOB_440974393/STDOUT.gz'
p1358
sg316
S'VBF_HToTauTau_M-120_8TeV-powheg-pythia6/Summer12_DR53X-PU_S10_START53_V7A-v1/AODSIM/V5_B/PAT_CMG_V5_16_0_1377467448/HTT_24Jul_newTES_manzoni_Up_Jobs/Job_53/LSFJOB_440974464/STDOUT.gz'
p1359
sg317
S'VBF_HToTauTau_M-120_8TeV-powheg-pythia6/Summer12_DR53X-PU_S10_START53_V7A-v1/AODSIM/V5_B/PAT_CMG_V5_16_0_1377467448/HTT_24Jul_newTES_manzoni_Up_Jobs/Job_52/LSFJOB_440974445/STDOUT.gz'
p1360
sg318
S'VBF_HToTauTau_M-120_8TeV-powheg-pythia6/Summer12_DR53X-PU_S10_START53_V7A-v1/AODSIM/V5_B/PAT_CMG_V5_16_0_1377467448/HTT_24Jul_newTES_manzoni_Up_Jobs/Job_59/LSFJOB_440974570/STDOUT.gz'
p1361
sg319
S'VBF_HToTauTau_M-120_8TeV-powheg-pythia6/Summer12_DR53X-PU_S10_START53_V7A-v1/AODSIM/V5_B/PAT_CMG_V5_16_0_1377467448/HTT_24Jul_newTES_manzoni_Up_Jobs/Job_58/LSFJOB_440974555/STDOUT.gz'
p1362
ssS'LSFJobIDs'
p1363
(dp1364
g230
S'440974913'
p1365
sg231
S'440974925'
p1366
sg232
S'440974894'
p1367
sg233
S'440974905'
p1368
sg234
S'440974872'
p1369
sg235
S'440974882'
p1370
sg236
S'440974834'
p1371
sg237
S'440974856'
p1372
sg238
S'440974819'
p1373
sg239
S'440974826'
p1374
sg240
S'440974740'
p1375
sg241
S'440974732'
p1376
sg242
S'440974722'
p1377
sg243
S'440974705'
p1378
sg244
S'440974784'
p1379
sg245
S'440974772'
p1380
sg246
S'440974763'
p1381
sg247
S'440974752'
p1382
sg248
S'440974810'
p1383
sg249
S'440974798'
p1384
sg250
S'440973762'
p1385
sg251
S'440973797'
p1386
sg252
S'440973548'
p1387
sg253
S'440973580'
p1388
sg254
S'440973639'
p1389
sg255
S'440973673'
p1390
sg256
S'440973338'
p1391
sg257
S'440973393'
p1392
sg258
S'440973467'
p1393
sg259
S'440973489'
p1394
sg260
S'440974946'
p1395
sg261
S'440972539'
p1396
sg262
S'440972441'
p1397
sg263
S'440972730'
p1398
sg264
S'440972604'
p1399
sg265
S'440972968'
p1400
sg266
S'440972866'
p1401
sg267
S'440973160'
p1402
sg268
S'440973073'
p1403
sg269
S'440973306'
p1404
sg270
S'440973233'
p1405
sg271
S'440971914'
p1406
sg272
S'440971806'
p1407
sg273
S'440972147'
p1408
sg274
S'440972042'
p1409
sg275
S'440971495'
p1410
sg276
S'440971689'
p1411
sg277
S'440971600'
p1412
sg278
S'440972336'
p1413
sg279
S'440972232'
p1414
sg280
S'440974357'
p1415
sg281
S'440974380'
p1416
sg282
S'440974237'
p1417
sg283
S'440974246'
p1418
sg284
S'440974198'
p1419
sg285
S'440974207'
p1420
sg286
S'440974324'
p1421
sg287
S'440974340'
p1422
sg288
S'440974271'
p1423
sg289
S'440974289'
p1424
sg290
S'440974167'
p1425
sg291
S'440974132'
p1426
sg292
S'440974110'
p1427
sg293
S'440974066'
p1428
sg294
S'440974048'
p1429
sg295
S'440974020'
p1430
sg296
S'440973975'
p1431
sg297
S'440973953'
p1432
sg298
S'440973898'
p1433
sg299
S'440973858'
p1434
sg300
S'440974583'
p1435
sg301
S'440974591'
p1436
sg302
S'440974604'
p1437
sg303
S'440974619'
p1438
sg304
S'440974632'
p1439
sg305
S'440974641'
p1440
sg306
S'440974651'
p1441
sg307
S'440974661'
p1442
sg308
S'440974670'
p1443
sg309
S'440974681'
p1444
sg310
S'440974500'
p1445
sg311
S'440974484'
p1446
sg312
S'440974532'
p1447
sg313
S'440974515'
p1448
sg314
S'440974427'
p1449
sg315
S'440974393'
p1450
sg316
S'440974464'
p1451
sg317
S'440974445'
p1452
sg318
S'440974570'
p1453
sg319
S'440974555'
p1454
sssS'FindOnCastor'
p1455
(dp1456
g189
S'/eos/cms/store/cmst3/user/cmgtools/CMG'
p1457
sS'Directory'
p1458
S'/eos/cms/store/cmst3/user/cmgtools/CMG/VBF_HToTauTau_M-120_8TeV-powheg-pythia6/Summer12_DR53X-PU_S10_START53_V7A-v1/AODSIM/V5_B/PAT_CMG_V5_16_0'
p1459
ssS'CheckConfig'
p1460
(dp1461
g205
g206
ssS'FullCFG'
p1462
(dp1463
S'FullCFG'
p1464
S'VBF_HToTauTau_M-120_8TeV-powheg-pythia6/Summer12_DR53X-PU_S10_START53_V7A-v1/AODSIM/V5_B/PAT_CMG_V5_16_0_1377467448/full_cfg.py'
p1465
ssS'WriteJobReport'
p1466
(dp1467
S'SummaryFile'
p1468
S'VBF_HToTauTau_M-120_8TeV-powheg-pythia6/Summer12_DR53X-PU_S10_START53_V7A-v1/AODSIM/V5_B/PAT_CMG_V5_16_0_1377467448/resubmit.sh'
p1469
ssS'ExpandConfig'
p1470
(dp1471
S'ExpandedFullCFG'
p1472
S'VBF_HToTauTau_M-120_8TeV-powheg-pythia6/Summer12_DR53X-PU_S10_START53_V7A-v1/AODSIM/V5_B/PAT_CMG_V5_16_0_1377467448/Expandedfull_cfg.py'
p1473
ssS'RunTestEvents'
p1474
(dp1475
g205
g206
sS'TestCFG'
p1476
S'VBF_HToTauTau_M-120_8TeV-powheg-pythia6/Summer12_DR53X-PU_S10_START53_V7A-v1/AODSIM/V5_B/PAT_CMG_V5_16_0_1377467448/test_cfg.py'
p1477
ssS'SourceCFG'
p1478
(dp1479
S'SourceCFG'
p1480
S'VBF_HToTauTau_M-120_8TeV-powheg-pythia6/Summer12_DR53X-PU_S10_START53_V7A-v1/AODSIM/V5_B/PAT_CMG_V5_16_0_1377467448/source_cfg.py'
p1481
ssS'CheckForWrite'
p1482
(dp1483
g1458
g1459
sS'WriteAccess'
p1484
I01
ssS'WriteToDatasets'
p1485
(dp1486
S'Added'
p1487
I00
sg187
S'/VBF_HToTauTau_M-120_8TeV-powheg-pythia6/Summer12_DR53X-PU_S10_START53_V7A-v1/AODSIM/V5_B/PAT_CMG_V5_16_0/HTT_24Jul_newTES_manzoni_Up'
p1488
sS'User'
p1489
g220
ssS'RunCMSBatch'
p1490
(dp1491
S'BatchUser'
p1492
g220
sS'SampleOutputDir'
p1493
S'/store/cmst3/user/manzoni/CMG/VBF_HToTauTau_M-120_8TeV-powheg-pythia6/Summer12_DR53X-PU_S10_START53_V7A-v1/AODSIM/V5_B/PAT_CMG_V5_16_0/HTT_24Jul_newTES_manzoni_Up'
p1494
sS'SampleDataset'
p1495
g188
sS'LSFJobsTopDir'
p1496
S'VBF_HToTauTau_M-120_8TeV-powheg-pythia6/Summer12_DR53X-PU_S10_START53_V7A-v1/AODSIM/V5_B/PAT_CMG_V5_16_0_1377467448/HTT_24Jul_newTES_manzoni_Up_Jobs'
p1497
ssS'CreateJobDirectory'
p1498
(dp1499
S'JobDir'
p1500
S'VBF_HToTauTau_M-120_8TeV-powheg-pythia6/Summer12_DR53X-PU_S10_START53_V7A-v1/AODSIM/V5_B/PAT_CMG_V5_16_0_1377467448'
p1501
sS'PWD'
p1502
S'/afs/cern.ch/user/m/manzoni/summer13/CMGTools/CMSSW_5_3_9/src/CMGTools/H2TauTau/prod/25aug_corrMC/up/mc'
p1503
ssS'CleanJobFiles'
p1504
(dp1505
S'Compressed'
p1506
(dp1507
S'CompressedFiles'
p1508
(lp1509
ssS'Cleaned'
p1510
(dp1511
S'CleanedFiles'
p1512
(lp1513
g1473
ag1477
aS'VBF_HToTauTau_M-120_8TeV-powheg-pythia6/Summer12_DR53X-PU_S10_START53_V7A-v1/AODSIM/V5_B/PAT_CMG_V5_16_0_1377467448/diTau_fullsel_tree_CMG.root'
p1514
aS'VBF_HToTauTau_M-120_8TeV-powheg-pythia6/Summer12_DR53X-PU_S10_START53_V7A-v1/AODSIM/V5_B/PAT_CMG_V5_16_0_1377467448/source_cfg.pyc'
p1515
aS'VBF_HToTauTau_M-120_8TeV-powheg-pythia6/Summer12_DR53X-PU_S10_START53_V7A-v1/AODSIM/V5_B/PAT_CMG_V5_16_0_1377467448/Expandedfull_cfg.pyc'
p1516
asssS'CheckForMask'
p1517
(dp1518
g3
g326
sg227
I01
ss.