(dp0
S'CheckJobStatus'
p1
(dp2
S'Report'
p3
(dp4
S'Files'
p5
(dp6
S'/store/cmst3/user/manzoni/CMG/VBF_HToTauTau_M-145_8TeV-powheg-pythia6/Summer12_DR53X-PU_S10_START53_V7A-v1/AODSIM/PAT_CMG_V5_16_0/HTT_24Jul_newTES_manzoni_Up/diTau_fullsel_tree_CMG_5.root'
p7
(I01
I3136
tp8
sS'/store/cmst3/user/manzoni/CMG/VBF_HToTauTau_M-145_8TeV-powheg-pythia6/Summer12_DR53X-PU_S10_START53_V7A-v1/AODSIM/PAT_CMG_V5_16_0/HTT_24Jul_newTES_manzoni_Up/diTau_fullsel_tree_CMG_17.root'
p9
(I01
I3205
tp10
sS'/store/cmst3/user/manzoni/CMG/VBF_HToTauTau_M-145_8TeV-powheg-pythia6/Summer12_DR53X-PU_S10_START53_V7A-v1/AODSIM/PAT_CMG_V5_16_0/HTT_24Jul_newTES_manzoni_Up/diTau_fullsel_tree_CMG_12.root'
p11
(I01
I3070
tp12
sS'/store/cmst3/user/manzoni/CMG/VBF_HToTauTau_M-145_8TeV-powheg-pythia6/Summer12_DR53X-PU_S10_START53_V7A-v1/AODSIM/PAT_CMG_V5_16_0/HTT_24Jul_newTES_manzoni_Up/diTau_fullsel_tree_CMG_7.root'
p13
(I01
I3029
tp14
sS'/store/cmst3/user/manzoni/CMG/VBF_HToTauTau_M-145_8TeV-powheg-pythia6/Summer12_DR53X-PU_S10_START53_V7A-v1/AODSIM/PAT_CMG_V5_16_0/HTT_24Jul_newTES_manzoni_Up/diTau_fullsel_tree_CMG_11.root'
p15
(I01
I3021
tp16
sS'/store/cmst3/user/manzoni/CMG/VBF_HToTauTau_M-145_8TeV-powheg-pythia6/Summer12_DR53X-PU_S10_START53_V7A-v1/AODSIM/PAT_CMG_V5_16_0/HTT_24Jul_newTES_manzoni_Up/diTau_fullsel_tree_CMG_9.root'
p17
(I01
I3169
tp18
sS'/store/cmst3/user/manzoni/CMG/VBF_HToTauTau_M-145_8TeV-powheg-pythia6/Summer12_DR53X-PU_S10_START53_V7A-v1/AODSIM/PAT_CMG_V5_16_0/HTT_24Jul_newTES_manzoni_Up/diTau_fullsel_tree_CMG_15.root'
p19
(I01
I3146
tp20
sS'/store/cmst3/user/manzoni/CMG/VBF_HToTauTau_M-145_8TeV-powheg-pythia6/Summer12_DR53X-PU_S10_START53_V7A-v1/AODSIM/PAT_CMG_V5_16_0/HTT_24Jul_newTES_manzoni_Up/diTau_fullsel_tree_CMG_8.root'
p21
(I01
I3083
tp22
sS'/store/cmst3/user/manzoni/CMG/VBF_HToTauTau_M-145_8TeV-powheg-pythia6/Summer12_DR53X-PU_S10_START53_V7A-v1/AODSIM/PAT_CMG_V5_16_0/HTT_24Jul_newTES_manzoni_Up/diTau_fullsel_tree_CMG_18.root'
p23
(I01
I3132
tp24
sS'/store/cmst3/user/manzoni/CMG/VBF_HToTauTau_M-145_8TeV-powheg-pythia6/Summer12_DR53X-PU_S10_START53_V7A-v1/AODSIM/PAT_CMG_V5_16_0/HTT_24Jul_newTES_manzoni_Up/diTau_fullsel_tree_CMG_20.root'
p25
(I01
I3186
tp26
sS'/store/cmst3/user/manzoni/CMG/VBF_HToTauTau_M-145_8TeV-powheg-pythia6/Summer12_DR53X-PU_S10_START53_V7A-v1/AODSIM/PAT_CMG_V5_16_0/HTT_24Jul_newTES_manzoni_Up/diTau_fullsel_tree_CMG_4.root'
p27
(I01
I3173
tp28
sS'/store/cmst3/user/manzoni/CMG/VBF_HToTauTau_M-145_8TeV-powheg-pythia6/Summer12_DR53X-PU_S10_START53_V7A-v1/AODSIM/PAT_CMG_V5_16_0/HTT_24Jul_newTES_manzoni_Up/diTau_fullsel_tree_CMG_1.root'
p29
(I01
I2408
tp30
sS'/store/cmst3/user/manzoni/CMG/VBF_HToTauTau_M-145_8TeV-powheg-pythia6/Summer12_DR53X-PU_S10_START53_V7A-v1/AODSIM/PAT_CMG_V5_16_0/HTT_24Jul_newTES_manzoni_Up/diTau_fullsel_tree_CMG_6.root'
p31
(I01
I3061
tp32
sS'/store/cmst3/user/manzoni/CMG/VBF_HToTauTau_M-145_8TeV-powheg-pythia6/Summer12_DR53X-PU_S10_START53_V7A-v1/AODSIM/PAT_CMG_V5_16_0/HTT_24Jul_newTES_manzoni_Up/diTau_fullsel_tree_CMG_10.root'
p33
(I01
I3157
tp34
sS'/store/cmst3/user/manzoni/CMG/VBF_HToTauTau_M-145_8TeV-powheg-pythia6/Summer12_DR53X-PU_S10_START53_V7A-v1/AODSIM/PAT_CMG_V5_16_0/HTT_24Jul_newTES_manzoni_Up/diTau_fullsel_tree_CMG_2.root'
p35
(I01
I3094
tp36
sS'/store/cmst3/user/manzoni/CMG/VBF_HToTauTau_M-145_8TeV-powheg-pythia6/Summer12_DR53X-PU_S10_START53_V7A-v1/AODSIM/PAT_CMG_V5_16_0/HTT_24Jul_newTES_manzoni_Up/diTau_fullsel_tree_CMG_14.root'
p37
(I01
I3106
tp38
sS'/store/cmst3/user/manzoni/CMG/VBF_HToTauTau_M-145_8TeV-powheg-pythia6/Summer12_DR53X-PU_S10_START53_V7A-v1/AODSIM/PAT_CMG_V5_16_0/HTT_24Jul_newTES_manzoni_Up/diTau_fullsel_tree_CMG_3.root'
p39
(I01
I3085
tp40
sS'/store/cmst3/user/manzoni/CMG/VBF_HToTauTau_M-145_8TeV-powheg-pythia6/Summer12_DR53X-PU_S10_START53_V7A-v1/AODSIM/PAT_CMG_V5_16_0/HTT_24Jul_newTES_manzoni_Up/diTau_fullsel_tree_CMG_13.root'
p41
(I01
I3189
tp42
sS'/store/cmst3/user/manzoni/CMG/VBF_HToTauTau_M-145_8TeV-powheg-pythia6/Summer12_DR53X-PU_S10_START53_V7A-v1/AODSIM/PAT_CMG_V5_16_0/HTT_24Jul_newTES_manzoni_Up/diTau_fullsel_tree_CMG_21.root'
p43
(I01
I632
tp44
sS'/store/cmst3/user/manzoni/CMG/VBF_HToTauTau_M-145_8TeV-powheg-pythia6/Summer12_DR53X-PU_S10_START53_V7A-v1/AODSIM/PAT_CMG_V5_16_0/HTT_24Jul_newTES_manzoni_Up/diTau_fullsel_tree_CMG_19.root'
p45
(I01
I3098
tp46
sS'/store/cmst3/user/manzoni/CMG/VBF_HToTauTau_M-145_8TeV-powheg-pythia6/Summer12_DR53X-PU_S10_START53_V7A-v1/AODSIM/PAT_CMG_V5_16_0/HTT_24Jul_newTES_manzoni_Up/diTau_fullsel_tree_CMG_16.root'
p47
(I01
I3170
tp48
ssS'Name'
p49
S'/VBF_HToTauTau_M-145_8TeV-powheg-pythia6/Summer12_DR53X-PU_S10_START53_V7A-v1/AODSIM/PAT_CMG_V5_16_0/HTT_24Jul_newTES_manzoni_Up'
p50
sS'Topdir'
p51
S'/eos/cms/store/cmst3/user/manzoni/CMG'
p52
sS'RunList'
p53
(lp54
sS'PathList'
p55
(lp56
S'/store/cmst3/user/manzoni/CMG/VBF_HToTauTau_M-145_8TeV-powheg-pythia6/Summer12_DR53X-PU_S10_START53_V7A-v1/AODSIM/PAT_CMG_V5_16_0/HTT_24Jul_newTES_manzoni_Up'
p57
asS'AlgoList'
p58
(lp59
sS'PrimaryDatasetFraction'
p60
F0.062419722830401557
sS'FilesGood'
p61
I21
sS'PrimaryDatasetEntries'
p62
I998883
sS'data'
p63
(dp64
sS'FilesBad'
p65
I0
sS'ReportVersion'
p66
I3
sS'Status'
p67
S'VALID'
p68
sS'MaxRun'
p69
I-1
sS'PhysicsGroup'
p70
S'CMG'
p71
sS'MinRun'
p72
I-1
sS'StageHost'
p73
S'castorcms'
p74
sS'FilesCount'
p75
I21
sS'FilesEntries'
p76
I62350
sS'TierList'
p77
(lp78
sS'DateCreated'
p79
S'1377473476'
p80
sS'CreatedBy'
p81
S'manzoni'
p82
sS'ValidDuplicates'
p83
(dp84
sS'PrimaryDataset'
p85
S'/VBF_HToTauTau_M-145_8TeV-powheg-pythia6/Summer12_DR53X-PU_S10_START53_V7A-v1/AODSIM'
p86
sS'BadJobs'
p87
(lp88
ssS'MaskPresent'
p89
I01
sS'LSFJobStatusCheck'
p90
(dp91
S'VBF_HToTauTau_M-145_8TeV-powheg-pythia6/Summer12_DR53X-PU_S10_START53_V7A-v1/AODSIM/PAT_CMG_V5_16_0_1377467467/HTT_24Jul_newTES_manzoni_Up_Jobs/Job_9'
p92
g68
sS'VBF_HToTauTau_M-145_8TeV-powheg-pythia6/Summer12_DR53X-PU_S10_START53_V7A-v1/AODSIM/PAT_CMG_V5_16_0_1377467467/HTT_24Jul_newTES_manzoni_Up_Jobs/Job_8'
p93
g68
sS'VBF_HToTauTau_M-145_8TeV-powheg-pythia6/Summer12_DR53X-PU_S10_START53_V7A-v1/AODSIM/PAT_CMG_V5_16_0_1377467467/HTT_24Jul_newTES_manzoni_Up_Jobs/Job_1'
p94
g68
sS'VBF_HToTauTau_M-145_8TeV-powheg-pythia6/Summer12_DR53X-PU_S10_START53_V7A-v1/AODSIM/PAT_CMG_V5_16_0_1377467467/HTT_24Jul_newTES_manzoni_Up_Jobs/Job_3'
p95
g68
sS'VBF_HToTauTau_M-145_8TeV-powheg-pythia6/Summer12_DR53X-PU_S10_START53_V7A-v1/AODSIM/PAT_CMG_V5_16_0_1377467467/HTT_24Jul_newTES_manzoni_Up_Jobs/Job_2'
p96
g68
sS'VBF_HToTauTau_M-145_8TeV-powheg-pythia6/Summer12_DR53X-PU_S10_START53_V7A-v1/AODSIM/PAT_CMG_V5_16_0_1377467467/HTT_24Jul_newTES_manzoni_Up_Jobs/Job_5'
p97
g68
sS'VBF_HToTauTau_M-145_8TeV-powheg-pythia6/Summer12_DR53X-PU_S10_START53_V7A-v1/AODSIM/PAT_CMG_V5_16_0_1377467467/HTT_24Jul_newTES_manzoni_Up_Jobs/Job_4'
p98
g68
sS'VBF_HToTauTau_M-145_8TeV-powheg-pythia6/Summer12_DR53X-PU_S10_START53_V7A-v1/AODSIM/PAT_CMG_V5_16_0_1377467467/HTT_24Jul_newTES_manzoni_Up_Jobs/Job_7'
p99
g68
sS'VBF_HToTauTau_M-145_8TeV-powheg-pythia6/Summer12_DR53X-PU_S10_START53_V7A-v1/AODSIM/PAT_CMG_V5_16_0_1377467467/HTT_24Jul_newTES_manzoni_Up_Jobs/Job_6'
p100
g68
sS'VBF_HToTauTau_M-145_8TeV-powheg-pythia6/Summer12_DR53X-PU_S10_START53_V7A-v1/AODSIM/PAT_CMG_V5_16_0_1377467467/HTT_24Jul_newTES_manzoni_Up_Jobs/Job_11'
p101
g68
sS'VBF_HToTauTau_M-145_8TeV-powheg-pythia6/Summer12_DR53X-PU_S10_START53_V7A-v1/AODSIM/PAT_CMG_V5_16_0_1377467467/HTT_24Jul_newTES_manzoni_Up_Jobs/Job_10'
p102
g68
sS'VBF_HToTauTau_M-145_8TeV-powheg-pythia6/Summer12_DR53X-PU_S10_START53_V7A-v1/AODSIM/PAT_CMG_V5_16_0_1377467467/HTT_24Jul_newTES_manzoni_Up_Jobs/Job_13'
p103
g68
sS'VBF_HToTauTau_M-145_8TeV-powheg-pythia6/Summer12_DR53X-PU_S10_START53_V7A-v1/AODSIM/PAT_CMG_V5_16_0_1377467467/HTT_24Jul_newTES_manzoni_Up_Jobs/Job_12'
p104
g68
sS'VBF_HToTauTau_M-145_8TeV-powheg-pythia6/Summer12_DR53X-PU_S10_START53_V7A-v1/AODSIM/PAT_CMG_V5_16_0_1377467467/HTT_24Jul_newTES_manzoni_Up_Jobs/Job_15'
p105
g68
sS'VBF_HToTauTau_M-145_8TeV-powheg-pythia6/Summer12_DR53X-PU_S10_START53_V7A-v1/AODSIM/PAT_CMG_V5_16_0_1377467467/HTT_24Jul_newTES_manzoni_Up_Jobs/Job_14'
p106
g68
sS'VBF_HToTauTau_M-145_8TeV-powheg-pythia6/Summer12_DR53X-PU_S10_START53_V7A-v1/AODSIM/PAT_CMG_V5_16_0_1377467467/HTT_24Jul_newTES_manzoni_Up_Jobs/Job_17'
p107
g68
sS'VBF_HToTauTau_M-145_8TeV-powheg-pythia6/Summer12_DR53X-PU_S10_START53_V7A-v1/AODSIM/PAT_CMG_V5_16_0_1377467467/HTT_24Jul_newTES_manzoni_Up_Jobs/Job_16'
p108
g68
sS'VBF_HToTauTau_M-145_8TeV-powheg-pythia6/Summer12_DR53X-PU_S10_START53_V7A-v1/AODSIM/PAT_CMG_V5_16_0_1377467467/HTT_24Jul_newTES_manzoni_Up_Jobs/Job_19'
p109
g68
sS'VBF_HToTauTau_M-145_8TeV-powheg-pythia6/Summer12_DR53X-PU_S10_START53_V7A-v1/AODSIM/PAT_CMG_V5_16_0_1377467467/HTT_24Jul_newTES_manzoni_Up_Jobs/Job_18'
p110
g68
sS'VBF_HToTauTau_M-145_8TeV-powheg-pythia6/Summer12_DR53X-PU_S10_START53_V7A-v1/AODSIM/PAT_CMG_V5_16_0_1377467467/HTT_24Jul_newTES_manzoni_Up_Jobs/Job_20'
p111
g68
sS'VBF_HToTauTau_M-145_8TeV-powheg-pythia6/Summer12_DR53X-PU_S10_START53_V7A-v1/AODSIM/PAT_CMG_V5_16_0_1377467467/HTT_24Jul_newTES_manzoni_Up_Jobs/Job_21'
p112
g68
sssS'CheckDatasetExists'
p113
(dp114
S'Dataset'
p115
S'/VBF_HToTauTau_M-145_8TeV-powheg-pythia6/Summer12_DR53X-PU_S10_START53_V7A-v1/AODSIM/PAT_CMG_V5_16_0'
p116
ssS'GenerateMask'
p117
(dp118
g3
(dp119
VPathList
p120
(lp121
V/store/cmst3/group/cmgtools/CMG/VBF_HToTauTau_M-145_8TeV-powheg-pythia6/Summer12_DR53X-PU_S10_START53_V7A-v1/AODSIM/PAT_CMG_V5_16_0
p122
asVStageHost
p123
Vcastorcms
p124
sVPrimaryDatasetFraction
p125
F1.0
sVFilesGood
p126
I108
sVPrimaryDatasetEntries
p127
I998883
sVReportVersion
p128
I3
sVFiles
p129
(dp130
V/store/cmst3/group/cmgtools/CMG/VBF_HToTauTau_M-145_8TeV-powheg-pythia6/Summer12_DR53X-PU_S10_START53_V7A-v1/AODSIM/PAT_CMG_V5_16_0/cmgTuple_59_2_OIb.root
p131
(lp132
I01
aI10000
asV/store/cmst3/group/cmgtools/CMG/VBF_HToTauTau_M-145_8TeV-powheg-pythia6/Summer12_DR53X-PU_S10_START53_V7A-v1/AODSIM/PAT_CMG_V5_16_0/cmgTuple_3_1_gXW.root
p133
(lp134
I01
aI10000
asV/store/cmst3/group/cmgtools/CMG/VBF_HToTauTau_M-145_8TeV-powheg-pythia6/Summer12_DR53X-PU_S10_START53_V7A-v1/AODSIM/PAT_CMG_V5_16_0/cmgTuple_55_1_NUK.root
p135
(lp136
I01
aI10000
asV/store/cmst3/group/cmgtools/CMG/VBF_HToTauTau_M-145_8TeV-powheg-pythia6/Summer12_DR53X-PU_S10_START53_V7A-v1/AODSIM/PAT_CMG_V5_16_0/cmgTuple_75_1_VMQ.root
p137
(lp138
I01
aI10000
asV/store/cmst3/group/cmgtools/CMG/VBF_HToTauTau_M-145_8TeV-powheg-pythia6/Summer12_DR53X-PU_S10_START53_V7A-v1/AODSIM/PAT_CMG_V5_16_0/cmgTuple_39_1_82P.root
p139
(lp140
I01
aI10000
asV/store/cmst3/group/cmgtools/CMG/VBF_HToTauTau_M-145_8TeV-powheg-pythia6/Summer12_DR53X-PU_S10_START53_V7A-v1/AODSIM/PAT_CMG_V5_16_0/cmgTuple_71_1_GjE.root
p141
(lp142
I01
aI10000
asV/store/cmst3/group/cmgtools/CMG/VBF_HToTauTau_M-145_8TeV-powheg-pythia6/Summer12_DR53X-PU_S10_START53_V7A-v1/AODSIM/PAT_CMG_V5_16_0/cmgTuple_50_1_SwG.root
p143
(lp144
I01
aI10000
asV/store/cmst3/group/cmgtools/CMG/VBF_HToTauTau_M-145_8TeV-powheg-pythia6/Summer12_DR53X-PU_S10_START53_V7A-v1/AODSIM/PAT_CMG_V5_16_0/cmgTuple_4_1_Nkd.root
p145
(lp146
I01
aI10000
asV/store/cmst3/group/cmgtools/CMG/VBF_HToTauTau_M-145_8TeV-powheg-pythia6/Summer12_DR53X-PU_S10_START53_V7A-v1/AODSIM/PAT_CMG_V5_16_0/cmgTuple_74_1_jzA.root
p147
(lp148
I01
aI10000
asV/store/cmst3/group/cmgtools/CMG/VBF_HToTauTau_M-145_8TeV-powheg-pythia6/Summer12_DR53X-PU_S10_START53_V7A-v1/AODSIM/PAT_CMG_V5_16_0/cmgTuple_70_1_oxp.root
p149
(lp150
I01
aI10000
asV/store/cmst3/group/cmgtools/CMG/VBF_HToTauTau_M-145_8TeV-powheg-pythia6/Summer12_DR53X-PU_S10_START53_V7A-v1/AODSIM/PAT_CMG_V5_16_0/cmgTuple_68_1_5nQ.root
p151
(lp152
I01
aI10000
asV/store/cmst3/group/cmgtools/CMG/VBF_HToTauTau_M-145_8TeV-powheg-pythia6/Summer12_DR53X-PU_S10_START53_V7A-v1/AODSIM/PAT_CMG_V5_16_0/cmgTuple_53_1_ibt.root
p153
(lp154
I01
aI10000
asV/store/cmst3/group/cmgtools/CMG/VBF_HToTauTau_M-145_8TeV-powheg-pythia6/Summer12_DR53X-PU_S10_START53_V7A-v1/AODSIM/PAT_CMG_V5_16_0/cmgTuple_11_1_hRk.root
p155
(lp156
I01
aI10000
asV/store/cmst3/group/cmgtools/CMG/VBF_HToTauTau_M-145_8TeV-powheg-pythia6/Summer12_DR53X-PU_S10_START53_V7A-v1/AODSIM/PAT_CMG_V5_16_0/cmgTuple_65_1_9qQ.root
p157
(lp158
I01
aI10000
asV/store/cmst3/group/cmgtools/CMG/VBF_HToTauTau_M-145_8TeV-powheg-pythia6/Summer12_DR53X-PU_S10_START53_V7A-v1/AODSIM/PAT_CMG_V5_16_0/cmgTuple_23_1_GA0.root
p159
(lp160
I01
aI10000
asV/store/cmst3/group/cmgtools/CMG/VBF_HToTauTau_M-145_8TeV-powheg-pythia6/Summer12_DR53X-PU_S10_START53_V7A-v1/AODSIM/PAT_CMG_V5_16_0/cmgTuple_15_1_ZRl.root
p161
(lp162
I01
aI10000
asV/store/cmst3/group/cmgtools/CMG/VBF_HToTauTau_M-145_8TeV-powheg-pythia6/Summer12_DR53X-PU_S10_START53_V7A-v1/AODSIM/PAT_CMG_V5_16_0/cmgTuple_7_1_VLw.root
p163
(lp164
I01
aI10000
asV/store/cmst3/group/cmgtools/CMG/VBF_HToTauTau_M-145_8TeV-powheg-pythia6/Summer12_DR53X-PU_S10_START53_V7A-v1/AODSIM/PAT_CMG_V5_16_0/cmgTuple_41_1_Nrv.root
p165
(lp166
I01
aI10000
asV/store/cmst3/group/cmgtools/CMG/VBF_HToTauTau_M-145_8TeV-powheg-pythia6/Summer12_DR53X-PU_S10_START53_V7A-v1/AODSIM/PAT_CMG_V5_16_0/cmgTuple_21_1_ncH.root
p167
(lp168
I01
aI10000
asV/store/cmst3/group/cmgtools/CMG/VBF_HToTauTau_M-145_8TeV-powheg-pythia6/Summer12_DR53X-PU_S10_START53_V7A-v1/AODSIM/PAT_CMG_V5_16_0/cmgTuple_37_1_DaC.root
p169
(lp170
I01
aI10000
asV/store/cmst3/group/cmgtools/CMG/VBF_HToTauTau_M-145_8TeV-powheg-pythia6/Summer12_DR53X-PU_S10_START53_V7A-v1/AODSIM/PAT_CMG_V5_16_0/cmgTuple_101_1_hkb.root
p171
(lp172
I01
aI8386
asV/store/cmst3/group/cmgtools/CMG/VBF_HToTauTau_M-145_8TeV-powheg-pythia6/Summer12_DR53X-PU_S10_START53_V7A-v1/AODSIM/PAT_CMG_V5_16_0/cmgTuple_90_1_O4r.root
p173
(lp174
I01
aI10000
asV/store/cmst3/group/cmgtools/CMG/VBF_HToTauTau_M-145_8TeV-powheg-pythia6/Summer12_DR53X-PU_S10_START53_V7A-v1/AODSIM/PAT_CMG_V5_16_0/cmgTuple_87_1_JJL.root
p175
(lp176
I01
aI10000
asV/store/cmst3/group/cmgtools/CMG/VBF_HToTauTau_M-145_8TeV-powheg-pythia6/Summer12_DR53X-PU_S10_START53_V7A-v1/AODSIM/PAT_CMG_V5_16_0/cmgTuple_83_1_IGS.root
p177
(lp178
I01
aI10000
asV/store/cmst3/group/cmgtools/CMG/VBF_HToTauTau_M-145_8TeV-powheg-pythia6/Summer12_DR53X-PU_S10_START53_V7A-v1/AODSIM/PAT_CMG_V5_16_0/cmgTuple_33_1_juB.root
p179
(lp180
I01
aI10000
asV/store/cmst3/group/cmgtools/CMG/VBF_HToTauTau_M-145_8TeV-powheg-pythia6/Summer12_DR53X-PU_S10_START53_V7A-v1/AODSIM/PAT_CMG_V5_16_0/cmgTuple_31_1_zIq.root
p181
(lp182
I01
aI10000
asV/store/cmst3/group/cmgtools/CMG/VBF_HToTauTau_M-145_8TeV-powheg-pythia6/Summer12_DR53X-PU_S10_START53_V7A-v1/AODSIM/PAT_CMG_V5_16_0/cmgTuple_12_1_2QY.root
p183
(lp184
I01
aI10000
asV/store/cmst3/group/cmgtools/CMG/VBF_HToTauTau_M-145_8TeV-powheg-pythia6/Summer12_DR53X-PU_S10_START53_V7A-v1/AODSIM/PAT_CMG_V5_16_0/cmgTuple_26_1_KPa.root
p185
(lp186
I01
aI10000
asV/store/cmst3/group/cmgtools/CMG/VBF_HToTauTau_M-145_8TeV-powheg-pythia6/Summer12_DR53X-PU_S10_START53_V7A-v1/AODSIM/PAT_CMG_V5_16_0/cmgTuple_13_1_LIk.root
p187
(lp188
I01
aI10000
asV/store/cmst3/group/cmgtools/CMG/VBF_HToTauTau_M-145_8TeV-powheg-pythia6/Summer12_DR53X-PU_S10_START53_V7A-v1/AODSIM/PAT_CMG_V5_16_0/cmgTuple_53_2_WhV.root
p189
(lp190
I01
aI10000
asV/store/cmst3/group/cmgtools/CMG/VBF_HToTauTau_M-145_8TeV-powheg-pythia6/Summer12_DR53X-PU_S10_START53_V7A-v1/AODSIM/PAT_CMG_V5_16_0/cmgTuple_99_1_cR4.root
p191
(lp192
I01
aI10000
asV/store/cmst3/group/cmgtools/CMG/VBF_HToTauTau_M-145_8TeV-powheg-pythia6/Summer12_DR53X-PU_S10_START53_V7A-v1/AODSIM/PAT_CMG_V5_16_0/cmgTuple_79_1_No3.root
p193
(lp194
I01
aI10000
asV/store/cmst3/group/cmgtools/CMG/VBF_HToTauTau_M-145_8TeV-powheg-pythia6/Summer12_DR53X-PU_S10_START53_V7A-v1/AODSIM/PAT_CMG_V5_16_0/cmgTuple_64_1_k86.root
p195
(lp196
I01
aI10000
asV/store/cmst3/group/cmgtools/CMG/VBF_HToTauTau_M-145_8TeV-powheg-pythia6/Summer12_DR53X-PU_S10_START53_V7A-v1/AODSIM/PAT_CMG_V5_16_0/cmgTuple_66_1_gHB.root
p197
(lp198
I01
aI10000
asV/store/cmst3/group/cmgtools/CMG/VBF_HToTauTau_M-145_8TeV-powheg-pythia6/Summer12_DR53X-PU_S10_START53_V7A-v1/AODSIM/PAT_CMG_V5_16_0/cmgTuple_42_1_XeV.root
p199
(lp200
I01
aI10000
asV/store/cmst3/group/cmgtools/CMG/VBF_HToTauTau_M-145_8TeV-powheg-pythia6/Summer12_DR53X-PU_S10_START53_V7A-v1/AODSIM/PAT_CMG_V5_16_0/cmgTuple_35_1_yIb.root
p201
(lp202
I01
aI10000
asV/store/cmst3/group/cmgtools/CMG/VBF_HToTauTau_M-145_8TeV-powheg-pythia6/Summer12_DR53X-PU_S10_START53_V7A-v1/AODSIM/PAT_CMG_V5_16_0/cmgTuple_98_1_t9p.root
p203
(lp204
I01
aI10000
asV/store/cmst3/group/cmgtools/CMG/VBF_HToTauTau_M-145_8TeV-powheg-pythia6/Summer12_DR53X-PU_S10_START53_V7A-v1/AODSIM/PAT_CMG_V5_16_0/cmgTuple_81_1_AJt.root
p205
(lp206
I01
aI10000
asV/store/cmst3/group/cmgtools/CMG/VBF_HToTauTau_M-145_8TeV-powheg-pythia6/Summer12_DR53X-PU_S10_START53_V7A-v1/AODSIM/PAT_CMG_V5_16_0/cmgTuple_51_1_phw.root
p207
(lp208
I01
aI10000
asV/store/cmst3/group/cmgtools/CMG/VBF_HToTauTau_M-145_8TeV-powheg-pythia6/Summer12_DR53X-PU_S10_START53_V7A-v1/AODSIM/PAT_CMG_V5_16_0/cmgTuple_25_1_q3i.root
p209
(lp210
I01
aI10000
asV/store/cmst3/group/cmgtools/CMG/VBF_HToTauTau_M-145_8TeV-powheg-pythia6/Summer12_DR53X-PU_S10_START53_V7A-v1/AODSIM/PAT_CMG_V5_16_0/cmgTuple_54_1_6Mz.root
p211
(lp212
I01
aI10000
asV/store/cmst3/group/cmgtools/CMG/VBF_HToTauTau_M-145_8TeV-powheg-pythia6/Summer12_DR53X-PU_S10_START53_V7A-v1/AODSIM/PAT_CMG_V5_16_0/cmgTuple_84_1_muw.root
p213
(lp214
I01
aI10000
asV/store/cmst3/group/cmgtools/CMG/VBF_HToTauTau_M-145_8TeV-powheg-pythia6/Summer12_DR53X-PU_S10_START53_V7A-v1/AODSIM/PAT_CMG_V5_16_0/cmgTuple_93_1_rVp.root
p215
(lp216
I01
aI10000
asV/store/cmst3/group/cmgtools/CMG/VBF_HToTauTau_M-145_8TeV-powheg-pythia6/Summer12_DR53X-PU_S10_START53_V7A-v1/AODSIM/PAT_CMG_V5_16_0/cmgTuple_5_1_Cyx.root
p217
(lp218
I01
aI10000
asV/store/cmst3/group/cmgtools/CMG/VBF_HToTauTau_M-145_8TeV-powheg-pythia6/Summer12_DR53X-PU_S10_START53_V7A-v1/AODSIM/PAT_CMG_V5_16_0/cmgTuple_96_2_V5x.root
p219
(lp220
I01
aI10000
asV/store/cmst3/group/cmgtools/CMG/VBF_HToTauTau_M-145_8TeV-powheg-pythia6/Summer12_DR53X-PU_S10_START53_V7A-v1/AODSIM/PAT_CMG_V5_16_0/cmgTuple_52_1_Oi6.root
p221
(lp222
I01
aI10000
asV/store/cmst3/group/cmgtools/CMG/VBF_HToTauTau_M-145_8TeV-powheg-pythia6/Summer12_DR53X-PU_S10_START53_V7A-v1/AODSIM/PAT_CMG_V5_16_0/cmgTuple_45_1_Djx.root
p223
(lp224
I01
aI10000
asV/store/cmst3/group/cmgtools/CMG/VBF_HToTauTau_M-145_8TeV-powheg-pythia6/Summer12_DR53X-PU_S10_START53_V7A-v1/AODSIM/PAT_CMG_V5_16_0/cmgTuple_18_1_xVo.root
p225
(lp226
I01
aI10000
asV/store/cmst3/group/cmgtools/CMG/VBF_HToTauTau_M-145_8TeV-powheg-pythia6/Summer12_DR53X-PU_S10_START53_V7A-v1/AODSIM/PAT_CMG_V5_16_0/cmgTuple_34_1_bWV.root
p227
(lp228
I01
aI10000
asV/store/cmst3/group/cmgtools/CMG/VBF_HToTauTau_M-145_8TeV-powheg-pythia6/Summer12_DR53X-PU_S10_START53_V7A-v1/AODSIM/PAT_CMG_V5_16_0/cmgTuple_85_1_4Md.root
p229
(lp230
I01
aI10000
asV/store/cmst3/group/cmgtools/CMG/VBF_HToTauTau_M-145_8TeV-powheg-pythia6/Summer12_DR53X-PU_S10_START53_V7A-v1/AODSIM/PAT_CMG_V5_16_0/cmgTuple_46_1_Wfb.root
p231
(lp232
I01
aI10000
asV/store/cmst3/group/cmgtools/CMG/VBF_HToTauTau_M-145_8TeV-powheg-pythia6/Summer12_DR53X-PU_S10_START53_V7A-v1/AODSIM/PAT_CMG_V5_16_0/cmgTuple_56_1_mXb.root
p233
(lp234
I01
aI10000
asV/store/cmst3/group/cmgtools/CMG/VBF_HToTauTau_M-145_8TeV-powheg-pythia6/Summer12_DR53X-PU_S10_START53_V7A-v1/AODSIM/PAT_CMG_V5_16_0/cmgTuple_58_2_zMF.root
p235
(lp236
I01
aI10000
asV/store/cmst3/group/cmgtools/CMG/VBF_HToTauTau_M-145_8TeV-powheg-pythia6/Summer12_DR53X-PU_S10_START53_V7A-v1/AODSIM/PAT_CMG_V5_16_0/cmgTuple_9_1_dOT.root
p237
(lp238
I01
aI10000
asV/store/cmst3/group/cmgtools/CMG/VBF_HToTauTau_M-145_8TeV-powheg-pythia6/Summer12_DR53X-PU_S10_START53_V7A-v1/AODSIM/PAT_CMG_V5_16_0/cmgTuple_22_1_HyI.root
p239
(lp240
I01
aI10000
asV/store/cmst3/group/cmgtools/CMG/VBF_HToTauTau_M-145_8TeV-powheg-pythia6/Summer12_DR53X-PU_S10_START53_V7A-v1/AODSIM/PAT_CMG_V5_16_0/cmgTuple_94_1_GWf.root
p241
(lp242
I01
aI10000
asV/store/cmst3/group/cmgtools/CMG/VBF_HToTauTau_M-145_8TeV-powheg-pythia6/Summer12_DR53X-PU_S10_START53_V7A-v1/AODSIM/PAT_CMG_V5_16_0/cmgTuple_20_1_fGp.root
p243
(lp244
I01
aI10000
asV/store/cmst3/group/cmgtools/CMG/VBF_HToTauTau_M-145_8TeV-powheg-pythia6/Summer12_DR53X-PU_S10_START53_V7A-v1/AODSIM/PAT_CMG_V5_16_0/cmgTuple_57_1_v2r.root
p245
(lp246
I01
aI10000
asV/store/cmst3/group/cmgtools/CMG/VBF_HToTauTau_M-145_8TeV-powheg-pythia6/Summer12_DR53X-PU_S10_START53_V7A-v1/AODSIM/PAT_CMG_V5_16_0/cmgTuple_38_1_m4q.root
p247
(lp248
I01
aI10000
asV/store/cmst3/group/cmgtools/CMG/VBF_HToTauTau_M-145_8TeV-powheg-pythia6/Summer12_DR53X-PU_S10_START53_V7A-v1/AODSIM/PAT_CMG_V5_16_0/cmgTuple_60_1_G4w.root
p249
(lp250
I01
aI10000
asV/store/cmst3/group/cmgtools/CMG/VBF_HToTauTau_M-145_8TeV-powheg-pythia6/Summer12_DR53X-PU_S10_START53_V7A-v1/AODSIM/PAT_CMG_V5_16_0/cmgTuple_78_1_OT2.root
p251
(lp252
I01
aI10000
asV/store/cmst3/group/cmgtools/CMG/VBF_HToTauTau_M-145_8TeV-powheg-pythia6/Summer12_DR53X-PU_S10_START53_V7A-v1/AODSIM/PAT_CMG_V5_16_0/cmgTuple_27_1_Sg1.root
p253
(lp254
I01
aI10000
asV/store/cmst3/group/cmgtools/CMG/VBF_HToTauTau_M-145_8TeV-powheg-pythia6/Summer12_DR53X-PU_S10_START53_V7A-v1/AODSIM/PAT_CMG_V5_16_0/cmgTuple_19_1_kQ8.root
p255
(lp256
I01
aI10000
asV/store/cmst3/group/cmgtools/CMG/VBF_HToTauTau_M-145_8TeV-powheg-pythia6/Summer12_DR53X-PU_S10_START53_V7A-v1/AODSIM/PAT_CMG_V5_16_0/cmgTuple_58_1_9pM.root
p257
(lp258
I01
aI10000
asV/store/cmst3/group/cmgtools/CMG/VBF_HToTauTau_M-145_8TeV-powheg-pythia6/Summer12_DR53X-PU_S10_START53_V7A-v1/AODSIM/PAT_CMG_V5_16_0/cmgTuple_21_2_3Wc.root
p259
(lp260
I01
aI10000
asV/store/cmst3/group/cmgtools/CMG/VBF_HToTauTau_M-145_8TeV-powheg-pythia6/Summer12_DR53X-PU_S10_START53_V7A-v1/AODSIM/PAT_CMG_V5_16_0/cmgTuple_80_1_5pa.root
p261
(lp262
I01
aI10000
asV/store/cmst3/group/cmgtools/CMG/VBF_HToTauTau_M-145_8TeV-powheg-pythia6/Summer12_DR53X-PU_S10_START53_V7A-v1/AODSIM/PAT_CMG_V5_16_0/cmgTuple_48_1_cuG.root
p263
(lp264
I01
aI10000
asV/store/cmst3/group/cmgtools/CMG/VBF_HToTauTau_M-145_8TeV-powheg-pythia6/Summer12_DR53X-PU_S10_START53_V7A-v1/AODSIM/PAT_CMG_V5_16_0/cmgTuple_59_1_HLk.root
p265
(lp266
I01
aI10000
asV/store/cmst3/group/cmgtools/CMG/VBF_HToTauTau_M-145_8TeV-powheg-pythia6/Summer12_DR53X-PU_S10_START53_V7A-v1/AODSIM/PAT_CMG_V5_16_0/cmgTuple_10_1_whF.root
p267
(lp268
I01
aI10000
asV/store/cmst3/group/cmgtools/CMG/VBF_HToTauTau_M-145_8TeV-powheg-pythia6/Summer12_DR53X-PU_S10_START53_V7A-v1/AODSIM/PAT_CMG_V5_16_0/cmgTuple_43_1_LJ6.root
p269
(lp270
I01
aI10000
asV/store/cmst3/group/cmgtools/CMG/VBF_HToTauTau_M-145_8TeV-powheg-pythia6/Summer12_DR53X-PU_S10_START53_V7A-v1/AODSIM/PAT_CMG_V5_16_0/cmgTuple_14_1_Raj.root
p271
(lp272
I01
aI10000
asV/store/cmst3/group/cmgtools/CMG/VBF_HToTauTau_M-145_8TeV-powheg-pythia6/Summer12_DR53X-PU_S10_START53_V7A-v1/AODSIM/PAT_CMG_V5_16_0/cmgTuple_73_1_9Pa.root
p273
(lp274
I01
aI10000
asV/store/cmst3/group/cmgtools/CMG/VBF_HToTauTau_M-145_8TeV-powheg-pythia6/Summer12_DR53X-PU_S10_START53_V7A-v1/AODSIM/PAT_CMG_V5_16_0/cmgTuple_69_1_gQ7.root
p275
(lp276
I01
aI10000
asV/store/cmst3/group/cmgtools/CMG/VBF_HToTauTau_M-145_8TeV-powheg-pythia6/Summer12_DR53X-PU_S10_START53_V7A-v1/AODSIM/PAT_CMG_V5_16_0/cmgTuple_2_1_TCa.root
p277
(lp278
I01
aI10000
asV/store/cmst3/group/cmgtools/CMG/VBF_HToTauTau_M-145_8TeV-powheg-pythia6/Summer12_DR53X-PU_S10_START53_V7A-v1/AODSIM/PAT_CMG_V5_16_0/cmgTuple_6_1_6xq.root
p279
(lp280
I01
aI10000
asV/store/cmst3/group/cmgtools/CMG/VBF_HToTauTau_M-145_8TeV-powheg-pythia6/Summer12_DR53X-PU_S10_START53_V7A-v1/AODSIM/PAT_CMG_V5_16_0/cmgTuple_63_1_jXH.root
p281
(lp282
I01
aI10000
asV/store/cmst3/group/cmgtools/CMG/VBF_HToTauTau_M-145_8TeV-powheg-pythia6/Summer12_DR53X-PU_S10_START53_V7A-v1/AODSIM/PAT_CMG_V5_16_0/cmgTuple_61_1_XHg.root
p283
(lp284
I01
aI10000
asV/store/cmst3/group/cmgtools/CMG/VBF_HToTauTau_M-145_8TeV-powheg-pythia6/Summer12_DR53X-PU_S10_START53_V7A-v1/AODSIM/PAT_CMG_V5_16_0/cmgTuple_47_1_9GJ.root
p285
(lp286
I01
aI10000
asV/store/cmst3/group/cmgtools/CMG/VBF_HToTauTau_M-145_8TeV-powheg-pythia6/Summer12_DR53X-PU_S10_START53_V7A-v1/AODSIM/PAT_CMG_V5_16_0/cmgTuple_92_1_OC8.root
p287
(lp288
I01
aI10000
asV/store/cmst3/group/cmgtools/CMG/VBF_HToTauTau_M-145_8TeV-powheg-pythia6/Summer12_DR53X-PU_S10_START53_V7A-v1/AODSIM/PAT_CMG_V5_16_0/cmgTuple_28_1_ttq.root
p289
(lp290
I01
aI10000
asV/store/cmst3/group/cmgtools/CMG/VBF_HToTauTau_M-145_8TeV-powheg-pythia6/Summer12_DR53X-PU_S10_START53_V7A-v1/AODSIM/PAT_CMG_V5_16_0/cmgTuple_17_1_EQI.root
p291
(lp292
I01
aI10000
asV/store/cmst3/group/cmgtools/CMG/VBF_HToTauTau_M-145_8TeV-powheg-pythia6/Summer12_DR53X-PU_S10_START53_V7A-v1/AODSIM/PAT_CMG_V5_16_0/cmgTuple_44_1_KFU.root
p293
(lp294
I01
aI10000
asV/store/cmst3/group/cmgtools/CMG/VBF_HToTauTau_M-145_8TeV-powheg-pythia6/Summer12_DR53X-PU_S10_START53_V7A-v1/AODSIM/PAT_CMG_V5_16_0/cmgTuple_89_1_NLR.root
p295
(lp296
I01
aI10000
asV/store/cmst3/group/cmgtools/CMG/VBF_HToTauTau_M-145_8TeV-powheg-pythia6/Summer12_DR53X-PU_S10_START53_V7A-v1/AODSIM/PAT_CMG_V5_16_0/cmgTuple_72_1_ISN.root
p297
(lp298
I01
aI10000
asV/store/cmst3/group/cmgtools/CMG/VBF_HToTauTau_M-145_8TeV-powheg-pythia6/Summer12_DR53X-PU_S10_START53_V7A-v1/AODSIM/PAT_CMG_V5_16_0/cmgTuple_16_1_FAZ.root
p299
(lp300
I01
aI10000
asV/store/cmst3/group/cmgtools/CMG/VBF_HToTauTau_M-145_8TeV-powheg-pythia6/Summer12_DR53X-PU_S10_START53_V7A-v1/AODSIM/PAT_CMG_V5_16_0/cmgTuple_96_1_Bwo.root
p301
(lp302
I01
aI10000
asV/store/cmst3/group/cmgtools/CMG/VBF_HToTauTau_M-145_8TeV-powheg-pythia6/Summer12_DR53X-PU_S10_START53_V7A-v1/AODSIM/PAT_CMG_V5_16_0/cmgTuple_32_1_pk3.root
p303
(lp304
I01
aI10000
asV/store/cmst3/group/cmgtools/CMG/VBF_HToTauTau_M-145_8TeV-powheg-pythia6/Summer12_DR53X-PU_S10_START53_V7A-v1/AODSIM/PAT_CMG_V5_16_0/cmgTuple_77_1_abo.root
p305
(lp306
I01
aI10000
asV/store/cmst3/group/cmgtools/CMG/VBF_HToTauTau_M-145_8TeV-powheg-pythia6/Summer12_DR53X-PU_S10_START53_V7A-v1/AODSIM/PAT_CMG_V5_16_0/cmgTuple_95_1_hyl.root
p307
(lp308
I01
aI10000
asV/store/cmst3/group/cmgtools/CMG/VBF_HToTauTau_M-145_8TeV-powheg-pythia6/Summer12_DR53X-PU_S10_START53_V7A-v1/AODSIM/PAT_CMG_V5_16_0/cmgTuple_1_1_pJY.root
p309
(lp310
I01
aI10000
asV/store/cmst3/group/cmgtools/CMG/VBF_HToTauTau_M-145_8TeV-powheg-pythia6/Summer12_DR53X-PU_S10_START53_V7A-v1/AODSIM/PAT_CMG_V5_16_0/cmgTuple_30_1_FJZ.root
p311
(lp312
I01
aI10000
asV/store/cmst3/group/cmgtools/CMG/VBF_HToTauTau_M-145_8TeV-powheg-pythia6/Summer12_DR53X-PU_S10_START53_V7A-v1/AODSIM/PAT_CMG_V5_16_0/cmgTuple_97_1_YpL.root
p313
(lp314
I01
aI10000
asV/store/cmst3/group/cmgtools/CMG/VBF_HToTauTau_M-145_8TeV-powheg-pythia6/Summer12_DR53X-PU_S10_START53_V7A-v1/AODSIM/PAT_CMG_V5_16_0/cmgTuple_62_1_oiR.root
p315
(lp316
I01
aI10000
asV/store/cmst3/group/cmgtools/CMG/VBF_HToTauTau_M-145_8TeV-powheg-pythia6/Summer12_DR53X-PU_S10_START53_V7A-v1/AODSIM/PAT_CMG_V5_16_0/cmgTuple_67_1_zDZ.root
p317
(lp318
I01
aI10000
asV/store/cmst3/group/cmgtools/CMG/VBF_HToTauTau_M-145_8TeV-powheg-pythia6/Summer12_DR53X-PU_S10_START53_V7A-v1/AODSIM/PAT_CMG_V5_16_0/cmgTuple_73_2_bt3.root
p319
(lp320
I01
aI10000
asV/store/cmst3/group/cmgtools/CMG/VBF_HToTauTau_M-145_8TeV-powheg-pythia6/Summer12_DR53X-PU_S10_START53_V7A-v1/AODSIM/PAT_CMG_V5_16_0/cmgTuple_88_1_Ylh.root
p321
(lp322
I01
aI10000
asV/store/cmst3/group/cmgtools/CMG/VBF_HToTauTau_M-145_8TeV-powheg-pythia6/Summer12_DR53X-PU_S10_START53_V7A-v1/AODSIM/PAT_CMG_V5_16_0/cmgTuple_100_1_uaA.root
p323
(lp324
I01
aI497
asV/store/cmst3/group/cmgtools/CMG/VBF_HToTauTau_M-145_8TeV-powheg-pythia6/Summer12_DR53X-PU_S10_START53_V7A-v1/AODSIM/PAT_CMG_V5_16_0/cmgTuple_40_1_lUW.root
p325
(lp326
I01
aI10000
asV/store/cmst3/group/cmgtools/CMG/VBF_HToTauTau_M-145_8TeV-powheg-pythia6/Summer12_DR53X-PU_S10_START53_V7A-v1/AODSIM/PAT_CMG_V5_16_0/cmgTuple_82_1_gEK.root
p327
(lp328
I01
aI10000
asV/store/cmst3/group/cmgtools/CMG/VBF_HToTauTau_M-145_8TeV-powheg-pythia6/Summer12_DR53X-PU_S10_START53_V7A-v1/AODSIM/PAT_CMG_V5_16_0/cmgTuple_76_1_XJh.root
p329
(lp330
I01
aI10000
asV/store/cmst3/group/cmgtools/CMG/VBF_HToTauTau_M-145_8TeV-powheg-pythia6/Summer12_DR53X-PU_S10_START53_V7A-v1/AODSIM/PAT_CMG_V5_16_0/cmgTuple_65_2_pzr.root
p331
(lp332
I01
aI10000
asV/store/cmst3/group/cmgtools/CMG/VBF_HToTauTau_M-145_8TeV-powheg-pythia6/Summer12_DR53X-PU_S10_START53_V7A-v1/AODSIM/PAT_CMG_V5_16_0/cmgTuple_49_1_BQu.root
p333
(lp334
I01
aI10000
asV/store/cmst3/group/cmgtools/CMG/VBF_HToTauTau_M-145_8TeV-powheg-pythia6/Summer12_DR53X-PU_S10_START53_V7A-v1/AODSIM/PAT_CMG_V5_16_0/cmgTuple_91_1_gYq.root
p335
(lp336
I01
aI10000
asV/store/cmst3/group/cmgtools/CMG/VBF_HToTauTau_M-145_8TeV-powheg-pythia6/Summer12_DR53X-PU_S10_START53_V7A-v1/AODSIM/PAT_CMG_V5_16_0/cmgTuple_8_1_ChS.root
p337
(lp338
I01
aI10000
asV/store/cmst3/group/cmgtools/CMG/VBF_HToTauTau_M-145_8TeV-powheg-pythia6/Summer12_DR53X-PU_S10_START53_V7A-v1/AODSIM/PAT_CMG_V5_16_0/cmgTuple_29_1_i7P.root
p339
(lp340
I01
aI10000
asV/store/cmst3/group/cmgtools/CMG/VBF_HToTauTau_M-145_8TeV-powheg-pythia6/Summer12_DR53X-PU_S10_START53_V7A-v1/AODSIM/PAT_CMG_V5_16_0/cmgTuple_36_1_eKu.root
p341
(lp342
I01
aI10000
asV/store/cmst3/group/cmgtools/CMG/VBF_HToTauTau_M-145_8TeV-powheg-pythia6/Summer12_DR53X-PU_S10_START53_V7A-v1/AODSIM/PAT_CMG_V5_16_0/cmgTuple_86_1_L7D.root
p343
(lp344
I01
aI10000
asV/store/cmst3/group/cmgtools/CMG/VBF_HToTauTau_M-145_8TeV-powheg-pythia6/Summer12_DR53X-PU_S10_START53_V7A-v1/AODSIM/PAT_CMG_V5_16_0/cmgTuple_24_1_DCH.root
p345
(lp346
I01
aI10000
assVPhysicsGroup
p347
VCMG
p348
sVFilesCount
p349
I108
sVFilesEntries
p350
I998883
sVRunList
p351
(lp352
sVValidDuplicates
p353
(dp354
V/store/cmst3/group/cmgtools/CMG/VBF_HToTauTau_M-145_8TeV-powheg-pythia6/Summer12_DR53X-PU_S10_START53_V7A-v1/AODSIM/PAT_CMG_V5_16_0/cmgTuple_58_1_9pM.root
p355
I10000
sV/store/cmst3/group/cmgtools/CMG/VBF_HToTauTau_M-145_8TeV-powheg-pythia6/Summer12_DR53X-PU_S10_START53_V7A-v1/AODSIM/PAT_CMG_V5_16_0/cmgTuple_21_1_ncH.root
p356
I10000
sV/store/cmst3/group/cmgtools/CMG/VBF_HToTauTau_M-145_8TeV-powheg-pythia6/Summer12_DR53X-PU_S10_START53_V7A-v1/AODSIM/PAT_CMG_V5_16_0/cmgTuple_96_1_Bwo.root
p357
I10000
sV/store/cmst3/group/cmgtools/CMG/VBF_HToTauTau_M-145_8TeV-powheg-pythia6/Summer12_DR53X-PU_S10_START53_V7A-v1/AODSIM/PAT_CMG_V5_16_0/cmgTuple_59_1_HLk.root
p358
I10000
sV/store/cmst3/group/cmgtools/CMG/VBF_HToTauTau_M-145_8TeV-powheg-pythia6/Summer12_DR53X-PU_S10_START53_V7A-v1/AODSIM/PAT_CMG_V5_16_0/cmgTuple_53_1_ibt.root
p359
I10000
sV/store/cmst3/group/cmgtools/CMG/VBF_HToTauTau_M-145_8TeV-powheg-pythia6/Summer12_DR53X-PU_S10_START53_V7A-v1/AODSIM/PAT_CMG_V5_16_0/cmgTuple_73_1_9Pa.root
p360
I10000
sV/store/cmst3/group/cmgtools/CMG/VBF_HToTauTau_M-145_8TeV-powheg-pythia6/Summer12_DR53X-PU_S10_START53_V7A-v1/AODSIM/PAT_CMG_V5_16_0/cmgTuple_65_1_9qQ.root
p361
I10000
ssVPrimaryDataset
p362
V/VBF_HToTauTau_M-145_8TeV-powheg-pythia6/Summer12_DR53X-PU_S10_START53_V7A-v1/AODSIM
p363
sVStatus
p364
VVALID
p365
sVName
p366
V/VBF_HToTauTau_M-145_8TeV-powheg-pythia6/Summer12_DR53X-PU_S10_START53_V7A-v1/AODSIM/PAT_CMG_V5_16_0
p367
sVTopdir
p368
V/eos/cms/store/cmst3/group/cmgtools/CMG
p369
sVdata
p370
(dp371
sVFilesBad
p372
I0
sVMinRun
p373
I-1
sVAlgoList
p374
(lp375
sVTierList
p376
(lp377
sVDateCreated
p378
V1370943245
p379
sVCreatedBy
p380
Vcmgtools_group
p381
sVMaxRun
p382
I-1
sVBadJobs
p383
(lp384
ssg89
I01
ssS'MonitorJobs'
p385
(dp386
S'LSFJobStatus'
p387
(dp388
g92
S'VBF_HToTauTau_M-145_8TeV-powheg-pythia6/Summer12_DR53X-PU_S10_START53_V7A-v1/AODSIM/PAT_CMG_V5_16_0_1377467467/HTT_24Jul_newTES_manzoni_Up_Jobs/Job_9/LSFJOB_440971479/STDOUT.gz'
p389
sg93
S'VBF_HToTauTau_M-145_8TeV-powheg-pythia6/Summer12_DR53X-PU_S10_START53_V7A-v1/AODSIM/PAT_CMG_V5_16_0_1377467467/HTT_24Jul_newTES_manzoni_Up_Jobs/Job_8/LSFJOB_440971407/STDOUT.gz'
p390
sg94
S'VBF_HToTauTau_M-145_8TeV-powheg-pythia6/Summer12_DR53X-PU_S10_START53_V7A-v1/AODSIM/PAT_CMG_V5_16_0_1377467467/HTT_24Jul_newTES_manzoni_Up_Jobs/Job_1/LSFJOB_440970658/STDOUT.gz'
p391
sg95
S'VBF_HToTauTau_M-145_8TeV-powheg-pythia6/Summer12_DR53X-PU_S10_START53_V7A-v1/AODSIM/PAT_CMG_V5_16_0_1377467467/HTT_24Jul_newTES_manzoni_Up_Jobs/Job_3/LSFJOB_440970898/STDOUT.gz'
p392
sg96
S'VBF_HToTauTau_M-145_8TeV-powheg-pythia6/Summer12_DR53X-PU_S10_START53_V7A-v1/AODSIM/PAT_CMG_V5_16_0_1377467467/HTT_24Jul_newTES_manzoni_Up_Jobs/Job_2/LSFJOB_440970783/STDOUT.gz'
p393
sg97
S'VBF_HToTauTau_M-145_8TeV-powheg-pythia6/Summer12_DR53X-PU_S10_START53_V7A-v1/AODSIM/PAT_CMG_V5_16_0_1377467467/HTT_24Jul_newTES_manzoni_Up_Jobs/Job_5/LSFJOB_440971088/STDOUT.gz'
p394
sg98
S'VBF_HToTauTau_M-145_8TeV-powheg-pythia6/Summer12_DR53X-PU_S10_START53_V7A-v1/AODSIM/PAT_CMG_V5_16_0_1377467467/HTT_24Jul_newTES_manzoni_Up_Jobs/Job_4/LSFJOB_440971005/STDOUT.gz'
p395
sg99
S'VBF_HToTauTau_M-145_8TeV-powheg-pythia6/Summer12_DR53X-PU_S10_START53_V7A-v1/AODSIM/PAT_CMG_V5_16_0_1377467467/HTT_24Jul_newTES_manzoni_Up_Jobs/Job_7/LSFJOB_440971335/STDOUT.gz'
p396
sg100
S'VBF_HToTauTau_M-145_8TeV-powheg-pythia6/Summer12_DR53X-PU_S10_START53_V7A-v1/AODSIM/PAT_CMG_V5_16_0_1377467467/HTT_24Jul_newTES_manzoni_Up_Jobs/Job_6/LSFJOB_440971223/STDOUT.gz'
p397
sg101
S'VBF_HToTauTau_M-145_8TeV-powheg-pythia6/Summer12_DR53X-PU_S10_START53_V7A-v1/AODSIM/PAT_CMG_V5_16_0_1377467467/HTT_24Jul_newTES_manzoni_Up_Jobs/Job_11/LSFJOB_440971673/STDOUT.gz'
p398
sg102
S'VBF_HToTauTau_M-145_8TeV-powheg-pythia6/Summer12_DR53X-PU_S10_START53_V7A-v1/AODSIM/PAT_CMG_V5_16_0_1377467467/HTT_24Jul_newTES_manzoni_Up_Jobs/Job_10/LSFJOB_440971582/STDOUT.gz'
p399
sg103
S'VBF_HToTauTau_M-145_8TeV-powheg-pythia6/Summer12_DR53X-PU_S10_START53_V7A-v1/AODSIM/PAT_CMG_V5_16_0_1377467467/HTT_24Jul_newTES_manzoni_Up_Jobs/Job_13/LSFJOB_440971894/STDOUT.gz'
p400
sg104
S'VBF_HToTauTau_M-145_8TeV-powheg-pythia6/Summer12_DR53X-PU_S10_START53_V7A-v1/AODSIM/PAT_CMG_V5_16_0_1377467467/HTT_24Jul_newTES_manzoni_Up_Jobs/Job_12/LSFJOB_440971796/STDOUT.gz'
p401
sg105
S'VBF_HToTauTau_M-145_8TeV-powheg-pythia6/Summer12_DR53X-PU_S10_START53_V7A-v1/AODSIM/PAT_CMG_V5_16_0_1377467467/HTT_24Jul_newTES_manzoni_Up_Jobs/Job_15/LSFJOB_440972134/STDOUT.gz'
p402
sg106
S'VBF_HToTauTau_M-145_8TeV-powheg-pythia6/Summer12_DR53X-PU_S10_START53_V7A-v1/AODSIM/PAT_CMG_V5_16_0_1377467467/HTT_24Jul_newTES_manzoni_Up_Jobs/Job_14/LSFJOB_440972037/STDOUT.gz'
p403
sg107
S'VBF_HToTauTau_M-145_8TeV-powheg-pythia6/Summer12_DR53X-PU_S10_START53_V7A-v1/AODSIM/PAT_CMG_V5_16_0_1377467467/HTT_24Jul_newTES_manzoni_Up_Jobs/Job_17/LSFJOB_440972310/STDOUT.gz'
p404
sg108
S'VBF_HToTauTau_M-145_8TeV-powheg-pythia6/Summer12_DR53X-PU_S10_START53_V7A-v1/AODSIM/PAT_CMG_V5_16_0_1377467467/HTT_24Jul_newTES_manzoni_Up_Jobs/Job_16/LSFJOB_440972221/STDOUT.gz'
p405
sg109
S'VBF_HToTauTau_M-145_8TeV-powheg-pythia6/Summer12_DR53X-PU_S10_START53_V7A-v1/AODSIM/PAT_CMG_V5_16_0_1377467467/HTT_24Jul_newTES_manzoni_Up_Jobs/Job_19/LSFJOB_440972477/STDOUT.gz'
p406
sg110
S'VBF_HToTauTau_M-145_8TeV-powheg-pythia6/Summer12_DR53X-PU_S10_START53_V7A-v1/AODSIM/PAT_CMG_V5_16_0_1377467467/HTT_24Jul_newTES_manzoni_Up_Jobs/Job_18/LSFJOB_440972403/STDOUT.gz'
p407
sg111
S'VBF_HToTauTau_M-145_8TeV-powheg-pythia6/Summer12_DR53X-PU_S10_START53_V7A-v1/AODSIM/PAT_CMG_V5_16_0_1377467467/HTT_24Jul_newTES_manzoni_Up_Jobs/Job_20/LSFJOB_440972591/STDOUT.gz'
p408
sg112
S'VBF_HToTauTau_M-145_8TeV-powheg-pythia6/Summer12_DR53X-PU_S10_START53_V7A-v1/AODSIM/PAT_CMG_V5_16_0_1377467467/HTT_24Jul_newTES_manzoni_Up_Jobs/Job_21/LSFJOB_440972689/STDOUT.gz'
p409
ssS'LSFJobIDs'
p410
(dp411
g92
S'440971479'
p412
sg93
S'440971407'
p413
sg94
S'440970658'
p414
sg95
S'440970898'
p415
sg96
S'440970783'
p416
sg97
S'440971088'
p417
sg98
S'440971005'
p418
sg99
S'440971335'
p419
sg100
S'440971223'
p420
sg101
S'440971673'
p421
sg102
S'440971582'
p422
sg103
S'440971894'
p423
sg104
S'440971796'
p424
sg105
S'440972134'
p425
sg106
S'440972037'
p426
sg107
S'440972310'
p427
sg108
S'440972221'
p428
sg109
S'440972477'
p429
sg110
S'440972403'
p430
sg111
S'440972591'
p431
sg112
S'440972689'
p432
sssS'FindOnCastor'
p433
(dp434
g51
S'/eos/cms/store/cmst3/group/cmgtools/CMG'
p435
sS'Directory'
p436
S'/eos/cms/store/cmst3/group/cmgtools/CMG/VBF_HToTauTau_M-145_8TeV-powheg-pythia6/Summer12_DR53X-PU_S10_START53_V7A-v1/AODSIM/PAT_CMG_V5_16_0'
p437
ssS'CheckConfig'
p438
(dp439
g67
g68
ssS'FullCFG'
p440
(dp441
S'FullCFG'
p442
S'VBF_HToTauTau_M-145_8TeV-powheg-pythia6/Summer12_DR53X-PU_S10_START53_V7A-v1/AODSIM/PAT_CMG_V5_16_0_1377467467/full_cfg.py'
p443
ssS'WriteJobReport'
p444
(dp445
S'SummaryFile'
p446
S'VBF_HToTauTau_M-145_8TeV-powheg-pythia6/Summer12_DR53X-PU_S10_START53_V7A-v1/AODSIM/PAT_CMG_V5_16_0_1377467467/resubmit.sh'
p447
ssS'ExpandConfig'
p448
(dp449
S'ExpandedFullCFG'
p450
S'VBF_HToTauTau_M-145_8TeV-powheg-pythia6/Summer12_DR53X-PU_S10_START53_V7A-v1/AODSIM/PAT_CMG_V5_16_0_1377467467/Expandedfull_cfg.py'
p451
ssS'RunTestEvents'
p452
(dp453
g67
g68
sS'TestCFG'
p454
S'VBF_HToTauTau_M-145_8TeV-powheg-pythia6/Summer12_DR53X-PU_S10_START53_V7A-v1/AODSIM/PAT_CMG_V5_16_0_1377467467/test_cfg.py'
p455
ssS'SourceCFG'
p456
(dp457
S'SourceCFG'
p458
S'VBF_HToTauTau_M-145_8TeV-powheg-pythia6/Summer12_DR53X-PU_S10_START53_V7A-v1/AODSIM/PAT_CMG_V5_16_0_1377467467/source_cfg.py'
p459
ssS'CheckForWrite'
p460
(dp461
g436
g437
sS'WriteAccess'
p462
I01
ssS'WriteToDatasets'
p463
(dp464
S'Added'
p465
I00
sg49
S'/VBF_HToTauTau_M-145_8TeV-powheg-pythia6/Summer12_DR53X-PU_S10_START53_V7A-v1/AODSIM/PAT_CMG_V5_16_0/HTT_24Jul_newTES_manzoni_Up'
p466
sS'User'
p467
g82
ssS'RunCMSBatch'
p468
(dp469
S'BatchUser'
p470
g82
sS'SampleOutputDir'
p471
S'/store/cmst3/user/manzoni/CMG/VBF_HToTauTau_M-145_8TeV-powheg-pythia6/Summer12_DR53X-PU_S10_START53_V7A-v1/AODSIM/PAT_CMG_V5_16_0/HTT_24Jul_newTES_manzoni_Up'
p472
sS'SampleDataset'
p473
g50
sS'LSFJobsTopDir'
p474
S'VBF_HToTauTau_M-145_8TeV-powheg-pythia6/Summer12_DR53X-PU_S10_START53_V7A-v1/AODSIM/PAT_CMG_V5_16_0_1377467467/HTT_24Jul_newTES_manzoni_Up_Jobs'
p475
ssS'CreateJobDirectory'
p476
(dp477
S'JobDir'
p478
S'VBF_HToTauTau_M-145_8TeV-powheg-pythia6/Summer12_DR53X-PU_S10_START53_V7A-v1/AODSIM/PAT_CMG_V5_16_0_1377467467'
p479
sS'PWD'
p480
S'/afs/cern.ch/user/m/manzoni/summer13/CMGTools/CMSSW_5_3_9/src/CMGTools/H2TauTau/prod/25aug_corrMC/up/mc'
p481
ssS'CleanJobFiles'
p482
(dp483
S'Compressed'
p484
(dp485
S'CompressedFiles'
p486
(lp487
ssS'Cleaned'
p488
(dp489
S'CleanedFiles'
p490
(lp491
g451
ag455
aS'VBF_HToTauTau_M-145_8TeV-powheg-pythia6/Summer12_DR53X-PU_S10_START53_V7A-v1/AODSIM/PAT_CMG_V5_16_0_1377467467/diTau_fullsel_tree_CMG.root'
p492
aS'VBF_HToTauTau_M-145_8TeV-powheg-pythia6/Summer12_DR53X-PU_S10_START53_V7A-v1/AODSIM/PAT_CMG_V5_16_0_1377467467/source_cfg.pyc'
p493
aS'VBF_HToTauTau_M-145_8TeV-powheg-pythia6/Summer12_DR53X-PU_S10_START53_V7A-v1/AODSIM/PAT_CMG_V5_16_0_1377467467/Expandedfull_cfg.pyc'
p494
asssS'CheckForMask'
p495
(dp496
g3
g119
sg89
I01
ss.