(dp0
S'CheckJobStatus'
p1
(dp2
S'Report'
p3
(dp4
S'Files'
p5
(dp6
S'/store/cmst3/user/manzoni/CMG/GluGluToHToTauTau_M-90_8TeV-powheg-pythia6/Summer12_DR53X-PU_S10_START53_V7C-v1/AODSIM/PAT_CMG_V5_16_0/HTT_24Jul_newTES_manzoni_Up/diTau_fullsel_tree_CMG_7.root'
p7
(I01
I160
tp8
sS'/store/cmst3/user/manzoni/CMG/GluGluToHToTauTau_M-90_8TeV-powheg-pythia6/Summer12_DR53X-PU_S10_START53_V7C-v1/AODSIM/PAT_CMG_V5_16_0/HTT_24Jul_newTES_manzoni_Up/diTau_fullsel_tree_CMG_13.root'
p9
(I01
I168
tp10
sS'/store/cmst3/user/manzoni/CMG/GluGluToHToTauTau_M-90_8TeV-powheg-pythia6/Summer12_DR53X-PU_S10_START53_V7C-v1/AODSIM/PAT_CMG_V5_16_0/HTT_24Jul_newTES_manzoni_Up/diTau_fullsel_tree_CMG_6.root'
p11
(I01
I145
tp12
sS'/store/cmst3/user/manzoni/CMG/GluGluToHToTauTau_M-90_8TeV-powheg-pythia6/Summer12_DR53X-PU_S10_START53_V7C-v1/AODSIM/PAT_CMG_V5_16_0/HTT_24Jul_newTES_manzoni_Up/diTau_fullsel_tree_CMG_11.root'
p13
(I01
I165
tp14
sS'/store/cmst3/user/manzoni/CMG/GluGluToHToTauTau_M-90_8TeV-powheg-pythia6/Summer12_DR53X-PU_S10_START53_V7C-v1/AODSIM/PAT_CMG_V5_16_0/HTT_24Jul_newTES_manzoni_Up/diTau_fullsel_tree_CMG_4.root'
p15
(I01
I160
tp16
sS'/store/cmst3/user/manzoni/CMG/GluGluToHToTauTau_M-90_8TeV-powheg-pythia6/Summer12_DR53X-PU_S10_START53_V7C-v1/AODSIM/PAT_CMG_V5_16_0/HTT_24Jul_newTES_manzoni_Up/diTau_fullsel_tree_CMG_1.root'
p17
(I01
I165
tp18
sS'/store/cmst3/user/manzoni/CMG/GluGluToHToTauTau_M-90_8TeV-powheg-pythia6/Summer12_DR53X-PU_S10_START53_V7C-v1/AODSIM/PAT_CMG_V5_16_0/HTT_24Jul_newTES_manzoni_Up/diTau_fullsel_tree_CMG_14.root'
p19
(I01
I143
tp20
sS'/store/cmst3/user/manzoni/CMG/GluGluToHToTauTau_M-90_8TeV-powheg-pythia6/Summer12_DR53X-PU_S10_START53_V7C-v1/AODSIM/PAT_CMG_V5_16_0/HTT_24Jul_newTES_manzoni_Up/diTau_fullsel_tree_CMG_19.root'
p21
(I01
I148
tp22
sS'/store/cmst3/user/manzoni/CMG/GluGluToHToTauTau_M-90_8TeV-powheg-pythia6/Summer12_DR53X-PU_S10_START53_V7C-v1/AODSIM/PAT_CMG_V5_16_0/HTT_24Jul_newTES_manzoni_Up/diTau_fullsel_tree_CMG_5.root'
p23
(I01
I159
tp24
sS'/store/cmst3/user/manzoni/CMG/GluGluToHToTauTau_M-90_8TeV-powheg-pythia6/Summer12_DR53X-PU_S10_START53_V7C-v1/AODSIM/PAT_CMG_V5_16_0/HTT_24Jul_newTES_manzoni_Up/diTau_fullsel_tree_CMG_10.root'
p25
(I01
I140
tp26
sS'/store/cmst3/user/manzoni/CMG/GluGluToHToTauTau_M-90_8TeV-powheg-pythia6/Summer12_DR53X-PU_S10_START53_V7C-v1/AODSIM/PAT_CMG_V5_16_0/HTT_24Jul_newTES_manzoni_Up/diTau_fullsel_tree_CMG_3.root'
p27
(I01
I177
tp28
sS'/store/cmst3/user/manzoni/CMG/GluGluToHToTauTau_M-90_8TeV-powheg-pythia6/Summer12_DR53X-PU_S10_START53_V7C-v1/AODSIM/PAT_CMG_V5_16_0/HTT_24Jul_newTES_manzoni_Up/diTau_fullsel_tree_CMG_16.root'
p29
(I01
I162
tp30
sS'/store/cmst3/user/manzoni/CMG/GluGluToHToTauTau_M-90_8TeV-powheg-pythia6/Summer12_DR53X-PU_S10_START53_V7C-v1/AODSIM/PAT_CMG_V5_16_0/HTT_24Jul_newTES_manzoni_Up/diTau_fullsel_tree_CMG_9.root'
p31
(I01
I136
tp32
sS'/store/cmst3/user/manzoni/CMG/GluGluToHToTauTau_M-90_8TeV-powheg-pythia6/Summer12_DR53X-PU_S10_START53_V7C-v1/AODSIM/PAT_CMG_V5_16_0/HTT_24Jul_newTES_manzoni_Up/diTau_fullsel_tree_CMG_15.root'
p33
(I01
I144
tp34
sS'/store/cmst3/user/manzoni/CMG/GluGluToHToTauTau_M-90_8TeV-powheg-pythia6/Summer12_DR53X-PU_S10_START53_V7C-v1/AODSIM/PAT_CMG_V5_16_0/HTT_24Jul_newTES_manzoni_Up/diTau_fullsel_tree_CMG_12.root'
p35
(I01
I148
tp36
sS'/store/cmst3/user/manzoni/CMG/GluGluToHToTauTau_M-90_8TeV-powheg-pythia6/Summer12_DR53X-PU_S10_START53_V7C-v1/AODSIM/PAT_CMG_V5_16_0/HTT_24Jul_newTES_manzoni_Up/diTau_fullsel_tree_CMG_18.root'
p37
(I01
I149
tp38
sS'/store/cmst3/user/manzoni/CMG/GluGluToHToTauTau_M-90_8TeV-powheg-pythia6/Summer12_DR53X-PU_S10_START53_V7C-v1/AODSIM/PAT_CMG_V5_16_0/HTT_24Jul_newTES_manzoni_Up/diTau_fullsel_tree_CMG_8.root'
p39
(I01
I159
tp40
sS'/store/cmst3/user/manzoni/CMG/GluGluToHToTauTau_M-90_8TeV-powheg-pythia6/Summer12_DR53X-PU_S10_START53_V7C-v1/AODSIM/PAT_CMG_V5_16_0/HTT_24Jul_newTES_manzoni_Up/diTau_fullsel_tree_CMG_20.root'
p41
(I01
I177
tp42
sS'/store/cmst3/user/manzoni/CMG/GluGluToHToTauTau_M-90_8TeV-powheg-pythia6/Summer12_DR53X-PU_S10_START53_V7C-v1/AODSIM/PAT_CMG_V5_16_0/HTT_24Jul_newTES_manzoni_Up/diTau_fullsel_tree_CMG_17.root'
p43
(I01
I161
tp44
sS'/store/cmst3/user/manzoni/CMG/GluGluToHToTauTau_M-90_8TeV-powheg-pythia6/Summer12_DR53X-PU_S10_START53_V7C-v1/AODSIM/PAT_CMG_V5_16_0/HTT_24Jul_newTES_manzoni_Up/diTau_fullsel_tree_CMG_2.root'
p45
(I01
I148
tp46
ssS'Name'
p47
S'/GluGluToHToTauTau_M-90_8TeV-powheg-pythia6/Summer12_DR53X-PU_S10_START53_V7C-v1/AODSIM/PAT_CMG_V5_16_0/HTT_24Jul_newTES_manzoni_Up'
p48
sS'Topdir'
p49
S'/eos/cms/store/cmst3/user/manzoni/CMG'
p50
sS'RunList'
p51
(lp52
sS'PathList'
p53
(lp54
S'/store/cmst3/user/manzoni/CMG/GluGluToHToTauTau_M-90_8TeV-powheg-pythia6/Summer12_DR53X-PU_S10_START53_V7C-v1/AODSIM/PAT_CMG_V5_16_0/HTT_24Jul_newTES_manzoni_Up'
p55
asS'AlgoList'
p56
(lp57
sS'PrimaryDatasetFraction'
p58
F0.0031143114311431145
sS'FilesGood'
p59
I20
sS'PrimaryDatasetEntries'
p60
I999900
sS'data'
p61
(dp62
sS'FilesBad'
p63
I0
sS'ReportVersion'
p64
I3
sS'Status'
p65
S'VALID'
p66
sS'MaxRun'
p67
I-1
sS'PhysicsGroup'
p68
S'CMG'
p69
sS'MinRun'
p70
I-1
sS'StageHost'
p71
S'castorcms'
p72
sS'FilesCount'
p73
I20
sS'FilesEntries'
p74
I3114
sS'TierList'
p75
(lp76
sS'DateCreated'
p77
S'1377471624'
p78
sS'CreatedBy'
p79
S'manzoni'
p80
sS'ValidDuplicates'
p81
(dp82
sS'PrimaryDataset'
p83
S'/GluGluToHToTauTau_M-90_8TeV-powheg-pythia6/Summer12_DR53X-PU_S10_START53_V7C-v1/AODSIM'
p84
sS'BadJobs'
p85
(lp86
ssS'MaskPresent'
p87
I01
sS'LSFJobStatusCheck'
p88
(dp89
S'GluGluToHToTauTau_M-90_8TeV-powheg-pythia6/Summer12_DR53X-PU_S10_START53_V7C-v1/AODSIM/PAT_CMG_V5_16_0_1377467485/HTT_24Jul_newTES_manzoni_Up_Jobs/Job_5'
p90
g66
sS'GluGluToHToTauTau_M-90_8TeV-powheg-pythia6/Summer12_DR53X-PU_S10_START53_V7C-v1/AODSIM/PAT_CMG_V5_16_0_1377467485/HTT_24Jul_newTES_manzoni_Up_Jobs/Job_4'
p91
g66
sS'GluGluToHToTauTau_M-90_8TeV-powheg-pythia6/Summer12_DR53X-PU_S10_START53_V7C-v1/AODSIM/PAT_CMG_V5_16_0_1377467485/HTT_24Jul_newTES_manzoni_Up_Jobs/Job_7'
p92
g66
sS'GluGluToHToTauTau_M-90_8TeV-powheg-pythia6/Summer12_DR53X-PU_S10_START53_V7C-v1/AODSIM/PAT_CMG_V5_16_0_1377467485/HTT_24Jul_newTES_manzoni_Up_Jobs/Job_6'
p93
g66
sS'GluGluToHToTauTau_M-90_8TeV-powheg-pythia6/Summer12_DR53X-PU_S10_START53_V7C-v1/AODSIM/PAT_CMG_V5_16_0_1377467485/HTT_24Jul_newTES_manzoni_Up_Jobs/Job_1'
p94
g66
sS'GluGluToHToTauTau_M-90_8TeV-powheg-pythia6/Summer12_DR53X-PU_S10_START53_V7C-v1/AODSIM/PAT_CMG_V5_16_0_1377467485/HTT_24Jul_newTES_manzoni_Up_Jobs/Job_3'
p95
g66
sS'GluGluToHToTauTau_M-90_8TeV-powheg-pythia6/Summer12_DR53X-PU_S10_START53_V7C-v1/AODSIM/PAT_CMG_V5_16_0_1377467485/HTT_24Jul_newTES_manzoni_Up_Jobs/Job_2'
p96
g66
sS'GluGluToHToTauTau_M-90_8TeV-powheg-pythia6/Summer12_DR53X-PU_S10_START53_V7C-v1/AODSIM/PAT_CMG_V5_16_0_1377467485/HTT_24Jul_newTES_manzoni_Up_Jobs/Job_9'
p97
g66
sS'GluGluToHToTauTau_M-90_8TeV-powheg-pythia6/Summer12_DR53X-PU_S10_START53_V7C-v1/AODSIM/PAT_CMG_V5_16_0_1377467485/HTT_24Jul_newTES_manzoni_Up_Jobs/Job_8'
p98
g66
sS'GluGluToHToTauTau_M-90_8TeV-powheg-pythia6/Summer12_DR53X-PU_S10_START53_V7C-v1/AODSIM/PAT_CMG_V5_16_0_1377467485/HTT_24Jul_newTES_manzoni_Up_Jobs/Job_19'
p99
g66
sS'GluGluToHToTauTau_M-90_8TeV-powheg-pythia6/Summer12_DR53X-PU_S10_START53_V7C-v1/AODSIM/PAT_CMG_V5_16_0_1377467485/HTT_24Jul_newTES_manzoni_Up_Jobs/Job_20'
p100
g66
sS'GluGluToHToTauTau_M-90_8TeV-powheg-pythia6/Summer12_DR53X-PU_S10_START53_V7C-v1/AODSIM/PAT_CMG_V5_16_0_1377467485/HTT_24Jul_newTES_manzoni_Up_Jobs/Job_18'
p101
g66
sS'GluGluToHToTauTau_M-90_8TeV-powheg-pythia6/Summer12_DR53X-PU_S10_START53_V7C-v1/AODSIM/PAT_CMG_V5_16_0_1377467485/HTT_24Jul_newTES_manzoni_Up_Jobs/Job_15'
p102
g66
sS'GluGluToHToTauTau_M-90_8TeV-powheg-pythia6/Summer12_DR53X-PU_S10_START53_V7C-v1/AODSIM/PAT_CMG_V5_16_0_1377467485/HTT_24Jul_newTES_manzoni_Up_Jobs/Job_14'
p103
g66
sS'GluGluToHToTauTau_M-90_8TeV-powheg-pythia6/Summer12_DR53X-PU_S10_START53_V7C-v1/AODSIM/PAT_CMG_V5_16_0_1377467485/HTT_24Jul_newTES_manzoni_Up_Jobs/Job_17'
p104
g66
sS'GluGluToHToTauTau_M-90_8TeV-powheg-pythia6/Summer12_DR53X-PU_S10_START53_V7C-v1/AODSIM/PAT_CMG_V5_16_0_1377467485/HTT_24Jul_newTES_manzoni_Up_Jobs/Job_16'
p105
g66
sS'GluGluToHToTauTau_M-90_8TeV-powheg-pythia6/Summer12_DR53X-PU_S10_START53_V7C-v1/AODSIM/PAT_CMG_V5_16_0_1377467485/HTT_24Jul_newTES_manzoni_Up_Jobs/Job_11'
p106
g66
sS'GluGluToHToTauTau_M-90_8TeV-powheg-pythia6/Summer12_DR53X-PU_S10_START53_V7C-v1/AODSIM/PAT_CMG_V5_16_0_1377467485/HTT_24Jul_newTES_manzoni_Up_Jobs/Job_10'
p107
g66
sS'GluGluToHToTauTau_M-90_8TeV-powheg-pythia6/Summer12_DR53X-PU_S10_START53_V7C-v1/AODSIM/PAT_CMG_V5_16_0_1377467485/HTT_24Jul_newTES_manzoni_Up_Jobs/Job_13'
p108
g66
sS'GluGluToHToTauTau_M-90_8TeV-powheg-pythia6/Summer12_DR53X-PU_S10_START53_V7C-v1/AODSIM/PAT_CMG_V5_16_0_1377467485/HTT_24Jul_newTES_manzoni_Up_Jobs/Job_12'
p109
g66
sssS'CheckDatasetExists'
p110
(dp111
S'Dataset'
p112
S'/GluGluToHToTauTau_M-90_8TeV-powheg-pythia6/Summer12_DR53X-PU_S10_START53_V7C-v1/AODSIM/PAT_CMG_V5_16_0'
p113
ssS'GenerateMask'
p114
(dp115
g3
(dp116
VPathList
p117
(lp118
V/store/cmst3/group/cmgtools/CMG/VBF_HToTauTau_M-150_8TeV-powheg-pythia6/Summer12_DR53X-PU_S10_START53_V7A-v1/AODSIM/PAT_CMG_V5_16_0
p119
asVStageHost
p120
Vcastorcms
p121
sVPrimaryDatasetFraction
p122
F1.0
sVFilesGood
p123
I101
sVPrimaryDatasetEntries
p124
I997993
sVReportVersion
p125
I3
sVFiles
p126
(dp127
V/store/cmst3/group/cmgtools/CMG/VBF_HToTauTau_M-150_8TeV-powheg-pythia6/Summer12_DR53X-PU_S10_START53_V7A-v1/AODSIM/PAT_CMG_V5_16_0/cmgTuple_71_1_uQZ.root
p128
(lp129
I01
aI10000
asV/store/cmst3/group/cmgtools/CMG/VBF_HToTauTau_M-150_8TeV-powheg-pythia6/Summer12_DR53X-PU_S10_START53_V7A-v1/AODSIM/PAT_CMG_V5_16_0/cmgTuple_35_1_OfL.root
p130
(lp131
I01
aI10000
asV/store/cmst3/group/cmgtools/CMG/VBF_HToTauTau_M-150_8TeV-powheg-pythia6/Summer12_DR53X-PU_S10_START53_V7A-v1/AODSIM/PAT_CMG_V5_16_0/cmgTuple_49_1_QG7.root
p132
(lp133
I01
aI10000
asV/store/cmst3/group/cmgtools/CMG/VBF_HToTauTau_M-150_8TeV-powheg-pythia6/Summer12_DR53X-PU_S10_START53_V7A-v1/AODSIM/PAT_CMG_V5_16_0/cmgTuple_73_1_2z4.root
p134
(lp135
I01
aI10000
asV/store/cmst3/group/cmgtools/CMG/VBF_HToTauTau_M-150_8TeV-powheg-pythia6/Summer12_DR53X-PU_S10_START53_V7A-v1/AODSIM/PAT_CMG_V5_16_0/cmgTuple_50_1_IAj.root
p136
(lp137
I01
aI10000
asV/store/cmst3/group/cmgtools/CMG/VBF_HToTauTau_M-150_8TeV-powheg-pythia6/Summer12_DR53X-PU_S10_START53_V7A-v1/AODSIM/PAT_CMG_V5_16_0/cmgTuple_37_1_j3Y.root
p138
(lp139
I01
aI10000
asV/store/cmst3/group/cmgtools/CMG/VBF_HToTauTau_M-150_8TeV-powheg-pythia6/Summer12_DR53X-PU_S10_START53_V7A-v1/AODSIM/PAT_CMG_V5_16_0/cmgTuple_43_1_gyh.root
p140
(lp141
I01
aI10000
asV/store/cmst3/group/cmgtools/CMG/VBF_HToTauTau_M-150_8TeV-powheg-pythia6/Summer12_DR53X-PU_S10_START53_V7A-v1/AODSIM/PAT_CMG_V5_16_0/cmgTuple_28_1_fZO.root
p142
(lp143
I01
aI10000
asV/store/cmst3/group/cmgtools/CMG/VBF_HToTauTau_M-150_8TeV-powheg-pythia6/Summer12_DR53X-PU_S10_START53_V7A-v1/AODSIM/PAT_CMG_V5_16_0/cmgTuple_80_1_hDf.root
p144
(lp145
I01
aI10000
asV/store/cmst3/group/cmgtools/CMG/VBF_HToTauTau_M-150_8TeV-powheg-pythia6/Summer12_DR53X-PU_S10_START53_V7A-v1/AODSIM/PAT_CMG_V5_16_0/cmgTuple_96_1_KC3.root
p146
(lp147
I01
aI10000
asV/store/cmst3/group/cmgtools/CMG/VBF_HToTauTau_M-150_8TeV-powheg-pythia6/Summer12_DR53X-PU_S10_START53_V7A-v1/AODSIM/PAT_CMG_V5_16_0/cmgTuple_8_1_SvD.root
p148
(lp149
I01
aI10000
asV/store/cmst3/group/cmgtools/CMG/VBF_HToTauTau_M-150_8TeV-powheg-pythia6/Summer12_DR53X-PU_S10_START53_V7A-v1/AODSIM/PAT_CMG_V5_16_0/cmgTuple_33_1_wdh.root
p150
(lp151
I01
aI10000
asV/store/cmst3/group/cmgtools/CMG/VBF_HToTauTau_M-150_8TeV-powheg-pythia6/Summer12_DR53X-PU_S10_START53_V7A-v1/AODSIM/PAT_CMG_V5_16_0/cmgTuple_29_1_Wfp.root
p152
(lp153
I01
aI10000
asV/store/cmst3/group/cmgtools/CMG/VBF_HToTauTau_M-150_8TeV-powheg-pythia6/Summer12_DR53X-PU_S10_START53_V7A-v1/AODSIM/PAT_CMG_V5_16_0/cmgTuple_87_1_ByT.root
p154
(lp155
I01
aI10000
asV/store/cmst3/group/cmgtools/CMG/VBF_HToTauTau_M-150_8TeV-powheg-pythia6/Summer12_DR53X-PU_S10_START53_V7A-v1/AODSIM/PAT_CMG_V5_16_0/cmgTuple_18_1_Sic.root
p156
(lp157
I01
aI10000
asV/store/cmst3/group/cmgtools/CMG/VBF_HToTauTau_M-150_8TeV-powheg-pythia6/Summer12_DR53X-PU_S10_START53_V7A-v1/AODSIM/PAT_CMG_V5_16_0/cmgTuple_90_1_mfS.root
p158
(lp159
I01
aI10000
asV/store/cmst3/group/cmgtools/CMG/VBF_HToTauTau_M-150_8TeV-powheg-pythia6/Summer12_DR53X-PU_S10_START53_V7A-v1/AODSIM/PAT_CMG_V5_16_0/cmgTuple_21_1_n9z.root
p160
(lp161
I01
aI10000
asV/store/cmst3/group/cmgtools/CMG/VBF_HToTauTau_M-150_8TeV-powheg-pythia6/Summer12_DR53X-PU_S10_START53_V7A-v1/AODSIM/PAT_CMG_V5_16_0/cmgTuple_63_1_gBO.root
p162
(lp163
I01
aI10000
asV/store/cmst3/group/cmgtools/CMG/VBF_HToTauTau_M-150_8TeV-powheg-pythia6/Summer12_DR53X-PU_S10_START53_V7A-v1/AODSIM/PAT_CMG_V5_16_0/cmgTuple_46_1_wK1.root
p164
(lp165
I01
aI10000
asV/store/cmst3/group/cmgtools/CMG/VBF_HToTauTau_M-150_8TeV-powheg-pythia6/Summer12_DR53X-PU_S10_START53_V7A-v1/AODSIM/PAT_CMG_V5_16_0/cmgTuple_86_1_OPS.root
p166
(lp167
I01
aI10000
asV/store/cmst3/group/cmgtools/CMG/VBF_HToTauTau_M-150_8TeV-powheg-pythia6/Summer12_DR53X-PU_S10_START53_V7A-v1/AODSIM/PAT_CMG_V5_16_0/cmgTuple_1_1_xXV.root
p168
(lp169
I01
aI10000
asV/store/cmst3/group/cmgtools/CMG/VBF_HToTauTau_M-150_8TeV-powheg-pythia6/Summer12_DR53X-PU_S10_START53_V7A-v1/AODSIM/PAT_CMG_V5_16_0/cmgTuple_85_1_6aZ.root
p170
(lp171
I01
aI10000
asV/store/cmst3/group/cmgtools/CMG/VBF_HToTauTau_M-150_8TeV-powheg-pythia6/Summer12_DR53X-PU_S10_START53_V7A-v1/AODSIM/PAT_CMG_V5_16_0/cmgTuple_38_1_aTt.root
p172
(lp173
I01
aI10000
asV/store/cmst3/group/cmgtools/CMG/VBF_HToTauTau_M-150_8TeV-powheg-pythia6/Summer12_DR53X-PU_S10_START53_V7A-v1/AODSIM/PAT_CMG_V5_16_0/cmgTuple_41_1_UCm.root
p174
(lp175
I01
aI10000
asV/store/cmst3/group/cmgtools/CMG/VBF_HToTauTau_M-150_8TeV-powheg-pythia6/Summer12_DR53X-PU_S10_START53_V7A-v1/AODSIM/PAT_CMG_V5_16_0/cmgTuple_51_1_OAS.root
p176
(lp177
I01
aI10000
asV/store/cmst3/group/cmgtools/CMG/VBF_HToTauTau_M-150_8TeV-powheg-pythia6/Summer12_DR53X-PU_S10_START53_V7A-v1/AODSIM/PAT_CMG_V5_16_0/cmgTuple_17_1_OZV.root
p178
(lp179
I01
aI10000
asV/store/cmst3/group/cmgtools/CMG/VBF_HToTauTau_M-150_8TeV-powheg-pythia6/Summer12_DR53X-PU_S10_START53_V7A-v1/AODSIM/PAT_CMG_V5_16_0/cmgTuple_61_1_JBg.root
p180
(lp181
I01
aI10000
asV/store/cmst3/group/cmgtools/CMG/VBF_HToTauTau_M-150_8TeV-powheg-pythia6/Summer12_DR53X-PU_S10_START53_V7A-v1/AODSIM/PAT_CMG_V5_16_0/cmgTuple_94_1_j1b.root
p182
(lp183
I01
aI10000
asV/store/cmst3/group/cmgtools/CMG/VBF_HToTauTau_M-150_8TeV-powheg-pythia6/Summer12_DR53X-PU_S10_START53_V7A-v1/AODSIM/PAT_CMG_V5_16_0/cmgTuple_26_1_xEr.root
p184
(lp185
I01
aI10000
asV/store/cmst3/group/cmgtools/CMG/VBF_HToTauTau_M-150_8TeV-powheg-pythia6/Summer12_DR53X-PU_S10_START53_V7A-v1/AODSIM/PAT_CMG_V5_16_0/cmgTuple_44_1_Jjh.root
p186
(lp187
I01
aI10000
asV/store/cmst3/group/cmgtools/CMG/VBF_HToTauTau_M-150_8TeV-powheg-pythia6/Summer12_DR53X-PU_S10_START53_V7A-v1/AODSIM/PAT_CMG_V5_16_0/cmgTuple_100_1_b4C.root
p188
(lp189
I01
aI10000
asV/store/cmst3/group/cmgtools/CMG/VBF_HToTauTau_M-150_8TeV-powheg-pythia6/Summer12_DR53X-PU_S10_START53_V7A-v1/AODSIM/PAT_CMG_V5_16_0/cmgTuple_95_1_O93.root
p190
(lp191
I01
aI10000
asV/store/cmst3/group/cmgtools/CMG/VBF_HToTauTau_M-150_8TeV-powheg-pythia6/Summer12_DR53X-PU_S10_START53_V7A-v1/AODSIM/PAT_CMG_V5_16_0/cmgTuple_91_1_AeG.root
p192
(lp193
I01
aI10000
asV/store/cmst3/group/cmgtools/CMG/VBF_HToTauTau_M-150_8TeV-powheg-pythia6/Summer12_DR53X-PU_S10_START53_V7A-v1/AODSIM/PAT_CMG_V5_16_0/cmgTuple_75_1_MZT.root
p194
(lp195
I01
aI10000
asV/store/cmst3/group/cmgtools/CMG/VBF_HToTauTau_M-150_8TeV-powheg-pythia6/Summer12_DR53X-PU_S10_START53_V7A-v1/AODSIM/PAT_CMG_V5_16_0/cmgTuple_70_1_AqL.root
p196
(lp197
I01
aI10000
asV/store/cmst3/group/cmgtools/CMG/VBF_HToTauTau_M-150_8TeV-powheg-pythia6/Summer12_DR53X-PU_S10_START53_V7A-v1/AODSIM/PAT_CMG_V5_16_0/cmgTuple_15_1_5Dx.root
p198
(lp199
I01
aI10000
asV/store/cmst3/group/cmgtools/CMG/VBF_HToTauTau_M-150_8TeV-powheg-pythia6/Summer12_DR53X-PU_S10_START53_V7A-v1/AODSIM/PAT_CMG_V5_16_0/cmgTuple_98_1_j0S.root
p200
(lp201
I01
aI2527
asV/store/cmst3/group/cmgtools/CMG/VBF_HToTauTau_M-150_8TeV-powheg-pythia6/Summer12_DR53X-PU_S10_START53_V7A-v1/AODSIM/PAT_CMG_V5_16_0/cmgTuple_4_1_mjM.root
p202
(lp203
I01
aI10000
asV/store/cmst3/group/cmgtools/CMG/VBF_HToTauTau_M-150_8TeV-powheg-pythia6/Summer12_DR53X-PU_S10_START53_V7A-v1/AODSIM/PAT_CMG_V5_16_0/cmgTuple_48_1_jDf.root
p204
(lp205
I01
aI10000
asV/store/cmst3/group/cmgtools/CMG/VBF_HToTauTau_M-150_8TeV-powheg-pythia6/Summer12_DR53X-PU_S10_START53_V7A-v1/AODSIM/PAT_CMG_V5_16_0/cmgTuple_30_1_UBv.root
p206
(lp207
I01
aI10000
asV/store/cmst3/group/cmgtools/CMG/VBF_HToTauTau_M-150_8TeV-powheg-pythia6/Summer12_DR53X-PU_S10_START53_V7A-v1/AODSIM/PAT_CMG_V5_16_0/cmgTuple_93_1_AyP.root
p208
(lp209
I01
aI10000
asV/store/cmst3/group/cmgtools/CMG/VBF_HToTauTau_M-150_8TeV-powheg-pythia6/Summer12_DR53X-PU_S10_START53_V7A-v1/AODSIM/PAT_CMG_V5_16_0/cmgTuple_58_1_kX3.root
p210
(lp211
I01
aI10000
asV/store/cmst3/group/cmgtools/CMG/VBF_HToTauTau_M-150_8TeV-powheg-pythia6/Summer12_DR53X-PU_S10_START53_V7A-v1/AODSIM/PAT_CMG_V5_16_0/cmgTuple_27_1_pH1.root
p212
(lp213
I01
aI10000
asV/store/cmst3/group/cmgtools/CMG/VBF_HToTauTau_M-150_8TeV-powheg-pythia6/Summer12_DR53X-PU_S10_START53_V7A-v1/AODSIM/PAT_CMG_V5_16_0/cmgTuple_36_1_WXI.root
p214
(lp215
I01
aI10000
asV/store/cmst3/group/cmgtools/CMG/VBF_HToTauTau_M-150_8TeV-powheg-pythia6/Summer12_DR53X-PU_S10_START53_V7A-v1/AODSIM/PAT_CMG_V5_16_0/cmgTuple_60_1_uVc.root
p216
(lp217
I01
aI10000
asV/store/cmst3/group/cmgtools/CMG/VBF_HToTauTau_M-150_8TeV-powheg-pythia6/Summer12_DR53X-PU_S10_START53_V7A-v1/AODSIM/PAT_CMG_V5_16_0/cmgTuple_20_1_Qrq.root
p218
(lp219
I01
aI10000
asV/store/cmst3/group/cmgtools/CMG/VBF_HToTauTau_M-150_8TeV-powheg-pythia6/Summer12_DR53X-PU_S10_START53_V7A-v1/AODSIM/PAT_CMG_V5_16_0/cmgTuple_59_1_ZBb.root
p220
(lp221
I01
aI10000
asV/store/cmst3/group/cmgtools/CMG/VBF_HToTauTau_M-150_8TeV-powheg-pythia6/Summer12_DR53X-PU_S10_START53_V7A-v1/AODSIM/PAT_CMG_V5_16_0/cmgTuple_99_1_sZU.root
p222
(lp223
I01
aI10000
asV/store/cmst3/group/cmgtools/CMG/VBF_HToTauTau_M-150_8TeV-powheg-pythia6/Summer12_DR53X-PU_S10_START53_V7A-v1/AODSIM/PAT_CMG_V5_16_0/cmgTuple_31_1_3gA.root
p224
(lp225
I01
aI10000
asV/store/cmst3/group/cmgtools/CMG/VBF_HToTauTau_M-150_8TeV-powheg-pythia6/Summer12_DR53X-PU_S10_START53_V7A-v1/AODSIM/PAT_CMG_V5_16_0/cmgTuple_22_1_40B.root
p226
(lp227
I01
aI10000
asV/store/cmst3/group/cmgtools/CMG/VBF_HToTauTau_M-150_8TeV-powheg-pythia6/Summer12_DR53X-PU_S10_START53_V7A-v1/AODSIM/PAT_CMG_V5_16_0/cmgTuple_54_1_y5Y.root
p228
(lp229
I01
aI10000
asV/store/cmst3/group/cmgtools/CMG/VBF_HToTauTau_M-150_8TeV-powheg-pythia6/Summer12_DR53X-PU_S10_START53_V7A-v1/AODSIM/PAT_CMG_V5_16_0/cmgTuple_82_1_f2v.root
p230
(lp231
I01
aI10000
asV/store/cmst3/group/cmgtools/CMG/VBF_HToTauTau_M-150_8TeV-powheg-pythia6/Summer12_DR53X-PU_S10_START53_V7A-v1/AODSIM/PAT_CMG_V5_16_0/cmgTuple_16_1_oUx.root
p232
(lp233
I01
aI10000
asV/store/cmst3/group/cmgtools/CMG/VBF_HToTauTau_M-150_8TeV-powheg-pythia6/Summer12_DR53X-PU_S10_START53_V7A-v1/AODSIM/PAT_CMG_V5_16_0/cmgTuple_72_1_Xve.root
p234
(lp235
I01
aI10000
asV/store/cmst3/group/cmgtools/CMG/VBF_HToTauTau_M-150_8TeV-powheg-pythia6/Summer12_DR53X-PU_S10_START53_V7A-v1/AODSIM/PAT_CMG_V5_16_0/cmgTuple_7_1_BX1.root
p236
(lp237
I01
aI10000
asV/store/cmst3/group/cmgtools/CMG/VBF_HToTauTau_M-150_8TeV-powheg-pythia6/Summer12_DR53X-PU_S10_START53_V7A-v1/AODSIM/PAT_CMG_V5_16_0/cmgTuple_76_1_N68.root
p238
(lp239
I01
aI10000
asV/store/cmst3/group/cmgtools/CMG/VBF_HToTauTau_M-150_8TeV-powheg-pythia6/Summer12_DR53X-PU_S10_START53_V7A-v1/AODSIM/PAT_CMG_V5_16_0/cmgTuple_74_1_eaz.root
p240
(lp241
I01
aI10000
asV/store/cmst3/group/cmgtools/CMG/VBF_HToTauTau_M-150_8TeV-powheg-pythia6/Summer12_DR53X-PU_S10_START53_V7A-v1/AODSIM/PAT_CMG_V5_16_0/cmgTuple_42_1_h5O.root
p242
(lp243
I01
aI10000
asV/store/cmst3/group/cmgtools/CMG/VBF_HToTauTau_M-150_8TeV-powheg-pythia6/Summer12_DR53X-PU_S10_START53_V7A-v1/AODSIM/PAT_CMG_V5_16_0/cmgTuple_89_1_OQN.root
p244
(lp245
I01
aI10000
asV/store/cmst3/group/cmgtools/CMG/VBF_HToTauTau_M-150_8TeV-powheg-pythia6/Summer12_DR53X-PU_S10_START53_V7A-v1/AODSIM/PAT_CMG_V5_16_0/cmgTuple_14_1_tXF.root
p246
(lp247
I01
aI10000
asV/store/cmst3/group/cmgtools/CMG/VBF_HToTauTau_M-150_8TeV-powheg-pythia6/Summer12_DR53X-PU_S10_START53_V7A-v1/AODSIM/PAT_CMG_V5_16_0/cmgTuple_79_1_FTw.root
p248
(lp249
I01
aI10000
asV/store/cmst3/group/cmgtools/CMG/VBF_HToTauTau_M-150_8TeV-powheg-pythia6/Summer12_DR53X-PU_S10_START53_V7A-v1/AODSIM/PAT_CMG_V5_16_0/cmgTuple_92_1_rLh.root
p250
(lp251
I01
aI10000
asV/store/cmst3/group/cmgtools/CMG/VBF_HToTauTau_M-150_8TeV-powheg-pythia6/Summer12_DR53X-PU_S10_START53_V7A-v1/AODSIM/PAT_CMG_V5_16_0/cmgTuple_57_1_3BA.root
p252
(lp253
I01
aI10000
asV/store/cmst3/group/cmgtools/CMG/VBF_HToTauTau_M-150_8TeV-powheg-pythia6/Summer12_DR53X-PU_S10_START53_V7A-v1/AODSIM/PAT_CMG_V5_16_0/cmgTuple_40_1_LO8.root
p254
(lp255
I01
aI10000
asV/store/cmst3/group/cmgtools/CMG/VBF_HToTauTau_M-150_8TeV-powheg-pythia6/Summer12_DR53X-PU_S10_START53_V7A-v1/AODSIM/PAT_CMG_V5_16_0/cmgTuple_6_1_VqT.root
p256
(lp257
I01
aI10000
asV/store/cmst3/group/cmgtools/CMG/VBF_HToTauTau_M-150_8TeV-powheg-pythia6/Summer12_DR53X-PU_S10_START53_V7A-v1/AODSIM/PAT_CMG_V5_16_0/cmgTuple_101_1_5rv.root
p258
(lp259
I01
aI5466
asV/store/cmst3/group/cmgtools/CMG/VBF_HToTauTau_M-150_8TeV-powheg-pythia6/Summer12_DR53X-PU_S10_START53_V7A-v1/AODSIM/PAT_CMG_V5_16_0/cmgTuple_66_1_RHh.root
p260
(lp261
I01
aI10000
asV/store/cmst3/group/cmgtools/CMG/VBF_HToTauTau_M-150_8TeV-powheg-pythia6/Summer12_DR53X-PU_S10_START53_V7A-v1/AODSIM/PAT_CMG_V5_16_0/cmgTuple_34_1_9tj.root
p262
(lp263
I01
aI10000
asV/store/cmst3/group/cmgtools/CMG/VBF_HToTauTau_M-150_8TeV-powheg-pythia6/Summer12_DR53X-PU_S10_START53_V7A-v1/AODSIM/PAT_CMG_V5_16_0/cmgTuple_69_1_2uQ.root
p264
(lp265
I01
aI10000
asV/store/cmst3/group/cmgtools/CMG/VBF_HToTauTau_M-150_8TeV-powheg-pythia6/Summer12_DR53X-PU_S10_START53_V7A-v1/AODSIM/PAT_CMG_V5_16_0/cmgTuple_56_1_QAc.root
p266
(lp267
I01
aI10000
asV/store/cmst3/group/cmgtools/CMG/VBF_HToTauTau_M-150_8TeV-powheg-pythia6/Summer12_DR53X-PU_S10_START53_V7A-v1/AODSIM/PAT_CMG_V5_16_0/cmgTuple_83_1_AR0.root
p268
(lp269
I01
aI10000
asV/store/cmst3/group/cmgtools/CMG/VBF_HToTauTau_M-150_8TeV-powheg-pythia6/Summer12_DR53X-PU_S10_START53_V7A-v1/AODSIM/PAT_CMG_V5_16_0/cmgTuple_62_1_myC.root
p270
(lp271
I01
aI10000
asV/store/cmst3/group/cmgtools/CMG/VBF_HToTauTau_M-150_8TeV-powheg-pythia6/Summer12_DR53X-PU_S10_START53_V7A-v1/AODSIM/PAT_CMG_V5_16_0/cmgTuple_47_1_anm.root
p272
(lp273
I01
aI10000
asV/store/cmst3/group/cmgtools/CMG/VBF_HToTauTau_M-150_8TeV-powheg-pythia6/Summer12_DR53X-PU_S10_START53_V7A-v1/AODSIM/PAT_CMG_V5_16_0/cmgTuple_84_1_mcc.root
p274
(lp275
I01
aI10000
asV/store/cmst3/group/cmgtools/CMG/VBF_HToTauTau_M-150_8TeV-powheg-pythia6/Summer12_DR53X-PU_S10_START53_V7A-v1/AODSIM/PAT_CMG_V5_16_0/cmgTuple_25_1_E0F.root
p276
(lp277
I01
aI10000
asV/store/cmst3/group/cmgtools/CMG/VBF_HToTauTau_M-150_8TeV-powheg-pythia6/Summer12_DR53X-PU_S10_START53_V7A-v1/AODSIM/PAT_CMG_V5_16_0/cmgTuple_65_1_A9T.root
p278
(lp279
I01
aI10000
asV/store/cmst3/group/cmgtools/CMG/VBF_HToTauTau_M-150_8TeV-powheg-pythia6/Summer12_DR53X-PU_S10_START53_V7A-v1/AODSIM/PAT_CMG_V5_16_0/cmgTuple_2_1_ztk.root
p280
(lp281
I01
aI10000
asV/store/cmst3/group/cmgtools/CMG/VBF_HToTauTau_M-150_8TeV-powheg-pythia6/Summer12_DR53X-PU_S10_START53_V7A-v1/AODSIM/PAT_CMG_V5_16_0/cmgTuple_19_1_89H.root
p282
(lp283
I01
aI10000
asV/store/cmst3/group/cmgtools/CMG/VBF_HToTauTau_M-150_8TeV-powheg-pythia6/Summer12_DR53X-PU_S10_START53_V7A-v1/AODSIM/PAT_CMG_V5_16_0/cmgTuple_64_1_RZX.root
p284
(lp285
I01
aI10000
asV/store/cmst3/group/cmgtools/CMG/VBF_HToTauTau_M-150_8TeV-powheg-pythia6/Summer12_DR53X-PU_S10_START53_V7A-v1/AODSIM/PAT_CMG_V5_16_0/cmgTuple_78_1_HDk.root
p286
(lp287
I01
aI10000
asV/store/cmst3/group/cmgtools/CMG/VBF_HToTauTau_M-150_8TeV-powheg-pythia6/Summer12_DR53X-PU_S10_START53_V7A-v1/AODSIM/PAT_CMG_V5_16_0/cmgTuple_53_1_FWg.root
p288
(lp289
I01
aI10000
asV/store/cmst3/group/cmgtools/CMG/VBF_HToTauTau_M-150_8TeV-powheg-pythia6/Summer12_DR53X-PU_S10_START53_V7A-v1/AODSIM/PAT_CMG_V5_16_0/cmgTuple_3_1_1i1.root
p290
(lp291
I01
aI10000
asV/store/cmst3/group/cmgtools/CMG/VBF_HToTauTau_M-150_8TeV-powheg-pythia6/Summer12_DR53X-PU_S10_START53_V7A-v1/AODSIM/PAT_CMG_V5_16_0/cmgTuple_12_1_FQ6.root
p292
(lp293
I01
aI10000
asV/store/cmst3/group/cmgtools/CMG/VBF_HToTauTau_M-150_8TeV-powheg-pythia6/Summer12_DR53X-PU_S10_START53_V7A-v1/AODSIM/PAT_CMG_V5_16_0/cmgTuple_32_1_ptE.root
p294
(lp295
I01
aI10000
asV/store/cmst3/group/cmgtools/CMG/VBF_HToTauTau_M-150_8TeV-powheg-pythia6/Summer12_DR53X-PU_S10_START53_V7A-v1/AODSIM/PAT_CMG_V5_16_0/cmgTuple_81_1_1Qe.root
p296
(lp297
I01
aI10000
asV/store/cmst3/group/cmgtools/CMG/VBF_HToTauTau_M-150_8TeV-powheg-pythia6/Summer12_DR53X-PU_S10_START53_V7A-v1/AODSIM/PAT_CMG_V5_16_0/cmgTuple_67_1_yWh.root
p298
(lp299
I01
aI10000
asV/store/cmst3/group/cmgtools/CMG/VBF_HToTauTau_M-150_8TeV-powheg-pythia6/Summer12_DR53X-PU_S10_START53_V7A-v1/AODSIM/PAT_CMG_V5_16_0/cmgTuple_11_1_vTv.root
p300
(lp301
I01
aI10000
asV/store/cmst3/group/cmgtools/CMG/VBF_HToTauTau_M-150_8TeV-powheg-pythia6/Summer12_DR53X-PU_S10_START53_V7A-v1/AODSIM/PAT_CMG_V5_16_0/cmgTuple_23_1_na0.root
p302
(lp303
I01
aI10000
asV/store/cmst3/group/cmgtools/CMG/VBF_HToTauTau_M-150_8TeV-powheg-pythia6/Summer12_DR53X-PU_S10_START53_V7A-v1/AODSIM/PAT_CMG_V5_16_0/cmgTuple_39_1_4op.root
p304
(lp305
I01
aI10000
asV/store/cmst3/group/cmgtools/CMG/VBF_HToTauTau_M-150_8TeV-powheg-pythia6/Summer12_DR53X-PU_S10_START53_V7A-v1/AODSIM/PAT_CMG_V5_16_0/cmgTuple_10_1_rkN.root
p306
(lp307
I01
aI10000
asV/store/cmst3/group/cmgtools/CMG/VBF_HToTauTau_M-150_8TeV-powheg-pythia6/Summer12_DR53X-PU_S10_START53_V7A-v1/AODSIM/PAT_CMG_V5_16_0/cmgTuple_24_1_Ux7.root
p308
(lp309
I01
aI10000
asV/store/cmst3/group/cmgtools/CMG/VBF_HToTauTau_M-150_8TeV-powheg-pythia6/Summer12_DR53X-PU_S10_START53_V7A-v1/AODSIM/PAT_CMG_V5_16_0/cmgTuple_52_1_AA6.root
p310
(lp311
I01
aI10000
asV/store/cmst3/group/cmgtools/CMG/VBF_HToTauTau_M-150_8TeV-powheg-pythia6/Summer12_DR53X-PU_S10_START53_V7A-v1/AODSIM/PAT_CMG_V5_16_0/cmgTuple_77_1_BzX.root
p312
(lp313
I01
aI10000
asV/store/cmst3/group/cmgtools/CMG/VBF_HToTauTau_M-150_8TeV-powheg-pythia6/Summer12_DR53X-PU_S10_START53_V7A-v1/AODSIM/PAT_CMG_V5_16_0/cmgTuple_68_1_5mt.root
p314
(lp315
I01
aI10000
asV/store/cmst3/group/cmgtools/CMG/VBF_HToTauTau_M-150_8TeV-powheg-pythia6/Summer12_DR53X-PU_S10_START53_V7A-v1/AODSIM/PAT_CMG_V5_16_0/cmgTuple_88_1_yCk.root
p316
(lp317
I01
aI10000
asV/store/cmst3/group/cmgtools/CMG/VBF_HToTauTau_M-150_8TeV-powheg-pythia6/Summer12_DR53X-PU_S10_START53_V7A-v1/AODSIM/PAT_CMG_V5_16_0/cmgTuple_13_1_539.root
p318
(lp319
I01
aI10000
asV/store/cmst3/group/cmgtools/CMG/VBF_HToTauTau_M-150_8TeV-powheg-pythia6/Summer12_DR53X-PU_S10_START53_V7A-v1/AODSIM/PAT_CMG_V5_16_0/cmgTuple_97_1_dyg.root
p320
(lp321
I01
aI10000
asV/store/cmst3/group/cmgtools/CMG/VBF_HToTauTau_M-150_8TeV-powheg-pythia6/Summer12_DR53X-PU_S10_START53_V7A-v1/AODSIM/PAT_CMG_V5_16_0/cmgTuple_55_1_Ial.root
p322
(lp323
I01
aI10000
asV/store/cmst3/group/cmgtools/CMG/VBF_HToTauTau_M-150_8TeV-powheg-pythia6/Summer12_DR53X-PU_S10_START53_V7A-v1/AODSIM/PAT_CMG_V5_16_0/cmgTuple_9_1_7DE.root
p324
(lp325
I01
aI10000
asV/store/cmst3/group/cmgtools/CMG/VBF_HToTauTau_M-150_8TeV-powheg-pythia6/Summer12_DR53X-PU_S10_START53_V7A-v1/AODSIM/PAT_CMG_V5_16_0/cmgTuple_5_1_ND5.root
p326
(lp327
I01
aI10000
asV/store/cmst3/group/cmgtools/CMG/VBF_HToTauTau_M-150_8TeV-powheg-pythia6/Summer12_DR53X-PU_S10_START53_V7A-v1/AODSIM/PAT_CMG_V5_16_0/cmgTuple_45_1_JLX.root
p328
(lp329
I01
aI10000
assVPhysicsGroup
p330
VCMG
p331
sVFilesCount
p332
I101
sVFilesEntries
p333
I997993
sVRunList
p334
(lp335
sVValidDuplicates
p336
(dp337
sVPrimaryDataset
p338
V/VBF_HToTauTau_M-150_8TeV-powheg-pythia6/Summer12_DR53X-PU_S10_START53_V7A-v1/AODSIM
p339
sVStatus
p340
VVALID
p341
sVName
p342
V/VBF_HToTauTau_M-150_8TeV-powheg-pythia6/Summer12_DR53X-PU_S10_START53_V7A-v1/AODSIM/PAT_CMG_V5_16_0
p343
sVTopdir
p344
V/eos/cms/store/cmst3/group/cmgtools/CMG
p345
sVdata
p346
(dp347
sVFilesBad
p348
I0
sVMinRun
p349
I-1
sVAlgoList
p350
(lp351
sVTierList
p352
(lp353
sVDateCreated
p354
V1370943232
p355
sVCreatedBy
p356
Vcmgtools_group
p357
sVMaxRun
p358
I-1
sVBadJobs
p359
(lp360
ssg87
I01
ssS'MonitorJobs'
p361
(dp362
S'LSFJobStatus'
p363
(dp364
g90
S'GluGluToHToTauTau_M-90_8TeV-powheg-pythia6/Summer12_DR53X-PU_S10_START53_V7C-v1/AODSIM/PAT_CMG_V5_16_0_1377467485/HTT_24Jul_newTES_manzoni_Up_Jobs/Job_5/LSFJOB_440971103/STDOUT.gz'
p365
sg91
S'GluGluToHToTauTau_M-90_8TeV-powheg-pythia6/Summer12_DR53X-PU_S10_START53_V7C-v1/AODSIM/PAT_CMG_V5_16_0_1377467485/HTT_24Jul_newTES_manzoni_Up_Jobs/Job_4/LSFJOB_440971019/STDOUT.gz'
p366
sg92
S'GluGluToHToTauTau_M-90_8TeV-powheg-pythia6/Summer12_DR53X-PU_S10_START53_V7C-v1/AODSIM/PAT_CMG_V5_16_0_1377467485/HTT_24Jul_newTES_manzoni_Up_Jobs/Job_7/LSFJOB_440971340/STDOUT.gz'
p367
sg93
S'GluGluToHToTauTau_M-90_8TeV-powheg-pythia6/Summer12_DR53X-PU_S10_START53_V7C-v1/AODSIM/PAT_CMG_V5_16_0_1377467485/HTT_24Jul_newTES_manzoni_Up_Jobs/Job_6/LSFJOB_440971219/STDOUT.gz'
p368
sg94
S'GluGluToHToTauTau_M-90_8TeV-powheg-pythia6/Summer12_DR53X-PU_S10_START53_V7C-v1/AODSIM/PAT_CMG_V5_16_0_1377467485/HTT_24Jul_newTES_manzoni_Up_Jobs/Job_1/LSFJOB_440970710/STDOUT.gz'
p369
sg95
S'GluGluToHToTauTau_M-90_8TeV-powheg-pythia6/Summer12_DR53X-PU_S10_START53_V7C-v1/AODSIM/PAT_CMG_V5_16_0_1377467485/HTT_24Jul_newTES_manzoni_Up_Jobs/Job_3/LSFJOB_440970921/STDOUT.gz'
p370
sg96
S'GluGluToHToTauTau_M-90_8TeV-powheg-pythia6/Summer12_DR53X-PU_S10_START53_V7C-v1/AODSIM/PAT_CMG_V5_16_0_1377467485/HTT_24Jul_newTES_manzoni_Up_Jobs/Job_2/LSFJOB_440970843/STDOUT.gz'
p371
sg97
S'GluGluToHToTauTau_M-90_8TeV-powheg-pythia6/Summer12_DR53X-PU_S10_START53_V7C-v1/AODSIM/PAT_CMG_V5_16_0_1377467485/HTT_24Jul_newTES_manzoni_Up_Jobs/Job_9/LSFJOB_440971491/STDOUT.gz'
p372
sg98
S'GluGluToHToTauTau_M-90_8TeV-powheg-pythia6/Summer12_DR53X-PU_S10_START53_V7C-v1/AODSIM/PAT_CMG_V5_16_0_1377467485/HTT_24Jul_newTES_manzoni_Up_Jobs/Job_8/LSFJOB_440971415/STDOUT.gz'
p373
sg100
S'GluGluToHToTauTau_M-90_8TeV-powheg-pythia6/Summer12_DR53X-PU_S10_START53_V7C-v1/AODSIM/PAT_CMG_V5_16_0_1377467485/HTT_24Jul_newTES_manzoni_Up_Jobs/Job_20/LSFJOB_440972589/STDOUT.gz'
p374
sg101
S'GluGluToHToTauTau_M-90_8TeV-powheg-pythia6/Summer12_DR53X-PU_S10_START53_V7C-v1/AODSIM/PAT_CMG_V5_16_0_1377467485/HTT_24Jul_newTES_manzoni_Up_Jobs/Job_18/LSFJOB_440972390/STDOUT.gz'
p375
sg103
S'GluGluToHToTauTau_M-90_8TeV-powheg-pythia6/Summer12_DR53X-PU_S10_START53_V7C-v1/AODSIM/PAT_CMG_V5_16_0_1377467485/HTT_24Jul_newTES_manzoni_Up_Jobs/Job_14/LSFJOB_440972029/STDOUT.gz'
p376
sg102
S'GluGluToHToTauTau_M-90_8TeV-powheg-pythia6/Summer12_DR53X-PU_S10_START53_V7C-v1/AODSIM/PAT_CMG_V5_16_0_1377467485/HTT_24Jul_newTES_manzoni_Up_Jobs/Job_15/LSFJOB_440972122/STDOUT.gz'
p377
sg99
S'GluGluToHToTauTau_M-90_8TeV-powheg-pythia6/Summer12_DR53X-PU_S10_START53_V7C-v1/AODSIM/PAT_CMG_V5_16_0_1377467485/HTT_24Jul_newTES_manzoni_Up_Jobs/Job_19/LSFJOB_440972479/STDOUT.gz'
p378
sg104
S'GluGluToHToTauTau_M-90_8TeV-powheg-pythia6/Summer12_DR53X-PU_S10_START53_V7C-v1/AODSIM/PAT_CMG_V5_16_0_1377467485/HTT_24Jul_newTES_manzoni_Up_Jobs/Job_17/LSFJOB_440972299/STDOUT.gz'
p379
sg105
S'GluGluToHToTauTau_M-90_8TeV-powheg-pythia6/Summer12_DR53X-PU_S10_START53_V7C-v1/AODSIM/PAT_CMG_V5_16_0_1377467485/HTT_24Jul_newTES_manzoni_Up_Jobs/Job_16/LSFJOB_440972209/STDOUT.gz'
p380
sg106
S'GluGluToHToTauTau_M-90_8TeV-powheg-pythia6/Summer12_DR53X-PU_S10_START53_V7C-v1/AODSIM/PAT_CMG_V5_16_0_1377467485/HTT_24Jul_newTES_manzoni_Up_Jobs/Job_11/LSFJOB_440971688/STDOUT.gz'
p381
sg107
S'GluGluToHToTauTau_M-90_8TeV-powheg-pythia6/Summer12_DR53X-PU_S10_START53_V7C-v1/AODSIM/PAT_CMG_V5_16_0_1377467485/HTT_24Jul_newTES_manzoni_Up_Jobs/Job_10/LSFJOB_440971598/STDOUT.gz'
p382
sg108
S'GluGluToHToTauTau_M-90_8TeV-powheg-pythia6/Summer12_DR53X-PU_S10_START53_V7C-v1/AODSIM/PAT_CMG_V5_16_0_1377467485/HTT_24Jul_newTES_manzoni_Up_Jobs/Job_13/LSFJOB_440971905/STDOUT.gz'
p383
sg109
S'GluGluToHToTauTau_M-90_8TeV-powheg-pythia6/Summer12_DR53X-PU_S10_START53_V7C-v1/AODSIM/PAT_CMG_V5_16_0_1377467485/HTT_24Jul_newTES_manzoni_Up_Jobs/Job_12/LSFJOB_440971811/STDOUT.gz'
p384
ssS'LSFJobIDs'
p385
(dp386
g90
S'440971103'
p387
sg91
S'440971019'
p388
sg92
S'440971340'
p389
sg93
S'440971219'
p390
sg94
S'440970710'
p391
sg95
S'440970921'
p392
sg96
S'440970843'
p393
sg97
S'440971491'
p394
sg98
S'440971415'
p395
sg100
S'440972589'
p396
sg99
S'440972479'
p397
sg101
S'440972390'
p398
sg102
S'440972122'
p399
sg103
S'440972029'
p400
sg104
S'440972299'
p401
sg105
S'440972209'
p402
sg106
S'440971688'
p403
sg107
S'440971598'
p404
sg108
S'440971905'
p405
sg109
S'440971811'
p406
sssS'FindOnCastor'
p407
(dp408
g49
S'/eos/cms/store/cmst3/group/cmgtools/CMG'
p409
sS'Directory'
p410
S'/eos/cms/store/cmst3/group/cmgtools/CMG/GluGluToHToTauTau_M-90_8TeV-powheg-pythia6/Summer12_DR53X-PU_S10_START53_V7C-v1/AODSIM/PAT_CMG_V5_16_0'
p411
ssS'CheckConfig'
p412
(dp413
g65
g66
ssS'FullCFG'
p414
(dp415
S'FullCFG'
p416
S'GluGluToHToTauTau_M-90_8TeV-powheg-pythia6/Summer12_DR53X-PU_S10_START53_V7C-v1/AODSIM/PAT_CMG_V5_16_0_1377467485/full_cfg.py'
p417
ssS'WriteJobReport'
p418
(dp419
S'SummaryFile'
p420
S'GluGluToHToTauTau_M-90_8TeV-powheg-pythia6/Summer12_DR53X-PU_S10_START53_V7C-v1/AODSIM/PAT_CMG_V5_16_0_1377467485/resubmit.sh'
p421
ssS'ExpandConfig'
p422
(dp423
S'ExpandedFullCFG'
p424
S'GluGluToHToTauTau_M-90_8TeV-powheg-pythia6/Summer12_DR53X-PU_S10_START53_V7C-v1/AODSIM/PAT_CMG_V5_16_0_1377467485/Expandedfull_cfg.py'
p425
ssS'RunTestEvents'
p426
(dp427
g65
g66
sS'TestCFG'
p428
S'GluGluToHToTauTau_M-90_8TeV-powheg-pythia6/Summer12_DR53X-PU_S10_START53_V7C-v1/AODSIM/PAT_CMG_V5_16_0_1377467485/test_cfg.py'
p429
ssS'SourceCFG'
p430
(dp431
S'SourceCFG'
p432
S'GluGluToHToTauTau_M-90_8TeV-powheg-pythia6/Summer12_DR53X-PU_S10_START53_V7C-v1/AODSIM/PAT_CMG_V5_16_0_1377467485/source_cfg.py'
p433
ssS'CheckForWrite'
p434
(dp435
g410
g411
sS'WriteAccess'
p436
I01
ssS'WriteToDatasets'
p437
(dp438
S'Added'
p439
I00
sg47
S'/GluGluToHToTauTau_M-90_8TeV-powheg-pythia6/Summer12_DR53X-PU_S10_START53_V7C-v1/AODSIM/PAT_CMG_V5_16_0/HTT_24Jul_newTES_manzoni_Up'
p440
sS'User'
p441
g80
ssS'RunCMSBatch'
p442
(dp443
S'BatchUser'
p444
g80
sS'SampleOutputDir'
p445
S'/store/cmst3/user/manzoni/CMG/GluGluToHToTauTau_M-90_8TeV-powheg-pythia6/Summer12_DR53X-PU_S10_START53_V7C-v1/AODSIM/PAT_CMG_V5_16_0/HTT_24Jul_newTES_manzoni_Up'
p446
sS'SampleDataset'
p447
g48
sS'LSFJobsTopDir'
p448
S'GluGluToHToTauTau_M-90_8TeV-powheg-pythia6/Summer12_DR53X-PU_S10_START53_V7C-v1/AODSIM/PAT_CMG_V5_16_0_1377467485/HTT_24Jul_newTES_manzoni_Up_Jobs'
p449
ssS'CreateJobDirectory'
p450
(dp451
S'JobDir'
p452
S'GluGluToHToTauTau_M-90_8TeV-powheg-pythia6/Summer12_DR53X-PU_S10_START53_V7C-v1/AODSIM/PAT_CMG_V5_16_0_1377467485'
p453
sS'PWD'
p454
S'/afs/cern.ch/user/m/manzoni/summer13/CMGTools/CMSSW_5_3_9/src/CMGTools/H2TauTau/prod/25aug_corrMC/up/mc'
p455
ssS'CleanJobFiles'
p456
(dp457
S'Compressed'
p458
(dp459
S'CompressedFiles'
p460
(lp461
ssS'Cleaned'
p462
(dp463
S'CleanedFiles'
p464
(lp465
g425
ag429
aS'GluGluToHToTauTau_M-90_8TeV-powheg-pythia6/Summer12_DR53X-PU_S10_START53_V7C-v1/AODSIM/PAT_CMG_V5_16_0_1377467485/diTau_fullsel_tree_CMG.root'
p466
aS'GluGluToHToTauTau_M-90_8TeV-powheg-pythia6/Summer12_DR53X-PU_S10_START53_V7C-v1/AODSIM/PAT_CMG_V5_16_0_1377467485/source_cfg.pyc'
p467
aS'GluGluToHToTauTau_M-90_8TeV-powheg-pythia6/Summer12_DR53X-PU_S10_START53_V7C-v1/AODSIM/PAT_CMG_V5_16_0_1377467485/Expandedfull_cfg.pyc'
p468
asssS'CheckForMask'
p469
(dp470
g3
g116
sg87
I01
ss.