ccopy_reg
_reconstructor
p0
(cCMGTools.RootTools.statistics.Average
Average
p1
c__builtin__
object
p2
Ntp3
Rp4
(dp5
S'sumw'
p6
F145.0
sS'sumwx'
p7
F134.71303473597214
sS'sumwx2'
p8
F125.31157095320329
sS'name'
p9
S'triggerWeight'
p10
sb.