ccopy_reg
_reconstructor
p0
(cCMGTools.RootTools.statistics.Average
Average
p1
c__builtin__
object
p2
Ntp3
Rp4
(dp5
S'sumw'
p6
F69627.0
sS'sumwx'
p7
F70281.123040328617
sS'sumwx2'
p8
F81040.684416987293
sS'name'
p9
S'vertexWeight'
p10
sb.