ccopy_reg
_reconstructor
p0
(cCMGTools.RootTools.statistics.Counter
Counter
p1
c__builtin__
list
p2
(lp3
(lp4
S'all events'
p5
aI145
aa(lp6
S'at least 2 good jets'
p7
aI145
aa(lp8
S'at least 2 clean jets'
p9
aI86
aa(lp10
S'M_jj > 400.0'
p11
aI7
aa(lp12
S'delta Eta > 4.0'
p13
aI2
aa(lp14
S'no central jets'
p15
aI1
aatp16
Rp17
(dp18
S'name'
p19
S'VBF'
p20
sS'dico'
p21
(dp22
g11
I3
sg15
I5
sg5
I0
sg13
I4
sg9
I2
sg7
I1
ssb.