ccopy_reg
_reconstructor
p0
(cCMGTools.RootTools.statistics.Counter
Counter
p1
c__builtin__
list
p2
(lp3
(lp4
S'all events'
p5
aI0
aa(lp6
S'gen Z mass > 50'
p7
aI0
aatp8
Rp9
(dp10
S'name'
p11
S'EmbedWeighter'
p12
sS'dico'
p13
(dp14
g5
I0
sg7
I1
ssb.