ccopy_reg
_reconstructor
p0
(cCMGTools.RootTools.statistics.Average
Average
p1
c__builtin__
object
p2
Ntp3
Rp4
(dp5
S'sumw'
p6
F69627.0
sS'sumwx'
p7
F61187.01008152026
sS'sumwx2'
p8
F53834.1062557736
sS'name'
p9
S'eff_MC'
p10
sb.