ccopy_reg
_reconstructor
p0
(cCMGTools.RootTools.statistics.Average
Average
p1
c__builtin__
object
p2
Ntp3
Rp4
(dp5
S'sumw'
p6
F1773.0
sS'sumwx'
p7
F1869.6152553533286
sS'sumwx2'
p8
F1971.6414392594311
sS'name'
p9
S'triggerWeight'
p10
sb.