ccopy_reg
_reconstructor
p0
(cCMGTools.RootTools.statistics.Average
Average
p1
c__builtin__
object
p2
Ntp3
Rp4
(dp5
S'sumw'
p6
F1773.0
sS'sumwx'
p7
F1590.739971087467
sS'sumwx2'
p8
F1431.7640534206446
sS'name'
p9
S'eff_data'
p10
sb.