ccopy_reg
_reconstructor
p0
(cCMGTools.RootTools.statistics.Average
Average
p1
c__builtin__
object
p2
Ntp3
Rp4
(dp5
S'sumw'
p6
F1773.0
sS'sumwx'
p7
F1781.6726454074092
sS'sumwx2'
p8
F1795.9560021282609
sS'name'
p9
S'triggerWeight'
p10
sb.