ccopy_reg
_reconstructor
p0
(cCMGTools.RootTools.fwlite.Config
Config
p1
c__builtin__
object
p2
Ntp3
Rp4
(dp5
S'components'
p6
(lp7
g0
(cCMGTools.RootTools.fwlite.Config
MCComponent
p8
g2
Ntp9
Rp10
(dp11
S'files'
p12
(lp13
S'root://eoscms//eos/cms/store/cmst3/user/manzoni/CMG/SUSYGluGluToHToTauTau_M-300_8TeV-pythia6-tauola/Summer12_DR53X-PU_S10_START53_V7A-v1/AODSIM/PAT_CMG_V5_16_0/HTT_13Sep_manzoni_MuTau_Nom/tauMu_fullsel_tree_CMG_1.root'
p14
asS'splitFactor'
p15
I50
sS'effCorrFactor'
p16
I1
sS'xSection'
p17
F1.0
sS'puFileData'
p18
S'/afs/cern.ch/user/a/agilbert/public/HTT_Pileup/12-06-13/Data_Pileup_2012_ReReco-600bins.root'
p19
sS'nGenEvents'
p20
F910976.48947199993
sS'intLumi'
p21
F1.0
sS'isEmbed'
p22
I00
sS'name'
p23
S'HiggsSUSYGluGlu300_Chunk0'
p24
sS'isData'
p25
I00
sS'triggers'
p26
(lp27
S'HLT_IsoMu24_eta2p1_v13'
p28
aS'HLT_IsoMu18_eta2p1_MediumIsoPFTau25_Trk1_eta2p1_v4'
p29
asS'addWeight'
p30
F1.0
sS'jetScale'
p31
F1.0
sS'dataset_entries'
p32
I141299
sS'puFileMC'
p33
S'/afs/cern.ch/user/a/agilbert/public/HTT_Pileup/07-01-13/MC_Summer12_PU_S10-600bins.root'
p34
sS'isMC'
p35
I01
sS'jetSmear'
p36
F0.0
sbasS'sequence'
p37
g0
(cCMGTools.RootTools.fwlite.Config
Sequence
p38
c__builtin__
list
p39
(lp40
g0
(cCMGTools.RootTools.fwlite.Config
Analyzer
p41
g2
Ntp42
Rp43
(dp44
g23
S'TriggerAnalyzer'
p45
sS'verbose'
p46
I00
sbag0
(g41
g2
Ntp47
Rp48
(dp49
g46
I00
sS'fixedWeight'
p50
I1
sS'goodVertices'
p51
S'offlinePrimaryVertices'
p52
sg23
S'VertexAnalyzer'
p53
sbag0
(g41
g2
Ntp54
Rp55
(dp56
g46
I00
sS'eta2'
p57
F2.1000000000000001
sS'iso1'
p58
I999
sS'iso2'
p59
F0.10000000000000001
sS'm_max'
p60
I99999
sS'm_min'
p61
I10
sS'eta1'
p62
F2.2999999999999998
sS'pt2'
p63
I18
sS'pt1'
p64
I20
sg23
S'TauMuAnalyzer'
p65
sbag0
(g41
g2
Ntp66
Rp67
(dp68
g23
S'VBFAnalyzer'
p69
sS'btagSFseed'
p70
I123456
sS'relaxJetId'
p71
I00
sS'jetCol'
p72
S'cmgPFJetSel'
p73
sS'jetPt'
p74
I30
sS'cjvPtCut'
p75
F30.0
sS'Mjj'
p76
I400
sS'deltaEta'
p77
F4.0
sS'jetEta'
p78
F4.7000000000000002
sS'looseJetPt'
p79
I20
sS'vbfMvaWeights'
p80
S'/afs/cern.ch/user/m/manzoni/summer13/CMGTools/CMSSW_5_3_9/src/CMGTools/H2TauTau/data/VBFMVA_BDTG_HCP_52X.weights.xml'
p81
sg46
I00
sbag0
(g41
g2
Ntp82
Rp83
(dp84
S'true'
p85
I01
sg23
S'PileUpAnalyzer'
p86
sg46
I00
sbag0
(g41
g2
Ntp87
Rp88
(dp89
S'isRecHit'
p90
I00
sg23
S'EmbedWeighter'
p91
sg46
I00
sbag0
(g41
g2
Ntp92
Rp93
(dp94
S'lepton'
p95
S'leg1'
p96
sS'effWeight'
p97
S'effTau2012AB'
p98
sS'effWeightMC'
p99
S'effTau2012MC'
p100
sg23
S'LeptonWeighter_tau'
p101
sg46
I00
sbag0
(g41
g2
Ntp102
Rp103
(dp104
g95
S'leg2'
p105
sg97
S'effMu2012AB'
p106
sg99
S'effMu2012MC'
p107
sg23
S'LeptonWeighter_mu'
p108
sg46
I00
sbag0
(g41
g2
Ntp109
Rp110
(dp111
g23
S'H2TauTauTreeProducerTauMu'
p112
sg46
I00
sbatp113
Rp114
sb.