ccopy_reg
_reconstructor
p0
(cCMGTools.RootTools.statistics.Average
Average
p1
c__builtin__
object
p2
Ntp3
Rp4
(dp5
S'sumw'
p6
F69627.0
sS'sumwx'
p7
F64547.468604353046
sS'sumwx2'
p8
F59930.189403851255
sS'name'
p9
S'eff_data'
p10
sb.