ccopy_reg
_reconstructor
p0
(cCMGTools.RootTools.statistics.Average
Average
p1
c__builtin__
object
p2
Ntp3
Rp4
(dp5
S'sumw'
p6
F145.0
sS'sumwx'
p7
F113.61162539111011
sS'sumwx2'
p8
F89.235105272893122
sS'name'
p9
S'eff_MC'
p10
sb.