ccopy_reg
_reconstructor
p0
(cCMGTools.RootTools.statistics.Average
Average
p1
c__builtin__
object
p2
Ntp3
Rp4
(dp5
S'sumw'
p6
F145.0
sS'sumwx'
p7
F147.7482718162826
sS'sumwx2'
p8
F150.79863787372568
sS'name'
p9
S'weight'
p10
sb.